 IlmImf_dll_d

 Timestamp is 44d97e71 (Tue Aug 08 23:19:29 2006)

 Preferred load address is 10000000

 Start         Length     Name                   Class
 0001:00000000 0005d3edH .textbss                DATA
 0002:00000000 000b7764H .text                   CODE
 0002:000b7770 0000c994H .text$x                 CODE
 0002:000c4110 0000109cH .text$yd                CODE
 0003:00000000 00000104H .CRT$XCA                DATA
 0003:00000104 00000104H .CRT$XCZ                DATA
 0003:00000208 00000104H .CRT$XIA                DATA
 0003:0000030c 00000104H .CRT$XIAA               DATA
 0003:00000410 00000104H .CRT$XIC                DATA
 0003:00000514 00000104H .CRT$XIZ                DATA
 0003:00000620 0000c8f9H .rdata                  DATA
 0003:0000cf1c 00000157H .rdata$debug            DATA
 0003:0000d074 00002006H .rdata$r                DATA
 0003:0000f07c 00000104H .rtc$IAA                DATA
 0003:0000f180 000001feH .rtc$IMZ                DATA
 0003:0000f380 00000104H .rtc$IZZ                DATA
 0003:0000f484 00000104H .rtc$TAA                DATA
 0003:0000f588 000001feH .rtc$TMZ                DATA
 0003:0000f788 00000104H .rtc$TZZ                DATA
 0003:0000f890 0000bd65H .xdata$x                DATA
 0003:0001b5f5 00000000H .edata                  DATA
 0004:00000000 00001296H .data                   DATA
 0004:00001298 00000960H .bss                    DATA
 0005:00000000 0000008cH .idata$2                DATA
 0005:0000008c 00000014H .idata$3                DATA
 0005:000000a0 00000480H .idata$4                DATA
 0005:00000520 00000480H .idata$5                DATA
 0005:000009a0 00001f95H .idata$6                DATA

  Address         Publics by Value              Rva+Base       Lib:Object

 0000:00000000       __except_list              00000000     <absolute>
 0000:00000000       ___safe_se_handler_table   00000000     <absolute>
 0000:00000000       ___safe_se_handler_count   00000000     <absolute>
 0000:00009876       __fltused                  00009876     <absolute>
 0000:00009876       __ldused                   00009876     <absolute>
 0000:00000000       ___ImageBase               10000000     <linker-defined>
 0001:00000000       __enc$textbss$begin        10001000     <linker-defined>
 0001:0005d3ed       __enc$textbss$end          1005e3ed     <linker-defined>
 0002:00008550       ??0Attribute@Imf@@QAE@XZ   10067550 f   ImfAttribute.obj
 0002:000085a0       ??_GAttribute@Imf@@UAEPAXI@Z 100675a0 f i ImfAttribute.obj
 0002:000085a0       ??_EAttribute@Imf@@UAEPAXI@Z 100675a0 f i ImfAttribute.obj
 0002:00008610       ??1Attribute@Imf@@UAE@XZ   10067610 f   ImfAttribute.obj
 0002:00008650       ?typeMap@?A0xa1908c12@Imf@@YAAAVLockedTypeMap@12@XZ 10067650 f   ImfAttribute.obj
 0002:00008800       ??0Lock@IlmThread@@QAE@ABVMutex@1@_N@Z 10067800 f i ImfAttribute.obj
 0002:00008880       ??1Lock@IlmThread@@QAE@XZ  10067880 f i ImfAttribute.obj
 0002:000088e0       ??0LockedTypeMap@?A0xa1908c12@Imf@@QAE@XZ 100678e0 f i ImfAttribute.obj
 0002:00008990       ??1?$map@PBDP6APAVAttribute@Imf@@XZUNameCompare@?A0xa1908c12@2@V?$allocator@U?$pair@QBDP6APAVAttribute@Imf@@XZ@std@@@std@@@std@@QAE@XZ 10067990 f i ImfAttribute.obj
 0002:000089e0       ?knownType@Attribute@Imf@@SA_NQBD@Z 100679e0 f   ImfAttribute.obj
 0002:00008b80       ??1iterator@?$_Tree@V?$_Tmap_traits@PBDP6APAVAttribute@Imf@@XZUNameCompare@?A0xa1908c12@2@V?$allocator@U?$pair@QBDP6APAVAttribute@Imf@@XZ@std@@@std@@$0A@@std@@@std@@QAE@XZ 10067b80 f i ImfAttribute.obj
 0002:00008bd0       ??1const_iterator@?$_Tree@V?$_Tmap_traits@PBDP6APAVAttribute@Imf@@XZUNameCompare@?A0xa1908c12@2@V?$allocator@U?$pair@QBDP6APAVAttribute@Imf@@XZ@std@@@std@@$0A@@std@@@std@@QAE@XZ 10067bd0 f i ImfAttribute.obj
 0002:00008c20       ??1?$_Bidit@U?$pair@QBDP6APAVAttribute@Imf@@XZ@std@@HPBU12@ABU12@@std@@QAE@XZ 10067c20 f i ImfAttribute.obj
 0002:00008c70       ??1_Iterator_base@std@@QAE@XZ 10067c70 f i ImfAttribute.obj
 0002:00008d70       ?_Orphan_me@_Iterator_base@std@@QAEXXZ 10067d70 f i ImfAttribute.obj
 0002:00008e50       ?registerAttributeType@Attribute@Imf@@KAXQBDP6APAV12@XZ@Z 10067e50 f   ImfAttribute.obj
 0002:00009120       ??0ArgExc@Iex@@QAE@AAV?$basic_stringstream@DU?$char_traits@D@std@@V?$allocator@D@2@@std@@@Z 10068120 f i ImfAttribute.obj
 0002:00009190       ??_EArgExc@Iex@@UAEPAXI@Z  10068190 f i ImfAttribute.obj
 0002:00009190       ??_GArgExc@Iex@@UAEPAXI@Z  10068190 f i ImfAttribute.obj
 0002:00009200       ??1ArgExc@Iex@@UAE@XZ      10068200 f i ImfAttribute.obj
 0002:00009250       ??1?$pair@Viterator@?$_Tree@V?$_Tmap_traits@PBDP6APAVAttribute@Imf@@XZUNameCompare@?A0xa1908c12@2@V?$allocator@U?$pair@QBDP6APAVAttribute@Imf@@XZ@std@@@std@@$0A@@std@@@std@@_N@std@@QAE@XZ 10068250 f i ImfAttribute.obj
 0002:000092a0       ??0ArgExc@Iex@@QAE@ABV01@@Z 100682a0 f i ImfAttribute.obj
 0002:00009310       ?unRegisterAttributeType@Attribute@Imf@@KAXQBD@Z 10068310 f   ImfAttribute.obj
 0002:00009410       ?newAttribute@Attribute@Imf@@SAPAV12@QBD@Z 10068410 f   ImfAttribute.obj
 0002:00009700       ??0const_iterator@?$_Tree@V?$_Tmap_traits@PBDP6APAVAttribute@Imf@@XZUNameCompare@?A0xa1908c12@2@V?$allocator@U?$pair@QBDP6APAVAttribute@Imf@@XZ@std@@@std@@$0A@@std@@@std@@QAE@ABV012@@Z 10068700 f i ImfAttribute.obj
 0002:00009770       ??0?$_Bidit@U?$pair@QBDP6APAVAttribute@Imf@@XZ@std@@HPBU12@ABU12@@std@@QAE@ABU01@@Z 10068770 f i ImfAttribute.obj
 0002:000097d0       ??0_Iterator_base@std@@QAE@ABV01@@Z 100687d0 f i ImfAttribute.obj
 0002:00009850       ??4_Iterator_base@std@@QAEAAV01@ABV01@@Z 10068850 f i ImfAttribute.obj
 0002:00009980       ?_Adopt@_Iterator_base@std@@QAEXPBV_Container_base@2@@Z 10068980 f i ImfAttribute.obj
 0002:00009ac0       ??0?$map@PBDP6APAVAttribute@Imf@@XZUNameCompare@?A0xa1908c12@2@V?$allocator@U?$pair@QBDP6APAVAttribute@Imf@@XZ@std@@@std@@@std@@QAE@XZ 10068ac0 f i ImfAttribute.obj
 0002:00009b30       ??1?$_Tree@V?$_Tmap_traits@PBDP6APAVAttribute@Imf@@XZUNameCompare@?A0xa1908c12@2@V?$allocator@U?$pair@QBDP6APAVAttribute@Imf@@XZ@std@@@std@@$0A@@std@@@std@@QAE@XZ 10068b30 f i ImfAttribute.obj
 0002:00009bd0       ?end@?$_Tree@V?$_Tmap_traits@PBDP6APAVAttribute@Imf@@XZUNameCompare@?A0xa1908c12@2@V?$allocator@U?$pair@QBDP6APAVAttribute@Imf@@XZ@std@@@std@@$0A@@std@@@std@@QAE?AViterator@12@XZ 10068bd0 f i ImfAttribute.obj
 0002:00009c60       ?insert@?$_Tree@V?$_Tmap_traits@PBDP6APAVAttribute@Imf@@XZUNameCompare@?A0xa1908c12@2@V?$allocator@U?$pair@QBDP6APAVAttribute@Imf@@XZ@std@@@std@@$0A@@std@@@std@@QAE?AU?$pair@Viterator@?$_Tree@V?$_Tmap_traits@PBDP6APAVAttribute@Imf@@XZUNameCompare@?A0xa1908c12@2@V?$allocator@U?$pair@QBDP6APAVAttribute@Imf@@XZ@std@@@std@@$0A@@std@@@std@@_N@2@ABU?$pair@QBDP6APAVAttribute@Imf@@XZ@2@@Z 10068c60 f i ImfAttribute.obj
 0002:0000a120       ?erase@?$_Tree@V?$_Tmap_traits@PBDP6APAVAttribute@Imf@@XZUNameCompare@?A0xa1908c12@2@V?$allocator@U?$pair@QBDP6APAVAttribute@Imf@@XZ@std@@@std@@$0A@@std@@@std@@QAEIABQBD@Z 10069120 f i ImfAttribute.obj
 0002:0000a320       ?find@?$_Tree@V?$_Tmap_traits@PBDP6APAVAttribute@Imf@@XZUNameCompare@?A0xa1908c12@2@V?$allocator@U?$pair@QBDP6APAVAttribute@Imf@@XZ@std@@@std@@$0A@@std@@@std@@QAE?AViterator@12@ABQBD@Z 10069320 f i ImfAttribute.obj
 0002:0000a5a0       ??Cconst_iterator@?$_Tree@V?$_Tmap_traits@PBDP6APAVAttribute@Imf@@XZUNameCompare@?A0xa1908c12@2@V?$allocator@U?$pair@QBDP6APAVAttribute@Imf@@XZ@std@@@std@@$0A@@std@@@std@@QBEPBU?$pair@QBDP6APAVAttribute@Imf@@XZ@2@XZ 100695a0 f i ImfAttribute.obj
 0002:0000a5f0       ??8const_iterator@?$_Tree@V?$_Tmap_traits@PBDP6APAVAttribute@Imf@@XZUNameCompare@?A0xa1908c12@2@V?$allocator@U?$pair@QBDP6APAVAttribute@Imf@@XZ@std@@@std@@$0A@@std@@@std@@QBE_NABV012@@Z 100695f0 f i ImfAttribute.obj
 0002:0000a700       ??9const_iterator@?$_Tree@V?$_Tmap_traits@PBDP6APAVAttribute@Imf@@XZUNameCompare@?A0xa1908c12@2@V?$allocator@U?$pair@QBDP6APAVAttribute@Imf@@XZ@std@@@std@@$0A@@std@@@std@@QBE_NABV012@@Z 10069700 f i ImfAttribute.obj
 0002:0000a770       ??0?$pair@QBDP6APAVAttribute@Imf@@XZ@std@@QAE@ABQBDABQ6APAVAttribute@Imf@@XZ@Z 10069770 f i ImfAttribute.obj
 0002:0000a7d0       ??1?$_Tree_val@V?$_Tmap_traits@PBDP6APAVAttribute@Imf@@XZUNameCompare@?A0xa1908c12@2@V?$allocator@U?$pair@QBDP6APAVAttribute@Imf@@XZ@std@@@std@@$0A@@std@@@std@@QAE@XZ 100697d0 f i ImfAttribute.obj
 0002:0000a820       ??1?$pair@Viterator@?$_Tree@V?$_Tmap_traits@PBDP6APAVAttribute@Imf@@XZUNameCompare@?A0xa1908c12@2@V?$allocator@U?$pair@QBDP6APAVAttribute@Imf@@XZ@std@@@std@@$0A@@std@@@std@@V123@@std@@QAE@XZ 10069820 f i ImfAttribute.obj
 0002:0000a8d0       ??0iterator@?$_Tree@V?$_Tmap_traits@PBDP6APAVAttribute@Imf@@XZUNameCompare@?A0xa1908c12@2@V?$allocator@U?$pair@QBDP6APAVAttribute@Imf@@XZ@std@@@std@@$0A@@std@@@std@@QAE@ABV012@@Z 100698d0 f i ImfAttribute.obj
 0002:0000a930       ??1?$_Tree_ptr@V?$_Tmap_traits@PBDP6APAVAttribute@Imf@@XZUNameCompare@?A0xa1908c12@2@V?$allocator@U?$pair@QBDP6APAVAttribute@Imf@@XZ@std@@@std@@$0A@@std@@@std@@QAE@XZ 10069930 f i ImfAttribute.obj
 0002:0000a980       ??1?$_Tree_nod@V?$_Tmap_traits@PBDP6APAVAttribute@Imf@@XZUNameCompare@?A0xa1908c12@2@V?$allocator@U?$pair@QBDP6APAVAttribute@Imf@@XZ@std@@@std@@$0A@@std@@@std@@QAE@XZ 10069980 f i ImfAttribute.obj
 0002:0000a9d0       ??1?$_Tmap_traits@PBDP6APAVAttribute@Imf@@XZUNameCompare@?A0xa1908c12@2@V?$allocator@U?$pair@QBDP6APAVAttribute@Imf@@XZ@std@@@std@@$0A@@std@@QAE@XZ 100699d0 f i ImfAttribute.obj
 0002:0000aa30       ?_Isnil@?$_Tree@V?$_Tmap_traits@PBDP6APAVAttribute@Imf@@XZUNameCompare@?A0xa1908c12@2@V?$allocator@U?$pair@QBDP6APAVAttribute@Imf@@XZ@std@@@std@@$0A@@std@@@std@@KAAADPAU_Node@?$_Tree_nod@V?$_Tmap_traits@PBDP6APAVAttribute@Imf@@XZUNameCompare@?A0xa1908c12@2@V?$allocator@U?$pair@QBDP6APAVAttribute@Imf@@XZ@std@@@std@@$0A@@std@@@2@@Z 10069a30 f i ImfAttribute.obj
 0002:0000aa70       ?_Key@?$_Tree@V?$_Tmap_traits@PBDP6APAVAttribute@Imf@@XZUNameCompare@?A0xa1908c12@2@V?$allocator@U?$pair@QBDP6APAVAttribute@Imf@@XZ@std@@@std@@$0A@@std@@@std@@KAABQBDPAU_Node@?$_Tree_nod@V?$_Tmap_traits@PBDP6APAVAttribute@Imf@@XZUNameCompare@?A0xa1908c12@2@V?$allocator@U?$pair@QBDP6APAVAttribute@Imf@@XZ@std@@@std@@$0A@@std@@@2@@Z 10069a70 f i ImfAttribute.obj
 0002:0000aad0       ?_Left@?$_Tree@V?$_Tmap_traits@PBDP6APAVAttribute@Imf@@XZUNameCompare@?A0xa1908c12@2@V?$allocator@U?$pair@QBDP6APAVAttribute@Imf@@XZ@std@@@std@@$0A@@std@@@std@@KAAAPAU_Node@?$_Tree_nod@V?$_Tmap_traits@PBDP6APAVAttribute@Imf@@XZUNameCompare@?A0xa1908c12@2@V?$allocator@U?$pair@QBDP6APAVAttribute@Imf@@XZ@std@@@std@@$0A@@std@@@2@PAU342@@Z 10069ad0 f i ImfAttribute.obj
 0002:0000ab10       ?_Right@?$_Tree@V?$_Tmap_traits@PBDP6APAVAttribute@Imf@@XZUNameCompare@?A0xa1908c12@2@V?$allocator@U?$pair@QBDP6APAVAttribute@Imf@@XZ@std@@@std@@$0A@@std@@@std@@KAAAPAU_Node@?$_Tree_nod@V?$_Tmap_traits@PBDP6APAVAttribute@Imf@@XZUNameCompare@?A0xa1908c12@2@V?$allocator@U?$pair@QBDP6APAVAttribute@Imf@@XZ@std@@@std@@$0A@@std@@@2@PAU342@@Z 10069b10 f i ImfAttribute.obj
 0002:0000ab50       ??0?$_Tree@V?$_Tmap_traits@PBDP6APAVAttribute@Imf@@XZUNameCompare@?A0xa1908c12@2@V?$allocator@U?$pair@QBDP6APAVAttribute@Imf@@XZ@std@@@std@@$0A@@std@@@std@@QAE@ABUNameCompare@?A0xa1908c12@Imf@@ABV?$allocator@U?$pair@QBDP6APAVAttribute@Imf@@XZ@std@@@1@@Z 10069b50 f i ImfAttribute.obj
 0002:0000ac10       ?begin@?$_Tree@V?$_Tmap_traits@PBDP6APAVAttribute@Imf@@XZUNameCompare@?A0xa1908c12@2@V?$allocator@U?$pair@QBDP6APAVAttribute@Imf@@XZ@std@@@std@@$0A@@std@@@std@@QAE?AViterator@12@XZ 10069c10 f i ImfAttribute.obj
 0002:0000aca0       ?erase@?$_Tree@V?$_Tmap_traits@PBDP6APAVAttribute@Imf@@XZUNameCompare@?A0xa1908c12@2@V?$allocator@U?$pair@QBDP6APAVAttribute@Imf@@XZ@std@@@std@@$0A@@std@@@std@@QAE?AViterator@12@V312@0@Z 10069ca0 f i ImfAttribute.obj
 0002:0000afb0       ?lower_bound@?$_Tree@V?$_Tmap_traits@PBDP6APAVAttribute@Imf@@XZUNameCompare@?A0xa1908c12@2@V?$allocator@U?$pair@QBDP6APAVAttribute@Imf@@XZ@std@@@std@@$0A@@std@@@std@@QAE?AViterator@12@ABQBD@Z 10069fb0 f i ImfAttribute.obj
 0002:0000b040       ?equal_range@?$_Tree@V?$_Tmap_traits@PBDP6APAVAttribute@Imf@@XZUNameCompare@?A0xa1908c12@2@V?$allocator@U?$pair@QBDP6APAVAttribute@Imf@@XZ@std@@@std@@$0A@@std@@@std@@QAE?AU?$pair@Viterator@?$_Tree@V?$_Tmap_traits@PBDP6APAVAttribute@Imf@@XZUNameCompare@?A0xa1908c12@2@V?$allocator@U?$pair@QBDP6APAVAttribute@Imf@@XZ@std@@@std@@$0A@@std@@@std@@V123@@2@ABQBD@Z 1006a040 f i ImfAttribute.obj
 0002:0000b190       ?_Insert@?$_Tree@V?$_Tmap_traits@PBDP6APAVAttribute@Imf@@XZUNameCompare@?A0xa1908c12@2@V?$allocator@U?$pair@QBDP6APAVAttribute@Imf@@XZ@std@@@std@@$0A@@std@@@std@@IAE?AViterator@12@_NPAU_Node@?$_Tree_nod@V?$_Tmap_traits@PBDP6APAVAttribute@Imf@@XZUNameCompare@?A0xa1908c12@2@V?$allocator@U?$pair@QBDP6APAVAttribute@Imf@@XZ@std@@@std@@$0A@@std@@@2@ABU?$pair@QBDP6APAVAttribute@Imf@@XZ@2@@Z 1006a190 f i ImfAttribute.obj
 0002:0000b7a0       ??0length_error@std@@QAE@ABV?$basic_string@DU?$char_traits@D@std@@V?$allocator@D@2@@1@@Z 1006a7a0 f i ImfAttribute.obj
 0002:0000b810       ??0logic_error@std@@QAE@ABV?$basic_string@DU?$char_traits@D@std@@V?$allocator@D@2@@1@@Z 1006a810 f i ImfAttribute.obj
 0002:0000b8f0       ?what@logic_error@std@@UBEPBDXZ 1006a8f0 f i ImfAttribute.obj
 0002:0000b950       ??_Glogic_error@std@@UAEPAXI@Z 1006a950 f i ImfAttribute.obj
 0002:0000b950       ??_Elogic_error@std@@UAEPAXI@Z 1006a950 f i ImfAttribute.obj
 0002:0000b9c0       ??1logic_error@std@@UAE@XZ 1006a9c0 f i ImfAttribute.obj
 0002:0000ba40       ??1length_error@std@@UAE@XZ 1006aa40 f i ImfAttribute.obj
 0002:0000baa0       ??_Elength_error@std@@UAEPAXI@Z 1006aaa0 f i ImfAttribute.obj
 0002:0000baa0       ??_Glength_error@std@@UAEPAXI@Z 1006aaa0 f i ImfAttribute.obj
 0002:0000bb10       ??0logic_error@std@@QAE@ABV01@@Z 1006ab10 f i ImfAttribute.obj
 0002:0000bbf0       ?_Root@?$_Tree@V?$_Tmap_traits@PBDP6APAVAttribute@Imf@@XZUNameCompare@?A0xa1908c12@2@V?$allocator@U?$pair@QBDP6APAVAttribute@Imf@@XZ@std@@@std@@$0A@@std@@@std@@IBEAAPAU_Node@?$_Tree_nod@V?$_Tmap_traits@PBDP6APAVAttribute@Imf@@XZUNameCompare@?A0xa1908c12@2@V?$allocator@U?$pair@QBDP6APAVAttribute@Imf@@XZ@std@@@std@@$0A@@std@@@2@XZ 1006abf0 f i ImfAttribute.obj
 0002:0000bc50       ?_Tidy@?$_Tree@V?$_Tmap_traits@PBDP6APAVAttribute@Imf@@XZUNameCompare@?A0xa1908c12@2@V?$allocator@U?$pair@QBDP6APAVAttribute@Imf@@XZ@std@@@std@@$0A@@std@@@std@@IAEXXZ 1006ac50 f i ImfAttribute.obj
 0002:0000bdf0       ?_Kfn@?$_Tmap_traits@PBDP6APAVAttribute@Imf@@XZUNameCompare@?A0xa1908c12@2@V?$allocator@U?$pair@QBDP6APAVAttribute@Imf@@XZ@std@@@std@@$0A@@std@@SAABQBDABU?$pair@QBDP6APAVAttribute@Imf@@XZ@2@@Z 1006adf0 f i ImfAttribute.obj
 0002:0000be30       ??0?$allocator@U?$pair@QBDP6APAVAttribute@Imf@@XZ@std@@@std@@QAE@XZ 1006ae30 f i ImfAttribute.obj
 0002:0000be70       ??0iterator@?$_Tree@V?$_Tmap_traits@PBDP6APAVAttribute@Imf@@XZUNameCompare@?A0xa1908c12@2@V?$allocator@U?$pair@QBDP6APAVAttribute@Imf@@XZ@std@@@std@@$0A@@std@@@std@@QAE@PAU_Node@?$_Tree_nod@V?$_Tmap_traits@PBDP6APAVAttribute@Imf@@XZUNameCompare@?A0xa1908c12@2@V?$allocator@U?$pair@QBDP6APAVAttribute@Imf@@XZ@std@@@std@@$0A@@std@@@2@PBV12@@Z 1006ae70 f i ImfAttribute.obj
 0002:0000bed0       ??Fiterator@?$_Tree@V?$_Tmap_traits@PBDP6APAVAttribute@Imf@@XZUNameCompare@?A0xa1908c12@2@V?$allocator@U?$pair@QBDP6APAVAttribute@Imf@@XZ@std@@@std@@$0A@@std@@@std@@QAEAAV012@XZ 1006aed0 f i ImfAttribute.obj
 0002:0000bf30       ??Dconst_iterator@?$_Tree@V?$_Tmap_traits@PBDP6APAVAttribute@Imf@@XZUNameCompare@?A0xa1908c12@2@V?$allocator@U?$pair@QBDP6APAVAttribute@Imf@@XZ@std@@@std@@$0A@@std@@@std@@QBEABU?$pair@QBDP6APAVAttribute@Imf@@XZ@2@XZ 1006af30 f i ImfAttribute.obj
 0002:0000c040       ?_Mynode@const_iterator@?$_Tree@V?$_Tmap_traits@PBDP6APAVAttribute@Imf@@XZUNameCompare@?A0xa1908c12@2@V?$allocator@U?$pair@QBDP6APAVAttribute@Imf@@XZ@std@@@std@@$0A@@std@@@std@@QBEPAU_Node@?$_Tree_nod@V?$_Tmap_traits@PBDP6APAVAttribute@Imf@@XZUNameCompare@?A0xa1908c12@2@V?$allocator@U?$pair@QBDP6APAVAttribute@Imf@@XZ@std@@@std@@$0A@@std@@@3@XZ 1006b040 f i ImfAttribute.obj
 0002:0000c080       ??0?$pair@Viterator@?$_Tree@V?$_Tmap_traits@PBDP6APAVAttribute@Imf@@XZUNameCompare@?A0xa1908c12@2@V?$allocator@U?$pair@QBDP6APAVAttribute@Imf@@XZ@std@@@std@@$0A@@std@@@std@@_N@std@@QAE@ABViterator@?$_Tree@V?$_Tmap_traits@PBDP6APAVAttribute@Imf@@XZUNameCompare@?A0xa1908c12@2@V?$allocator@U?$pair@QBDP6APAVAttribute@Imf@@XZ@std@@@std@@$0A@@std@@@1@AB_N@Z 1006b080 f i ImfAttribute.obj
 0002:0000c0f0       ??0length_error@std@@QAE@ABV01@@Z 1006b0f0 f i ImfAttribute.obj
 0002:0000c160       ?_Color@?$_Tree@V?$_Tmap_traits@PBDP6APAVAttribute@Imf@@XZUNameCompare@?A0xa1908c12@2@V?$allocator@U?$pair@QBDP6APAVAttribute@Imf@@XZ@std@@@std@@$0A@@std@@@std@@KAAADPAU_Node@?$_Tree_nod@V?$_Tmap_traits@PBDP6APAVAttribute@Imf@@XZUNameCompare@?A0xa1908c12@2@V?$allocator@U?$pair@QBDP6APAVAttribute@Imf@@XZ@std@@@std@@$0A@@std@@@2@@Z 1006b160 f i ImfAttribute.obj
 0002:0000c1a0       ?_Parent@?$_Tree@V?$_Tmap_traits@PBDP6APAVAttribute@Imf@@XZUNameCompare@?A0xa1908c12@2@V?$allocator@U?$pair@QBDP6APAVAttribute@Imf@@XZ@std@@@std@@$0A@@std@@@std@@KAAAPAU_Node@?$_Tree_nod@V?$_Tmap_traits@PBDP6APAVAttribute@Imf@@XZUNameCompare@?A0xa1908c12@2@V?$allocator@U?$pair@QBDP6APAVAttribute@Imf@@XZ@std@@@std@@$0A@@std@@@2@PAU342@@Z 1006b1a0 f i ImfAttribute.obj
 0002:0000c1e0       ?_Myval@?$_Tree@V?$_Tmap_traits@PBDP6APAVAttribute@Imf@@XZUNameCompare@?A0xa1908c12@2@V?$allocator@U?$pair@QBDP6APAVAttribute@Imf@@XZ@std@@@std@@$0A@@std@@@std@@KAAAU?$pair@QBDP6APAVAttribute@Imf@@XZ@2@PAU_Node@?$_Tree_nod@V?$_Tmap_traits@PBDP6APAVAttribute@Imf@@XZUNameCompare@?A0xa1908c12@2@V?$allocator@U?$pair@QBDP6APAVAttribute@Imf@@XZ@std@@@std@@$0A@@std@@@2@@Z 1006b1e0 f i ImfAttribute.obj
 0002:0000c220       ?max_size@?$_Tree@V?$_Tmap_traits@PBDP6APAVAttribute@Imf@@XZUNameCompare@?A0xa1908c12@2@V?$allocator@U?$pair@QBDP6APAVAttribute@Imf@@XZ@std@@@std@@$0A@@std@@@std@@QBEIXZ 1006b220 f i ImfAttribute.obj
 0002:0000c280       ?erase@?$_Tree@V?$_Tmap_traits@PBDP6APAVAttribute@Imf@@XZUNameCompare@?A0xa1908c12@2@V?$allocator@U?$pair@QBDP6APAVAttribute@Imf@@XZ@std@@@std@@$0A@@std@@@std@@QAE?AViterator@12@V312@@Z 1006b280 f i ImfAttribute.obj
 0002:0000ccc0       ?clear@?$_Tree@V?$_Tmap_traits@PBDP6APAVAttribute@Imf@@XZUNameCompare@?A0xa1908c12@2@V?$allocator@U?$pair@QBDP6APAVAttribute@Imf@@XZ@std@@@std@@$0A@@std@@@std@@QAEXXZ 1006bcc0 f i ImfAttribute.obj
 0002:0000cd80       ?upper_bound@?$_Tree@V?$_Tmap_traits@PBDP6APAVAttribute@Imf@@XZUNameCompare@?A0xa1908c12@2@V?$allocator@U?$pair@QBDP6APAVAttribute@Imf@@XZ@std@@@std@@$0A@@std@@@std@@QAE?AViterator@12@ABQBD@Z 1006bd80 f i ImfAttribute.obj
 0002:0000ce10       ?_Init@?$_Tree@V?$_Tmap_traits@PBDP6APAVAttribute@Imf@@XZUNameCompare@?A0xa1908c12@2@V?$allocator@U?$pair@QBDP6APAVAttribute@Imf@@XZ@std@@@std@@$0A@@std@@@std@@IAEXXZ 1006be10 f i ImfAttribute.obj
 0002:0000ced0       ?_Lbound@?$_Tree@V?$_Tmap_traits@PBDP6APAVAttribute@Imf@@XZUNameCompare@?A0xa1908c12@2@V?$allocator@U?$pair@QBDP6APAVAttribute@Imf@@XZ@std@@@std@@$0A@@std@@@std@@IBEPAU_Node@?$_Tree_nod@V?$_Tmap_traits@PBDP6APAVAttribute@Imf@@XZUNameCompare@?A0xa1908c12@2@V?$allocator@U?$pair@QBDP6APAVAttribute@Imf@@XZ@std@@@std@@$0A@@std@@@2@ABQBD@Z 1006bed0 f i ImfAttribute.obj
 0002:0000cfd0       ?_Lmost@?$_Tree@V?$_Tmap_traits@PBDP6APAVAttribute@Imf@@XZUNameCompare@?A0xa1908c12@2@V?$allocator@U?$pair@QBDP6APAVAttribute@Imf@@XZ@std@@@std@@$0A@@std@@@std@@IBEAAPAU_Node@?$_Tree_nod@V?$_Tmap_traits@PBDP6APAVAttribute@Imf@@XZUNameCompare@?A0xa1908c12@2@V?$allocator@U?$pair@QBDP6APAVAttribute@Imf@@XZ@std@@@std@@$0A@@std@@@2@XZ 1006bfd0 f i ImfAttribute.obj
 0002:0000d030       ?_Lrotate@?$_Tree@V?$_Tmap_traits@PBDP6APAVAttribute@Imf@@XZUNameCompare@?A0xa1908c12@2@V?$allocator@U?$pair@QBDP6APAVAttribute@Imf@@XZ@std@@@std@@$0A@@std@@@std@@IAEXPAU_Node@?$_Tree_nod@V?$_Tmap_traits@PBDP6APAVAttribute@Imf@@XZUNameCompare@?A0xa1908c12@2@V?$allocator@U?$pair@QBDP6APAVAttribute@Imf@@XZ@std@@@std@@$0A@@std@@@2@@Z 1006c030 f i ImfAttribute.obj
 0002:0000d1e0       ?_Rmost@?$_Tree@V?$_Tmap_traits@PBDP6APAVAttribute@Imf@@XZUNameCompare@?A0xa1908c12@2@V?$allocator@U?$pair@QBDP6APAVAttribute@Imf@@XZ@std@@@std@@$0A@@std@@@std@@IBEAAPAU_Node@?$_Tree_nod@V?$_Tmap_traits@PBDP6APAVAttribute@Imf@@XZUNameCompare@?A0xa1908c12@2@V?$allocator@U?$pair@QBDP6APAVAttribute@Imf@@XZ@std@@@std@@$0A@@std@@@2@XZ 1006c1e0 f i ImfAttribute.obj
 0002:0000d240       ?_Rrotate@?$_Tree@V?$_Tmap_traits@PBDP6APAVAttribute@Imf@@XZUNameCompare@?A0xa1908c12@2@V?$allocator@U?$pair@QBDP6APAVAttribute@Imf@@XZ@std@@@std@@$0A@@std@@@std@@IAEXPAU_Node@?$_Tree_nod@V?$_Tmap_traits@PBDP6APAVAttribute@Imf@@XZUNameCompare@?A0xa1908c12@2@V?$allocator@U?$pair@QBDP6APAVAttribute@Imf@@XZ@std@@@std@@$0A@@std@@@2@@Z 1006c240 f i ImfAttribute.obj
 0002:0000d3f0       ?_Buynode@?$_Tree@V?$_Tmap_traits@PBDP6APAVAttribute@Imf@@XZUNameCompare@?A0xa1908c12@2@V?$allocator@U?$pair@QBDP6APAVAttribute@Imf@@XZ@std@@@std@@$0A@@std@@@std@@IAEPAU_Node@?$_Tree_nod@V?$_Tmap_traits@PBDP6APAVAttribute@Imf@@XZUNameCompare@?A0xa1908c12@2@V?$allocator@U?$pair@QBDP6APAVAttribute@Imf@@XZ@std@@@std@@$0A@@std@@@2@PAU342@00ABU?$pair@QBDP6APAVAttribute@Imf@@XZ@2@D@Z 1006c3f0 f i ImfAttribute.obj
 0002:0000d550       ??2@YAPAXIPAX@Z            1006c550 f i ImfAttribute.obj
 0002:0000d590       ??3@YAXPAX0@Z              1006c590 f i ImfAttribute.obj
 0002:0000d5c0       ??0?$_Tree_val@V?$_Tmap_traits@PBDP6APAVAttribute@Imf@@XZUNameCompare@?A0xa1908c12@2@V?$allocator@U?$pair@QBDP6APAVAttribute@Imf@@XZ@std@@@std@@$0A@@std@@@std@@IAE@ABUNameCompare@?A0xa1908c12@Imf@@V?$allocator@U?$pair@QBDP6APAVAttribute@Imf@@XZ@std@@@1@@Z 1006c5c0 f i ImfAttribute.obj
 0002:0000d650       ??0?$allocator@U?$pair@QBDP6APAVAttribute@Imf@@XZ@std@@@std@@QAE@ABV01@@Z 1006c650 f i ImfAttribute.obj
 0002:0000d690       ?deallocate@?$allocator@U_Node@?$_Tree_nod@V?$_Tmap_traits@PBDP6APAVAttribute@Imf@@XZUNameCompare@?A0xa1908c12@2@V?$allocator@U?$pair@QBDP6APAVAttribute@Imf@@XZ@std@@@std@@$0A@@std@@@std@@@std@@QAEXPAU_Node@?$_Tree_nod@V?$_Tmap_traits@PBDP6APAVAttribute@Imf@@XZUNameCompare@?A0xa1908c12@2@V?$allocator@U?$pair@QBDP6APAVAttribute@Imf@@XZ@std@@@std@@$0A@@std@@@2@I@Z 1006c690 f i ImfAttribute.obj
 0002:0000d6f0       ?destroy@?$allocator@PAU_Node@?$_Tree_nod@V?$_Tmap_traits@PBDP6APAVAttribute@Imf@@XZUNameCompare@?A0xa1908c12@2@V?$allocator@U?$pair@QBDP6APAVAttribute@Imf@@XZ@std@@@std@@$0A@@std@@@std@@@std@@QAEXPAPAU_Node@?$_Tree_nod@V?$_Tmap_traits@PBDP6APAVAttribute@Imf@@XZUNameCompare@?A0xa1908c12@2@V?$allocator@U?$pair@QBDP6APAVAttribute@Imf@@XZ@std@@@std@@$0A@@std@@@2@@Z 1006c6f0 f i ImfAttribute.obj
 0002:0000d750       ??Eiterator@?$_Tree@V?$_Tmap_traits@PBDP6APAVAttribute@Imf@@XZUNameCompare@?A0xa1908c12@2@V?$allocator@U?$pair@QBDP6APAVAttribute@Imf@@XZ@std@@@std@@$0A@@std@@@std@@QAE?AV012@H@Z 1006c750 f i ImfAttribute.obj
 0002:0000d870       ??0const_iterator@?$_Tree@V?$_Tmap_traits@PBDP6APAVAttribute@Imf@@XZUNameCompare@?A0xa1908c12@2@V?$allocator@U?$pair@QBDP6APAVAttribute@Imf@@XZ@std@@@std@@$0A@@std@@@std@@QAE@PAU_Node@?$_Tree_nod@V?$_Tmap_traits@PBDP6APAVAttribute@Imf@@XZUNameCompare@?A0xa1908c12@2@V?$allocator@U?$pair@QBDP6APAVAttribute@Imf@@XZ@std@@@std@@$0A@@std@@@2@PBV12@@Z 1006c870 f i ImfAttribute.obj
 0002:0000d930       ??Fconst_iterator@?$_Tree@V?$_Tmap_traits@PBDP6APAVAttribute@Imf@@XZUNameCompare@?A0xa1908c12@2@V?$allocator@U?$pair@QBDP6APAVAttribute@Imf@@XZ@std@@@std@@$0A@@std@@@std@@QAEAAV012@XZ 1006c930 f i ImfAttribute.obj
 0002:0000d990       ??0?$pair@Viterator@?$_Tree@V?$_Tmap_traits@PBDP6APAVAttribute@Imf@@XZUNameCompare@?A0xa1908c12@2@V?$allocator@U?$pair@QBDP6APAVAttribute@Imf@@XZ@std@@@std@@$0A@@std@@@std@@V123@@std@@QAE@ABViterator@?$_Tree@V?$_Tmap_traits@PBDP6APAVAttribute@Imf@@XZUNameCompare@?A0xa1908c12@2@V?$allocator@U?$pair@QBDP6APAVAttribute@Imf@@XZ@std@@@std@@$0A@@std@@@1@0@Z 1006c990 f i ImfAttribute.obj
 0002:0000da50       ??0?$_Bidit@U?$pair@QBDP6APAVAttribute@Imf@@XZ@std@@HPBU12@ABU12@@std@@QAE@XZ 1006ca50 f i ImfAttribute.obj
 0002:0000dab0       ??0_Iterator_base@std@@QAE@XZ 1006cab0 f i ImfAttribute.obj
 0002:0000db00       ?_Erase@?$_Tree@V?$_Tmap_traits@PBDP6APAVAttribute@Imf@@XZUNameCompare@?A0xa1908c12@2@V?$allocator@U?$pair@QBDP6APAVAttribute@Imf@@XZ@std@@@std@@$0A@@std@@@std@@IAEXPAU_Node@?$_Tree_nod@V?$_Tmap_traits@PBDP6APAVAttribute@Imf@@XZUNameCompare@?A0xa1908c12@2@V?$allocator@U?$pair@QBDP6APAVAttribute@Imf@@XZ@std@@@std@@$0A@@std@@@2@@Z 1006cb00 f i ImfAttribute.obj
 0002:0000dbd0       ?_Max@?$_Tree@V?$_Tmap_traits@PBDP6APAVAttribute@Imf@@XZUNameCompare@?A0xa1908c12@2@V?$allocator@U?$pair@QBDP6APAVAttribute@Imf@@XZ@std@@@std@@$0A@@std@@@std@@KAPAU_Node@?$_Tree_nod@V?$_Tmap_traits@PBDP6APAVAttribute@Imf@@XZUNameCompare@?A0xa1908c12@2@V?$allocator@U?$pair@QBDP6APAVAttribute@Imf@@XZ@std@@@std@@$0A@@std@@@2@PAU342@@Z 1006cbd0 f i ImfAttribute.obj
 0002:0000dc50       ?_Min@?$_Tree@V?$_Tmap_traits@PBDP6APAVAttribute@Imf@@XZUNameCompare@?A0xa1908c12@2@V?$allocator@U?$pair@QBDP6APAVAttribute@Imf@@XZ@std@@@std@@$0A@@std@@@std@@KAPAU_Node@?$_Tree_nod@V?$_Tmap_traits@PBDP6APAVAttribute@Imf@@XZUNameCompare@?A0xa1908c12@2@V?$allocator@U?$pair@QBDP6APAVAttribute@Imf@@XZ@std@@@std@@$0A@@std@@@2@PAU342@@Z 1006cc50 f i ImfAttribute.obj
 0002:0000dcd0       ?_Ubound@?$_Tree@V?$_Tmap_traits@PBDP6APAVAttribute@Imf@@XZUNameCompare@?A0xa1908c12@2@V?$allocator@U?$pair@QBDP6APAVAttribute@Imf@@XZ@std@@@std@@$0A@@std@@@std@@IBEPAU_Node@?$_Tree_nod@V?$_Tmap_traits@PBDP6APAVAttribute@Imf@@XZUNameCompare@?A0xa1908c12@2@V?$allocator@U?$pair@QBDP6APAVAttribute@Imf@@XZ@std@@@std@@$0A@@std@@@2@ABQBD@Z 1006ccd0 f i ImfAttribute.obj
 0002:0000ddd0       ?_Orphan_ptr@?$_Tree@V?$_Tmap_traits@PBDP6APAVAttribute@Imf@@XZUNameCompare@?A0xa1908c12@2@V?$allocator@U?$pair@QBDP6APAVAttribute@Imf@@XZ@std@@@std@@$0A@@std@@@std@@IBEXAAV12@PAU_Node@?$_Tree_nod@V?$_Tmap_traits@PBDP6APAVAttribute@Imf@@XZUNameCompare@?A0xa1908c12@2@V?$allocator@U?$pair@QBDP6APAVAttribute@Imf@@XZ@std@@@std@@$0A@@std@@@2@@Z 1006cdd0 f i ImfAttribute.obj
 0002:0000def0       ?_Buynode@?$_Tree@V?$_Tmap_traits@PBDP6APAVAttribute@Imf@@XZUNameCompare@?A0xa1908c12@2@V?$allocator@U?$pair@QBDP6APAVAttribute@Imf@@XZ@std@@@std@@$0A@@std@@@std@@IAEPAU_Node@?$_Tree_nod@V?$_Tmap_traits@PBDP6APAVAttribute@Imf@@XZUNameCompare@?A0xa1908c12@2@V?$allocator@U?$pair@QBDP6APAVAttribute@Imf@@XZ@std@@@std@@$0A@@std@@@2@XZ 1006cef0 f i ImfAttribute.obj
 0002:0000e120       ??0?$_Tree_ptr@V?$_Tmap_traits@PBDP6APAVAttribute@Imf@@XZUNameCompare@?A0xa1908c12@2@V?$allocator@U?$pair@QBDP6APAVAttribute@Imf@@XZ@std@@@std@@$0A@@std@@@std@@QAE@ABUNameCompare@?A0xa1908c12@Imf@@V?$allocator@U?$pair@QBDP6APAVAttribute@Imf@@XZ@std@@@1@@Z 1006d120 f i ImfAttribute.obj
 0002:0000e1b0       ?max_size@?$allocator@U?$pair@QBDP6APAVAttribute@Imf@@XZ@std@@@std@@QBEIXZ 1006d1b0 f i ImfAttribute.obj
 0002:0000e220       ?allocate@?$allocator@U_Node@?$_Tree_nod@V?$_Tmap_traits@PBDP6APAVAttribute@Imf@@XZUNameCompare@?A0xa1908c12@2@V?$allocator@U?$pair@QBDP6APAVAttribute@Imf@@XZ@std@@@std@@$0A@@std@@@std@@@std@@QAEPAU_Node@?$_Tree_nod@V?$_Tmap_traits@PBDP6APAVAttribute@Imf@@XZUNameCompare@?A0xa1908c12@2@V?$allocator@U?$pair@QBDP6APAVAttribute@Imf@@XZ@std@@@std@@$0A@@std@@@2@I@Z 1006d220 f i ImfAttribute.obj
 0002:0000e280       ?destroy@?$allocator@U_Node@?$_Tree_nod@V?$_Tmap_traits@PBDP6APAVAttribute@Imf@@XZUNameCompare@?A0xa1908c12@2@V?$allocator@U?$pair@QBDP6APAVAttribute@Imf@@XZ@std@@@std@@$0A@@std@@@std@@@std@@QAEXPAU_Node@?$_Tree_nod@V?$_Tmap_traits@PBDP6APAVAttribute@Imf@@XZUNameCompare@?A0xa1908c12@2@V?$allocator@U?$pair@QBDP6APAVAttribute@Imf@@XZ@std@@@std@@$0A@@std@@@2@@Z 1006d280 f i ImfAttribute.obj
 0002:0000e2e0       ??Eiterator@?$_Tree@V?$_Tmap_traits@PBDP6APAVAttribute@Imf@@XZUNameCompare@?A0xa1908c12@2@V?$allocator@U?$pair@QBDP6APAVAttribute@Imf@@XZ@std@@@std@@$0A@@std@@@std@@QAEAAV012@XZ 1006d2e0 f i ImfAttribute.obj
 0002:0000e340       ?_Dec@const_iterator@?$_Tree@V?$_Tmap_traits@PBDP6APAVAttribute@Imf@@XZUNameCompare@?A0xa1908c12@2@V?$allocator@U?$pair@QBDP6APAVAttribute@Imf@@XZ@std@@@std@@$0A@@std@@@std@@QAEXXZ 1006d340 f i ImfAttribute.obj
 0002:0000e690       ??0_Node@?$_Tree_nod@V?$_Tmap_traits@PBDP6APAVAttribute@Imf@@XZUNameCompare@?A0xa1908c12@2@V?$allocator@U?$pair@QBDP6APAVAttribute@Imf@@XZ@std@@@std@@$0A@@std@@@std@@QAE@PAU012@00ABU?$pair@QBDP6APAVAttribute@Imf@@XZ@2@D@Z 1006d690 f i ImfAttribute.obj
 0002:0000e720       ??0?$_Tree_nod@V?$_Tmap_traits@PBDP6APAVAttribute@Imf@@XZUNameCompare@?A0xa1908c12@2@V?$allocator@U?$pair@QBDP6APAVAttribute@Imf@@XZ@std@@@std@@$0A@@std@@@std@@IAE@ABUNameCompare@?A0xa1908c12@Imf@@V?$allocator@U?$pair@QBDP6APAVAttribute@Imf@@XZ@std@@@1@@Z 1006d720 f i ImfAttribute.obj
 0002:0000e790       ?construct@?$allocator@PAU_Node@?$_Tree_nod@V?$_Tmap_traits@PBDP6APAVAttribute@Imf@@XZUNameCompare@?A0xa1908c12@2@V?$allocator@U?$pair@QBDP6APAVAttribute@Imf@@XZ@std@@@std@@$0A@@std@@@std@@@std@@QAEXPAPAU_Node@?$_Tree_nod@V?$_Tmap_traits@PBDP6APAVAttribute@Imf@@XZUNameCompare@?A0xa1908c12@2@V?$allocator@U?$pair@QBDP6APAVAttribute@Imf@@XZ@std@@@std@@$0A@@std@@@2@ABQAU342@@Z 1006d790 f i ImfAttribute.obj
 0002:0000e7f0       ??Econst_iterator@?$_Tree@V?$_Tmap_traits@PBDP6APAVAttribute@Imf@@XZUNameCompare@?A0xa1908c12@2@V?$allocator@U?$pair@QBDP6APAVAttribute@Imf@@XZ@std@@@std@@$0A@@std@@@std@@QAEAAV012@XZ 1006d7f0 f i ImfAttribute.obj
 0002:0000e850       ??0?$_Tmap_traits@PBDP6APAVAttribute@Imf@@XZUNameCompare@?A0xa1908c12@2@V?$allocator@U?$pair@QBDP6APAVAttribute@Imf@@XZ@std@@@std@@$0A@@std@@QAE@UNameCompare@?A0xa1908c12@Imf@@@Z 1006d850 f i ImfAttribute.obj
 0002:0000e8c0       ?_Inc@const_iterator@?$_Tree@V?$_Tmap_traits@PBDP6APAVAttribute@Imf@@XZUNameCompare@?A0xa1908c12@2@V?$allocator@U?$pair@QBDP6APAVAttribute@Imf@@XZ@std@@@std@@$0A@@std@@@std@@QAEXXZ 1006d8c0 f i ImfAttribute.obj
 0002:0000ea80       ??0?$TypedAttribute@M@Imf@@QAE@ABV01@@Z 1006da80 f i ImfAttribute.obj
 0002:0000eb40       ??0?$TypedAttribute@M@Imf@@QAE@ABM@Z 1006db40 f i ImfAttribute.obj
 0002:0000ebb0       ??0?$TypedAttribute@M@Imf@@QAE@XZ 1006dbb0 f i ImfAttribute.obj
 0002:0000ec20       ??1?$TypedAttribute@M@Imf@@UAE@XZ 1006dc20 f i ImfAttribute.obj
 0002:0000ec80       ?value@?$TypedAttribute@M@Imf@@QBEABMXZ 1006dc80 f i ImfAttribute.obj
 0002:0000ecc0       ?value@?$TypedAttribute@M@Imf@@QAEAAMXZ 1006dcc0 f i ImfAttribute.obj
 0002:0000ed00       ?typeName@?$TypedAttribute@M@Imf@@UBEPBDXZ 1006dd00 f i ImfAttribute.obj
 0002:0000ed50       ?makeNewAttribute@?$TypedAttribute@M@Imf@@SAPAVAttribute@2@XZ 1006dd50 f i ImfAttribute.obj
 0002:0000ee30       ?copy@?$TypedAttribute@M@Imf@@UBEPAVAttribute@2@XZ 1006de30 f i ImfAttribute.obj
 0002:0000ef40       ?writeValueTo@?$TypedAttribute@M@Imf@@UBEXAAVOStream@2@H@Z 1006df40 f i ImfAttribute.obj
 0002:0000efb0       ?readValueFrom@?$TypedAttribute@M@Imf@@UAEXAAVIStream@2@HH@Z 1006dfb0 f i ImfAttribute.obj
 0002:0000f010       ?copyValueFrom@?$TypedAttribute@M@Imf@@UAEXABVAttribute@2@@Z 1006e010 f i ImfAttribute.obj
 0002:0000f080       ?cast@?$TypedAttribute@M@Imf@@SAABV12@ABVAttribute@2@@Z 1006e080 f i ImfAttribute.obj
 0002:0000f0d0       ?cast@?$TypedAttribute@M@Imf@@SAAAV12@AAVAttribute@2@@Z 1006e0d0 f i ImfAttribute.obj
 0002:0000f120       ?cast@?$TypedAttribute@M@Imf@@SAPBV12@PBVAttribute@2@@Z 1006e120 f i ImfAttribute.obj
 0002:0000f1c0       ??0TypeExc@Iex@@QAE@PBD@Z  1006e1c0 f i ImfAttribute.obj
 0002:0000f230       ??_ETypeExc@Iex@@UAEPAXI@Z 1006e230 f i ImfAttribute.obj
 0002:0000f230       ??_GTypeExc@Iex@@UAEPAXI@Z 1006e230 f i ImfAttribute.obj
 0002:0000f2a0       ??1TypeExc@Iex@@UAE@XZ     1006e2a0 f i ImfAttribute.obj
 0002:0000f2f0       ?cast@?$TypedAttribute@M@Imf@@SAPAV12@PAVAttribute@2@@Z 1006e2f0 f i ImfAttribute.obj
 0002:0000f390       ?registerAttributeType@?$TypedAttribute@M@Imf@@SAXXZ 1006e390 f i ImfAttribute.obj
 0002:0000f3f0       ?unRegisterAttributeType@?$TypedAttribute@M@Imf@@SAXXZ 1006e3f0 f i ImfAttribute.obj
 0002:0000f440       ??0?$TypedAttribute@N@Imf@@QAE@ABV01@@Z 1006e440 f i ImfAttribute.obj
 0002:0000f500       ??0?$TypedAttribute@N@Imf@@QAE@ABN@Z 1006e500 f i ImfAttribute.obj
 0002:0000f570       ??0?$TypedAttribute@N@Imf@@QAE@XZ 1006e570 f i ImfAttribute.obj
 0002:0000f5e0       ??1?$TypedAttribute@N@Imf@@UAE@XZ 1006e5e0 f i ImfAttribute.obj
 0002:0000f640       ?value@?$TypedAttribute@N@Imf@@QBEABNXZ 1006e640 f i ImfAttribute.obj
 0002:0000f680       ?value@?$TypedAttribute@N@Imf@@QAEAANXZ 1006e680 f i ImfAttribute.obj
 0002:0000f6c0       ?typeName@?$TypedAttribute@N@Imf@@UBEPBDXZ 1006e6c0 f i ImfAttribute.obj
 0002:0000f710       ?makeNewAttribute@?$TypedAttribute@N@Imf@@SAPAVAttribute@2@XZ 1006e710 f i ImfAttribute.obj
 0002:0000f7f0       ?copy@?$TypedAttribute@N@Imf@@UBEPAVAttribute@2@XZ 1006e7f0 f i ImfAttribute.obj
 0002:0000f900       ?writeValueTo@?$TypedAttribute@N@Imf@@UBEXAAVOStream@2@H@Z 1006e900 f i ImfAttribute.obj
 0002:0000f970       ?readValueFrom@?$TypedAttribute@N@Imf@@UAEXAAVIStream@2@HH@Z 1006e970 f i ImfAttribute.obj
 0002:0000f9d0       ?copyValueFrom@?$TypedAttribute@N@Imf@@UAEXABVAttribute@2@@Z 1006e9d0 f i ImfAttribute.obj
 0002:0000fa40       ?cast@?$TypedAttribute@N@Imf@@SAABV12@ABVAttribute@2@@Z 1006ea40 f i ImfAttribute.obj
 0002:0000fa90       ?cast@?$TypedAttribute@N@Imf@@SAAAV12@AAVAttribute@2@@Z 1006ea90 f i ImfAttribute.obj
 0002:0000fae0       ?cast@?$TypedAttribute@N@Imf@@SAPBV12@PBVAttribute@2@@Z 1006eae0 f i ImfAttribute.obj
 0002:0000fb80       ?cast@?$TypedAttribute@N@Imf@@SAPAV12@PAVAttribute@2@@Z 1006eb80 f i ImfAttribute.obj
 0002:0000fc20       ?registerAttributeType@?$TypedAttribute@N@Imf@@SAXXZ 1006ec20 f i ImfAttribute.obj
 0002:0000fc80       ?unRegisterAttributeType@?$TypedAttribute@N@Imf@@SAXXZ 1006ec80 f i ImfAttribute.obj
 0002:0000fcd0       ??$?6U?$char_traits@D@std@@@std@@YAAAV?$basic_ostream@DU?$char_traits@D@std@@@0@AAV10@PBD@Z 1006ecd0 f i ImfAttribute.obj
 0002:00010240       ??0sentry@?$basic_ostream@DU?$char_traits@D@std@@@std@@QAE@AAV12@@Z 1006f240 f i ImfAttribute.obj
 0002:000103a0       ??1sentry@?$basic_ostream@DU?$char_traits@D@std@@@std@@QAE@XZ 1006f3a0 f i ImfAttribute.obj
 0002:00010470       ??Bsentry@?$basic_ostream@DU?$char_traits@D@std@@@std@@QBE_NXZ 1006f470 f i ImfAttribute.obj
 0002:000104b0       ??0_Sentry_base@?$basic_ostream@DU?$char_traits@D@std@@@std@@QAE@AAV12@@Z 1006f4b0 f i ImfAttribute.obj
 0002:00010570       ??1_Sentry_base@?$basic_ostream@DU?$char_traits@D@std@@@std@@QAE@XZ 1006f570 f i ImfAttribute.obj
 0002:00010620       ??$_Debug_lt_pred@UNameCompare@?A0xa1908c12@Imf@@PBDPBD@std@@YA_NUNameCompare@?A0xa1908c12@Imf@@ABQBD1PB_WI@Z 1006f620 f i ImfAttribute.obj
 0002:000106e0       ??RNameCompare@?A0xa1908c12@Imf@@QBE_NPBD0@Z 1006f6e0 f i ImfAttribute.obj
 0002:00010750       ??$_Distance@Viterator@?$_Tree@V?$_Tmap_traits@PBDP6APAVAttribute@Imf@@XZUNameCompare@?A0xa1908c12@2@V?$allocator@U?$pair@QBDP6APAVAttribute@Imf@@XZ@std@@@std@@$0A@@std@@@std@@I@std@@YAXViterator@?$_Tree@V?$_Tmap_traits@PBDP6APAVAttribute@Imf@@XZUNameCompare@?A0xa1908c12@2@V?$allocator@U?$pair@QBDP6APAVAttribute@Imf@@XZ@std@@@std@@$0A@@std@@@0@0AAI@Z 1006f750 f i ImfAttribute.obj
 0002:00010880       ??$swap@D@std@@YAXAAD0@Z   1006f880 f i ImfAttribute.obj
 0002:000108d0       ??$_Destroy@PAU_Node@?$_Tree_nod@V?$_Tmap_traits@PBDP6APAVAttribute@Imf@@XZUNameCompare@?A0xa1908c12@2@V?$allocator@U?$pair@QBDP6APAVAttribute@Imf@@XZ@std@@@std@@$0A@@std@@@std@@@std@@YAXPAPAU_Node@?$_Tree_nod@V?$_Tmap_traits@PBDP6APAVAttribute@Imf@@XZUNameCompare@?A0xa1908c12@2@V?$allocator@U?$pair@QBDP6APAVAttribute@Imf@@XZ@std@@@std@@$0A@@std@@@0@@Z 1006f8d0 f i ImfAttribute.obj
 0002:00010900       ??$?0U?$pair@QBDP6APAVAttribute@Imf@@XZ@std@@@?$allocator@PAU_Node@?$_Tree_nod@V?$_Tmap_traits@PBDP6APAVAttribute@Imf@@XZUNameCompare@?A0xa1908c12@2@V?$allocator@U?$pair@QBDP6APAVAttribute@Imf@@XZ@std@@@std@@$0A@@std@@@std@@@std@@QAE@ABV?$allocator@U?$pair@QBDP6APAVAttribute@Imf@@XZ@std@@@1@@Z 1006f900 f i ImfAttribute.obj
 0002:00010940       ??$_Allocate@U_Node@?$_Tree_nod@V?$_Tmap_traits@PBDP6APAVAttribute@Imf@@XZUNameCompare@?A0xa1908c12@2@V?$allocator@U?$pair@QBDP6APAVAttribute@Imf@@XZ@std@@@std@@$0A@@std@@@std@@@std@@YAPAU_Node@?$_Tree_nod@V?$_Tmap_traits@PBDP6APAVAttribute@Imf@@XZUNameCompare@?A0xa1908c12@2@V?$allocator@U?$pair@QBDP6APAVAttribute@Imf@@XZ@std@@@std@@$0A@@std@@@0@IPAU120@@Z 1006f940 f i ImfAttribute.obj
 0002:000109e0       ??0bad_alloc@std@@QAE@PBD@Z 1006f9e0 f i ImfAttribute.obj
 0002:00010a60       ??1bad_alloc@std@@UAE@XZ   1006fa60 f i ImfAttribute.obj
 0002:00010ad0       ??_Ebad_alloc@std@@UAEPAXI@Z 1006fad0 f i ImfAttribute.obj
 0002:00010ad0       ??_Gbad_alloc@std@@UAEPAXI@Z 1006fad0 f i ImfAttribute.obj
 0002:00010b40       ??0bad_alloc@std@@QAE@ABV01@@Z 1006fb40 f i ImfAttribute.obj
 0002:00010bc0       ??$_Destroy@U_Node@?$_Tree_nod@V?$_Tmap_traits@PBDP6APAVAttribute@Imf@@XZUNameCompare@?A0xa1908c12@2@V?$allocator@U?$pair@QBDP6APAVAttribute@Imf@@XZ@std@@@std@@$0A@@std@@@std@@@std@@YAXPAU_Node@?$_Tree_nod@V?$_Tmap_traits@PBDP6APAVAttribute@Imf@@XZUNameCompare@?A0xa1908c12@2@V?$allocator@U?$pair@QBDP6APAVAttribute@Imf@@XZ@std@@@std@@$0A@@std@@@0@@Z 1006fbc0 f i ImfAttribute.obj
 0002:00010bf0       ??$?0U?$pair@QBDP6APAVAttribute@Imf@@XZ@std@@@?$allocator@U_Node@?$_Tree_nod@V?$_Tmap_traits@PBDP6APAVAttribute@Imf@@XZUNameCompare@?A0xa1908c12@2@V?$allocator@U?$pair@QBDP6APAVAttribute@Imf@@XZ@std@@@std@@$0A@@std@@@std@@@std@@QAE@ABV?$allocator@U?$pair@QBDP6APAVAttribute@Imf@@XZ@std@@@1@@Z 1006fbf0 f i ImfAttribute.obj
 0002:00010c30       ??$_Construct@PAU_Node@?$_Tree_nod@V?$_Tmap_traits@PBDP6APAVAttribute@Imf@@XZUNameCompare@?A0xa1908c12@2@V?$allocator@U?$pair@QBDP6APAVAttribute@Imf@@XZ@std@@@std@@$0A@@std@@@std@@PAU123@@std@@YAXPAPAU_Node@?$_Tree_nod@V?$_Tmap_traits@PBDP6APAVAttribute@Imf@@XZUNameCompare@?A0xa1908c12@2@V?$allocator@U?$pair@QBDP6APAVAttribute@Imf@@XZ@std@@@std@@$0A@@std@@@0@ABQAU120@@Z 1006fc30 f i ImfAttribute.obj
 0002:00010cd0       ??_E?$TypedAttribute@M@Imf@@UAEPAXI@Z 1006fcd0 f i ImfAttribute.obj
 0002:00010cd0       ??_G?$TypedAttribute@M@Imf@@UAEPAXI@Z 1006fcd0 f i ImfAttribute.obj
 0002:00010d40       ??0TypeExc@Iex@@QAE@ABV01@@Z 1006fd40 f i ImfAttribute.obj
 0002:00010db0       ??_E?$TypedAttribute@N@Imf@@UAEPAXI@Z 1006fdb0 f i ImfAttribute.obj
 0002:00010db0       ??_G?$TypedAttribute@N@Imf@@UAEPAXI@Z 1006fdb0 f i ImfAttribute.obj
 0002:00010e20       ??$write@UStreamIO@Imf@@VOStream@2@@Xdr@Imf@@YAXAAVOStream@1@N@Z 1006fe20 f i ImfAttribute.obj
 0002:00010f70       ??$write@UStreamIO@Imf@@VOStream@2@@Xdr@Imf@@YAXAAVOStream@1@M@Z 1006ff70 f i ImfAttribute.obj
 0002:00011040       ??$read@UStreamIO@Imf@@VIStream@2@@Xdr@Imf@@YAXAAVIStream@1@AAN@Z 10070040 f i ImfAttribute.obj
 0002:000111f0       ??$read@UStreamIO@Imf@@VIStream@2@@Xdr@Imf@@YAXAAVIStream@1@AAM@Z 100701f0 f i ImfAttribute.obj
 0002:000112e0       ??$_Iter_cat@Viterator@?$_Tree@V?$_Tmap_traits@PBDP6APAVAttribute@Imf@@XZUNameCompare@?A0xa1908c12@2@V?$allocator@U?$pair@QBDP6APAVAttribute@Imf@@XZ@std@@@std@@$0A@@std@@@std@@@std@@YA?AUbidirectional_iterator_tag@0@ABViterator@?$_Tree@V?$_Tmap_traits@PBDP6APAVAttribute@Imf@@XZUNameCompare@?A0xa1908c12@2@V?$allocator@U?$pair@QBDP6APAVAttribute@Imf@@XZ@std@@@std@@$0A@@std@@@0@@Z 100702e0 f i ImfAttribute.obj
 0002:00011350       ??$_Distance2@Viterator@?$_Tree@V?$_Tmap_traits@PBDP6APAVAttribute@Imf@@XZUNameCompare@?A0xa1908c12@2@V?$allocator@U?$pair@QBDP6APAVAttribute@Imf@@XZ@std@@@std@@$0A@@std@@@std@@I@std@@YAXViterator@?$_Tree@V?$_Tmap_traits@PBDP6APAVAttribute@Imf@@XZUNameCompare@?A0xa1908c12@2@V?$allocator@U?$pair@QBDP6APAVAttribute@Imf@@XZ@std@@@std@@$0A@@std@@@0@0AAIUbidirectional_iterator_tag@0@@Z 10070350 f i ImfAttribute.obj
 0002:00011430       ??$writeUnsignedChars@UStreamIO@Imf@@VOStream@2@@Xdr@Imf@@YAXAAVOStream@1@QBEH@Z 10070430 f i ImfAttribute.obj
 0002:00011490       ?writeChars@StreamIO@Imf@@SAXAAVOStream@2@QBDH@Z 10070490 f i ImfAttribute.obj
 0002:00011500       ??$readUnsignedChars@UStreamIO@Imf@@VIStream@2@@Xdr@Imf@@YAXAAVIStream@1@QAEH@Z 10070500 f i ImfAttribute.obj
 0002:00011560       ?readChars@StreamIO@Imf@@SA_NAAVIStream@2@QADH@Z 10070560 f i ImfAttribute.obj
 0002:000115d0       ?staticTypeName@?$TypedAttribute@V?$Box@V?$Vec2@H@Imath@@@Imath@@@Imf@@SAPBDXZ 100705d0 f   ImfBoxAttribute.obj
 0002:00011610       ?writeValueTo@?$TypedAttribute@V?$Box@V?$Vec2@H@Imath@@@Imath@@@Imf@@UBEXAAVOStream@2@H@Z 10070610 f   ImfBoxAttribute.obj
 0002:000116c0       ?readValueFrom@?$TypedAttribute@V?$Box@V?$Vec2@H@Imath@@@Imath@@@Imf@@UAEXAAVIStream@2@HH@Z 100706c0 f   ImfBoxAttribute.obj
 0002:00011770       ?staticTypeName@?$TypedAttribute@V?$Box@V?$Vec2@M@Imath@@@Imath@@@Imf@@SAPBDXZ 10070770 f   ImfBoxAttribute.obj
 0002:000117b0       ?writeValueTo@?$TypedAttribute@V?$Box@V?$Vec2@M@Imath@@@Imath@@@Imf@@UBEXAAVOStream@2@H@Z 100707b0 f   ImfBoxAttribute.obj
 0002:00011870       ?readValueFrom@?$TypedAttribute@V?$Box@V?$Vec2@M@Imath@@@Imath@@@Imf@@UAEXAAVIStream@2@HH@Z 10070870 f   ImfBoxAttribute.obj
 0002:00011920       ??$write@UStreamIO@Imf@@VOStream@2@@Xdr@Imf@@YAXAAVOStream@1@H@Z 10070920 f i ImfBoxAttribute.obj
 0002:000119e0       ??$read@UStreamIO@Imf@@VIStream@2@@Xdr@Imf@@YAXAAVIStream@1@AAH@Z 100709e0 f i ImfBoxAttribute.obj
 0002:00011ab0       ??$writeSignedChars@UStreamIO@Imf@@VOStream@2@@Xdr@Imf@@YAXAAVOStream@1@QBCH@Z 10070ab0 f i ImfBoxAttribute.obj
 0002:00011b10       ??$readSignedChars@UStreamIO@Imf@@VIStream@2@@Xdr@Imf@@YAXAAVIStream@1@QACH@Z 10070b10 f i ImfBoxAttribute.obj
 0002:00011b70       ??0Channel@Imf@@QAE@W4PixelType@1@HH@Z 10070b70 f   ImfChannelList.obj
 0002:00011bd0       ??8Channel@Imf@@QBE_NABU01@@Z 10070bd0 f   ImfChannelList.obj
 0002:00011c60       ?insert@ChannelList@Imf@@QAEXQBDABUChannel@2@@Z 10070c60 f   ImfChannelList.obj
 0002:00011e20       ??0Name@Imf@@QAE@QBD@Z     10070e20 f i ImfChannelList.obj
 0002:00011e90       ??4Name@Imf@@QAEAAV01@QBD@Z 10070e90 f i ImfChannelList.obj
 0002:00011f00       ??AChannelList@Imf@@QAEAAUChannel@1@QBD@Z 10070f00 f   ImfChannelList.obj
 0002:00012180       ??1iterator@?$_Tree@V?$_Tmap_traits@VName@Imf@@UChannel@2@U?$less@VName@Imf@@@std@@V?$allocator@U?$pair@$$CBVName@Imf@@UChannel@2@@std@@@5@$0A@@std@@@std@@QAE@XZ 10071180 f i ImfChannelList.obj
 0002:000121d0       ??1const_iterator@?$_Tree@V?$_Tmap_traits@VName@Imf@@UChannel@2@U?$less@VName@Imf@@@std@@V?$allocator@U?$pair@$$CBVName@Imf@@UChannel@2@@std@@@5@$0A@@std@@@std@@QAE@XZ 100711d0 f i ImfChannelList.obj
 0002:00012220       ??1?$_Bidit@U?$pair@$$CBVName@Imf@@UChannel@2@@std@@HPBU12@ABU12@@std@@QAE@XZ 10071220 f i ImfChannelList.obj
 0002:00012270       ??AChannelList@Imf@@QBEABUChannel@1@QBD@Z 10071270 f   ImfChannelList.obj
 0002:000124f0       ?findChannel@ChannelList@Imf@@QAEPAUChannel@2@QBD@Z 100714f0 f   ImfChannelList.obj
 0002:00012680       ?findChannel@ChannelList@Imf@@QBEPBUChannel@2@QBD@Z 10071680 f   ImfChannelList.obj
 0002:00012810       ?begin@ChannelList@Imf@@QAE?AVIterator@12@XZ 10071810 f   ImfChannelList.obj
 0002:00012910       ??0Iterator@ChannelList@Imf@@QAE@ABViterator@?$_Tree@V?$_Tmap_traits@VName@Imf@@UChannel@2@U?$less@VName@Imf@@@std@@V?$allocator@U?$pair@$$CBVName@Imf@@UChannel@2@@std@@@5@$0A@@std@@@std@@@Z 10071910 f i ImfChannelList.obj
 0002:00012970       ??0iterator@?$_Tree@V?$_Tmap_traits@VName@Imf@@UChannel@2@U?$less@VName@Imf@@@std@@V?$allocator@U?$pair@$$CBVName@Imf@@UChannel@2@@std@@@5@$0A@@std@@@std@@QAE@ABV012@@Z 10071970 f i ImfChannelList.obj
 0002:000129d0       ??0const_iterator@?$_Tree@V?$_Tmap_traits@VName@Imf@@UChannel@2@U?$less@VName@Imf@@@std@@V?$allocator@U?$pair@$$CBVName@Imf@@UChannel@2@@std@@@5@$0A@@std@@@std@@QAE@ABV012@@Z 100719d0 f i ImfChannelList.obj
 0002:00012a40       ??0?$_Bidit@U?$pair@$$CBVName@Imf@@UChannel@2@@std@@HPBU12@ABU12@@std@@QAE@ABU01@@Z 10071a40 f i ImfChannelList.obj
 0002:00012aa0       ??1Iterator@ChannelList@Imf@@QAE@XZ 10071aa0 f i ImfChannelList.obj
 0002:00012af0       ?begin@ChannelList@Imf@@QBE?AVConstIterator@12@XZ 10071af0 f   ImfChannelList.obj
 0002:00012bf0       ??0ConstIterator@ChannelList@Imf@@QAE@ABVconst_iterator@?$_Tree@V?$_Tmap_traits@VName@Imf@@UChannel@2@U?$less@VName@Imf@@@std@@V?$allocator@U?$pair@$$CBVName@Imf@@UChannel@2@@std@@@5@$0A@@std@@@std@@@Z 10071bf0 f i ImfChannelList.obj
 0002:00012c50       ??1ConstIterator@ChannelList@Imf@@QAE@XZ 10071c50 f i ImfChannelList.obj
 0002:00012ca0       ?end@ChannelList@Imf@@QAE?AVIterator@12@XZ 10071ca0 f   ImfChannelList.obj
 0002:00012da0       ?end@ChannelList@Imf@@QBE?AVConstIterator@12@XZ 10071da0 f   ImfChannelList.obj
 0002:00012ea0       ?find@ChannelList@Imf@@QAE?AVIterator@12@QBD@Z 10071ea0 f   ImfChannelList.obj
 0002:00012fc0       ?find@ChannelList@Imf@@QBE?AVConstIterator@12@QBD@Z 10071fc0 f   ImfChannelList.obj
 0002:000130e0       ?layers@ChannelList@Imf@@QBEXAAV?$set@V?$basic_string@DU?$char_traits@D@std@@V?$allocator@D@2@@std@@U?$less@V?$basic_string@DU?$char_traits@D@std@@V?$allocator@D@2@@std@@@2@V?$allocator@V?$basic_string@DU?$char_traits@D@std@@V?$allocator@D@2@@std@@@2@@std@@@Z 100720e0 f   ImfChannelList.obj
 0002:00013360       ??EConstIterator@ChannelList@Imf@@QAEAAV012@XZ 10072360 f i ImfChannelList.obj
 0002:000133c0       ?name@ConstIterator@ChannelList@Imf@@QBEPBDXZ 100723c0 f i ImfChannelList.obj
 0002:00013420       ??DName@Imf@@QBEPBDXZ      10072420 f i ImfChannelList.obj
 0002:00013460       ??9Imf@@YA_NABVConstIterator@ChannelList@0@0@Z 10072460 f i ImfChannelList.obj
 0002:000134c0       ??8Imf@@YA_NABVConstIterator@ChannelList@0@0@Z 100724c0 f i ImfChannelList.obj
 0002:00013510       ??1?$pair@Viterator@?$_Tree@V?$_Tset_traits@V?$basic_string@DU?$char_traits@D@std@@V?$allocator@D@2@@std@@U?$less@V?$basic_string@DU?$char_traits@D@std@@V?$allocator@D@2@@std@@@2@V?$allocator@V?$basic_string@DU?$char_traits@D@std@@V?$allocator@D@2@@std@@@2@$0A@@std@@@std@@_N@std@@QAE@XZ 10072510 f i ImfChannelList.obj
 0002:00013560       ??1iterator@?$_Tree@V?$_Tset_traits@V?$basic_string@DU?$char_traits@D@std@@V?$allocator@D@2@@std@@U?$less@V?$basic_string@DU?$char_traits@D@std@@V?$allocator@D@2@@std@@@2@V?$allocator@V?$basic_string@DU?$char_traits@D@std@@V?$allocator@D@2@@std@@@2@$0A@@std@@@std@@QAE@XZ 10072560 f i ImfChannelList.obj
 0002:000135b0       ??1const_iterator@?$_Tree@V?$_Tset_traits@V?$basic_string@DU?$char_traits@D@std@@V?$allocator@D@2@@std@@U?$less@V?$basic_string@DU?$char_traits@D@std@@V?$allocator@D@2@@std@@@2@V?$allocator@V?$basic_string@DU?$char_traits@D@std@@V?$allocator@D@2@@std@@@2@$0A@@std@@@std@@QAE@XZ 100725b0 f i ImfChannelList.obj
 0002:00013600       ??1?$_Bidit@V?$basic_string@DU?$char_traits@D@std@@V?$allocator@D@2@@std@@HPBV12@ABV12@@std@@QAE@XZ 10072600 f i ImfChannelList.obj
 0002:00013650       ?channelsInLayer@ChannelList@Imf@@QAEXABV?$basic_string@DU?$char_traits@D@std@@V?$allocator@D@2@@std@@AAVIterator@12@1@Z 10072650 f   ImfChannelList.obj
 0002:00013770       ?channelsInLayer@ChannelList@Imf@@QBEXABV?$basic_string@DU?$char_traits@D@std@@V?$allocator@D@2@@std@@AAVConstIterator@12@1@Z 10072770 f   ImfChannelList.obj
 0002:00013890       ?channelsWithPrefix@ChannelList@Imf@@QAEXQBDAAVIterator@12@1@Z 10072890 f   ImfChannelList.obj
 0002:00013c20       ??EIterator@ChannelList@Imf@@QAEAAV012@XZ 10072c20 f i ImfChannelList.obj
 0002:00013c80       ?name@Iterator@ChannelList@Imf@@QBEPBDXZ 10072c80 f i ImfChannelList.obj
 0002:00013ce0       ??0ConstIterator@ChannelList@Imf@@QAE@ABVIterator@12@@Z 10072ce0 f i ImfChannelList.obj
 0002:00013d40       ??4Iterator@ChannelList@Imf@@QAEAAV012@ABV012@@Z 10072d40 f i ImfChannelList.obj
 0002:00013da0       ??4iterator@?$_Tree@V?$_Tmap_traits@VName@Imf@@UChannel@2@U?$less@VName@Imf@@@std@@V?$allocator@U?$pair@$$CBVName@Imf@@UChannel@2@@std@@@5@$0A@@std@@@std@@QAEAAV012@ABV012@@Z 10072da0 f i ImfChannelList.obj
 0002:00013e00       ??4const_iterator@?$_Tree@V?$_Tmap_traits@VName@Imf@@UChannel@2@U?$less@VName@Imf@@@std@@V?$allocator@U?$pair@$$CBVName@Imf@@UChannel@2@@std@@@5@$0A@@std@@@std@@QAEAAV012@ABV012@@Z 10072e00 f i ImfChannelList.obj
 0002:00013e70       ??4?$_Bidit@U?$pair@$$CBVName@Imf@@UChannel@2@@std@@HPBU12@ABU12@@std@@QAEAAU01@ABU01@@Z 10072e70 f i ImfChannelList.obj
 0002:00013ed0       ?channelsWithPrefix@ChannelList@Imf@@QBEXQBDAAVConstIterator@12@1@Z 10072ed0 f   ImfChannelList.obj
 0002:000141a0       ??4ConstIterator@ChannelList@Imf@@QAEAAV012@ABV012@@Z 100731a0 f i ImfChannelList.obj
 0002:00014200       ??8ChannelList@Imf@@QBE_NABV01@@Z 10073200 f   ImfChannelList.obj
 0002:00014640       ?channel@ConstIterator@ChannelList@Imf@@QBEABUChannel@3@XZ 10073640 f i ImfChannelList.obj
 0002:000146a0       ??A?$map@VName@Imf@@UChannel@2@U?$less@VName@Imf@@@std@@V?$allocator@U?$pair@$$CBVName@Imf@@UChannel@2@@std@@@5@@std@@QAEAAUChannel@Imf@@ABVName@3@@Z 100736a0 f i ImfChannelList.obj
 0002:00014950       ?begin@?$_Tree@V?$_Tmap_traits@VName@Imf@@UChannel@2@U?$less@VName@Imf@@@std@@V?$allocator@U?$pair@$$CBVName@Imf@@UChannel@2@@std@@@5@$0A@@std@@@std@@QAE?AViterator@12@XZ 10073950 f i ImfChannelList.obj
 0002:000149e0       ?begin@?$_Tree@V?$_Tmap_traits@VName@Imf@@UChannel@2@U?$less@VName@Imf@@@std@@V?$allocator@U?$pair@$$CBVName@Imf@@UChannel@2@@std@@@5@$0A@@std@@@std@@QBE?AVconst_iterator@12@XZ 100739e0 f i ImfChannelList.obj
 0002:00014a70       ?end@?$_Tree@V?$_Tmap_traits@VName@Imf@@UChannel@2@U?$less@VName@Imf@@@std@@V?$allocator@U?$pair@$$CBVName@Imf@@UChannel@2@@std@@@5@$0A@@std@@@std@@QAE?AViterator@12@XZ 10073a70 f i ImfChannelList.obj
 0002:00014b00       ?end@?$_Tree@V?$_Tmap_traits@VName@Imf@@UChannel@2@U?$less@VName@Imf@@@std@@V?$allocator@U?$pair@$$CBVName@Imf@@UChannel@2@@std@@@5@$0A@@std@@@std@@QBE?AVconst_iterator@12@XZ 10073b00 f i ImfChannelList.obj
 0002:00014b90       ?find@?$_Tree@V?$_Tmap_traits@VName@Imf@@UChannel@2@U?$less@VName@Imf@@@std@@V?$allocator@U?$pair@$$CBVName@Imf@@UChannel@2@@std@@@5@$0A@@std@@@std@@QAE?AViterator@12@ABVName@Imf@@@Z 10073b90 f i ImfChannelList.obj
 0002:00014e10       ?find@?$_Tree@V?$_Tmap_traits@VName@Imf@@UChannel@2@U?$less@VName@Imf@@@std@@V?$allocator@U?$pair@$$CBVName@Imf@@UChannel@2@@std@@@5@$0A@@std@@@std@@QBE?AVconst_iterator@12@ABVName@Imf@@@Z 10073e10 f i ImfChannelList.obj
 0002:00015090       ?lower_bound@?$_Tree@V?$_Tmap_traits@VName@Imf@@UChannel@2@U?$less@VName@Imf@@@std@@V?$allocator@U?$pair@$$CBVName@Imf@@UChannel@2@@std@@@5@$0A@@std@@@std@@QAE?AViterator@12@ABVName@Imf@@@Z 10074090 f i ImfChannelList.obj
 0002:00015120       ?lower_bound@?$_Tree@V?$_Tmap_traits@VName@Imf@@UChannel@2@U?$less@VName@Imf@@@std@@V?$allocator@U?$pair@$$CBVName@Imf@@UChannel@2@@std@@@5@$0A@@std@@@std@@QBE?AVconst_iterator@12@ABVName@Imf@@@Z 10074120 f i ImfChannelList.obj
 0002:000151b0       ??Citerator@?$_Tree@V?$_Tmap_traits@VName@Imf@@UChannel@2@U?$less@VName@Imf@@@std@@V?$allocator@U?$pair@$$CBVName@Imf@@UChannel@2@@std@@@5@$0A@@std@@@std@@QBEPAU?$pair@$$CBVName@Imf@@UChannel@2@@2@XZ 100741b0 f i ImfChannelList.obj
 0002:00015200       ??Eiterator@?$_Tree@V?$_Tmap_traits@VName@Imf@@UChannel@2@U?$less@VName@Imf@@@std@@V?$allocator@U?$pair@$$CBVName@Imf@@UChannel@2@@std@@@5@$0A@@std@@@std@@QAEAAV012@XZ 10074200 f i ImfChannelList.obj
 0002:00015260       ??Cconst_iterator@?$_Tree@V?$_Tmap_traits@VName@Imf@@UChannel@2@U?$less@VName@Imf@@@std@@V?$allocator@U?$pair@$$CBVName@Imf@@UChannel@2@@std@@@5@$0A@@std@@@std@@QBEPBU?$pair@$$CBVName@Imf@@UChannel@2@@2@XZ 10074260 f i ImfChannelList.obj
 0002:000152b0       ??Econst_iterator@?$_Tree@V?$_Tmap_traits@VName@Imf@@UChannel@2@U?$less@VName@Imf@@@std@@V?$allocator@U?$pair@$$CBVName@Imf@@UChannel@2@@std@@@5@$0A@@std@@@std@@QAEAAV012@XZ 100742b0 f i ImfChannelList.obj
 0002:00015310       ??8const_iterator@?$_Tree@V?$_Tmap_traits@VName@Imf@@UChannel@2@U?$less@VName@Imf@@@std@@V?$allocator@U?$pair@$$CBVName@Imf@@UChannel@2@@std@@@5@$0A@@std@@@std@@QBE_NABV012@@Z 10074310 f i ImfChannelList.obj
 0002:00015420       ?insert@?$_Tree@V?$_Tset_traits@V?$basic_string@DU?$char_traits@D@std@@V?$allocator@D@2@@std@@U?$less@V?$basic_string@DU?$char_traits@D@std@@V?$allocator@D@2@@std@@@2@V?$allocator@V?$basic_string@DU?$char_traits@D@std@@V?$allocator@D@2@@std@@@2@$0A@@std@@@std@@QAE?AU?$pair@Viterator@?$_Tree@V?$_Tset_traits@V?$basic_string@DU?$char_traits@D@std@@V?$allocator@D@2@@std@@U?$less@V?$basic_string@DU?$char_traits@D@std@@V?$allocator@D@2@@std@@@2@V?$allocator@V?$basic_string@DU?$char_traits@D@std@@V?$allocator@D@2@@std@@@2@$0A@@std@@@std@@_N@2@ABV?$basic_string@DU?$char_traits@D@std@@V?$allocator@D@2@@2@@Z 10074420 f i ImfChannelList.obj
 0002:000158e0       ?clear@?$_Tree@V?$_Tset_traits@V?$basic_string@DU?$char_traits@D@std@@V?$allocator@D@2@@std@@U?$less@V?$basic_string@DU?$char_traits@D@std@@V?$allocator@D@2@@std@@@2@V?$allocator@V?$basic_string@DU?$char_traits@D@std@@V?$allocator@D@2@@std@@@2@$0A@@std@@@std@@QAEXXZ 100748e0 f i ImfChannelList.obj
 0002:000159a0       ?_Key@?$_Tree@V?$_Tmap_traits@VName@Imf@@UChannel@2@U?$less@VName@Imf@@@std@@V?$allocator@U?$pair@$$CBVName@Imf@@UChannel@2@@std@@@5@$0A@@std@@@std@@KAABVName@Imf@@PAU_Node@?$_Tree_nod@V?$_Tmap_traits@VName@Imf@@UChannel@2@U?$less@VName@Imf@@@std@@V?$allocator@U?$pair@$$CBVName@Imf@@UChannel@2@@std@@@5@$0A@@std@@@2@@Z 100749a0 f i ImfChannelList.obj
 0002:00015a00       ?insert@?$_Tree@V?$_Tmap_traits@VName@Imf@@UChannel@2@U?$less@VName@Imf@@@std@@V?$allocator@U?$pair@$$CBVName@Imf@@UChannel@2@@std@@@5@$0A@@std@@@std@@QAE?AViterator@12@V312@ABU?$pair@$$CBVName@Imf@@UChannel@2@@2@@Z 10074a00 f i ImfChannelList.obj
 0002:000168d0       ??0iterator@?$_Tree@V?$_Tmap_traits@VName@Imf@@UChannel@2@U?$less@VName@Imf@@@std@@V?$allocator@U?$pair@$$CBVName@Imf@@UChannel@2@@std@@@5@$0A@@std@@@std@@QAE@XZ 100758d0 f i ImfChannelList.obj
 0002:00016930       ??0const_iterator@?$_Tree@V?$_Tmap_traits@VName@Imf@@UChannel@2@U?$less@VName@Imf@@@std@@V?$allocator@U?$pair@$$CBVName@Imf@@UChannel@2@@std@@@5@$0A@@std@@@std@@QAE@XZ 10075930 f i ImfChannelList.obj
 0002:00016990       ??0?$_Bidit@U?$pair@$$CBVName@Imf@@UChannel@2@@std@@HPBU12@ABU12@@std@@QAE@XZ 10075990 f i ImfChannelList.obj
 0002:000169f0       ?_Lbound@?$_Tree@V?$_Tmap_traits@VName@Imf@@UChannel@2@U?$less@VName@Imf@@@std@@V?$allocator@U?$pair@$$CBVName@Imf@@UChannel@2@@std@@@5@$0A@@std@@@std@@IBEPAU_Node@?$_Tree_nod@V?$_Tmap_traits@VName@Imf@@UChannel@2@U?$less@VName@Imf@@@std@@V?$allocator@U?$pair@$$CBVName@Imf@@UChannel@2@@std@@@5@$0A@@std@@@2@ABVName@Imf@@@Z 100759f0 f i ImfChannelList.obj
 0002:00016af0       ?_Lmost@?$_Tree@V?$_Tmap_traits@VName@Imf@@UChannel@2@U?$less@VName@Imf@@@std@@V?$allocator@U?$pair@$$CBVName@Imf@@UChannel@2@@std@@@5@$0A@@std@@@std@@IBEAAPAU_Node@?$_Tree_nod@V?$_Tmap_traits@VName@Imf@@UChannel@2@U?$less@VName@Imf@@@std@@V?$allocator@U?$pair@$$CBVName@Imf@@UChannel@2@@std@@@5@$0A@@std@@@2@XZ 10075af0 f i ImfChannelList.obj
 0002:00016b50       ??R?$less@VName@Imf@@@std@@QBE_NABVName@Imf@@0@Z 10075b50 f i ImfChannelList.obj
 0002:00016bb0       ??MImf@@YA_NABVName@0@0@Z  10075bb0 f i ImfChannelList.obj
 0002:00016c20       ??0iterator@?$_Tree@V?$_Tmap_traits@VName@Imf@@UChannel@2@U?$less@VName@Imf@@@std@@V?$allocator@U?$pair@$$CBVName@Imf@@UChannel@2@@std@@@5@$0A@@std@@@std@@QAE@PAU_Node@?$_Tree_nod@V?$_Tmap_traits@VName@Imf@@UChannel@2@U?$less@VName@Imf@@@std@@V?$allocator@U?$pair@$$CBVName@Imf@@UChannel@2@@std@@@5@$0A@@std@@@2@PBV12@@Z 10075c20 f i ImfChannelList.obj
 0002:00016c80       ??Diterator@?$_Tree@V?$_Tmap_traits@VName@Imf@@UChannel@2@U?$less@VName@Imf@@@std@@V?$allocator@U?$pair@$$CBVName@Imf@@UChannel@2@@std@@@5@$0A@@std@@@std@@QBEAAU?$pair@$$CBVName@Imf@@UChannel@2@@2@XZ 10075c80 f i ImfChannelList.obj
 0002:00016cd0       ??0const_iterator@?$_Tree@V?$_Tmap_traits@VName@Imf@@UChannel@2@U?$less@VName@Imf@@@std@@V?$allocator@U?$pair@$$CBVName@Imf@@UChannel@2@@std@@@5@$0A@@std@@@std@@QAE@PAU_Node@?$_Tree_nod@V?$_Tmap_traits@VName@Imf@@UChannel@2@U?$less@VName@Imf@@@std@@V?$allocator@U?$pair@$$CBVName@Imf@@UChannel@2@@std@@@5@$0A@@std@@@2@PBV12@@Z 10075cd0 f i ImfChannelList.obj
 0002:00016d90       ??Dconst_iterator@?$_Tree@V?$_Tmap_traits@VName@Imf@@UChannel@2@U?$less@VName@Imf@@@std@@V?$allocator@U?$pair@$$CBVName@Imf@@UChannel@2@@std@@@5@$0A@@std@@@std@@QBEABU?$pair@$$CBVName@Imf@@UChannel@2@@2@XZ 10075d90 f i ImfChannelList.obj
 0002:00016ea0       ?_Inc@const_iterator@?$_Tree@V?$_Tmap_traits@VName@Imf@@UChannel@2@U?$less@VName@Imf@@@std@@V?$allocator@U?$pair@$$CBVName@Imf@@UChannel@2@@std@@@5@$0A@@std@@@std@@QAEXXZ 10075ea0 f i ImfChannelList.obj
 0002:00017060       ?_Mynode@const_iterator@?$_Tree@V?$_Tmap_traits@VName@Imf@@UChannel@2@U?$less@VName@Imf@@@std@@V?$allocator@U?$pair@$$CBVName@Imf@@UChannel@2@@std@@@5@$0A@@std@@@std@@QBEPAU_Node@?$_Tree_nod@V?$_Tmap_traits@VName@Imf@@UChannel@2@U?$less@VName@Imf@@@std@@V?$allocator@U?$pair@$$CBVName@Imf@@UChannel@2@@std@@@5@$0A@@std@@@3@XZ 10076060 f i ImfChannelList.obj
 0002:000170a0       ??0?$pair@$$CBVName@Imf@@UChannel@2@@std@@QAE@ABVName@Imf@@ABUChannel@3@@Z 100760a0 f i ImfChannelList.obj
 0002:00017110       ?_Isnil@?$_Tree@V?$_Tset_traits@V?$basic_string@DU?$char_traits@D@std@@V?$allocator@D@2@@std@@U?$less@V?$basic_string@DU?$char_traits@D@std@@V?$allocator@D@2@@std@@@2@V?$allocator@V?$basic_string@DU?$char_traits@D@std@@V?$allocator@D@2@@std@@@2@$0A@@std@@@std@@KAAADPAU_Node@?$_Tree_nod@V?$_Tset_traits@V?$basic_string@DU?$char_traits@D@std@@V?$allocator@D@2@@std@@U?$less@V?$basic_string@DU?$char_traits@D@std@@V?$allocator@D@2@@std@@@2@V?$allocator@V?$basic_string@DU?$char_traits@D@std@@V?$allocator@D@2@@std@@@2@$0A@@std@@@2@@Z 10076110 f i ImfChannelList.obj
 0002:00017150       ?_Key@?$_Tree@V?$_Tset_traits@V?$basic_string@DU?$char_traits@D@std@@V?$allocator@D@2@@std@@U?$less@V?$basic_string@DU?$char_traits@D@std@@V?$allocator@D@2@@std@@@2@V?$allocator@V?$basic_string@DU?$char_traits@D@std@@V?$allocator@D@2@@std@@@2@$0A@@std@@@std@@KAABV?$basic_string@DU?$char_traits@D@std@@V?$allocator@D@2@@2@PAU_Node@?$_Tree_nod@V?$_Tset_traits@V?$basic_string@DU?$char_traits@D@std@@V?$allocator@D@2@@std@@U?$less@V?$basic_string@DU?$char_traits@D@std@@V?$allocator@D@2@@std@@@2@V?$allocator@V?$basic_string@DU?$char_traits@D@std@@V?$allocator@D@2@@std@@@2@$0A@@std@@@2@@Z 10076150 f i ImfChannelList.obj
 0002:000171b0       ?_Left@?$_Tree@V?$_Tset_traits@V?$basic_string@DU?$char_traits@D@std@@V?$allocator@D@2@@std@@U?$less@V?$basic_string@DU?$char_traits@D@std@@V?$allocator@D@2@@std@@@2@V?$allocator@V?$basic_string@DU?$char_traits@D@std@@V?$allocator@D@2@@std@@@2@$0A@@std@@@std@@KAAAPAU_Node@?$_Tree_nod@V?$_Tset_traits@V?$basic_string@DU?$char_traits@D@std@@V?$allocator@D@2@@std@@U?$less@V?$basic_string@DU?$char_traits@D@std@@V?$allocator@D@2@@std@@@2@V?$allocator@V?$basic_string@DU?$char_traits@D@std@@V?$allocator@D@2@@std@@@2@$0A@@std@@@2@PAU342@@Z 100761b0 f i ImfChannelList.obj
 0002:000171f0       ?_Right@?$_Tree@V?$_Tset_traits@V?$basic_string@DU?$char_traits@D@std@@V?$allocator@D@2@@std@@U?$less@V?$basic_string@DU?$char_traits@D@std@@V?$allocator@D@2@@std@@@2@V?$allocator@V?$basic_string@DU?$char_traits@D@std@@V?$allocator@D@2@@std@@@2@$0A@@std@@@std@@KAAAPAU_Node@?$_Tree_nod@V?$_Tset_traits@V?$basic_string@DU?$char_traits@D@std@@V?$allocator@D@2@@std@@U?$less@V?$basic_string@DU?$char_traits@D@std@@V?$allocator@D@2@@std@@@2@V?$allocator@V?$basic_string@DU?$char_traits@D@std@@V?$allocator@D@2@@std@@@2@$0A@@std@@@2@PAU342@@Z 100761f0 f i ImfChannelList.obj
 0002:00017230       ?begin@?$_Tree@V?$_Tset_traits@V?$basic_string@DU?$char_traits@D@std@@V?$allocator@D@2@@std@@U?$less@V?$basic_string@DU?$char_traits@D@std@@V?$allocator@D@2@@std@@@2@V?$allocator@V?$basic_string@DU?$char_traits@D@std@@V?$allocator@D@2@@std@@@2@$0A@@std@@@std@@QAE?AViterator@12@XZ 10076230 f i ImfChannelList.obj
 0002:000172c0       ?_Erase@?$_Tree@V?$_Tset_traits@V?$basic_string@DU?$char_traits@D@std@@V?$allocator@D@2@@std@@U?$less@V?$basic_string@DU?$char_traits@D@std@@V?$allocator@D@2@@std@@@2@V?$allocator@V?$basic_string@DU?$char_traits@D@std@@V?$allocator@D@2@@std@@@2@$0A@@std@@@std@@IAEXPAU_Node@?$_Tree_nod@V?$_Tset_traits@V?$basic_string@DU?$char_traits@D@std@@V?$allocator@D@2@@std@@U?$less@V?$basic_string@DU?$char_traits@D@std@@V?$allocator@D@2@@std@@@2@V?$allocator@V?$basic_string@DU?$char_traits@D@std@@V?$allocator@D@2@@std@@@2@$0A@@std@@@2@@Z 100762c0 f i ImfChannelList.obj
 0002:00017390       ?_Insert@?$_Tree@V?$_Tset_traits@V?$basic_string@DU?$char_traits@D@std@@V?$allocator@D@2@@std@@U?$less@V?$basic_string@DU?$char_traits@D@std@@V?$allocator@D@2@@std@@@2@V?$allocator@V?$basic_string@DU?$char_traits@D@std@@V?$allocator@D@2@@std@@@2@$0A@@std@@@std@@IAE?AViterator@12@_NPAU_Node@?$_Tree_nod@V?$_Tset_traits@V?$basic_string@DU?$char_traits@D@std@@V?$allocator@D@2@@std@@U?$less@V?$basic_string@DU?$char_traits@D@std@@V?$allocator@D@2@@std@@@2@V?$allocator@V?$basic_string@DU?$char_traits@D@std@@V?$allocator@D@2@@std@@@2@$0A@@std@@@2@ABV?$basic_string@DU?$char_traits@D@std@@V?$allocator@D@2@@2@@Z 10076390 f i ImfChannelList.obj
 0002:000179a0       ?_Lmost@?$_Tree@V?$_Tset_traits@V?$basic_string@DU?$char_traits@D@std@@V?$allocator@D@2@@std@@U?$less@V?$basic_string@DU?$char_traits@D@std@@V?$allocator@D@2@@std@@@2@V?$allocator@V?$basic_string@DU?$char_traits@D@std@@V?$allocator@D@2@@std@@@2@$0A@@std@@@std@@IBEAAPAU_Node@?$_Tree_nod@V?$_Tset_traits@V?$basic_string@DU?$char_traits@D@std@@V?$allocator@D@2@@std@@U?$less@V?$basic_string@DU?$char_traits@D@std@@V?$allocator@D@2@@std@@@2@V?$allocator@V?$basic_string@DU?$char_traits@D@std@@V?$allocator@D@2@@std@@@2@$0A@@std@@@2@XZ 100769a0 f i ImfChannelList.obj
 0002:00017a00       ?_Rmost@?$_Tree@V?$_Tset_traits@V?$basic_string@DU?$char_traits@D@std@@V?$allocator@D@2@@std@@U?$less@V?$basic_string@DU?$char_traits@D@std@@V?$allocator@D@2@@std@@@2@V?$allocator@V?$basic_string@DU?$char_traits@D@std@@V?$allocator@D@2@@std@@@2@$0A@@std@@@std@@IBEAAPAU_Node@?$_Tree_nod@V?$_Tset_traits@V?$basic_string@DU?$char_traits@D@std@@V?$allocator@D@2@@std@@U?$less@V?$basic_string@DU?$char_traits@D@std@@V?$allocator@D@2@@std@@@2@V?$allocator@V?$basic_string@DU?$char_traits@D@std@@V?$allocator@D@2@@std@@@2@$0A@@std@@@2@XZ 10076a00 f i ImfChannelList.obj
 0002:00017a60       ?_Root@?$_Tree@V?$_Tset_traits@V?$basic_string@DU?$char_traits@D@std@@V?$allocator@D@2@@std@@U?$less@V?$basic_string@DU?$char_traits@D@std@@V?$allocator@D@2@@std@@@2@V?$allocator@V?$basic_string@DU?$char_traits@D@std@@V?$allocator@D@2@@std@@@2@$0A@@std@@@std@@IBEAAPAU_Node@?$_Tree_nod@V?$_Tset_traits@V?$basic_string@DU?$char_traits@D@std@@V?$allocator@D@2@@std@@U?$less@V?$basic_string@DU?$char_traits@D@std@@V?$allocator@D@2@@std@@@2@V?$allocator@V?$basic_string@DU?$char_traits@D@std@@V?$allocator@D@2@@std@@@2@$0A@@std@@@2@XZ 10076a60 f i ImfChannelList.obj
 0002:00017ac0       ?_Orphan_ptr@?$_Tree@V?$_Tset_traits@V?$basic_string@DU?$char_traits@D@std@@V?$allocator@D@2@@std@@U?$less@V?$basic_string@DU?$char_traits@D@std@@V?$allocator@D@2@@std@@@2@V?$allocator@V?$basic_string@DU?$char_traits@D@std@@V?$allocator@D@2@@std@@@2@$0A@@std@@@std@@IBEXAAV12@PAU_Node@?$_Tree_nod@V?$_Tset_traits@V?$basic_string@DU?$char_traits@D@std@@V?$allocator@D@2@@std@@U?$less@V?$basic_string@DU?$char_traits@D@std@@V?$allocator@D@2@@std@@@2@V?$allocator@V?$basic_string@DU?$char_traits@D@std@@V?$allocator@D@2@@std@@@2@$0A@@std@@@2@@Z 10076ac0 f i ImfChannelList.obj
 0002:00017be0       ?_Kfn@?$_Tset_traits@V?$basic_string@DU?$char_traits@D@std@@V?$allocator@D@2@@std@@U?$less@V?$basic_string@DU?$char_traits@D@std@@V?$allocator@D@2@@std@@@2@V?$allocator@V?$basic_string@DU?$char_traits@D@std@@V?$allocator@D@2@@std@@@2@$0A@@std@@SAABV?$basic_string@DU?$char_traits@D@std@@V?$allocator@D@2@@2@ABV32@@Z 10076be0 f i ImfChannelList.obj
 0002:00017c20       ??0?$pair@Viterator@?$_Tree@V?$_Tset_traits@V?$basic_string@DU?$char_traits@D@std@@V?$allocator@D@2@@std@@U?$less@V?$basic_string@DU?$char_traits@D@std@@V?$allocator@D@2@@std@@@2@V?$allocator@V?$basic_string@DU?$char_traits@D@std@@V?$allocator@D@2@@std@@@2@$0A@@std@@@std@@_N@std@@QAE@ABViterator@?$_Tree@V?$_Tset_traits@V?$basic_string@DU?$char_traits@D@std@@V?$allocator@D@2@@std@@U?$less@V?$basic_string@DU?$char_traits@D@std@@V?$allocator@D@2@@std@@@2@V?$allocator@V?$basic_string@DU?$char_traits@D@std@@V?$allocator@D@2@@std@@@2@$0A@@std@@@1@AB_N@Z 10076c20 f i ImfChannelList.obj
 0002:00017c90       ??0iterator@?$_Tree@V?$_Tset_traits@V?$basic_string@DU?$char_traits@D@std@@V?$allocator@D@2@@std@@U?$less@V?$basic_string@DU?$char_traits@D@std@@V?$allocator@D@2@@std@@@2@V?$allocator@V?$basic_string@DU?$char_traits@D@std@@V?$allocator@D@2@@std@@@2@$0A@@std@@@std@@QAE@PAU_Node@?$_Tree_nod@V?$_Tset_traits@V?$basic_string@DU?$char_traits@D@std@@V?$allocator@D@2@@std@@U?$less@V?$basic_string@DU?$char_traits@D@std@@V?$allocator@D@2@@std@@@2@V?$allocator@V?$basic_string@DU?$char_traits@D@std@@V?$allocator@D@2@@std@@@2@$0A@@std@@@2@PBV12@@Z 10076c90 f i ImfChannelList.obj
 0002:00017cf0       ??Fiterator@?$_Tree@V?$_Tset_traits@V?$basic_string@DU?$char_traits@D@std@@V?$allocator@D@2@@std@@U?$less@V?$basic_string@DU?$char_traits@D@std@@V?$allocator@D@2@@std@@@2@V?$allocator@V?$basic_string@DU?$char_traits@D@std@@V?$allocator@D@2@@std@@@2@$0A@@std@@@std@@QAEAAV012@XZ 10076cf0 f i ImfChannelList.obj
 0002:00017d50       ??8const_iterator@?$_Tree@V?$_Tset_traits@V?$basic_string@DU?$char_traits@D@std@@V?$allocator@D@2@@std@@U?$less@V?$basic_string@DU?$char_traits@D@std@@V?$allocator@D@2@@std@@@2@V?$allocator@V?$basic_string@DU?$char_traits@D@std@@V?$allocator@D@2@@std@@@2@$0A@@std@@@std@@QBE_NABV012@@Z 10076d50 f i ImfChannelList.obj
 0002:00017e60       ?_Mynode@const_iterator@?$_Tree@V?$_Tset_traits@V?$basic_string@DU?$char_traits@D@std@@V?$allocator@D@2@@std@@U?$less@V?$basic_string@DU?$char_traits@D@std@@V?$allocator@D@2@@std@@@2@V?$allocator@V?$basic_string@DU?$char_traits@D@std@@V?$allocator@D@2@@std@@@2@$0A@@std@@@std@@QBEPAU_Node@?$_Tree_nod@V?$_Tset_traits@V?$basic_string@DU?$char_traits@D@std@@V?$allocator@D@2@@std@@U?$less@V?$basic_string@DU?$char_traits@D@std@@V?$allocator@D@2@@std@@@2@V?$allocator@V?$basic_string@DU?$char_traits@D@std@@V?$allocator@D@2@@std@@@2@$0A@@std@@@3@XZ 10076e60 f i ImfChannelList.obj
 0002:00017ea0       ??1?$pair@Viterator@?$_Tree@V?$_Tmap_traits@VName@Imf@@UChannel@2@U?$less@VName@Imf@@@std@@V?$allocator@U?$pair@$$CBVName@Imf@@UChannel@2@@std@@@5@$0A@@std@@@std@@_N@std@@QAE@XZ 10076ea0 f i ImfChannelList.obj
 0002:00017ef0       ??0iterator@?$_Tree@V?$_Tset_traits@V?$basic_string@DU?$char_traits@D@std@@V?$allocator@D@2@@std@@U?$less@V?$basic_string@DU?$char_traits@D@std@@V?$allocator@D@2@@std@@@2@V?$allocator@V?$basic_string@DU?$char_traits@D@std@@V?$allocator@D@2@@std@@@2@$0A@@std@@@std@@QAE@ABV012@@Z 10076ef0 f i ImfChannelList.obj
 0002:00017f50       ??0const_iterator@?$_Tree@V?$_Tset_traits@V?$basic_string@DU?$char_traits@D@std@@V?$allocator@D@2@@std@@U?$less@V?$basic_string@DU?$char_traits@D@std@@V?$allocator@D@2@@std@@@2@V?$allocator@V?$basic_string@DU?$char_traits@D@std@@V?$allocator@D@2@@std@@@2@$0A@@std@@@std@@QAE@ABV012@@Z 10076f50 f i ImfChannelList.obj
 0002:00017fc0       ??0?$_Bidit@V?$basic_string@DU?$char_traits@D@std@@V?$allocator@D@2@@std@@HPBV12@ABV12@@std@@QAE@ABU01@@Z 10076fc0 f i ImfChannelList.obj
 0002:00018020       ?_Isnil@?$_Tree@V?$_Tmap_traits@VName@Imf@@UChannel@2@U?$less@VName@Imf@@@std@@V?$allocator@U?$pair@$$CBVName@Imf@@UChannel@2@@std@@@5@$0A@@std@@@std@@KAAADPAU_Node@?$_Tree_nod@V?$_Tmap_traits@VName@Imf@@UChannel@2@U?$less@VName@Imf@@@std@@V?$allocator@U?$pair@$$CBVName@Imf@@UChannel@2@@std@@@5@$0A@@std@@@2@@Z 10077020 f i ImfChannelList.obj
 0002:00018060       ?_Left@?$_Tree@V?$_Tmap_traits@VName@Imf@@UChannel@2@U?$less@VName@Imf@@@std@@V?$allocator@U?$pair@$$CBVName@Imf@@UChannel@2@@std@@@5@$0A@@std@@@std@@KAAAPAU_Node@?$_Tree_nod@V?$_Tmap_traits@VName@Imf@@UChannel@2@U?$less@VName@Imf@@@std@@V?$allocator@U?$pair@$$CBVName@Imf@@UChannel@2@@std@@@5@$0A@@std@@@2@PAU342@@Z 10077060 f i ImfChannelList.obj
 0002:000180a0       ?_Parent@?$_Tree@V?$_Tmap_traits@VName@Imf@@UChannel@2@U?$less@VName@Imf@@@std@@V?$allocator@U?$pair@$$CBVName@Imf@@UChannel@2@@std@@@5@$0A@@std@@@std@@KAAAPAU_Node@?$_Tree_nod@V?$_Tmap_traits@VName@Imf@@UChannel@2@U?$less@VName@Imf@@@std@@V?$allocator@U?$pair@$$CBVName@Imf@@UChannel@2@@std@@@5@$0A@@std@@@2@PAU342@@Z 100770a0 f i ImfChannelList.obj
 0002:000180e0       ?_Right@?$_Tree@V?$_Tmap_traits@VName@Imf@@UChannel@2@U?$less@VName@Imf@@@std@@V?$allocator@U?$pair@$$CBVName@Imf@@UChannel@2@@std@@@5@$0A@@std@@@std@@KAAAPAU_Node@?$_Tree_nod@V?$_Tmap_traits@VName@Imf@@UChannel@2@U?$less@VName@Imf@@@std@@V?$allocator@U?$pair@$$CBVName@Imf@@UChannel@2@@std@@@5@$0A@@std@@@2@PAU342@@Z 100770e0 f i ImfChannelList.obj
 0002:00018120       ?_Myval@?$_Tree@V?$_Tmap_traits@VName@Imf@@UChannel@2@U?$less@VName@Imf@@@std@@V?$allocator@U?$pair@$$CBVName@Imf@@UChannel@2@@std@@@5@$0A@@std@@@std@@KAAAU?$pair@$$CBVName@Imf@@UChannel@2@@2@PAU_Node@?$_Tree_nod@V?$_Tmap_traits@VName@Imf@@UChannel@2@U?$less@VName@Imf@@@std@@V?$allocator@U?$pair@$$CBVName@Imf@@UChannel@2@@std@@@5@$0A@@std@@@2@@Z 10077120 f i ImfChannelList.obj
 0002:00018160       ?size@?$_Tree@V?$_Tmap_traits@VName@Imf@@UChannel@2@U?$less@VName@Imf@@@std@@V?$allocator@U?$pair@$$CBVName@Imf@@UChannel@2@@std@@@5@$0A@@std@@@std@@QBEIXZ 10077160 f i ImfChannelList.obj
 0002:000181a0       ?insert@?$_Tree@V?$_Tmap_traits@VName@Imf@@UChannel@2@U?$less@VName@Imf@@@std@@V?$allocator@U?$pair@$$CBVName@Imf@@UChannel@2@@std@@@5@$0A@@std@@@std@@QAE?AU?$pair@Viterator@?$_Tree@V?$_Tmap_traits@VName@Imf@@UChannel@2@U?$less@VName@Imf@@@std@@V?$allocator@U?$pair@$$CBVName@Imf@@UChannel@2@@std@@@5@$0A@@std@@@std@@_N@2@ABU?$pair@$$CBVName@Imf@@UChannel@2@@2@@Z 100771a0 f i ImfChannelList.obj
 0002:00018660       ?_Insert@?$_Tree@V?$_Tmap_traits@VName@Imf@@UChannel@2@U?$less@VName@Imf@@@std@@V?$allocator@U?$pair@$$CBVName@Imf@@UChannel@2@@std@@@5@$0A@@std@@@std@@IAE?AViterator@12@_NPAU_Node@?$_Tree_nod@V?$_Tmap_traits@VName@Imf@@UChannel@2@U?$less@VName@Imf@@@std@@V?$allocator@U?$pair@$$CBVName@Imf@@UChannel@2@@std@@@5@$0A@@std@@@2@ABU?$pair@$$CBVName@Imf@@UChannel@2@@2@@Z 10077660 f i ImfChannelList.obj
 0002:00018c70       ?_Min@?$_Tree@V?$_Tmap_traits@VName@Imf@@UChannel@2@U?$less@VName@Imf@@@std@@V?$allocator@U?$pair@$$CBVName@Imf@@UChannel@2@@std@@@5@$0A@@std@@@std@@KAPAU_Node@?$_Tree_nod@V?$_Tmap_traits@VName@Imf@@UChannel@2@U?$less@VName@Imf@@@std@@V?$allocator@U?$pair@$$CBVName@Imf@@UChannel@2@@std@@@5@$0A@@std@@@2@PAU342@@Z 10077c70 f i ImfChannelList.obj
 0002:00018cf0       ?_Rmost@?$_Tree@V?$_Tmap_traits@VName@Imf@@UChannel@2@U?$less@VName@Imf@@@std@@V?$allocator@U?$pair@$$CBVName@Imf@@UChannel@2@@std@@@5@$0A@@std@@@std@@IBEAAPAU_Node@?$_Tree_nod@V?$_Tmap_traits@VName@Imf@@UChannel@2@U?$less@VName@Imf@@@std@@V?$allocator@U?$pair@$$CBVName@Imf@@UChannel@2@@std@@@5@$0A@@std@@@2@XZ 10077cf0 f i ImfChannelList.obj
 0002:00018d50       ?_Root@?$_Tree@V?$_Tmap_traits@VName@Imf@@UChannel@2@U?$less@VName@Imf@@@std@@V?$allocator@U?$pair@$$CBVName@Imf@@UChannel@2@@std@@@5@$0A@@std@@@std@@IBEAAPAU_Node@?$_Tree_nod@V?$_Tmap_traits@VName@Imf@@UChannel@2@U?$less@VName@Imf@@@std@@V?$allocator@U?$pair@$$CBVName@Imf@@UChannel@2@@std@@@5@$0A@@std@@@2@XZ 10077d50 f i ImfChannelList.obj
 0002:00018db0       ?_Kfn@?$_Tmap_traits@VName@Imf@@UChannel@2@U?$less@VName@Imf@@@std@@V?$allocator@U?$pair@$$CBVName@Imf@@UChannel@2@@std@@@5@$0A@@std@@SAABVName@Imf@@ABU?$pair@$$CBVName@Imf@@UChannel@2@@2@@Z 10077db0 f i ImfChannelList.obj
 0002:00018df0       ??Fiterator@?$_Tree@V?$_Tmap_traits@VName@Imf@@UChannel@2@U?$less@VName@Imf@@@std@@V?$allocator@U?$pair@$$CBVName@Imf@@UChannel@2@@std@@@5@$0A@@std@@@std@@QAEAAV012@XZ 10077df0 f i ImfChannelList.obj
 0002:00018e50       ?_Color@?$_Tree@V?$_Tset_traits@V?$basic_string@DU?$char_traits@D@std@@V?$allocator@D@2@@std@@U?$less@V?$basic_string@DU?$char_traits@D@std@@V?$allocator@D@2@@std@@@2@V?$allocator@V?$basic_string@DU?$char_traits@D@std@@V?$allocator@D@2@@std@@@2@$0A@@std@@@std@@KAAADPAU_Node@?$_Tree_nod@V?$_Tset_traits@V?$basic_string@DU?$char_traits@D@std@@V?$allocator@D@2@@std@@U?$less@V?$basic_string@DU?$char_traits@D@std@@V?$allocator@D@2@@std@@@2@V?$allocator@V?$basic_string@DU?$char_traits@D@std@@V?$allocator@D@2@@std@@@2@$0A@@std@@@2@@Z 10077e50 f i ImfChannelList.obj
 0002:00018e90       ?_Parent@?$_Tree@V?$_Tset_traits@V?$basic_string@DU?$char_traits@D@std@@V?$allocator@D@2@@std@@U?$less@V?$basic_string@DU?$char_traits@D@std@@V?$allocator@D@2@@std@@@2@V?$allocator@V?$basic_string@DU?$char_traits@D@std@@V?$allocator@D@2@@std@@@2@$0A@@std@@@std@@KAAAPAU_Node@?$_Tree_nod@V?$_Tset_traits@V?$basic_string@DU?$char_traits@D@std@@V?$allocator@D@2@@std@@U?$less@V?$basic_string@DU?$char_traits@D@std@@V?$allocator@D@2@@std@@@2@V?$allocator@V?$basic_string@DU?$char_traits@D@std@@V?$allocator@D@2@@std@@@2@$0A@@std@@@2@PAU342@@Z 10077e90 f i ImfChannelList.obj
 0002:00018ed0       ?_Myval@?$_Tree@V?$_Tset_traits@V?$basic_string@DU?$char_traits@D@std@@V?$allocator@D@2@@std@@U?$less@V?$basic_string@DU?$char_traits@D@std@@V?$allocator@D@2@@std@@@2@V?$allocator@V?$basic_string@DU?$char_traits@D@std@@V?$allocator@D@2@@std@@@2@$0A@@std@@@std@@KAAAV?$basic_string@DU?$char_traits@D@std@@V?$allocator@D@2@@2@PAU_Node@?$_Tree_nod@V?$_Tset_traits@V?$basic_string@DU?$char_traits@D@std@@V?$allocator@D@2@@std@@U?$less@V?$basic_string@DU?$char_traits@D@std@@V?$allocator@D@2@@std@@@2@V?$allocator@V?$basic_string@DU?$char_traits@D@std@@V?$allocator@D@2@@std@@@2@$0A@@std@@@2@@Z 10077ed0 f i ImfChannelList.obj
 0002:00018f10       ?max_size@?$_Tree@V?$_Tset_traits@V?$basic_string@DU?$char_traits@D@std@@V?$allocator@D@2@@std@@U?$less@V?$basic_string@DU?$char_traits@D@std@@V?$allocator@D@2@@std@@@2@V?$allocator@V?$basic_string@DU?$char_traits@D@std@@V?$allocator@D@2@@std@@@2@$0A@@std@@@std@@QBEIXZ 10077f10 f i ImfChannelList.obj
 0002:00018f70       ?_Lrotate@?$_Tree@V?$_Tset_traits@V?$basic_string@DU?$char_traits@D@std@@V?$allocator@D@2@@std@@U?$less@V?$basic_string@DU?$char_traits@D@std@@V?$allocator@D@2@@std@@@2@V?$allocator@V?$basic_string@DU?$char_traits@D@std@@V?$allocator@D@2@@std@@@2@$0A@@std@@@std@@IAEXPAU_Node@?$_Tree_nod@V?$_Tset_traits@V?$basic_string@DU?$char_traits@D@std@@V?$allocator@D@2@@std@@U?$less@V?$basic_string@DU?$char_traits@D@std@@V?$allocator@D@2@@std@@@2@V?$allocator@V?$basic_string@DU?$char_traits@D@std@@V?$allocator@D@2@@std@@@2@$0A@@std@@@2@@Z 10077f70 f i ImfChannelList.obj
 0002:00019120       ?_Rrotate@?$_Tree@V?$_Tset_traits@V?$basic_string@DU?$char_traits@D@std@@V?$allocator@D@2@@std@@U?$less@V?$basic_string@DU?$char_traits@D@std@@V?$allocator@D@2@@std@@@2@V?$allocator@V?$basic_string@DU?$char_traits@D@std@@V?$allocator@D@2@@std@@@2@$0A@@std@@@std@@IAEXPAU_Node@?$_Tree_nod@V?$_Tset_traits@V?$basic_string@DU?$char_traits@D@std@@V?$allocator@D@2@@std@@U?$less@V?$basic_string@DU?$char_traits@D@std@@V?$allocator@D@2@@std@@@2@V?$allocator@V?$basic_string@DU?$char_traits@D@std@@V?$allocator@D@2@@std@@@2@$0A@@std@@@2@@Z 10078120 f i ImfChannelList.obj
 0002:000192d0       ?_Buynode@?$_Tree@V?$_Tset_traits@V?$basic_string@DU?$char_traits@D@std@@V?$allocator@D@2@@std@@U?$less@V?$basic_string@DU?$char_traits@D@std@@V?$allocator@D@2@@std@@@2@V?$allocator@V?$basic_string@DU?$char_traits@D@std@@V?$allocator@D@2@@std@@@2@$0A@@std@@@std@@IAEPAU_Node@?$_Tree_nod@V?$_Tset_traits@V?$basic_string@DU?$char_traits@D@std@@V?$allocator@D@2@@std@@U?$less@V?$basic_string@DU?$char_traits@D@std@@V?$allocator@D@2@@std@@@2@V?$allocator@V?$basic_string@DU?$char_traits@D@std@@V?$allocator@D@2@@std@@@2@$0A@@std@@@2@PAU342@00ABV?$basic_string@DU?$char_traits@D@std@@V?$allocator@D@2@@2@D@Z 100782d0 f i ImfChannelList.obj
 0002:00019430       ?deallocate@?$allocator@U_Node@?$_Tree_nod@V?$_Tset_traits@V?$basic_string@DU?$char_traits@D@std@@V?$allocator@D@2@@std@@U?$less@V?$basic_string@DU?$char_traits@D@std@@V?$allocator@D@2@@std@@@2@V?$allocator@V?$basic_string@DU?$char_traits@D@std@@V?$allocator@D@2@@std@@@2@$0A@@std@@@std@@@std@@QAEXPAU_Node@?$_Tree_nod@V?$_Tset_traits@V?$basic_string@DU?$char_traits@D@std@@V?$allocator@D@2@@std@@U?$less@V?$basic_string@DU?$char_traits@D@std@@V?$allocator@D@2@@std@@@2@V?$allocator@V?$basic_string@DU?$char_traits@D@std@@V?$allocator@D@2@@std@@@2@$0A@@std@@@2@I@Z 10078430 f i ImfChannelList.obj
 0002:00019490       ?destroy@?$allocator@U_Node@?$_Tree_nod@V?$_Tset_traits@V?$basic_string@DU?$char_traits@D@std@@V?$allocator@D@2@@std@@U?$less@V?$basic_string@DU?$char_traits@D@std@@V?$allocator@D@2@@std@@@2@V?$allocator@V?$basic_string@DU?$char_traits@D@std@@V?$allocator@D@2@@std@@@2@$0A@@std@@@std@@@std@@QAEXPAU_Node@?$_Tree_nod@V?$_Tset_traits@V?$basic_string@DU?$char_traits@D@std@@V?$allocator@D@2@@std@@U?$less@V?$basic_string@DU?$char_traits@D@std@@V?$allocator@D@2@@std@@@2@V?$allocator@V?$basic_string@DU?$char_traits@D@std@@V?$allocator@D@2@@std@@@2@$0A@@std@@@2@@Z 10078490 f i ImfChannelList.obj
 0002:000194f0       ??0const_iterator@?$_Tree@V?$_Tset_traits@V?$basic_string@DU?$char_traits@D@std@@V?$allocator@D@2@@std@@U?$less@V?$basic_string@DU?$char_traits@D@std@@V?$allocator@D@2@@std@@@2@V?$allocator@V?$basic_string@DU?$char_traits@D@std@@V?$allocator@D@2@@std@@@2@$0A@@std@@@std@@QAE@PAU_Node@?$_Tree_nod@V?$_Tset_traits@V?$basic_string@DU?$char_traits@D@std@@V?$allocator@D@2@@std@@U?$less@V?$basic_string@DU?$char_traits@D@std@@V?$allocator@D@2@@std@@@2@V?$allocator@V?$basic_string@DU?$char_traits@D@std@@V?$allocator@D@2@@std@@@2@$0A@@std@@@2@PBV12@@Z 100784f0 f i ImfChannelList.obj
 0002:000195b0       ??Fconst_iterator@?$_Tree@V?$_Tset_traits@V?$basic_string@DU?$char_traits@D@std@@V?$allocator@D@2@@std@@U?$less@V?$basic_string@DU?$char_traits@D@std@@V?$allocator@D@2@@std@@@2@V?$allocator@V?$basic_string@DU?$char_traits@D@std@@V?$allocator@D@2@@std@@@2@$0A@@std@@@std@@QAEAAV012@XZ 100785b0 f i ImfChannelList.obj
 0002:00019610       ??0?$_Bidit@V?$basic_string@DU?$char_traits@D@std@@V?$allocator@D@2@@std@@HPBV12@ABV12@@std@@QAE@XZ 10078610 f i ImfChannelList.obj
 0002:00019670       ?_Color@?$_Tree@V?$_Tmap_traits@VName@Imf@@UChannel@2@U?$less@VName@Imf@@@std@@V?$allocator@U?$pair@$$CBVName@Imf@@UChannel@2@@std@@@5@$0A@@std@@@std@@KAAADPAU_Node@?$_Tree_nod@V?$_Tmap_traits@VName@Imf@@UChannel@2@U?$less@VName@Imf@@@std@@V?$allocator@U?$pair@$$CBVName@Imf@@UChannel@2@@std@@@5@$0A@@std@@@2@@Z 10078670 f i ImfChannelList.obj
 0002:000196b0       ?max_size@?$_Tree@V?$_Tmap_traits@VName@Imf@@UChannel@2@U?$less@VName@Imf@@@std@@V?$allocator@U?$pair@$$CBVName@Imf@@UChannel@2@@std@@@5@$0A@@std@@@std@@QBEIXZ 100786b0 f i ImfChannelList.obj
 0002:00019710       ?_Lrotate@?$_Tree@V?$_Tmap_traits@VName@Imf@@UChannel@2@U?$less@VName@Imf@@@std@@V?$allocator@U?$pair@$$CBVName@Imf@@UChannel@2@@std@@@5@$0A@@std@@@std@@IAEXPAU_Node@?$_Tree_nod@V?$_Tmap_traits@VName@Imf@@UChannel@2@U?$less@VName@Imf@@@std@@V?$allocator@U?$pair@$$CBVName@Imf@@UChannel@2@@std@@@5@$0A@@std@@@2@@Z 10078710 f i ImfChannelList.obj
 0002:000198c0       ?_Rrotate@?$_Tree@V?$_Tmap_traits@VName@Imf@@UChannel@2@U?$less@VName@Imf@@@std@@V?$allocator@U?$pair@$$CBVName@Imf@@UChannel@2@@std@@@5@$0A@@std@@@std@@IAEXPAU_Node@?$_Tree_nod@V?$_Tmap_traits@VName@Imf@@UChannel@2@U?$less@VName@Imf@@@std@@V?$allocator@U?$pair@$$CBVName@Imf@@UChannel@2@@std@@@5@$0A@@std@@@2@@Z 100788c0 f i ImfChannelList.obj
 0002:00019a70       ?_Buynode@?$_Tree@V?$_Tmap_traits@VName@Imf@@UChannel@2@U?$less@VName@Imf@@@std@@V?$allocator@U?$pair@$$CBVName@Imf@@UChannel@2@@std@@@5@$0A@@std@@@std@@IAEPAU_Node@?$_Tree_nod@V?$_Tmap_traits@VName@Imf@@UChannel@2@U?$less@VName@Imf@@@std@@V?$allocator@U?$pair@$$CBVName@Imf@@UChannel@2@@std@@@5@$0A@@std@@@2@PAU342@00ABU?$pair@$$CBVName@Imf@@UChannel@2@@2@D@Z 10078a70 f i ImfChannelList.obj
 0002:00019bd0       ??Fconst_iterator@?$_Tree@V?$_Tmap_traits@VName@Imf@@UChannel@2@U?$less@VName@Imf@@@std@@V?$allocator@U?$pair@$$CBVName@Imf@@UChannel@2@@std@@@5@$0A@@std@@@std@@QAEAAV012@XZ 10078bd0 f i ImfChannelList.obj
 0002:00019c30       ?max_size@?$allocator@V?$basic_string@DU?$char_traits@D@std@@V?$allocator@D@2@@std@@@std@@QBEIXZ 10078c30 f i ImfChannelList.obj
 0002:00019ca0       ?allocate@?$allocator@U_Node@?$_Tree_nod@V?$_Tset_traits@V?$basic_string@DU?$char_traits@D@std@@V?$allocator@D@2@@std@@U?$less@V?$basic_string@DU?$char_traits@D@std@@V?$allocator@D@2@@std@@@2@V?$allocator@V?$basic_string@DU?$char_traits@D@std@@V?$allocator@D@2@@std@@@2@$0A@@std@@@std@@@std@@QAEPAU_Node@?$_Tree_nod@V?$_Tset_traits@V?$basic_string@DU?$char_traits@D@std@@V?$allocator@D@2@@std@@U?$less@V?$basic_string@DU?$char_traits@D@std@@V?$allocator@D@2@@std@@@2@V?$allocator@V?$basic_string@DU?$char_traits@D@std@@V?$allocator@D@2@@std@@@2@$0A@@std@@@2@I@Z 10078ca0 f i ImfChannelList.obj
 0002:00019d00       ?_Dec@const_iterator@?$_Tree@V?$_Tset_traits@V?$basic_string@DU?$char_traits@D@std@@V?$allocator@D@2@@std@@U?$less@V?$basic_string@DU?$char_traits@D@std@@V?$allocator@D@2@@std@@@2@V?$allocator@V?$basic_string@DU?$char_traits@D@std@@V?$allocator@D@2@@std@@@2@$0A@@std@@@std@@QAEXXZ 10078d00 f i ImfChannelList.obj
 0002:0001a050       ??0?$pair@Viterator@?$_Tree@V?$_Tmap_traits@VName@Imf@@UChannel@2@U?$less@VName@Imf@@@std@@V?$allocator@U?$pair@$$CBVName@Imf@@UChannel@2@@std@@@5@$0A@@std@@@std@@_N@std@@QAE@ABViterator@?$_Tree@V?$_Tmap_traits@VName@Imf@@UChannel@2@U?$less@VName@Imf@@@std@@V?$allocator@U?$pair@$$CBVName@Imf@@UChannel@2@@std@@@5@$0A@@std@@@1@AB_N@Z 10079050 f i ImfChannelList.obj
 0002:0001a0c0       ??0_Node@?$_Tree_nod@V?$_Tset_traits@V?$basic_string@DU?$char_traits@D@std@@V?$allocator@D@2@@std@@U?$less@V?$basic_string@DU?$char_traits@D@std@@V?$allocator@D@2@@std@@@2@V?$allocator@V?$basic_string@DU?$char_traits@D@std@@V?$allocator@D@2@@std@@@2@$0A@@std@@@std@@QAE@PAU012@00ABV?$basic_string@DU?$char_traits@D@std@@V?$allocator@D@2@@2@D@Z 100790c0 f i ImfChannelList.obj
 0002:0001a160       ?max_size@?$allocator@U?$pair@$$CBVName@Imf@@UChannel@2@@std@@@std@@QBEIXZ 10079160 f i ImfChannelList.obj
 0002:0001a1d0       ?deallocate@?$allocator@U_Node@?$_Tree_nod@V?$_Tmap_traits@VName@Imf@@UChannel@2@U?$less@VName@Imf@@@std@@V?$allocator@U?$pair@$$CBVName@Imf@@UChannel@2@@std@@@5@$0A@@std@@@std@@@std@@QAEXPAU_Node@?$_Tree_nod@V?$_Tmap_traits@VName@Imf@@UChannel@2@U?$less@VName@Imf@@@std@@V?$allocator@U?$pair@$$CBVName@Imf@@UChannel@2@@std@@@5@$0A@@std@@@2@I@Z 100791d0 f i ImfChannelList.obj
 0002:0001a230       ?allocate@?$allocator@U_Node@?$_Tree_nod@V?$_Tmap_traits@VName@Imf@@UChannel@2@U?$less@VName@Imf@@@std@@V?$allocator@U?$pair@$$CBVName@Imf@@UChannel@2@@std@@@5@$0A@@std@@@std@@@std@@QAEPAU_Node@?$_Tree_nod@V?$_Tmap_traits@VName@Imf@@UChannel@2@U?$less@VName@Imf@@@std@@V?$allocator@U?$pair@$$CBVName@Imf@@UChannel@2@@std@@@5@$0A@@std@@@2@I@Z 10079230 f i ImfChannelList.obj
 0002:0001a290       ?_Dec@const_iterator@?$_Tree@V?$_Tmap_traits@VName@Imf@@UChannel@2@U?$less@VName@Imf@@@std@@V?$allocator@U?$pair@$$CBVName@Imf@@UChannel@2@@std@@@5@$0A@@std@@@std@@QAEXXZ 10079290 f i ImfChannelList.obj
 0002:0001a5e0       ?_Max@?$_Tree@V?$_Tset_traits@V?$basic_string@DU?$char_traits@D@std@@V?$allocator@D@2@@std@@U?$less@V?$basic_string@DU?$char_traits@D@std@@V?$allocator@D@2@@std@@@2@V?$allocator@V?$basic_string@DU?$char_traits@D@std@@V?$allocator@D@2@@std@@@2@$0A@@std@@@std@@KAPAU_Node@?$_Tree_nod@V?$_Tset_traits@V?$basic_string@DU?$char_traits@D@std@@V?$allocator@D@2@@std@@U?$less@V?$basic_string@DU?$char_traits@D@std@@V?$allocator@D@2@@std@@@2@V?$allocator@V?$basic_string@DU?$char_traits@D@std@@V?$allocator@D@2@@std@@@2@$0A@@std@@@2@PAU342@@Z 100795e0 f i ImfChannelList.obj
 0002:0001a660       ??0_Node@?$_Tree_nod@V?$_Tmap_traits@VName@Imf@@UChannel@2@U?$less@VName@Imf@@@std@@V?$allocator@U?$pair@$$CBVName@Imf@@UChannel@2@@std@@@5@$0A@@std@@@std@@QAE@PAU012@00ABU?$pair@$$CBVName@Imf@@UChannel@2@@2@D@Z 10079660 f i ImfChannelList.obj
 0002:0001a6f0       ?_Max@?$_Tree@V?$_Tmap_traits@VName@Imf@@UChannel@2@U?$less@VName@Imf@@@std@@V?$allocator@U?$pair@$$CBVName@Imf@@UChannel@2@@std@@@5@$0A@@std@@@std@@KAPAU_Node@?$_Tree_nod@V?$_Tmap_traits@VName@Imf@@UChannel@2@U?$less@VName@Imf@@@std@@V?$allocator@U?$pair@$$CBVName@Imf@@UChannel@2@@std@@@5@$0A@@std@@@2@PAU342@@Z 100796f0 f i ImfChannelList.obj
 0002:0001a770       ??$_Debug_lt_pred@U?$less@VName@Imf@@@std@@VName@Imf@@V34@@std@@YA_NU?$less@VName@Imf@@@0@ABVName@Imf@@1PB_WI@Z 10079770 f i ImfChannelList.obj
 0002:0001a820       ??$_Debug_lt_pred@U?$less@V?$basic_string@DU?$char_traits@D@std@@V?$allocator@D@2@@std@@@std@@V?$basic_string@DU?$char_traits@D@std@@V?$allocator@D@2@@2@V32@@std@@YA_NU?$less@V?$basic_string@DU?$char_traits@D@std@@V?$allocator@D@2@@std@@@0@ABV?$basic_string@DU?$char_traits@D@std@@V?$allocator@D@2@@0@1PB_WI@Z 10079820 f i ImfChannelList.obj
 0002:0001a8d0       ??$_Destroy@U_Node@?$_Tree_nod@V?$_Tset_traits@V?$basic_string@DU?$char_traits@D@std@@V?$allocator@D@2@@std@@U?$less@V?$basic_string@DU?$char_traits@D@std@@V?$allocator@D@2@@std@@@2@V?$allocator@V?$basic_string@DU?$char_traits@D@std@@V?$allocator@D@2@@std@@@2@$0A@@std@@@std@@@std@@YAXPAU_Node@?$_Tree_nod@V?$_Tset_traits@V?$basic_string@DU?$char_traits@D@std@@V?$allocator@D@2@@std@@U?$less@V?$basic_string@DU?$char_traits@D@std@@V?$allocator@D@2@@std@@@2@V?$allocator@V?$basic_string@DU?$char_traits@D@std@@V?$allocator@D@2@@std@@@2@$0A@@std@@@0@@Z 100798d0 f i ImfChannelList.obj
 0002:0001a920       ??$_Allocate@U_Node@?$_Tree_nod@V?$_Tset_traits@V?$basic_string@DU?$char_traits@D@std@@V?$allocator@D@2@@std@@U?$less@V?$basic_string@DU?$char_traits@D@std@@V?$allocator@D@2@@std@@@2@V?$allocator@V?$basic_string@DU?$char_traits@D@std@@V?$allocator@D@2@@std@@@2@$0A@@std@@@std@@@std@@YAPAU_Node@?$_Tree_nod@V?$_Tset_traits@V?$basic_string@DU?$char_traits@D@std@@V?$allocator@D@2@@std@@U?$less@V?$basic_string@DU?$char_traits@D@std@@V?$allocator@D@2@@std@@@2@V?$allocator@V?$basic_string@DU?$char_traits@D@std@@V?$allocator@D@2@@std@@@2@$0A@@std@@@0@IPAU120@@Z 10079920 f i ImfChannelList.obj
 0002:0001a9c0       ??$_Allocate@U_Node@?$_Tree_nod@V?$_Tmap_traits@VName@Imf@@UChannel@2@U?$less@VName@Imf@@@std@@V?$allocator@U?$pair@$$CBVName@Imf@@UChannel@2@@std@@@5@$0A@@std@@@std@@@std@@YAPAU_Node@?$_Tree_nod@V?$_Tmap_traits@VName@Imf@@UChannel@2@U?$less@VName@Imf@@@std@@V?$allocator@U?$pair@$$CBVName@Imf@@UChannel@2@@std@@@5@$0A@@std@@@0@IPAU120@@Z 100799c0 f i ImfChannelList.obj
 0002:0001aa60       ??_G_Node@?$_Tree_nod@V?$_Tset_traits@V?$basic_string@DU?$char_traits@D@std@@V?$allocator@D@2@@std@@U?$less@V?$basic_string@DU?$char_traits@D@std@@V?$allocator@D@2@@std@@@2@V?$allocator@V?$basic_string@DU?$char_traits@D@std@@V?$allocator@D@2@@std@@@2@$0A@@std@@@std@@QAEPAXI@Z 10079a60 f i ImfChannelList.obj
 0002:0001aad0       ??1_Node@?$_Tree_nod@V?$_Tset_traits@V?$basic_string@DU?$char_traits@D@std@@V?$allocator@D@2@@std@@U?$less@V?$basic_string@DU?$char_traits@D@std@@V?$allocator@D@2@@std@@@2@V?$allocator@V?$basic_string@DU?$char_traits@D@std@@V?$allocator@D@2@@std@@@2@$0A@@std@@@std@@QAE@XZ 10079ad0 f i ImfChannelList.obj
 0002:0001ab30       ??R?$less@V?$basic_string@DU?$char_traits@D@std@@V?$allocator@D@2@@std@@@std@@QBE_NABV?$basic_string@DU?$char_traits@D@std@@V?$allocator@D@2@@1@0@Z 10079b30 f i ImfChannelList.obj
 0002:0001aba0       ?staticTypeName@?$TypedAttribute@VChannelList@Imf@@@Imf@@SAPBDXZ 10079ba0 f   ImfChannelListAttribute.obj
 0002:0001abe0       ?writeValueTo@?$TypedAttribute@VChannelList@Imf@@@Imf@@UBEXAAVOStream@2@H@Z 10079be0 f   ImfChannelListAttribute.obj
 0002:0001ade0       ?readValueFrom@?$TypedAttribute@VChannelList@Imf@@@Imf@@UAEXAAVIStream@2@HH@Z 10079de0 f   ImfChannelListAttribute.obj
 0002:0001af80       ??$write@UStreamIO@Imf@@VOStream@2@@Xdr@Imf@@YAXAAVOStream@1@QBD@Z 10079f80 f i ImfChannelListAttribute.obj
 0002:0001b010       ??$pad@UStreamIO@Imf@@VOStream@2@@Xdr@Imf@@YAXAAVOStream@1@H@Z 1007a010 f i ImfChannelListAttribute.obj
 0002:0001b0d0       ??$read@UStreamIO@Imf@@VIStream@2@@Xdr@Imf@@YAXAAVIStream@1@HQAD@Z 1007a0d0 f i ImfChannelListAttribute.obj
 0002:0001b160       ??$skip@UStreamIO@Imf@@VIStream@2@@Xdr@Imf@@YAXAAVIStream@1@H@Z 1007a160 f i ImfChannelListAttribute.obj
 0002:0001b260       ??0Chromaticities@Imf@@QAE@ABV?$Vec2@M@Imath@@000@Z 1007a260 f   ImfChromaticities.obj
 0002:0001b300       ?RGBtoXYZ@Imf@@YA?AV?$Matrix44@M@Imath@@UChromaticities@1@M@Z 1007a300 f   ImfChromaticities.obj
 0002:0001b690       ?XYZtoRGB@Imf@@YA?AV?$Matrix44@M@Imath@@UChromaticities@1@M@Z 1007a690 f   ImfChromaticities.obj
 0002:0001b710       ??0Chromaticities@Imf@@QAE@ABU01@@Z 1007a710 f i ImfChromaticities.obj
 0002:0001b7b0       ??0?$Vec2@M@Imath@@QAE@ABV01@@Z 1007a7b0 f i ImfChromaticities.obj
 0002:0001b810       ??A?$Matrix44@M@Imath@@QAEPAMH@Z 1007a810 f i ImfChromaticities.obj
 0002:0001b860       ??0?$Matrix44@M@Imath@@QAE@ABV01@@Z 1007a860 f i ImfChromaticities.obj
 0002:0001b990       ??0?$Matrix44@M@Imath@@QAE@XZ 1007a990 f i ImfChromaticities.obj
 0002:0001ba70       ?inverse@?$Matrix44@M@Imath@@QBE?AV12@_N@Z 1007aa70 f i ImfChromaticities.obj
 0002:0001c1e0       ??0SingMatrixExc@Imath@@QAE@PBD@Z 1007b1e0 f i ImfChromaticities.obj
 0002:0001c250       ??0MathExc@Iex@@QAE@PBD@Z  1007b250 f i ImfChromaticities.obj
 0002:0001c2c0       ??_GMathExc@Iex@@UAEPAXI@Z 1007b2c0 f i ImfChromaticities.obj
 0002:0001c2c0       ??_EMathExc@Iex@@UAEPAXI@Z 1007b2c0 f i ImfChromaticities.obj
 0002:0001c330       ??1MathExc@Iex@@UAE@XZ     1007b330 f i ImfChromaticities.obj
 0002:0001c380       ??_GSingMatrixExc@Imath@@UAEPAXI@Z 1007b380 f i ImfChromaticities.obj
 0002:0001c380       ??_ESingMatrixExc@Imath@@UAEPAXI@Z 1007b380 f i ImfChromaticities.obj
 0002:0001c3f0       ??1SingMatrixExc@Imath@@UAE@XZ 1007b3f0 f i ImfChromaticities.obj
 0002:0001c440       ?smallest@?$limits@M@Imath@@SAMXZ 1007b440 f i ImfChromaticities.obj
 0002:0001c480       ??0SingMatrixExc@Imath@@QAE@ABV01@@Z 1007b480 f i ImfChromaticities.obj
 0002:0001c4f0       ??0MathExc@Iex@@QAE@ABV01@@Z 1007b4f0 f i ImfChromaticities.obj
 0002:0001c560       ??0?$Matrix44@M@Imath@@QAE@MMMMMMMMMMMMMMMM@Z 1007b560 f i ImfChromaticities.obj
 0002:0001c650       ?gjInverse@?$Matrix44@M@Imath@@QBE?AV12@_N@Z 1007b650 f i ImfChromaticities.obj
 0002:0001cd60       ??$abs@M@Imath@@YAMM@Z     1007bd60 f i ImfChromaticities.obj
 0002:0001cdd0       ?staticTypeName@?$TypedAttribute@UChromaticities@Imf@@@Imf@@SAPBDXZ 1007bdd0 f   ImfChromaticitiesAttribute.obj
 0002:0001ce10       ?writeValueTo@?$TypedAttribute@UChromaticities@Imf@@@Imf@@UBEXAAVOStream@2@H@Z 1007be10 f   ImfChromaticitiesAttribute.obj
 0002:0001cf40       ?readValueFrom@?$TypedAttribute@UChromaticities@Imf@@@Imf@@UAEXAAVIStream@2@HH@Z 1007bf40 f   ImfChromaticitiesAttribute.obj
 0002:0001d050       ?staticTypeName@?$TypedAttribute@W4Compression@Imf@@@Imf@@SAPBDXZ 1007c050 f   ImfCompressionAttribute.obj
 0002:0001d090       ?writeValueTo@?$TypedAttribute@W4Compression@Imf@@@Imf@@UBEXAAVOStream@2@H@Z 1007c090 f   ImfCompressionAttribute.obj
 0002:0001d100       ?readValueFrom@?$TypedAttribute@W4Compression@Imf@@@Imf@@UAEXAAVIStream@2@HH@Z 1007c100 f   ImfCompressionAttribute.obj
 0002:0001d1a0       ??$write@UStreamIO@Imf@@VOStream@2@@Xdr@Imf@@YAXAAVOStream@1@E@Z 1007c1a0 f i ImfCompressionAttribute.obj
 0002:0001d200       ??$read@UStreamIO@Imf@@VIStream@2@@Xdr@Imf@@YAXAAVIStream@1@AAE@Z 1007c200 f i ImfCompressionAttribute.obj
 0002:0001d260       ??0Compressor@Imf@@QAE@ABVHeader@1@@Z 1007c260 f   ImfCompressor.obj
 0002:0001d2c0       ??_GCompressor@Imf@@UAEPAXI@Z 1007c2c0 f i ImfCompressor.obj
 0002:0001d2c0       ??_ECompressor@Imf@@UAEPAXI@Z 1007c2c0 f i ImfCompressor.obj
 0002:0001d330       ??1Compressor@Imf@@UAE@XZ  1007c330 f   ImfCompressor.obj
 0002:0001d370       ?format@Compressor@Imf@@UBE?AW4Format@12@XZ 1007c370 f   ImfCompressor.obj
 0002:0001d3b0       ?compressTile@Compressor@Imf@@UAEHPBDHV?$Box@V?$Vec2@H@Imath@@@Imath@@AAPBD@Z 1007c3b0 f   ImfCompressor.obj
 0002:0001d430       ?uncompressTile@Compressor@Imf@@UAEHPBDHV?$Box@V?$Vec2@H@Imath@@@Imath@@AAPBD@Z 1007c430 f   ImfCompressor.obj
 0002:0001d4b0       ?isValidCompression@Imf@@YA_NW4Compression@1@@Z 1007c4b0 f   ImfCompressor.obj
 0002:0001d510       ?newCompressor@Imf@@YAPAVCompressor@1@W4Compression@1@HABVHeader@1@@Z 1007c510 f   ImfCompressor.obj
 0002:0001d850       ?newTileCompressor@Imf@@YAPAVCompressor@1@W4Compression@1@HHABVHeader@1@@Z 1007c850 f   ImfCompressor.obj
 0002:0001db20       ?halfToUint@Imf@@YAIVhalf@@@Z 1007cb20 f   ImfConvert.obj
 0002:0001dbf0       ??Bhalf@@QBEMXZ            1007cbf0 f i ImfConvert.obj
 0002:0001dc40       ?isNan@half@@QBE_NXZ       1007cc40 f i ImfConvert.obj
 0002:0001dce0       ?isInfinity@half@@QBE_NXZ  1007cce0 f i ImfConvert.obj
 0002:0001dd80       ?isNegative@half@@QBE_NXZ  1007cd80 f i ImfConvert.obj
 0002:0001ddd0       ?floatToUint@Imf@@YAIM@Z   1007cdd0 f   ImfConvert.obj
 0002:0001dec0       ?isNegative@?A0xecb7bd60@Imf@@YA_NM@Z 1007cec0 f i ImfConvert.obj
 0002:0001df40       ?isNan@?A0xecb7bd60@Imf@@YA_NM@Z 1007cf40 f i ImfConvert.obj
 0002:0001dfc0       ?isInfinity@?A0xecb7bd60@Imf@@YA_NM@Z 1007cfc0 f i ImfConvert.obj
 0002:0001e040       ?uintToHalf@Imf@@YA?AVhalf@@I@Z 1007d040 f   ImfConvert.obj
 0002:0001e100       ??0half@@QAE@M@Z           1007d100 f i ImfConvert.obj
 0002:0001e210       ?posInf@half@@SA?AV1@XZ    1007d210 f i ImfConvert.obj
 0002:0001e2b0       ??0half@@QAE@XZ            1007d2b0 f i ImfConvert.obj
 0002:0001e2f0       ?floatToHalf@Imf@@YA?AVhalf@@M@Z 1007d2f0 f   ImfConvert.obj
 0002:0001e3c0       ?negInf@half@@SA?AV1@XZ    1007d3c0 f i ImfConvert.obj
 0002:0001e460       ?isFinite@?A0xecb7bd60@Imf@@YA_NM@Z 1007d460 f i ImfConvert.obj
 0002:0001e4e0       ?setErrorMessage@?A0x04758b90@@YAXABVexception@std@@@Z 1007d4e0 f   ImfCRgbaFile.obj
 0002:0001e570       _ImfFloatToHalf            1007d570 f   ImfCRgbaFile.obj
 0002:0001e5e0       ?bits@half@@QBEGXZ         1007d5e0 f i ImfCRgbaFile.obj
 0002:0001e620       _ImfFloatToHalfArray       1007d620 f   ImfCRgbaFile.obj
 0002:0001e6c0       _ImfHalfToFloat            1007d6c0 f   ImfCRgbaFile.obj
 0002:0001e710       _ImfHalfToFloatArray       1007d710 f   ImfCRgbaFile.obj
 0002:0001e790       _ImfNewHeader              1007d790 f   ImfCRgbaFile.obj
 0002:0001e950       _ImfDeleteHeader           1007d950 f   ImfCRgbaFile.obj
 0002:0001e9f0       ?header@?A0x04758b90@@YAPAVHeader@Imf@@PAUImfHeader@@@Z 1007d9f0 f i ImfCRgbaFile.obj
 0002:0001ea30       ??_GHeader@Imf@@QAEPAXI@Z  1007da30 f i ImfCRgbaFile.obj
 0002:0001eaa0       _ImfCopyHeader             1007daa0 f   ImfCRgbaFile.obj
 0002:0001ec40       ?header@?A0x04758b90@@YAPBVHeader@Imf@@PBUImfHeader@@@Z 1007dc40 f i ImfCRgbaFile.obj
 0002:0001ec80       _ImfHeaderSetDisplayWindow 1007dc80 f   ImfCRgbaFile.obj
 0002:0001ed20       ??4?$Box@V?$Vec2@H@Imath@@@Imath@@QAEAAV01@ABV01@@Z 1007dd20 f i ImfCRgbaFile.obj
 0002:0001ed90       _ImfHeaderDisplayWindow    1007dd90 f   ImfCRgbaFile.obj
 0002:0001ee50       ??0?$Box@V?$Vec2@H@Imath@@@Imath@@QAE@ABV01@@Z 1007de50 f i ImfCRgbaFile.obj
 0002:0001eec0       _ImfHeaderSetDataWindow    1007dec0 f   ImfCRgbaFile.obj
 0002:0001ef60       _ImfHeaderDataWindow       1007df60 f   ImfCRgbaFile.obj
 0002:0001f020       _ImfHeaderSetPixelAspectRatio 1007e020 f   ImfCRgbaFile.obj
 0002:0001f080       _ImfHeaderPixelAspectRatio 1007e080 f   ImfCRgbaFile.obj
 0002:0001f0e0       _ImfHeaderSetScreenWindowCenter 1007e0e0 f   ImfCRgbaFile.obj
 0002:0001f160       _ImfHeaderScreenWindowCenter 1007e160 f   ImfCRgbaFile.obj
 0002:0001f220       _ImfHeaderSetScreenWindowWidth 1007e220 f   ImfCRgbaFile.obj
 0002:0001f280       _ImfHeaderScreenWindowWidth 1007e280 f   ImfCRgbaFile.obj
 0002:0001f2e0       _ImfHeaderSetLineOrder     1007e2e0 f   ImfCRgbaFile.obj
 0002:0001f340       _ImfHeaderLineOrder        1007e340 f   ImfCRgbaFile.obj
 0002:0001f3a0       _ImfHeaderSetCompression   1007e3a0 f   ImfCRgbaFile.obj
 0002:0001f400       _ImfHeaderCompression      1007e400 f   ImfCRgbaFile.obj
 0002:0001f460       _ImfHeaderSetIntAttribute  1007e460 f   ImfCRgbaFile.obj
 0002:0001f790       ??1Iterator@Header@Imf@@QAE@XZ 1007e790 f i ImfCRgbaFile.obj
 0002:0001f7e0       ??1iterator@?$_Tree@V?$_Tmap_traits@VName@Imf@@PAVAttribute@2@U?$less@VName@Imf@@@std@@V?$allocator@U?$pair@$$CBVName@Imf@@PAVAttribute@2@@std@@@5@$0A@@std@@@std@@QAE@XZ 1007e7e0 f i ImfCRgbaFile.obj
 0002:0001f830       ??1const_iterator@?$_Tree@V?$_Tmap_traits@VName@Imf@@PAVAttribute@2@U?$less@VName@Imf@@@std@@V?$allocator@U?$pair@$$CBVName@Imf@@PAVAttribute@2@@std@@@5@$0A@@std@@@std@@QAE@XZ 1007e830 f i ImfCRgbaFile.obj
 0002:0001f880       ??1?$_Bidit@U?$pair@$$CBVName@Imf@@PAVAttribute@2@@std@@HPBU12@ABU12@@std@@QAE@XZ 1007e880 f i ImfCRgbaFile.obj
 0002:0001f8d0       ??0ConstIterator@Header@Imf@@QAE@ABVIterator@12@@Z 1007e8d0 f i ImfCRgbaFile.obj
 0002:0001f930       ??0const_iterator@?$_Tree@V?$_Tmap_traits@VName@Imf@@PAVAttribute@2@U?$less@VName@Imf@@@std@@V?$allocator@U?$pair@$$CBVName@Imf@@PAVAttribute@2@@std@@@5@$0A@@std@@@std@@QAE@ABV012@@Z 1007e930 f i ImfCRgbaFile.obj
 0002:0001f9a0       ??0?$_Bidit@U?$pair@$$CBVName@Imf@@PAVAttribute@2@@std@@HPBU12@ABU12@@std@@QAE@ABU01@@Z 1007e9a0 f i ImfCRgbaFile.obj
 0002:0001fa00       ??1ConstIterator@Header@Imf@@QAE@XZ 1007ea00 f i ImfCRgbaFile.obj
 0002:0001fa50       ??8Imf@@YA_NABVConstIterator@Header@0@0@Z 1007ea50 f i ImfCRgbaFile.obj
 0002:0001faa0       _ImfHeaderIntAttribute     1007eaa0 f   ImfCRgbaFile.obj
 0002:0001fc00       _ImfHeaderSetFloatAttribute 1007ec00 f   ImfCRgbaFile.obj
 0002:0001ff30       _ImfHeaderSetDoubleAttribute 1007ef30 f   ImfCRgbaFile.obj
 0002:00020260       _ImfHeaderFloatAttribute   1007f260 f   ImfCRgbaFile.obj
 0002:000203c0       _ImfHeaderDoubleAttribute  1007f3c0 f   ImfCRgbaFile.obj
 0002:00020520       _ImfHeaderSetStringAttribute 1007f520 f   ImfCRgbaFile.obj
 0002:000208b0       _ImfHeaderStringAttribute  1007f8b0 f   ImfCRgbaFile.obj
 0002:00020a20       _ImfHeaderSetBox2iAttribute 1007fa20 f   ImfCRgbaFile.obj
 0002:00020dc0       _ImfHeaderBox2iAttribute   1007fdc0 f   ImfCRgbaFile.obj
 0002:00020f40       _ImfHeaderSetBox2fAttribute 1007ff40 f   ImfCRgbaFile.obj
 0002:000212f0       ??4?$Box@V?$Vec2@M@Imath@@@Imath@@QAEAAV01@ABV01@@Z 100802f0 f i ImfCRgbaFile.obj
 0002:00021360       _ImfHeaderBox2fAttribute   10080360 f   ImfCRgbaFile.obj
 0002:000214e0       _ImfHeaderSetV2iAttribute  100804e0 f   ImfCRgbaFile.obj
 0002:00021840       _ImfHeaderV2iAttribute     10080840 f   ImfCRgbaFile.obj
 0002:000219b0       _ImfHeaderSetV2fAttribute  100809b0 f   ImfCRgbaFile.obj
 0002:00021d10       _ImfHeaderV2fAttribute     10080d10 f   ImfCRgbaFile.obj
 0002:00021e80       _ImfHeaderSetV3iAttribute  10080e80 f   ImfCRgbaFile.obj
 0002:000221e0       _ImfHeaderV3iAttribute     100811e0 f   ImfCRgbaFile.obj
 0002:00022360       _ImfHeaderSetV3fAttribute  10081360 f   ImfCRgbaFile.obj
 0002:000226d0       _ImfHeaderV3fAttribute     100816d0 f   ImfCRgbaFile.obj
 0002:00022850       _ImfHeaderSetM33fAttribute 10081850 f   ImfCRgbaFile.obj
 0002:00022ba0       _ImfHeaderM33fAttribute    10081ba0 f   ImfCRgbaFile.obj
 0002:00022e40       _ImfHeaderSetM44fAttribute 10081e40 f   ImfCRgbaFile.obj
 0002:00023190       _ImfHeaderM44fAttribute    10082190 f   ImfCRgbaFile.obj
 0002:00023540       _ImfOpenOutputFile         10082540 f   ImfCRgbaFile.obj
 0002:00023700       _ImfCloseOutputFile        10082700 f   ImfCRgbaFile.obj
 0002:00023890       ?outfile@?A0x04758b90@@YAPAVRgbaOutputFile@Imf@@PAUImfOutputFile@@@Z 10082890 f i ImfCRgbaFile.obj
 0002:000238d0       _ImfOutputSetFrameBuffer   100828d0 f   ImfCRgbaFile.obj
 0002:00023a00       _ImfOutputWritePixels      10082a00 f   ImfCRgbaFile.obj
 0002:00023b30       _ImfOutputCurrentScanLine  10082b30 f   ImfCRgbaFile.obj
 0002:00023b90       ?outfile@?A0x04758b90@@YAPBVRgbaOutputFile@Imf@@PBUImfOutputFile@@@Z 10082b90 f i ImfCRgbaFile.obj
 0002:00023bd0       _ImfOutputHeader           10082bd0 f   ImfCRgbaFile.obj
 0002:00023c30       _ImfOutputChannels         10082c30 f   ImfCRgbaFile.obj
 0002:00023c90       _ImfOpenTiledOutputFile    10082c90 f   ImfCRgbaFile.obj
 0002:00023e60       _ImfCloseTiledOutputFile   10082e60 f   ImfCRgbaFile.obj
 0002:00023ff0       ?outfile@?A0x04758b90@@YAPAVTiledRgbaOutputFile@Imf@@PAUImfTiledOutputFile@@@Z 10082ff0 f i ImfCRgbaFile.obj
 0002:00024030       _ImfTiledOutputSetFrameBuffer 10083030 f   ImfCRgbaFile.obj
 0002:00024160       _ImfTiledOutputWriteTile   10083160 f   ImfCRgbaFile.obj
 0002:000242a0       _ImfTiledOutputWriteTiles  100832a0 f   ImfCRgbaFile.obj
 0002:000243e0       _ImfTiledOutputHeader      100833e0 f   ImfCRgbaFile.obj
 0002:00024440       ?outfile@?A0x04758b90@@YAPBVTiledRgbaOutputFile@Imf@@PBUImfTiledOutputFile@@@Z 10083440 f i ImfCRgbaFile.obj
 0002:00024480       _ImfTiledOutputChannels    10083480 f   ImfCRgbaFile.obj
 0002:000244e0       _ImfTiledOutputTileXSize   100834e0 f   ImfCRgbaFile.obj
 0002:00024540       _ImfTiledOutputTileYSize   10083540 f   ImfCRgbaFile.obj
 0002:000245a0       _ImfTiledOutputLevelMode   100835a0 f   ImfCRgbaFile.obj
 0002:00024600       _ImfTiledOutputLevelRoundingMode 10083600 f   ImfCRgbaFile.obj
 0002:00024660       _ImfOpenInputFile          10083660 f   ImfCRgbaFile.obj
 0002:00024800       _ImfCloseInputFile         10083800 f   ImfCRgbaFile.obj
 0002:00024990       ?infile@?A0x04758b90@@YAPAVRgbaInputFile@Imf@@PAUImfInputFile@@@Z 10083990 f i ImfCRgbaFile.obj
 0002:000249d0       _ImfInputSetFrameBuffer    100839d0 f   ImfCRgbaFile.obj
 0002:00024b00       _ImfInputReadPixels        10083b00 f   ImfCRgbaFile.obj
 0002:00024c30       _ImfInputHeader            10083c30 f   ImfCRgbaFile.obj
 0002:00024c90       ?infile@?A0x04758b90@@YAPBVRgbaInputFile@Imf@@PBUImfInputFile@@@Z 10083c90 f i ImfCRgbaFile.obj
 0002:00024cd0       _ImfInputChannels          10083cd0 f   ImfCRgbaFile.obj
 0002:00024d30       _ImfInputFileName          10083d30 f   ImfCRgbaFile.obj
 0002:00024d90       _ImfOpenTiledInputFile     10083d90 f   ImfCRgbaFile.obj
 0002:00024f30       _ImfCloseTiledInputFile    10083f30 f   ImfCRgbaFile.obj
 0002:000250c0       ?infile@?A0x04758b90@@YAPAVTiledRgbaInputFile@Imf@@PAUImfTiledInputFile@@@Z 100840c0 f i ImfCRgbaFile.obj
 0002:00025100       _ImfTiledInputSetFrameBuffer 10084100 f   ImfCRgbaFile.obj
 0002:00025230       _ImfTiledInputReadTile     10084230 f   ImfCRgbaFile.obj
 0002:00025370       _ImfTiledInputReadTiles    10084370 f   ImfCRgbaFile.obj
 0002:000254b0       _ImfTiledInputHeader       100844b0 f   ImfCRgbaFile.obj
 0002:00025510       ?infile@?A0x04758b90@@YAPBVTiledRgbaInputFile@Imf@@PBUImfTiledInputFile@@@Z 10084510 f i ImfCRgbaFile.obj
 0002:00025550       _ImfTiledInputChannels     10084550 f   ImfCRgbaFile.obj
 0002:000255b0       _ImfTiledInputFileName     100845b0 f   ImfCRgbaFile.obj
 0002:00025610       _ImfTiledInputTileXSize    10084610 f   ImfCRgbaFile.obj
 0002:00025670       _ImfTiledInputTileYSize    10084670 f   ImfCRgbaFile.obj
 0002:000256d0       _ImfTiledInputLevelMode    100846d0 f   ImfCRgbaFile.obj
 0002:00025730       _ImfTiledInputLevelRoundingMode 10084730 f   ImfCRgbaFile.obj
 0002:00025790       _ImfNewRound12logLut       10084790 f   ImfCRgbaFile.obj
 0002:00025920       _ImfNewRoundNBitLut        10084920 f   ImfCRgbaFile.obj
 0002:00025ad0       ??0roundNBit@Imf@@QAE@H@Z  10084ad0 f i ImfCRgbaFile.obj
 0002:00025b20       _ImfDeleteLut              10084b20 f   ImfCRgbaFile.obj
 0002:00025b80       _ImfApplyLut               10084b80 f   ImfCRgbaFile.obj
 0002:00025be0       _ImfErrorMessage           10084be0 f   ImfCRgbaFile.obj
 0002:00025c20       ??8const_iterator@?$_Tree@V?$_Tmap_traits@VName@Imf@@PAVAttribute@2@U?$less@VName@Imf@@@std@@V?$allocator@U?$pair@$$CBVName@Imf@@PAVAttribute@2@@std@@@5@$0A@@std@@@std@@QBE_NABV012@@Z 10084c20 f i ImfCRgbaFile.obj
 0002:00025d30       ??0?$Vec2@H@Imath@@QAE@ABV01@@Z 10084d30 f i ImfCRgbaFile.obj
 0002:00025d90       ??0?$Vec2@H@Imath@@QAE@HH@Z 10084d90 f i ImfCRgbaFile.obj
 0002:00025de0       ??4?$Vec2@H@Imath@@QAEABV01@ABV01@@Z 10084de0 f i ImfCRgbaFile.obj
 0002:00025e40       ??0?$Vec2@M@Imath@@QAE@MM@Z 10084e40 f i ImfCRgbaFile.obj
 0002:00025e90       ??4?$Vec2@M@Imath@@QAEABV01@ABV01@@Z 10084e90 f i ImfCRgbaFile.obj
 0002:00025ef0       ??0?$Vec3@H@Imath@@QAE@HHH@Z 10084ef0 f i ImfCRgbaFile.obj
 0002:00025f50       ??4?$Vec3@H@Imath@@QAEABV01@ABV01@@Z 10084f50 f i ImfCRgbaFile.obj
 0002:00025fc0       ??0?$Vec3@M@Imath@@QAE@MMM@Z 10084fc0 f i ImfCRgbaFile.obj
 0002:00026020       ??4?$Vec3@M@Imath@@QAEABV01@ABV01@@Z 10085020 f i ImfCRgbaFile.obj
 0002:00026090       ??0?$Box@V?$Vec2@H@Imath@@@Imath@@QAE@ABV?$Vec2@H@1@0@Z 10085090 f i ImfCRgbaFile.obj
 0002:00026120       ??0?$Box@V?$Vec2@M@Imath@@@Imath@@QAE@ABV?$Vec2@M@1@0@Z 10085120 f i ImfCRgbaFile.obj
 0002:000261b0       ??0?$TypedAttribute@H@Imf@@QAE@ABH@Z 100851b0 f i ImfCRgbaFile.obj
 0002:00026220       ??1?$TypedAttribute@H@Imf@@UAE@XZ 10085220 f i ImfCRgbaFile.obj
 0002:00026280       ?value@?$TypedAttribute@H@Imf@@QBEABHXZ 10085280 f i ImfCRgbaFile.obj
 0002:000262c0       ?value@?$TypedAttribute@H@Imf@@QAEAAHXZ 100852c0 f i ImfCRgbaFile.obj
 0002:00026300       ?typeName@?$TypedAttribute@H@Imf@@UBEPBDXZ 10085300 f i ImfCRgbaFile.obj
 0002:00026350       ?copy@?$TypedAttribute@H@Imf@@UBEPAVAttribute@2@XZ 10085350 f i ImfCRgbaFile.obj
 0002:00026460       ?writeValueTo@?$TypedAttribute@H@Imf@@UBEXAAVOStream@2@H@Z 10085460 f i ImfCRgbaFile.obj
 0002:000264c0       ?readValueFrom@?$TypedAttribute@H@Imf@@UAEXAAVIStream@2@HH@Z 100854c0 f i ImfCRgbaFile.obj
 0002:00026520       ?copyValueFrom@?$TypedAttribute@H@Imf@@UAEXABVAttribute@2@@Z 10085520 f i ImfCRgbaFile.obj
 0002:00026590       ??0?$TypedAttribute@V?$basic_string@DU?$char_traits@D@std@@V?$allocator@D@2@@std@@@Imf@@QAE@ABV?$basic_string@DU?$char_traits@D@std@@V?$allocator@D@2@@std@@@Z 10085590 f i ImfCRgbaFile.obj
 0002:00026660       ??1?$TypedAttribute@V?$basic_string@DU?$char_traits@D@std@@V?$allocator@D@2@@std@@@Imf@@UAE@XZ 10085660 f i ImfCRgbaFile.obj
 0002:00026720       ?value@?$TypedAttribute@V?$basic_string@DU?$char_traits@D@std@@V?$allocator@D@2@@std@@@Imf@@QBEABV?$basic_string@DU?$char_traits@D@std@@V?$allocator@D@2@@std@@XZ 10085720 f i ImfCRgbaFile.obj
 0002:00026760       ?value@?$TypedAttribute@V?$basic_string@DU?$char_traits@D@std@@V?$allocator@D@2@@std@@@Imf@@QAEAAV?$basic_string@DU?$char_traits@D@std@@V?$allocator@D@2@@std@@XZ 10085760 f i ImfCRgbaFile.obj
 0002:000267a0       ?typeName@?$TypedAttribute@V?$basic_string@DU?$char_traits@D@std@@V?$allocator@D@2@@std@@@Imf@@UBEPBDXZ 100857a0 f i ImfCRgbaFile.obj
 0002:000267f0       ?copy@?$TypedAttribute@V?$basic_string@DU?$char_traits@D@std@@V?$allocator@D@2@@std@@@Imf@@UBEPAVAttribute@2@XZ 100857f0 f i ImfCRgbaFile.obj
 0002:00026900       ?copyValueFrom@?$TypedAttribute@V?$basic_string@DU?$char_traits@D@std@@V?$allocator@D@2@@std@@@Imf@@UAEXABVAttribute@2@@Z 10085900 f i ImfCRgbaFile.obj
 0002:00026980       ??0?$TypedAttribute@V?$Box@V?$Vec2@H@Imath@@@Imath@@@Imf@@QAE@ABV?$Box@V?$Vec2@H@Imath@@@Imath@@@Z 10085980 f i ImfCRgbaFile.obj
 0002:00026a40       ??1?$TypedAttribute@V?$Box@V?$Vec2@H@Imath@@@Imath@@@Imf@@UAE@XZ 10085a40 f i ImfCRgbaFile.obj
 0002:00026aa0       ?value@?$TypedAttribute@V?$Box@V?$Vec2@H@Imath@@@Imath@@@Imf@@QBEABV?$Box@V?$Vec2@H@Imath@@@Imath@@XZ 10085aa0 f i ImfCRgbaFile.obj
 0002:00026ae0       ?value@?$TypedAttribute@V?$Box@V?$Vec2@H@Imath@@@Imath@@@Imf@@QAEAAV?$Box@V?$Vec2@H@Imath@@@Imath@@XZ 10085ae0 f i ImfCRgbaFile.obj
 0002:00026b20       ?typeName@?$TypedAttribute@V?$Box@V?$Vec2@H@Imath@@@Imath@@@Imf@@UBEPBDXZ 10085b20 f i ImfCRgbaFile.obj
 0002:00026b70       ?copy@?$TypedAttribute@V?$Box@V?$Vec2@H@Imath@@@Imath@@@Imf@@UBEPAVAttribute@2@XZ 10085b70 f i ImfCRgbaFile.obj
 0002:00026c80       ?copyValueFrom@?$TypedAttribute@V?$Box@V?$Vec2@H@Imath@@@Imath@@@Imf@@UAEXABVAttribute@2@@Z 10085c80 f i ImfCRgbaFile.obj
 0002:00026cf0       ??0?$TypedAttribute@V?$Box@V?$Vec2@M@Imath@@@Imath@@@Imf@@QAE@ABV?$Box@V?$Vec2@M@Imath@@@Imath@@@Z 10085cf0 f i ImfCRgbaFile.obj
 0002:00026db0       ??1?$TypedAttribute@V?$Box@V?$Vec2@M@Imath@@@Imath@@@Imf@@UAE@XZ 10085db0 f i ImfCRgbaFile.obj
 0002:00026e10       ?value@?$TypedAttribute@V?$Box@V?$Vec2@M@Imath@@@Imath@@@Imf@@QBEABV?$Box@V?$Vec2@M@Imath@@@Imath@@XZ 10085e10 f i ImfCRgbaFile.obj
 0002:00026e50       ?value@?$TypedAttribute@V?$Box@V?$Vec2@M@Imath@@@Imath@@@Imf@@QAEAAV?$Box@V?$Vec2@M@Imath@@@Imath@@XZ 10085e50 f i ImfCRgbaFile.obj
 0002:00026e90       ?typeName@?$TypedAttribute@V?$Box@V?$Vec2@M@Imath@@@Imath@@@Imf@@UBEPBDXZ 10085e90 f i ImfCRgbaFile.obj
 0002:00026ee0       ?copy@?$TypedAttribute@V?$Box@V?$Vec2@M@Imath@@@Imath@@@Imf@@UBEPAVAttribute@2@XZ 10085ee0 f i ImfCRgbaFile.obj
 0002:00026ff0       ?copyValueFrom@?$TypedAttribute@V?$Box@V?$Vec2@M@Imath@@@Imath@@@Imf@@UAEXABVAttribute@2@@Z 10085ff0 f i ImfCRgbaFile.obj
 0002:00027060       ??0?$TypedAttribute@V?$Vec2@H@Imath@@@Imf@@QAE@ABV?$Vec2@H@Imath@@@Z 10086060 f i ImfCRgbaFile.obj
 0002:00027120       ??1?$TypedAttribute@V?$Vec2@H@Imath@@@Imf@@UAE@XZ 10086120 f i ImfCRgbaFile.obj
 0002:00027180       ?value@?$TypedAttribute@V?$Vec2@H@Imath@@@Imf@@QBEABV?$Vec2@H@Imath@@XZ 10086180 f i ImfCRgbaFile.obj
 0002:000271c0       ?value@?$TypedAttribute@V?$Vec2@H@Imath@@@Imf@@QAEAAV?$Vec2@H@Imath@@XZ 100861c0 f i ImfCRgbaFile.obj
 0002:00027200       ?typeName@?$TypedAttribute@V?$Vec2@H@Imath@@@Imf@@UBEPBDXZ 10086200 f i ImfCRgbaFile.obj
 0002:00027250       ?copy@?$TypedAttribute@V?$Vec2@H@Imath@@@Imf@@UBEPAVAttribute@2@XZ 10086250 f i ImfCRgbaFile.obj
 0002:00027360       ?copyValueFrom@?$TypedAttribute@V?$Vec2@H@Imath@@@Imf@@UAEXABVAttribute@2@@Z 10086360 f i ImfCRgbaFile.obj
 0002:000273d0       ??0?$TypedAttribute@V?$Vec2@M@Imath@@@Imf@@QAE@ABV?$Vec2@M@Imath@@@Z 100863d0 f i ImfCRgbaFile.obj
 0002:00027490       ??1?$TypedAttribute@V?$Vec2@M@Imath@@@Imf@@UAE@XZ 10086490 f i ImfCRgbaFile.obj
 0002:000274f0       ?value@?$TypedAttribute@V?$Vec2@M@Imath@@@Imf@@QBEABV?$Vec2@M@Imath@@XZ 100864f0 f i ImfCRgbaFile.obj
 0002:00027530       ?value@?$TypedAttribute@V?$Vec2@M@Imath@@@Imf@@QAEAAV?$Vec2@M@Imath@@XZ 10086530 f i ImfCRgbaFile.obj
 0002:00027570       ?typeName@?$TypedAttribute@V?$Vec2@M@Imath@@@Imf@@UBEPBDXZ 10086570 f i ImfCRgbaFile.obj
 0002:000275c0       ?copy@?$TypedAttribute@V?$Vec2@M@Imath@@@Imf@@UBEPAVAttribute@2@XZ 100865c0 f i ImfCRgbaFile.obj
 0002:000276d0       ?copyValueFrom@?$TypedAttribute@V?$Vec2@M@Imath@@@Imf@@UAEXABVAttribute@2@@Z 100866d0 f i ImfCRgbaFile.obj
 0002:00027740       ??0?$TypedAttribute@V?$Vec3@H@Imath@@@Imf@@QAE@ABV?$Vec3@H@Imath@@@Z 10086740 f i ImfCRgbaFile.obj
 0002:00027800       ??1?$TypedAttribute@V?$Vec3@H@Imath@@@Imf@@UAE@XZ 10086800 f i ImfCRgbaFile.obj
 0002:00027860       ?value@?$TypedAttribute@V?$Vec3@H@Imath@@@Imf@@QBEABV?$Vec3@H@Imath@@XZ 10086860 f i ImfCRgbaFile.obj
 0002:000278a0       ?value@?$TypedAttribute@V?$Vec3@H@Imath@@@Imf@@QAEAAV?$Vec3@H@Imath@@XZ 100868a0 f i ImfCRgbaFile.obj
 0002:000278e0       ?typeName@?$TypedAttribute@V?$Vec3@H@Imath@@@Imf@@UBEPBDXZ 100868e0 f i ImfCRgbaFile.obj
 0002:00027930       ?copy@?$TypedAttribute@V?$Vec3@H@Imath@@@Imf@@UBEPAVAttribute@2@XZ 10086930 f i ImfCRgbaFile.obj
 0002:00027a40       ?copyValueFrom@?$TypedAttribute@V?$Vec3@H@Imath@@@Imf@@UAEXABVAttribute@2@@Z 10086a40 f i ImfCRgbaFile.obj
 0002:00027ab0       ??0?$TypedAttribute@V?$Vec3@M@Imath@@@Imf@@QAE@ABV?$Vec3@M@Imath@@@Z 10086ab0 f i ImfCRgbaFile.obj
 0002:00027b70       ??1?$TypedAttribute@V?$Vec3@M@Imath@@@Imf@@UAE@XZ 10086b70 f i ImfCRgbaFile.obj
 0002:00027bd0       ?value@?$TypedAttribute@V?$Vec3@M@Imath@@@Imf@@QBEABV?$Vec3@M@Imath@@XZ 10086bd0 f i ImfCRgbaFile.obj
 0002:00027c10       ?value@?$TypedAttribute@V?$Vec3@M@Imath@@@Imf@@QAEAAV?$Vec3@M@Imath@@XZ 10086c10 f i ImfCRgbaFile.obj
 0002:00027c50       ?typeName@?$TypedAttribute@V?$Vec3@M@Imath@@@Imf@@UBEPBDXZ 10086c50 f i ImfCRgbaFile.obj
 0002:00027ca0       ?copy@?$TypedAttribute@V?$Vec3@M@Imath@@@Imf@@UBEPAVAttribute@2@XZ 10086ca0 f i ImfCRgbaFile.obj
 0002:00027db0       ?copyValueFrom@?$TypedAttribute@V?$Vec3@M@Imath@@@Imf@@UAEXABVAttribute@2@@Z 10086db0 f i ImfCRgbaFile.obj
 0002:00027e20       ??A?$Matrix33@M@Imath@@QBEPBMH@Z 10086e20 f i ImfCRgbaFile.obj
 0002:00027e70       ??0?$Matrix33@M@Imath@@QAE@QAY02$$CBM@Z 10086e70 f i ImfCRgbaFile.obj
 0002:00027f30       ??4?$Matrix33@M@Imath@@QAEABV01@ABV01@@Z 10086f30 f i ImfCRgbaFile.obj
 0002:00027ff0       ??A?$Matrix44@M@Imath@@QBEPBMH@Z 10086ff0 f i ImfCRgbaFile.obj
 0002:00028040       ??0?$Matrix44@M@Imath@@QAE@QAY03$$CBM@Z 10087040 f i ImfCRgbaFile.obj
 0002:00028170       ??4?$Matrix44@M@Imath@@QAEABV01@ABV01@@Z 10087170 f i ImfCRgbaFile.obj
 0002:000282a0       ??0?$TypedAttribute@V?$Matrix33@M@Imath@@@Imf@@QAE@ABV?$Matrix33@M@Imath@@@Z 100872a0 f i ImfCRgbaFile.obj
 0002:00028360       ??1?$TypedAttribute@V?$Matrix33@M@Imath@@@Imf@@UAE@XZ 10087360 f i ImfCRgbaFile.obj
 0002:000283c0       ?value@?$TypedAttribute@V?$Matrix33@M@Imath@@@Imf@@QBEABV?$Matrix33@M@Imath@@XZ 100873c0 f i ImfCRgbaFile.obj
 0002:00028400       ?value@?$TypedAttribute@V?$Matrix33@M@Imath@@@Imf@@QAEAAV?$Matrix33@M@Imath@@XZ 10087400 f i ImfCRgbaFile.obj
 0002:00028440       ?typeName@?$TypedAttribute@V?$Matrix33@M@Imath@@@Imf@@UBEPBDXZ 10087440 f i ImfCRgbaFile.obj
 0002:00028490       ?copy@?$TypedAttribute@V?$Matrix33@M@Imath@@@Imf@@UBEPAVAttribute@2@XZ 10087490 f i ImfCRgbaFile.obj
 0002:000285a0       ?copyValueFrom@?$TypedAttribute@V?$Matrix33@M@Imath@@@Imf@@UAEXABVAttribute@2@@Z 100875a0 f i ImfCRgbaFile.obj
 0002:00028610       ??0?$TypedAttribute@V?$Matrix44@M@Imath@@@Imf@@QAE@ABV?$Matrix44@M@Imath@@@Z 10087610 f i ImfCRgbaFile.obj
 0002:000286d0       ??1?$TypedAttribute@V?$Matrix44@M@Imath@@@Imf@@UAE@XZ 100876d0 f i ImfCRgbaFile.obj
 0002:00028730       ?value@?$TypedAttribute@V?$Matrix44@M@Imath@@@Imf@@QBEABV?$Matrix44@M@Imath@@XZ 10087730 f i ImfCRgbaFile.obj
 0002:00028770       ?value@?$TypedAttribute@V?$Matrix44@M@Imath@@@Imf@@QAEAAV?$Matrix44@M@Imath@@XZ 10087770 f i ImfCRgbaFile.obj
 0002:000287b0       ?typeName@?$TypedAttribute@V?$Matrix44@M@Imath@@@Imf@@UBEPBDXZ 100877b0 f i ImfCRgbaFile.obj
 0002:00028800       ?copy@?$TypedAttribute@V?$Matrix44@M@Imath@@@Imf@@UBEPAVAttribute@2@XZ 10087800 f i ImfCRgbaFile.obj
 0002:00028910       ?copyValueFrom@?$TypedAttribute@V?$Matrix44@M@Imath@@@Imf@@UAEXABVAttribute@2@@Z 10087910 f i ImfCRgbaFile.obj
 0002:00028980       ??$?0M@?$Vec2@H@Imath@@QAE@ABV?$Vec2@M@1@@Z 10087980 f i ImfCRgbaFile.obj
 0002:00028a00       ??$typedAttribute@V?$TypedAttribute@H@Imf@@@Header@Imf@@QBEABV?$TypedAttribute@H@1@QBD@Z 10087a00 f i ImfCRgbaFile.obj
 0002:00028ac0       ??$typedAttribute@V?$TypedAttribute@H@Imf@@@Header@Imf@@QAEAAV?$TypedAttribute@H@1@QBD@Z 10087ac0 f i ImfCRgbaFile.obj
 0002:00028b80       ??$typedAttribute@V?$TypedAttribute@M@Imf@@@Header@Imf@@QBEABV?$TypedAttribute@M@1@QBD@Z 10087b80 f i ImfCRgbaFile.obj
 0002:00028c40       ??$typedAttribute@V?$TypedAttribute@M@Imf@@@Header@Imf@@QAEAAV?$TypedAttribute@M@1@QBD@Z 10087c40 f i ImfCRgbaFile.obj
 0002:00028d00       ??$typedAttribute@V?$TypedAttribute@N@Imf@@@Header@Imf@@QBEABV?$TypedAttribute@N@1@QBD@Z 10087d00 f i ImfCRgbaFile.obj
 0002:00028dc0       ??$typedAttribute@V?$TypedAttribute@N@Imf@@@Header@Imf@@QAEAAV?$TypedAttribute@N@1@QBD@Z 10087dc0 f i ImfCRgbaFile.obj
 0002:00028e80       ??$typedAttribute@V?$TypedAttribute@V?$basic_string@DU?$char_traits@D@std@@V?$allocator@D@2@@std@@@Imf@@@Header@Imf@@QBEABV?$TypedAttribute@V?$basic_string@DU?$char_traits@D@std@@V?$allocator@D@2@@std@@@1@QBD@Z 10087e80 f i ImfCRgbaFile.obj
 0002:00028f40       ??$typedAttribute@V?$TypedAttribute@V?$basic_string@DU?$char_traits@D@std@@V?$allocator@D@2@@std@@@Imf@@@Header@Imf@@QAEAAV?$TypedAttribute@V?$basic_string@DU?$char_traits@D@std@@V?$allocator@D@2@@std@@@1@QBD@Z 10087f40 f i ImfCRgbaFile.obj
 0002:00029000       ??$typedAttribute@V?$TypedAttribute@V?$Box@V?$Vec2@H@Imath@@@Imath@@@Imf@@@Header@Imf@@QBEABV?$TypedAttribute@V?$Box@V?$Vec2@H@Imath@@@Imath@@@1@QBD@Z 10088000 f i ImfCRgbaFile.obj
 0002:000290c0       ??$typedAttribute@V?$TypedAttribute@V?$Box@V?$Vec2@H@Imath@@@Imath@@@Imf@@@Header@Imf@@QAEAAV?$TypedAttribute@V?$Box@V?$Vec2@H@Imath@@@Imath@@@1@QBD@Z 100880c0 f i ImfCRgbaFile.obj
 0002:00029180       ??$typedAttribute@V?$TypedAttribute@V?$Box@V?$Vec2@M@Imath@@@Imath@@@Imf@@@Header@Imf@@QBEABV?$TypedAttribute@V?$Box@V?$Vec2@M@Imath@@@Imath@@@1@QBD@Z 10088180 f i ImfCRgbaFile.obj
 0002:00029240       ??$typedAttribute@V?$TypedAttribute@V?$Box@V?$Vec2@M@Imath@@@Imath@@@Imf@@@Header@Imf@@QAEAAV?$TypedAttribute@V?$Box@V?$Vec2@M@Imath@@@Imath@@@1@QBD@Z 10088240 f i ImfCRgbaFile.obj
 0002:00029300       ??$typedAttribute@V?$TypedAttribute@V?$Vec2@H@Imath@@@Imf@@@Header@Imf@@QBEABV?$TypedAttribute@V?$Vec2@H@Imath@@@1@QBD@Z 10088300 f i ImfCRgbaFile.obj
 0002:000293c0       ??$typedAttribute@V?$TypedAttribute@V?$Vec2@H@Imath@@@Imf@@@Header@Imf@@QAEAAV?$TypedAttribute@V?$Vec2@H@Imath@@@1@QBD@Z 100883c0 f i ImfCRgbaFile.obj
 0002:00029480       ??$typedAttribute@V?$TypedAttribute@V?$Vec2@M@Imath@@@Imf@@@Header@Imf@@QBEABV?$TypedAttribute@V?$Vec2@M@Imath@@@1@QBD@Z 10088480 f i ImfCRgbaFile.obj
 0002:00029540       ??$typedAttribute@V?$TypedAttribute@V?$Vec2@M@Imath@@@Imf@@@Header@Imf@@QAEAAV?$TypedAttribute@V?$Vec2@M@Imath@@@1@QBD@Z 10088540 f i ImfCRgbaFile.obj
 0002:00029600       ??$typedAttribute@V?$TypedAttribute@V?$Vec3@H@Imath@@@Imf@@@Header@Imf@@QBEABV?$TypedAttribute@V?$Vec3@H@Imath@@@1@QBD@Z 10088600 f i ImfCRgbaFile.obj
 0002:000296c0       ??$typedAttribute@V?$TypedAttribute@V?$Vec3@H@Imath@@@Imf@@@Header@Imf@@QAEAAV?$TypedAttribute@V?$Vec3@H@Imath@@@1@QBD@Z 100886c0 f i ImfCRgbaFile.obj
 0002:00029780       ??$typedAttribute@V?$TypedAttribute@V?$Vec3@M@Imath@@@Imf@@@Header@Imf@@QBEABV?$TypedAttribute@V?$Vec3@M@Imath@@@1@QBD@Z 10088780 f i ImfCRgbaFile.obj
 0002:00029840       ??$typedAttribute@V?$TypedAttribute@V?$Vec3@M@Imath@@@Imf@@@Header@Imf@@QAEAAV?$TypedAttribute@V?$Vec3@M@Imath@@@1@QBD@Z 10088840 f i ImfCRgbaFile.obj
 0002:00029900       ??$typedAttribute@V?$TypedAttribute@V?$Matrix33@M@Imath@@@Imf@@@Header@Imf@@QBEABV?$TypedAttribute@V?$Matrix33@M@Imath@@@1@QBD@Z 10088900 f i ImfCRgbaFile.obj
 0002:000299c0       ??$typedAttribute@V?$TypedAttribute@V?$Matrix33@M@Imath@@@Imf@@@Header@Imf@@QAEAAV?$TypedAttribute@V?$Matrix33@M@Imath@@@1@QBD@Z 100889c0 f i ImfCRgbaFile.obj
 0002:00029a80       ??$typedAttribute@V?$TypedAttribute@V?$Matrix44@M@Imath@@@Imf@@@Header@Imf@@QBEABV?$TypedAttribute@V?$Matrix44@M@Imath@@@1@QBD@Z 10088a80 f i ImfCRgbaFile.obj
 0002:00029b40       ??$typedAttribute@V?$TypedAttribute@V?$Matrix44@M@Imath@@@Imf@@@Header@Imf@@QAEAAV?$TypedAttribute@V?$Matrix44@M@Imath@@@1@QBD@Z 10088b40 f i ImfCRgbaFile.obj
 0002:00029c00       ??$?0P6A?AVhalf@@V0@@Z@RgbaLut@Imf@@QAE@P6A?AVhalf@@V2@@ZW4RgbaChannels@1@@Z 10088c00 f i ImfCRgbaFile.obj
 0002:00029d00       ?qNan@half@@SA?AV1@XZ      10088d00 f i ImfCRgbaFile.obj
 0002:00029da0       ??$?0UroundNBit@Imf@@@RgbaLut@Imf@@QAE@UroundNBit@1@W4RgbaChannels@1@@Z 10088da0 f i ImfCRgbaFile.obj
 0002:00029ea0       ??_G?$TypedAttribute@H@Imf@@UAEPAXI@Z 10088ea0 f i ImfCRgbaFile.obj
 0002:00029ea0       ??_E?$TypedAttribute@H@Imf@@UAEPAXI@Z 10088ea0 f i ImfCRgbaFile.obj
 0002:00029f10       ??_E?$TypedAttribute@V?$basic_string@DU?$char_traits@D@std@@V?$allocator@D@2@@std@@@Imf@@UAEPAXI@Z 10088f10 f i ImfCRgbaFile.obj
 0002:00029f10       ??_G?$TypedAttribute@V?$basic_string@DU?$char_traits@D@std@@V?$allocator@D@2@@std@@@Imf@@UAEPAXI@Z 10088f10 f i ImfCRgbaFile.obj
 0002:00029f80       ??_G?$TypedAttribute@V?$Box@V?$Vec2@H@Imath@@@Imath@@@Imf@@UAEPAXI@Z 10088f80 f i ImfCRgbaFile.obj
 0002:00029f80       ??_E?$TypedAttribute@V?$Box@V?$Vec2@H@Imath@@@Imath@@@Imf@@UAEPAXI@Z 10088f80 f i ImfCRgbaFile.obj
 0002:00029ff0       ??_G?$TypedAttribute@V?$Box@V?$Vec2@M@Imath@@@Imath@@@Imf@@UAEPAXI@Z 10088ff0 f i ImfCRgbaFile.obj
 0002:00029ff0       ??_E?$TypedAttribute@V?$Box@V?$Vec2@M@Imath@@@Imath@@@Imf@@UAEPAXI@Z 10088ff0 f i ImfCRgbaFile.obj
 0002:0002a060       ??0?$Box@V?$Vec2@M@Imath@@@Imath@@QAE@ABV01@@Z 10089060 f i ImfCRgbaFile.obj
 0002:0002a0d0       ??_E?$TypedAttribute@V?$Vec2@H@Imath@@@Imf@@UAEPAXI@Z 100890d0 f i ImfCRgbaFile.obj
 0002:0002a0d0       ??_G?$TypedAttribute@V?$Vec2@H@Imath@@@Imf@@UAEPAXI@Z 100890d0 f i ImfCRgbaFile.obj
 0002:0002a140       ??_E?$TypedAttribute@V?$Vec2@M@Imath@@@Imf@@UAEPAXI@Z 10089140 f i ImfCRgbaFile.obj
 0002:0002a140       ??_G?$TypedAttribute@V?$Vec2@M@Imath@@@Imf@@UAEPAXI@Z 10089140 f i ImfCRgbaFile.obj
 0002:0002a1b0       ??_E?$TypedAttribute@V?$Vec3@H@Imath@@@Imf@@UAEPAXI@Z 100891b0 f i ImfCRgbaFile.obj
 0002:0002a1b0       ??_G?$TypedAttribute@V?$Vec3@H@Imath@@@Imf@@UAEPAXI@Z 100891b0 f i ImfCRgbaFile.obj
 0002:0002a220       ??_G?$TypedAttribute@V?$Vec3@M@Imath@@@Imf@@UAEPAXI@Z 10089220 f i ImfCRgbaFile.obj
 0002:0002a220       ??_E?$TypedAttribute@V?$Vec3@M@Imath@@@Imf@@UAEPAXI@Z 10089220 f i ImfCRgbaFile.obj
 0002:0002a290       ??_E?$TypedAttribute@V?$Matrix33@M@Imath@@@Imf@@UAEPAXI@Z 10089290 f i ImfCRgbaFile.obj
 0002:0002a290       ??_G?$TypedAttribute@V?$Matrix33@M@Imath@@@Imf@@UAEPAXI@Z 10089290 f i ImfCRgbaFile.obj
 0002:0002a300       ??_E?$TypedAttribute@V?$Matrix44@M@Imath@@@Imf@@UAEPAXI@Z 10089300 f i ImfCRgbaFile.obj
 0002:0002a300       ??_G?$TypedAttribute@V?$Matrix44@M@Imath@@@Imf@@UAEPAXI@Z 10089300 f i ImfCRgbaFile.obj
 0002:0002a370       ??0?$Vec2@H@Imath@@QAE@XZ  10089370 f i ImfCRgbaFile.obj
 0002:0002a3b0       ??0?$Vec2@M@Imath@@QAE@XZ  100893b0 f i ImfCRgbaFile.obj
 0002:0002a3f0       ??0?$Vec3@H@Imath@@QAE@ABV01@@Z 100893f0 f i ImfCRgbaFile.obj
 0002:0002a460       ??0?$Vec3@M@Imath@@QAE@ABV01@@Z 10089460 f i ImfCRgbaFile.obj
 0002:0002a4d0       ??0?$TypedAttribute@H@Imf@@QAE@XZ 100894d0 f i ImfCRgbaFile.obj
 0002:0002a540       ?cast@?$TypedAttribute@H@Imf@@SAABV12@ABVAttribute@2@@Z 10089540 f i ImfCRgbaFile.obj
 0002:0002a590       ??0?$TypedAttribute@V?$basic_string@DU?$char_traits@D@std@@V?$allocator@D@2@@std@@@Imf@@QAE@XZ 10089590 f i ImfCRgbaFile.obj
 0002:0002a670       ??0_Has_debug_it@?$basic_string@DU?$char_traits@D@std@@V?$allocator@D@2@@std@@QAE@_N@Z 10089670 f i ImfCRgbaFile.obj
 0002:0002a6c0       ?cast@?$TypedAttribute@V?$basic_string@DU?$char_traits@D@std@@V?$allocator@D@2@@std@@@Imf@@SAABV12@ABVAttribute@2@@Z 100896c0 f i ImfCRgbaFile.obj
 0002:0002a710       ??0?$TypedAttribute@V?$Box@V?$Vec2@H@Imath@@@Imath@@@Imf@@QAE@XZ 10089710 f i ImfCRgbaFile.obj
 0002:0002a7d0       ?cast@?$TypedAttribute@V?$Box@V?$Vec2@H@Imath@@@Imath@@@Imf@@SAABV12@ABVAttribute@2@@Z 100897d0 f i ImfCRgbaFile.obj
 0002:0002a820       ??0?$TypedAttribute@V?$Box@V?$Vec2@M@Imath@@@Imath@@@Imf@@QAE@XZ 10089820 f i ImfCRgbaFile.obj
 0002:0002a8e0       ?cast@?$TypedAttribute@V?$Box@V?$Vec2@M@Imath@@@Imath@@@Imf@@SAABV12@ABVAttribute@2@@Z 100898e0 f i ImfCRgbaFile.obj
 0002:0002a930       ??0?$TypedAttribute@V?$Vec2@H@Imath@@@Imf@@QAE@XZ 10089930 f i ImfCRgbaFile.obj
 0002:0002a9f0       ?cast@?$TypedAttribute@V?$Vec2@H@Imath@@@Imf@@SAABV12@ABVAttribute@2@@Z 100899f0 f i ImfCRgbaFile.obj
 0002:0002aa40       ??0?$TypedAttribute@V?$Vec2@M@Imath@@@Imf@@QAE@XZ 10089a40 f i ImfCRgbaFile.obj
 0002:0002ab00       ?cast@?$TypedAttribute@V?$Vec2@M@Imath@@@Imf@@SAABV12@ABVAttribute@2@@Z 10089b00 f i ImfCRgbaFile.obj
 0002:0002ab50       ??0?$TypedAttribute@V?$Vec3@H@Imath@@@Imf@@QAE@XZ 10089b50 f i ImfCRgbaFile.obj
 0002:0002ac10       ?cast@?$TypedAttribute@V?$Vec3@H@Imath@@@Imf@@SAABV12@ABVAttribute@2@@Z 10089c10 f i ImfCRgbaFile.obj
 0002:0002ac60       ??0?$TypedAttribute@V?$Vec3@M@Imath@@@Imf@@QAE@XZ 10089c60 f i ImfCRgbaFile.obj
 0002:0002ad20       ?cast@?$TypedAttribute@V?$Vec3@M@Imath@@@Imf@@SAABV12@ABVAttribute@2@@Z 10089d20 f i ImfCRgbaFile.obj
 0002:0002ad70       ??0?$Matrix33@M@Imath@@QAE@ABV01@@Z 10089d70 f i ImfCRgbaFile.obj
 0002:0002ae30       ??0?$TypedAttribute@V?$Matrix33@M@Imath@@@Imf@@QAE@XZ 10089e30 f i ImfCRgbaFile.obj
 0002:0002aef0       ?cast@?$TypedAttribute@V?$Matrix33@M@Imath@@@Imf@@SAABV12@ABVAttribute@2@@Z 10089ef0 f i ImfCRgbaFile.obj
 0002:0002af40       ??0?$TypedAttribute@V?$Matrix44@M@Imath@@@Imf@@QAE@XZ 10089f40 f i ImfCRgbaFile.obj
 0002:0002b000       ?cast@?$TypedAttribute@V?$Matrix44@M@Imath@@@Imf@@SAABV12@ABVAttribute@2@@Z 1008a000 f i ImfCRgbaFile.obj
 0002:0002b050       ??$?0P6A?AVhalf@@V0@@Z@?$halfFunction@Vhalf@@@@QAE@P6A?AVhalf@@V1@@Z000000@Z 1008a050 f i ImfCRgbaFile.obj
 0002:0002b270       ??4half@@QAEAAV0@V0@@Z     1008a270 f i ImfCRgbaFile.obj
 0002:0002b2c0       ?setBits@half@@QAEXG@Z     1008a2c0 f i ImfCRgbaFile.obj
 0002:0002b310       ??$?0UroundNBit@Imf@@@?$halfFunction@Vhalf@@@@QAE@UroundNBit@Imf@@Vhalf@@11111@Z 1008a310 f i ImfCRgbaFile.obj
 0002:0002b530       ??RroundNBit@Imf@@QAE?AVhalf@@V2@@Z 1008a530 f i ImfCRgbaFile.obj
 0002:0002b5a0       ?round@half@@QBE?AV1@I@Z   1008a5a0 f i ImfCRgbaFile.obj
 0002:0002b720       ??_H@YGXPAXIHP6EPAX0@Z@Z   1008a720 f i ImfCRgbaFile.obj
 0002:0002b790       ??0?$Vec3@H@Imath@@QAE@XZ  1008a790 f i ImfCRgbaFile.obj
 0002:0002b7d0       ??0?$Vec3@M@Imath@@QAE@XZ  1008a7d0 f i ImfCRgbaFile.obj
 0002:0002b810       ??0?$Box@V?$Vec2@H@Imath@@@Imath@@QAE@XZ 1008a810 f i ImfCRgbaFile.obj
 0002:0002b880       ??0?$Box@V?$Vec2@M@Imath@@@Imath@@QAE@XZ 1008a880 f i ImfCRgbaFile.obj
 0002:0002b8f0       ?cast@?$TypedAttribute@H@Imf@@SAPBV12@PBVAttribute@2@@Z 1008a8f0 f i ImfCRgbaFile.obj
 0002:0002b990       ?cast@?$TypedAttribute@V?$basic_string@DU?$char_traits@D@std@@V?$allocator@D@2@@std@@@Imf@@SAPBV12@PBVAttribute@2@@Z 1008a990 f i ImfCRgbaFile.obj
 0002:0002ba30       ?cast@?$TypedAttribute@V?$Box@V?$Vec2@H@Imath@@@Imath@@@Imf@@SAPBV12@PBVAttribute@2@@Z 1008aa30 f i ImfCRgbaFile.obj
 0002:0002bad0       ?cast@?$TypedAttribute@V?$Box@V?$Vec2@M@Imath@@@Imath@@@Imf@@SAPBV12@PBVAttribute@2@@Z 1008aad0 f i ImfCRgbaFile.obj
 0002:0002bb70       ?cast@?$TypedAttribute@V?$Vec2@H@Imath@@@Imf@@SAPBV12@PBVAttribute@2@@Z 1008ab70 f i ImfCRgbaFile.obj
 0002:0002bc10       ?cast@?$TypedAttribute@V?$Vec2@M@Imath@@@Imf@@SAPBV12@PBVAttribute@2@@Z 1008ac10 f i ImfCRgbaFile.obj
 0002:0002bcb0       ?cast@?$TypedAttribute@V?$Vec3@H@Imath@@@Imf@@SAPBV12@PBVAttribute@2@@Z 1008acb0 f i ImfCRgbaFile.obj
 0002:0002bd50       ?cast@?$TypedAttribute@V?$Vec3@M@Imath@@@Imf@@SAPBV12@PBVAttribute@2@@Z 1008ad50 f i ImfCRgbaFile.obj
 0002:0002bdf0       ??0?$Matrix33@M@Imath@@QAE@XZ 1008adf0 f i ImfCRgbaFile.obj
 0002:0002be90       ?cast@?$TypedAttribute@V?$Matrix33@M@Imath@@@Imf@@SAPBV12@PBVAttribute@2@@Z 1008ae90 f i ImfCRgbaFile.obj
 0002:0002bf30       ?cast@?$TypedAttribute@V?$Matrix44@M@Imath@@@Imf@@SAPBV12@PBVAttribute@2@@Z 1008af30 f i ImfCRgbaFile.obj
 0002:0002bfd0       ?makeEmpty@?$Box@V?$Vec2@H@Imath@@@Imath@@QAEXXZ 1008afd0 f i ImfCRgbaFile.obj
 0002:0002c060       ?makeEmpty@?$Box@V?$Vec2@M@Imath@@@Imath@@QAEXXZ 1008b060 f i ImfCRgbaFile.obj
 0002:0002c100       ?baseTypeMin@?$Vec2@H@Imath@@SAHXZ 1008b100 f i ImfCRgbaFile.obj
 0002:0002c150       ?min@?$limits@H@Imath@@SAHXZ 1008b150 f i ImfCRgbaFile.obj
 0002:0002c190       ?baseTypeMax@?$Vec2@H@Imath@@SAHXZ 1008b190 f i ImfCRgbaFile.obj
 0002:0002c1e0       ?max@?$limits@H@Imath@@SAHXZ 1008b1e0 f i ImfCRgbaFile.obj
 0002:0002c220       ?baseTypeMin@?$Vec2@M@Imath@@SAMXZ 1008b220 f i ImfCRgbaFile.obj
 0002:0002c270       ?min@?$limits@M@Imath@@SAMXZ 1008b270 f i ImfCRgbaFile.obj
 0002:0002c2b0       ?baseTypeMax@?$Vec2@M@Imath@@SAMXZ 1008b2b0 f i ImfCRgbaFile.obj
 0002:0002c300       ?max@?$limits@M@Imath@@SAMXZ 1008b300 f i ImfCRgbaFile.obj
 0002:0002c340       ??0?$Vec2@H@Imath@@QAE@H@Z 1008b340 f i ImfCRgbaFile.obj
 0002:0002c390       ??0?$Vec2@M@Imath@@QAE@M@Z 1008b390 f i ImfCRgbaFile.obj
 0002:0002c3e0       ?staticTypeName@?$TypedAttribute@N@Imf@@SAPBDXZ 1008b3e0 f   ImfDoubleAttribute.obj
 0002:0002c420       ?latLong@LatLongMap@Imf@@YA?AV?$Vec2@M@Imath@@ABV?$Vec3@M@4@@Z 1008b420 f   ImfEnvmap.obj
 0002:0002c600       ?abs@@YAMM@Z               1008b600 f i ImfEnvmap.obj
 0002:0002c660       _fabsf                     1008b660 f i ImfEnvmap.obj
 0002:0002c6d0       ?acos@@YAMM@Z              1008b6d0 f i ImfEnvmap.obj
 0002:0002c730       _acosf                     1008b730 f i ImfEnvmap.obj
 0002:0002c7a0       ?asin@@YAMM@Z              1008b7a0 f i ImfEnvmap.obj
 0002:0002c800       _asinf                     1008b800 f i ImfEnvmap.obj
 0002:0002c870       ?atan2@@YAMMM@Z            1008b870 f i ImfEnvmap.obj
 0002:0002c8d0       _atan2f                    1008b8d0 f i ImfEnvmap.obj
 0002:0002c940       ?sqrt@@YAMM@Z              1008b940 f i ImfEnvmap.obj
 0002:0002c9a0       _sqrtf                     1008b9a0 f i ImfEnvmap.obj
 0002:0002ca10       ?latLong@LatLongMap@Imf@@YA?AV?$Vec2@M@Imath@@ABV?$Box@V?$Vec2@H@Imath@@@4@ABV34@@Z 1008ba10 f   ImfEnvmap.obj
 0002:0002cb20       ?pixelPosition@LatLongMap@Imf@@YA?AV?$Vec2@M@Imath@@ABV?$Box@V?$Vec2@H@Imath@@@4@ABV34@@Z 1008bb20 f   ImfEnvmap.obj
 0002:0002cc20       ?pixelPosition@LatLongMap@Imf@@YA?AV?$Vec2@M@Imath@@ABV?$Box@V?$Vec2@H@Imath@@@4@ABV?$Vec3@M@4@@Z 1008bc20 f   ImfEnvmap.obj
 0002:0002cc90       ?direction@LatLongMap@Imf@@YA?AV?$Vec3@M@Imath@@ABV?$Box@V?$Vec2@H@Imath@@@4@ABV?$Vec2@M@4@@Z 1008bc90 f   ImfEnvmap.obj
 0002:0002cdd0       ?cos@@YAMM@Z               1008bdd0 f i ImfEnvmap.obj
 0002:0002ce30       _cosf                      1008be30 f i ImfEnvmap.obj
 0002:0002cea0       ?sin@@YAMM@Z               1008bea0 f i ImfEnvmap.obj
 0002:0002cf00       _sinf                      1008bf00 f i ImfEnvmap.obj
 0002:0002cf70       ?sizeOfFace@CubeMap@Imf@@YAHABV?$Box@V?$Vec2@H@Imath@@@Imath@@@Z 1008bf70 f   ImfEnvmap.obj
 0002:0002d010       ?dataWindowForFace@CubeMap@Imf@@YA?AV?$Box@V?$Vec2@H@Imath@@@Imath@@W4CubeMapFace@2@ABV34@@Z 1008c010 f   ImfEnvmap.obj
 0002:0002d0f0       ?pixelPosition@CubeMap@Imf@@YA?AV?$Vec2@M@Imath@@W4CubeMapFace@2@ABV?$Box@V?$Vec2@H@Imath@@@4@V34@@Z 1008c0f0 f   ImfEnvmap.obj
 0002:0002d2a0       ?faceAndPixelPosition@CubeMap@Imf@@YAXABV?$Vec3@M@Imath@@ABV?$Box@V?$Vec2@H@Imath@@@4@AAW4CubeMapFace@2@AAV?$Vec2@M@4@@Z 1008c2a0 f   ImfEnvmap.obj
 0002:0002d5c0       ?direction@CubeMap@Imf@@YA?AV?$Vec3@M@Imath@@W4CubeMapFace@2@ABV?$Box@V?$Vec2@H@Imath@@@4@ABV?$Vec2@M@4@@Z 1008c5c0 f   ImfEnvmap.obj
 0002:0002d840       ?length@?$Vec3@M@Imath@@QBEMXZ 1008c840 f i ImfEnvmap.obj
 0002:0002d8b0       ?sqrt@?$Math@M@Imath@@SAMM@Z 1008c8b0 f i ImfEnvmap.obj
 0002:0002d910       ??$sign@M@Imath@@YAHM@Z    1008c910 f i ImfEnvmap.obj
 0002:0002d9b0       ??$min@H@std@@YAABHABH0@Z  1008c9b0 f i ImfEnvmap.obj
 0002:0002da50       ?dot@?$Vec3@M@Imath@@QBEMABV12@@Z 1008ca50 f i ImfEnvmap.obj
 0002:0002dad0       ??$_Debug_lt@HH@std@@YA_NABH0PB_WI@Z 1008cad0 f i ImfEnvmap.obj
 0002:0002db60       ?staticTypeName@?$TypedAttribute@W4Envmap@Imf@@@Imf@@SAPBDXZ 1008cb60 f   ImfEnvmapAttribute.obj
 0002:0002dba0       ?writeValueTo@?$TypedAttribute@W4Envmap@Imf@@@Imf@@UBEXAAVOStream@2@H@Z 1008cba0 f   ImfEnvmapAttribute.obj
 0002:0002dc10       ?readValueFrom@?$TypedAttribute@W4Envmap@Imf@@@Imf@@UAEXAAVIStream@2@HH@Z 1008cc10 f   ImfEnvmapAttribute.obj
 0002:0002dcb0       ?staticTypeName@?$TypedAttribute@M@Imf@@SAPBDXZ 1008ccb0 f   ImfFloatAttribute.obj
 0002:0002dcf0       ??0Slice@Imf@@QAE@W4PixelType@1@PADIIHHN_N2@Z 1008ccf0 f   ImfFrameBuffer.obj
 0002:0002dd90       ?insert@FrameBuffer@Imf@@QAEXQBDABUSlice@2@@Z 1008cd90 f   ImfFrameBuffer.obj
 0002:0002df50       ??AFrameBuffer@Imf@@QAEAAUSlice@1@QBD@Z 1008cf50 f   ImfFrameBuffer.obj
 0002:0002e1d0       ??1iterator@?$_Tree@V?$_Tmap_traits@VName@Imf@@USlice@2@U?$less@VName@Imf@@@std@@V?$allocator@U?$pair@$$CBVName@Imf@@USlice@2@@std@@@5@$0A@@std@@@std@@QAE@XZ 1008d1d0 f i ImfFrameBuffer.obj
 0002:0002e220       ??1const_iterator@?$_Tree@V?$_Tmap_traits@VName@Imf@@USlice@2@U?$less@VName@Imf@@@std@@V?$allocator@U?$pair@$$CBVName@Imf@@USlice@2@@std@@@5@$0A@@std@@@std@@QAE@XZ 1008d220 f i ImfFrameBuffer.obj
 0002:0002e270       ??1?$_Bidit@U?$pair@$$CBVName@Imf@@USlice@2@@std@@HPBU12@ABU12@@std@@QAE@XZ 1008d270 f i ImfFrameBuffer.obj
 0002:0002e2c0       ??AFrameBuffer@Imf@@QBEABUSlice@1@QBD@Z 1008d2c0 f   ImfFrameBuffer.obj
 0002:0002e540       ?findSlice@FrameBuffer@Imf@@QAEPAUSlice@2@QBD@Z 1008d540 f   ImfFrameBuffer.obj
 0002:0002e6d0       ?findSlice@FrameBuffer@Imf@@QBEPBUSlice@2@QBD@Z 1008d6d0 f   ImfFrameBuffer.obj
 0002:0002e860       ?begin@FrameBuffer@Imf@@QAE?AVIterator@12@XZ 1008d860 f   ImfFrameBuffer.obj
 0002:0002e960       ??0Iterator@FrameBuffer@Imf@@QAE@ABViterator@?$_Tree@V?$_Tmap_traits@VName@Imf@@USlice@2@U?$less@VName@Imf@@@std@@V?$allocator@U?$pair@$$CBVName@Imf@@USlice@2@@std@@@5@$0A@@std@@@std@@@Z 1008d960 f i ImfFrameBuffer.obj
 0002:0002e9c0       ??0iterator@?$_Tree@V?$_Tmap_traits@VName@Imf@@USlice@2@U?$less@VName@Imf@@@std@@V?$allocator@U?$pair@$$CBVName@Imf@@USlice@2@@std@@@5@$0A@@std@@@std@@QAE@ABV012@@Z 1008d9c0 f i ImfFrameBuffer.obj
 0002:0002ea20       ??0const_iterator@?$_Tree@V?$_Tmap_traits@VName@Imf@@USlice@2@U?$less@VName@Imf@@@std@@V?$allocator@U?$pair@$$CBVName@Imf@@USlice@2@@std@@@5@$0A@@std@@@std@@QAE@ABV012@@Z 1008da20 f i ImfFrameBuffer.obj
 0002:0002ea90       ??0?$_Bidit@U?$pair@$$CBVName@Imf@@USlice@2@@std@@HPBU12@ABU12@@std@@QAE@ABU01@@Z 1008da90 f i ImfFrameBuffer.obj
 0002:0002eaf0       ??1Iterator@FrameBuffer@Imf@@QAE@XZ 1008daf0 f i ImfFrameBuffer.obj
 0002:0002eb40       ?begin@FrameBuffer@Imf@@QBE?AVConstIterator@12@XZ 1008db40 f   ImfFrameBuffer.obj
 0002:0002ec40       ??0ConstIterator@FrameBuffer@Imf@@QAE@ABVconst_iterator@?$_Tree@V?$_Tmap_traits@VName@Imf@@USlice@2@U?$less@VName@Imf@@@std@@V?$allocator@U?$pair@$$CBVName@Imf@@USlice@2@@std@@@5@$0A@@std@@@std@@@Z 1008dc40 f i ImfFrameBuffer.obj
 0002:0002eca0       ??1ConstIterator@FrameBuffer@Imf@@QAE@XZ 1008dca0 f i ImfFrameBuffer.obj
 0002:0002ecf0       ?end@FrameBuffer@Imf@@QAE?AVIterator@12@XZ 1008dcf0 f   ImfFrameBuffer.obj
 0002:0002edf0       ?end@FrameBuffer@Imf@@QBE?AVConstIterator@12@XZ 1008ddf0 f   ImfFrameBuffer.obj
 0002:0002eef0       ?find@FrameBuffer@Imf@@QAE?AVIterator@12@QBD@Z 1008def0 f   ImfFrameBuffer.obj
 0002:0002f010       ?find@FrameBuffer@Imf@@QBE?AVConstIterator@12@QBD@Z 1008e010 f   ImfFrameBuffer.obj
 0002:0002f130       ??A?$map@VName@Imf@@USlice@2@U?$less@VName@Imf@@@std@@V?$allocator@U?$pair@$$CBVName@Imf@@USlice@2@@std@@@5@@std@@QAEAAUSlice@Imf@@ABVName@3@@Z 1008e130 f i ImfFrameBuffer.obj
 0002:0002f3f0       ?begin@?$_Tree@V?$_Tmap_traits@VName@Imf@@USlice@2@U?$less@VName@Imf@@@std@@V?$allocator@U?$pair@$$CBVName@Imf@@USlice@2@@std@@@5@$0A@@std@@@std@@QAE?AViterator@12@XZ 1008e3f0 f i ImfFrameBuffer.obj
 0002:0002f480       ?begin@?$_Tree@V?$_Tmap_traits@VName@Imf@@USlice@2@U?$less@VName@Imf@@@std@@V?$allocator@U?$pair@$$CBVName@Imf@@USlice@2@@std@@@5@$0A@@std@@@std@@QBE?AVconst_iterator@12@XZ 1008e480 f i ImfFrameBuffer.obj
 0002:0002f510       ?end@?$_Tree@V?$_Tmap_traits@VName@Imf@@USlice@2@U?$less@VName@Imf@@@std@@V?$allocator@U?$pair@$$CBVName@Imf@@USlice@2@@std@@@5@$0A@@std@@@std@@QAE?AViterator@12@XZ 1008e510 f i ImfFrameBuffer.obj
 0002:0002f5a0       ?end@?$_Tree@V?$_Tmap_traits@VName@Imf@@USlice@2@U?$less@VName@Imf@@@std@@V?$allocator@U?$pair@$$CBVName@Imf@@USlice@2@@std@@@5@$0A@@std@@@std@@QBE?AVconst_iterator@12@XZ 1008e5a0 f i ImfFrameBuffer.obj
 0002:0002f630       ?find@?$_Tree@V?$_Tmap_traits@VName@Imf@@USlice@2@U?$less@VName@Imf@@@std@@V?$allocator@U?$pair@$$CBVName@Imf@@USlice@2@@std@@@5@$0A@@std@@@std@@QAE?AViterator@12@ABVName@Imf@@@Z 1008e630 f i ImfFrameBuffer.obj
 0002:0002f8b0       ?find@?$_Tree@V?$_Tmap_traits@VName@Imf@@USlice@2@U?$less@VName@Imf@@@std@@V?$allocator@U?$pair@$$CBVName@Imf@@USlice@2@@std@@@5@$0A@@std@@@std@@QBE?AVconst_iterator@12@ABVName@Imf@@@Z 1008e8b0 f i ImfFrameBuffer.obj
 0002:0002fb30       ??Citerator@?$_Tree@V?$_Tmap_traits@VName@Imf@@USlice@2@U?$less@VName@Imf@@@std@@V?$allocator@U?$pair@$$CBVName@Imf@@USlice@2@@std@@@5@$0A@@std@@@std@@QBEPAU?$pair@$$CBVName@Imf@@USlice@2@@2@XZ 1008eb30 f i ImfFrameBuffer.obj
 0002:0002fb80       ??Cconst_iterator@?$_Tree@V?$_Tmap_traits@VName@Imf@@USlice@2@U?$less@VName@Imf@@@std@@V?$allocator@U?$pair@$$CBVName@Imf@@USlice@2@@std@@@5@$0A@@std@@@std@@QBEPBU?$pair@$$CBVName@Imf@@USlice@2@@2@XZ 1008eb80 f i ImfFrameBuffer.obj
 0002:0002fbd0       ??8const_iterator@?$_Tree@V?$_Tmap_traits@VName@Imf@@USlice@2@U?$less@VName@Imf@@@std@@V?$allocator@U?$pair@$$CBVName@Imf@@USlice@2@@std@@@5@$0A@@std@@@std@@QBE_NABV012@@Z 1008ebd0 f i ImfFrameBuffer.obj
 0002:0002fce0       ??4iterator@?$_Tree@V?$_Tmap_traits@VName@Imf@@USlice@2@U?$less@VName@Imf@@@std@@V?$allocator@U?$pair@$$CBVName@Imf@@USlice@2@@std@@@5@$0A@@std@@@std@@QAEAAV012@ABV012@@Z 1008ece0 f i ImfFrameBuffer.obj
 0002:0002fd40       ??4const_iterator@?$_Tree@V?$_Tmap_traits@VName@Imf@@USlice@2@U?$less@VName@Imf@@@std@@V?$allocator@U?$pair@$$CBVName@Imf@@USlice@2@@std@@@5@$0A@@std@@@std@@QAEAAV012@ABV012@@Z 1008ed40 f i ImfFrameBuffer.obj
 0002:0002fdb0       ??4?$_Bidit@U?$pair@$$CBVName@Imf@@USlice@2@@std@@HPBU12@ABU12@@std@@QAEAAU01@ABU01@@Z 1008edb0 f i ImfFrameBuffer.obj
 0002:0002fe10       ?_Key@?$_Tree@V?$_Tmap_traits@VName@Imf@@USlice@2@U?$less@VName@Imf@@@std@@V?$allocator@U?$pair@$$CBVName@Imf@@USlice@2@@std@@@5@$0A@@std@@@std@@KAABVName@Imf@@PAU_Node@?$_Tree_nod@V?$_Tmap_traits@VName@Imf@@USlice@2@U?$less@VName@Imf@@@std@@V?$allocator@U?$pair@$$CBVName@Imf@@USlice@2@@std@@@5@$0A@@std@@@2@@Z 1008ee10 f i ImfFrameBuffer.obj
 0002:0002fe70       ?insert@?$_Tree@V?$_Tmap_traits@VName@Imf@@USlice@2@U?$less@VName@Imf@@@std@@V?$allocator@U?$pair@$$CBVName@Imf@@USlice@2@@std@@@5@$0A@@std@@@std@@QAE?AViterator@12@V312@ABU?$pair@$$CBVName@Imf@@USlice@2@@2@@Z 1008ee70 f i ImfFrameBuffer.obj
 0002:00030d40       ??0iterator@?$_Tree@V?$_Tmap_traits@VName@Imf@@USlice@2@U?$less@VName@Imf@@@std@@V?$allocator@U?$pair@$$CBVName@Imf@@USlice@2@@std@@@5@$0A@@std@@@std@@QAE@XZ 1008fd40 f i ImfFrameBuffer.obj
 0002:00030da0       ??Eiterator@?$_Tree@V?$_Tmap_traits@VName@Imf@@USlice@2@U?$less@VName@Imf@@@std@@V?$allocator@U?$pair@$$CBVName@Imf@@USlice@2@@std@@@5@$0A@@std@@@std@@QAEAAV012@XZ 1008fda0 f i ImfFrameBuffer.obj
 0002:00030e00       ??0const_iterator@?$_Tree@V?$_Tmap_traits@VName@Imf@@USlice@2@U?$less@VName@Imf@@@std@@V?$allocator@U?$pair@$$CBVName@Imf@@USlice@2@@std@@@5@$0A@@std@@@std@@QAE@XZ 1008fe00 f i ImfFrameBuffer.obj
 0002:00030e60       ??Econst_iterator@?$_Tree@V?$_Tmap_traits@VName@Imf@@USlice@2@U?$less@VName@Imf@@@std@@V?$allocator@U?$pair@$$CBVName@Imf@@USlice@2@@std@@@5@$0A@@std@@@std@@QAEAAV012@XZ 1008fe60 f i ImfFrameBuffer.obj
 0002:00030ec0       ??0?$_Bidit@U?$pair@$$CBVName@Imf@@USlice@2@@std@@HPBU12@ABU12@@std@@QAE@XZ 1008fec0 f i ImfFrameBuffer.obj
 0002:00030f20       ?lower_bound@?$_Tree@V?$_Tmap_traits@VName@Imf@@USlice@2@U?$less@VName@Imf@@@std@@V?$allocator@U?$pair@$$CBVName@Imf@@USlice@2@@std@@@5@$0A@@std@@@std@@QAE?AViterator@12@ABVName@Imf@@@Z 1008ff20 f i ImfFrameBuffer.obj
 0002:00030fb0       ?lower_bound@?$_Tree@V?$_Tmap_traits@VName@Imf@@USlice@2@U?$less@VName@Imf@@@std@@V?$allocator@U?$pair@$$CBVName@Imf@@USlice@2@@std@@@5@$0A@@std@@@std@@QBE?AVconst_iterator@12@ABVName@Imf@@@Z 1008ffb0 f i ImfFrameBuffer.obj
 0002:00031040       ?_Lmost@?$_Tree@V?$_Tmap_traits@VName@Imf@@USlice@2@U?$less@VName@Imf@@@std@@V?$allocator@U?$pair@$$CBVName@Imf@@USlice@2@@std@@@5@$0A@@std@@@std@@IBEAAPAU_Node@?$_Tree_nod@V?$_Tmap_traits@VName@Imf@@USlice@2@U?$less@VName@Imf@@@std@@V?$allocator@U?$pair@$$CBVName@Imf@@USlice@2@@std@@@5@$0A@@std@@@2@XZ 10090040 f i ImfFrameBuffer.obj
 0002:000310a0       ??0iterator@?$_Tree@V?$_Tmap_traits@VName@Imf@@USlice@2@U?$less@VName@Imf@@@std@@V?$allocator@U?$pair@$$CBVName@Imf@@USlice@2@@std@@@5@$0A@@std@@@std@@QAE@PAU_Node@?$_Tree_nod@V?$_Tmap_traits@VName@Imf@@USlice@2@U?$less@VName@Imf@@@std@@V?$allocator@U?$pair@$$CBVName@Imf@@USlice@2@@std@@@5@$0A@@std@@@2@PBV12@@Z 100900a0 f i ImfFrameBuffer.obj
 0002:00031100       ??Diterator@?$_Tree@V?$_Tmap_traits@VName@Imf@@USlice@2@U?$less@VName@Imf@@@std@@V?$allocator@U?$pair@$$CBVName@Imf@@USlice@2@@std@@@5@$0A@@std@@@std@@QBEAAU?$pair@$$CBVName@Imf@@USlice@2@@2@XZ 10090100 f i ImfFrameBuffer.obj
 0002:00031150       ??0const_iterator@?$_Tree@V?$_Tmap_traits@VName@Imf@@USlice@2@U?$less@VName@Imf@@@std@@V?$allocator@U?$pair@$$CBVName@Imf@@USlice@2@@std@@@5@$0A@@std@@@std@@QAE@PAU_Node@?$_Tree_nod@V?$_Tmap_traits@VName@Imf@@USlice@2@U?$less@VName@Imf@@@std@@V?$allocator@U?$pair@$$CBVName@Imf@@USlice@2@@std@@@5@$0A@@std@@@2@PBV12@@Z 10090150 f i ImfFrameBuffer.obj
 0002:00031210       ??Dconst_iterator@?$_Tree@V?$_Tmap_traits@VName@Imf@@USlice@2@U?$less@VName@Imf@@@std@@V?$allocator@U?$pair@$$CBVName@Imf@@USlice@2@@std@@@5@$0A@@std@@@std@@QBEABU?$pair@$$CBVName@Imf@@USlice@2@@2@XZ 10090210 f i ImfFrameBuffer.obj
 0002:00031320       ?_Inc@const_iterator@?$_Tree@V?$_Tmap_traits@VName@Imf@@USlice@2@U?$less@VName@Imf@@@std@@V?$allocator@U?$pair@$$CBVName@Imf@@USlice@2@@std@@@5@$0A@@std@@@std@@QAEXXZ 10090320 f i ImfFrameBuffer.obj
 0002:000314e0       ?_Mynode@const_iterator@?$_Tree@V?$_Tmap_traits@VName@Imf@@USlice@2@U?$less@VName@Imf@@@std@@V?$allocator@U?$pair@$$CBVName@Imf@@USlice@2@@std@@@5@$0A@@std@@@std@@QBEPAU_Node@?$_Tree_nod@V?$_Tmap_traits@VName@Imf@@USlice@2@U?$less@VName@Imf@@@std@@V?$allocator@U?$pair@$$CBVName@Imf@@USlice@2@@std@@@5@$0A@@std@@@3@XZ 100904e0 f i ImfFrameBuffer.obj
 0002:00031520       ??0?$pair@$$CBVName@Imf@@USlice@2@@std@@QAE@ABVName@Imf@@ABUSlice@3@@Z 10090520 f i ImfFrameBuffer.obj
 0002:00031580       ??1?$pair@Viterator@?$_Tree@V?$_Tmap_traits@VName@Imf@@USlice@2@U?$less@VName@Imf@@@std@@V?$allocator@U?$pair@$$CBVName@Imf@@USlice@2@@std@@@5@$0A@@std@@@std@@_N@std@@QAE@XZ 10090580 f i ImfFrameBuffer.obj
 0002:000315d0       ?_Isnil@?$_Tree@V?$_Tmap_traits@VName@Imf@@USlice@2@U?$less@VName@Imf@@@std@@V?$allocator@U?$pair@$$CBVName@Imf@@USlice@2@@std@@@5@$0A@@std@@@std@@KAAADPAU_Node@?$_Tree_nod@V?$_Tmap_traits@VName@Imf@@USlice@2@U?$less@VName@Imf@@@std@@V?$allocator@U?$pair@$$CBVName@Imf@@USlice@2@@std@@@5@$0A@@std@@@2@@Z 100905d0 f i ImfFrameBuffer.obj
 0002:00031610       ?_Left@?$_Tree@V?$_Tmap_traits@VName@Imf@@USlice@2@U?$less@VName@Imf@@@std@@V?$allocator@U?$pair@$$CBVName@Imf@@USlice@2@@std@@@5@$0A@@std@@@std@@KAAAPAU_Node@?$_Tree_nod@V?$_Tmap_traits@VName@Imf@@USlice@2@U?$less@VName@Imf@@@std@@V?$allocator@U?$pair@$$CBVName@Imf@@USlice@2@@std@@@5@$0A@@std@@@2@PAU342@@Z 10090610 f i ImfFrameBuffer.obj
 0002:00031650       ?_Parent@?$_Tree@V?$_Tmap_traits@VName@Imf@@USlice@2@U?$less@VName@Imf@@@std@@V?$allocator@U?$pair@$$CBVName@Imf@@USlice@2@@std@@@5@$0A@@std@@@std@@KAAAPAU_Node@?$_Tree_nod@V?$_Tmap_traits@VName@Imf@@USlice@2@U?$less@VName@Imf@@@std@@V?$allocator@U?$pair@$$CBVName@Imf@@USlice@2@@std@@@5@$0A@@std@@@2@PAU342@@Z 10090650 f i ImfFrameBuffer.obj
 0002:00031690       ?_Right@?$_Tree@V?$_Tmap_traits@VName@Imf@@USlice@2@U?$less@VName@Imf@@@std@@V?$allocator@U?$pair@$$CBVName@Imf@@USlice@2@@std@@@5@$0A@@std@@@std@@KAAAPAU_Node@?$_Tree_nod@V?$_Tmap_traits@VName@Imf@@USlice@2@U?$less@VName@Imf@@@std@@V?$allocator@U?$pair@$$CBVName@Imf@@USlice@2@@std@@@5@$0A@@std@@@2@PAU342@@Z 10090690 f i ImfFrameBuffer.obj
 0002:000316d0       ?_Myval@?$_Tree@V?$_Tmap_traits@VName@Imf@@USlice@2@U?$less@VName@Imf@@@std@@V?$allocator@U?$pair@$$CBVName@Imf@@USlice@2@@std@@@5@$0A@@std@@@std@@KAAAU?$pair@$$CBVName@Imf@@USlice@2@@2@PAU_Node@?$_Tree_nod@V?$_Tmap_traits@VName@Imf@@USlice@2@U?$less@VName@Imf@@@std@@V?$allocator@U?$pair@$$CBVName@Imf@@USlice@2@@std@@@5@$0A@@std@@@2@@Z 100906d0 f i ImfFrameBuffer.obj
 0002:00031710       ?size@?$_Tree@V?$_Tmap_traits@VName@Imf@@USlice@2@U?$less@VName@Imf@@@std@@V?$allocator@U?$pair@$$CBVName@Imf@@USlice@2@@std@@@5@$0A@@std@@@std@@QBEIXZ 10090710 f i ImfFrameBuffer.obj
 0002:00031750       ?insert@?$_Tree@V?$_Tmap_traits@VName@Imf@@USlice@2@U?$less@VName@Imf@@@std@@V?$allocator@U?$pair@$$CBVName@Imf@@USlice@2@@std@@@5@$0A@@std@@@std@@QAE?AU?$pair@Viterator@?$_Tree@V?$_Tmap_traits@VName@Imf@@USlice@2@U?$less@VName@Imf@@@std@@V?$allocator@U?$pair@$$CBVName@Imf@@USlice@2@@std@@@5@$0A@@std@@@std@@_N@2@ABU?$pair@$$CBVName@Imf@@USlice@2@@2@@Z 10090750 f i ImfFrameBuffer.obj
 0002:00031c10       ?_Insert@?$_Tree@V?$_Tmap_traits@VName@Imf@@USlice@2@U?$less@VName@Imf@@@std@@V?$allocator@U?$pair@$$CBVName@Imf@@USlice@2@@std@@@5@$0A@@std@@@std@@IAE?AViterator@12@_NPAU_Node@?$_Tree_nod@V?$_Tmap_traits@VName@Imf@@USlice@2@U?$less@VName@Imf@@@std@@V?$allocator@U?$pair@$$CBVName@Imf@@USlice@2@@std@@@5@$0A@@std@@@2@ABU?$pair@$$CBVName@Imf@@USlice@2@@2@@Z 10090c10 f i ImfFrameBuffer.obj
 0002:00032220       ?_Lbound@?$_Tree@V?$_Tmap_traits@VName@Imf@@USlice@2@U?$less@VName@Imf@@@std@@V?$allocator@U?$pair@$$CBVName@Imf@@USlice@2@@std@@@5@$0A@@std@@@std@@IBEPAU_Node@?$_Tree_nod@V?$_Tmap_traits@VName@Imf@@USlice@2@U?$less@VName@Imf@@@std@@V?$allocator@U?$pair@$$CBVName@Imf@@USlice@2@@std@@@5@$0A@@std@@@2@ABVName@Imf@@@Z 10091220 f i ImfFrameBuffer.obj
 0002:00032320       ?_Min@?$_Tree@V?$_Tmap_traits@VName@Imf@@USlice@2@U?$less@VName@Imf@@@std@@V?$allocator@U?$pair@$$CBVName@Imf@@USlice@2@@std@@@5@$0A@@std@@@std@@KAPAU_Node@?$_Tree_nod@V?$_Tmap_traits@VName@Imf@@USlice@2@U?$less@VName@Imf@@@std@@V?$allocator@U?$pair@$$CBVName@Imf@@USlice@2@@std@@@5@$0A@@std@@@2@PAU342@@Z 10091320 f i ImfFrameBuffer.obj
 0002:000323a0       ?_Rmost@?$_Tree@V?$_Tmap_traits@VName@Imf@@USlice@2@U?$less@VName@Imf@@@std@@V?$allocator@U?$pair@$$CBVName@Imf@@USlice@2@@std@@@5@$0A@@std@@@std@@IBEAAPAU_Node@?$_Tree_nod@V?$_Tmap_traits@VName@Imf@@USlice@2@U?$less@VName@Imf@@@std@@V?$allocator@U?$pair@$$CBVName@Imf@@USlice@2@@std@@@5@$0A@@std@@@2@XZ 100913a0 f i ImfFrameBuffer.obj
 0002:00032400       ?_Kfn@?$_Tmap_traits@VName@Imf@@USlice@2@U?$less@VName@Imf@@@std@@V?$allocator@U?$pair@$$CBVName@Imf@@USlice@2@@std@@@5@$0A@@std@@SAABVName@Imf@@ABU?$pair@$$CBVName@Imf@@USlice@2@@2@@Z 10091400 f i ImfFrameBuffer.obj
 0002:00032440       ??Fiterator@?$_Tree@V?$_Tmap_traits@VName@Imf@@USlice@2@U?$less@VName@Imf@@@std@@V?$allocator@U?$pair@$$CBVName@Imf@@USlice@2@@std@@@5@$0A@@std@@@std@@QAEAAV012@XZ 10091440 f i ImfFrameBuffer.obj
 0002:000324a0       ?_Color@?$_Tree@V?$_Tmap_traits@VName@Imf@@USlice@2@U?$less@VName@Imf@@@std@@V?$allocator@U?$pair@$$CBVName@Imf@@USlice@2@@std@@@5@$0A@@std@@@std@@KAAADPAU_Node@?$_Tree_nod@V?$_Tmap_traits@VName@Imf@@USlice@2@U?$less@VName@Imf@@@std@@V?$allocator@U?$pair@$$CBVName@Imf@@USlice@2@@std@@@5@$0A@@std@@@2@@Z 100914a0 f i ImfFrameBuffer.obj
 0002:000324e0       ?max_size@?$_Tree@V?$_Tmap_traits@VName@Imf@@USlice@2@U?$less@VName@Imf@@@std@@V?$allocator@U?$pair@$$CBVName@Imf@@USlice@2@@std@@@5@$0A@@std@@@std@@QBEIXZ 100914e0 f i ImfFrameBuffer.obj
 0002:00032540       ?_Lrotate@?$_Tree@V?$_Tmap_traits@VName@Imf@@USlice@2@U?$less@VName@Imf@@@std@@V?$allocator@U?$pair@$$CBVName@Imf@@USlice@2@@std@@@5@$0A@@std@@@std@@IAEXPAU_Node@?$_Tree_nod@V?$_Tmap_traits@VName@Imf@@USlice@2@U?$less@VName@Imf@@@std@@V?$allocator@U?$pair@$$CBVName@Imf@@USlice@2@@std@@@5@$0A@@std@@@2@@Z 10091540 f i ImfFrameBuffer.obj
 0002:000326f0       ?_Root@?$_Tree@V?$_Tmap_traits@VName@Imf@@USlice@2@U?$less@VName@Imf@@@std@@V?$allocator@U?$pair@$$CBVName@Imf@@USlice@2@@std@@@5@$0A@@std@@@std@@IBEAAPAU_Node@?$_Tree_nod@V?$_Tmap_traits@VName@Imf@@USlice@2@U?$less@VName@Imf@@@std@@V?$allocator@U?$pair@$$CBVName@Imf@@USlice@2@@std@@@5@$0A@@std@@@2@XZ 100916f0 f i ImfFrameBuffer.obj
 0002:00032750       ?_Rrotate@?$_Tree@V?$_Tmap_traits@VName@Imf@@USlice@2@U?$less@VName@Imf@@@std@@V?$allocator@U?$pair@$$CBVName@Imf@@USlice@2@@std@@@5@$0A@@std@@@std@@IAEXPAU_Node@?$_Tree_nod@V?$_Tmap_traits@VName@Imf@@USlice@2@U?$less@VName@Imf@@@std@@V?$allocator@U?$pair@$$CBVName@Imf@@USlice@2@@std@@@5@$0A@@std@@@2@@Z 10091750 f i ImfFrameBuffer.obj
 0002:00032900       ?_Buynode@?$_Tree@V?$_Tmap_traits@VName@Imf@@USlice@2@U?$less@VName@Imf@@@std@@V?$allocator@U?$pair@$$CBVName@Imf@@USlice@2@@std@@@5@$0A@@std@@@std@@IAEPAU_Node@?$_Tree_nod@V?$_Tmap_traits@VName@Imf@@USlice@2@U?$less@VName@Imf@@@std@@V?$allocator@U?$pair@$$CBVName@Imf@@USlice@2@@std@@@5@$0A@@std@@@2@PAU342@00ABU?$pair@$$CBVName@Imf@@USlice@2@@2@D@Z 10091900 f i ImfFrameBuffer.obj
 0002:00032a60       ??Fconst_iterator@?$_Tree@V?$_Tmap_traits@VName@Imf@@USlice@2@U?$less@VName@Imf@@@std@@V?$allocator@U?$pair@$$CBVName@Imf@@USlice@2@@std@@@5@$0A@@std@@@std@@QAEAAV012@XZ 10091a60 f i ImfFrameBuffer.obj
 0002:00032ac0       ??0?$pair@Viterator@?$_Tree@V?$_Tmap_traits@VName@Imf@@USlice@2@U?$less@VName@Imf@@@std@@V?$allocator@U?$pair@$$CBVName@Imf@@USlice@2@@std@@@5@$0A@@std@@@std@@_N@std@@QAE@ABViterator@?$_Tree@V?$_Tmap_traits@VName@Imf@@USlice@2@U?$less@VName@Imf@@@std@@V?$allocator@U?$pair@$$CBVName@Imf@@USlice@2@@std@@@5@$0A@@std@@@1@AB_N@Z 10091ac0 f i ImfFrameBuffer.obj
 0002:00032b30       ?max_size@?$allocator@U?$pair@$$CBVName@Imf@@USlice@2@@std@@@std@@QBEIXZ 10091b30 f i ImfFrameBuffer.obj
 0002:00032ba0       ?deallocate@?$allocator@U_Node@?$_Tree_nod@V?$_Tmap_traits@VName@Imf@@USlice@2@U?$less@VName@Imf@@@std@@V?$allocator@U?$pair@$$CBVName@Imf@@USlice@2@@std@@@5@$0A@@std@@@std@@@std@@QAEXPAU_Node@?$_Tree_nod@V?$_Tmap_traits@VName@Imf@@USlice@2@U?$less@VName@Imf@@@std@@V?$allocator@U?$pair@$$CBVName@Imf@@USlice@2@@std@@@5@$0A@@std@@@2@I@Z 10091ba0 f i ImfFrameBuffer.obj
 0002:00032c00       ?allocate@?$allocator@U_Node@?$_Tree_nod@V?$_Tmap_traits@VName@Imf@@USlice@2@U?$less@VName@Imf@@@std@@V?$allocator@U?$pair@$$CBVName@Imf@@USlice@2@@std@@@5@$0A@@std@@@std@@@std@@QAEPAU_Node@?$_Tree_nod@V?$_Tmap_traits@VName@Imf@@USlice@2@U?$less@VName@Imf@@@std@@V?$allocator@U?$pair@$$CBVName@Imf@@USlice@2@@std@@@5@$0A@@std@@@2@I@Z 10091c00 f i ImfFrameBuffer.obj
 0002:00032c60       ?_Dec@const_iterator@?$_Tree@V?$_Tmap_traits@VName@Imf@@USlice@2@U?$less@VName@Imf@@@std@@V?$allocator@U?$pair@$$CBVName@Imf@@USlice@2@@std@@@5@$0A@@std@@@std@@QAEXXZ 10091c60 f i ImfFrameBuffer.obj
 0002:00032fb0       ??0_Node@?$_Tree_nod@V?$_Tmap_traits@VName@Imf@@USlice@2@U?$less@VName@Imf@@@std@@V?$allocator@U?$pair@$$CBVName@Imf@@USlice@2@@std@@@5@$0A@@std@@@std@@QAE@PAU012@00ABU?$pair@$$CBVName@Imf@@USlice@2@@2@D@Z 10091fb0 f i ImfFrameBuffer.obj
 0002:00033040       ?_Max@?$_Tree@V?$_Tmap_traits@VName@Imf@@USlice@2@U?$less@VName@Imf@@@std@@V?$allocator@U?$pair@$$CBVName@Imf@@USlice@2@@std@@@5@$0A@@std@@@std@@KAPAU_Node@?$_Tree_nod@V?$_Tmap_traits@VName@Imf@@USlice@2@U?$less@VName@Imf@@@std@@V?$allocator@U?$pair@$$CBVName@Imf@@USlice@2@@std@@@5@$0A@@std@@@2@PAU342@@Z 10092040 f i ImfFrameBuffer.obj
 0002:000330c0       ??$_Allocate@U_Node@?$_Tree_nod@V?$_Tmap_traits@VName@Imf@@USlice@2@U?$less@VName@Imf@@@std@@V?$allocator@U?$pair@$$CBVName@Imf@@USlice@2@@std@@@5@$0A@@std@@@std@@@std@@YAPAU_Node@?$_Tree_nod@V?$_Tmap_traits@VName@Imf@@USlice@2@U?$less@VName@Imf@@@std@@V?$allocator@U?$pair@$$CBVName@Imf@@USlice@2@@std@@@5@$0A@@std@@@0@IPAU120@@Z 100920c0 f i ImfFrameBuffer.obj
 0002:00033160       ?initialize@?A0x54d39354@Imf@@YAXAAVHeader@2@ABV?$Box@V?$Vec2@H@Imath@@@Imath@@1MABV?$Vec2@M@5@MW4LineOrder@2@W4Compression@2@@Z 10092160 f   ImfHeader.obj
 0002:000334e0       ??0Header@Imf@@QAE@HHMABV?$Vec2@M@Imath@@MW4LineOrder@1@W4Compression@1@@Z 100924e0 f   ImfHeader.obj
 0002:00033640       ??1?$map@VName@Imf@@PAVAttribute@2@U?$less@VName@Imf@@@std@@V?$allocator@U?$pair@$$CBVName@Imf@@PAVAttribute@2@@std@@@5@@std@@QAE@XZ 10092640 f i ImfHeader.obj
 0002:00033690       ??0Header@Imf@@QAE@HHABV?$Box@V?$Vec2@H@Imath@@@Imath@@MABV?$Vec2@M@3@MW4LineOrder@1@W4Compression@1@@Z 10092690 f   ImfHeader.obj
 0002:000337f0       ??0Header@Imf@@QAE@ABV?$Box@V?$Vec2@H@Imath@@@Imath@@0MABV?$Vec2@M@3@MW4LineOrder@1@W4Compression@1@@Z 100927f0 f   ImfHeader.obj
 0002:000338d0       ??0Header@Imf@@QAE@ABV01@@Z 100928d0 f   ImfHeader.obj
 0002:00033a70       ??1Header@Imf@@QAE@XZ      10092a70 f   ImfHeader.obj
 0002:00033c40       ??4Header@Imf@@QAEAAV01@ABV01@@Z 10092c40 f   ImfHeader.obj
 0002:00033f80       ?insert@Header@Imf@@QAEXQBDABVAttribute@2@@Z 10092f80 f   ImfHeader.obj
 0002:00034570       ??0TypeExc@Iex@@QAE@AAV?$basic_stringstream@DU?$char_traits@D@std@@V?$allocator@D@2@@std@@@Z 10093570 f i ImfHeader.obj
 0002:000345e0       ??AHeader@Imf@@QAEAAVAttribute@1@QBD@Z 100935e0 f   ImfHeader.obj
 0002:00034860       ??AHeader@Imf@@QBEABVAttribute@1@QBD@Z 10093860 f   ImfHeader.obj
 0002:00034ae0       ?begin@Header@Imf@@QAE?AVIterator@12@XZ 10093ae0 f   ImfHeader.obj
 0002:00034be0       ??0Iterator@Header@Imf@@QAE@ABViterator@?$_Tree@V?$_Tmap_traits@VName@Imf@@PAVAttribute@2@U?$less@VName@Imf@@@std@@V?$allocator@U?$pair@$$CBVName@Imf@@PAVAttribute@2@@std@@@5@$0A@@std@@@std@@@Z 10093be0 f i ImfHeader.obj
 0002:00034c40       ??0iterator@?$_Tree@V?$_Tmap_traits@VName@Imf@@PAVAttribute@2@U?$less@VName@Imf@@@std@@V?$allocator@U?$pair@$$CBVName@Imf@@PAVAttribute@2@@std@@@5@$0A@@std@@@std@@QAE@ABV012@@Z 10093c40 f i ImfHeader.obj
 0002:00034ca0       ?begin@Header@Imf@@QBE?AVConstIterator@12@XZ 10093ca0 f   ImfHeader.obj
 0002:00034da0       ??0ConstIterator@Header@Imf@@QAE@ABVconst_iterator@?$_Tree@V?$_Tmap_traits@VName@Imf@@PAVAttribute@2@U?$less@VName@Imf@@@std@@V?$allocator@U?$pair@$$CBVName@Imf@@PAVAttribute@2@@std@@@5@$0A@@std@@@std@@@Z 10093da0 f i ImfHeader.obj
 0002:00034e00       ?end@Header@Imf@@QAE?AVIterator@12@XZ 10093e00 f   ImfHeader.obj
 0002:00034f00       ?end@Header@Imf@@QBE?AVConstIterator@12@XZ 10093f00 f   ImfHeader.obj
 0002:00035000       ?find@Header@Imf@@QAE?AVIterator@12@QBD@Z 10094000 f   ImfHeader.obj
 0002:00035120       ?find@Header@Imf@@QBE?AVConstIterator@12@QBD@Z 10094120 f   ImfHeader.obj
 0002:00035240       ?displayWindow@Header@Imf@@QAEAAV?$Box@V?$Vec2@H@Imath@@@Imath@@XZ 10094240 f   ImfHeader.obj
 0002:000352a0       ?displayWindow@Header@Imf@@QBEABV?$Box@V?$Vec2@H@Imath@@@Imath@@XZ 100942a0 f   ImfHeader.obj
 0002:00035300       ?dataWindow@Header@Imf@@QAEAAV?$Box@V?$Vec2@H@Imath@@@Imath@@XZ 10094300 f   ImfHeader.obj
 0002:00035360       ?dataWindow@Header@Imf@@QBEABV?$Box@V?$Vec2@H@Imath@@@Imath@@XZ 10094360 f   ImfHeader.obj
 0002:000353c0       ?pixelAspectRatio@Header@Imf@@QAEAAMXZ 100943c0 f   ImfHeader.obj
 0002:00035420       ?pixelAspectRatio@Header@Imf@@QBEABMXZ 10094420 f   ImfHeader.obj
 0002:00035480       ?screenWindowCenter@Header@Imf@@QAEAAV?$Vec2@M@Imath@@XZ 10094480 f   ImfHeader.obj
 0002:000354e0       ?screenWindowCenter@Header@Imf@@QBEABV?$Vec2@M@Imath@@XZ 100944e0 f   ImfHeader.obj
 0002:00035540       ?screenWindowWidth@Header@Imf@@QAEAAMXZ 10094540 f   ImfHeader.obj
 0002:000355a0       ?screenWindowWidth@Header@Imf@@QBEABMXZ 100945a0 f   ImfHeader.obj
 0002:00035600       ?channels@Header@Imf@@QAEAAVChannelList@2@XZ 10094600 f   ImfHeader.obj
 0002:00035660       ?channels@Header@Imf@@QBEABVChannelList@2@XZ 10094660 f   ImfHeader.obj
 0002:000356c0       ?lineOrder@Header@Imf@@QAEAAW4LineOrder@2@XZ 100946c0 f   ImfHeader.obj
 0002:00035720       ?lineOrder@Header@Imf@@QBEABW4LineOrder@2@XZ 10094720 f   ImfHeader.obj
 0002:00035780       ?compression@Header@Imf@@QAEAAW4Compression@2@XZ 10094780 f   ImfHeader.obj
 0002:000357e0       ?compression@Header@Imf@@QBEABW4Compression@2@XZ 100947e0 f   ImfHeader.obj
 0002:00035840       ?setTileDescription@Header@Imf@@QAEXABVTileDescription@2@@Z 10094840 f   ImfHeader.obj
 0002:00035920       ?hasTileDescription@Header@Imf@@QBE_NXZ 10094920 f   ImfHeader.obj
 0002:00035980       ?tileDescription@Header@Imf@@QAEAAVTileDescription@2@XZ 10094980 f   ImfHeader.obj
 0002:000359e0       ?tileDescription@Header@Imf@@QBEABVTileDescription@2@XZ 100949e0 f   ImfHeader.obj
 0002:00035a40       ?setPreviewImage@Header@Imf@@QAEXABVPreviewImage@2@@Z 10094a40 f   ImfHeader.obj
 0002:00035b20       ?previewImage@Header@Imf@@QAEAAVPreviewImage@2@XZ 10094b20 f   ImfHeader.obj
 0002:00035b80       ?previewImage@Header@Imf@@QBEABVPreviewImage@2@XZ 10094b80 f   ImfHeader.obj
 0002:00035be0       ?hasPreviewImage@Header@Imf@@QBE_NXZ 10094be0 f   ImfHeader.obj
 0002:00035c40       ?sanityCheck@Header@Imf@@QBEX_N@Z 10094c40 f   ImfHeader.obj
 0002:00036d90       ??0ArgExc@Iex@@QAE@PBD@Z   10095d90 f i ImfHeader.obj
 0002:00036e00       ?writeTo@Header@Imf@@QBE_KAAVOStream@2@_N@Z 10095e00 f   ImfHeader.obj
 0002:000371f0       ??EConstIterator@Header@Imf@@QAEAAV012@XZ 100961f0 f i ImfHeader.obj
 0002:00037250       ?name@ConstIterator@Header@Imf@@QBEPBDXZ 10096250 f i ImfHeader.obj
 0002:000372b0       ?attribute@ConstIterator@Header@Imf@@QBEABVAttribute@3@XZ 100962b0 f i ImfHeader.obj
 0002:00037310       ??9Imf@@YA_NABVConstIterator@Header@0@0@Z 10096310 f i ImfHeader.obj
 0002:00037370       ?str@StdOSStream@Imf@@QBE?AV?$basic_string@DU?$char_traits@D@std@@V?$allocator@D@2@@std@@XZ 10096370 f i ImfHeader.obj
 0002:00037400       ?makeTiled@Imf@@YAHH@Z     10096400 f i ImfHeader.obj
 0002:00037440       ??1StdOSStream@Imf@@UAE@XZ 10096440 f i ImfHeader.obj
 0002:000374f0       ?readFrom@Header@Imf@@QAEXAAVIStream@2@AAH@Z 100964f0 f   ImfHeader.obj
 0002:00037d60       ??0InputExc@Iex@@QAE@PBD@Z 10096d60 f i ImfHeader.obj
 0002:00037dd0       ??0InputExc@Iex@@QAE@AAV?$basic_stringstream@DU?$char_traits@D@std@@V?$allocator@D@2@@std@@@Z 10096dd0 f i ImfHeader.obj
 0002:00037e40       ??_GInputExc@Iex@@UAEPAXI@Z 10096e40 f i ImfHeader.obj
 0002:00037e40       ??_EInputExc@Iex@@UAEPAXI@Z 10096e40 f i ImfHeader.obj
 0002:00037eb0       ??1InputExc@Iex@@UAE@XZ    10096eb0 f i ImfHeader.obj
 0002:00037f00       ?getVersion@Imf@@YAHH@Z    10096f00 f i ImfHeader.obj
 0002:00037f40       ?getFlags@Imf@@YAHH@Z      10096f40 f i ImfHeader.obj
 0002:00037f80       ?supportsFlags@Imf@@YA_NH@Z 10096f80 f i ImfHeader.obj
 0002:00037fd0       ??0InputExc@Iex@@QAE@ABV01@@Z 10096fd0 f i ImfHeader.obj
 0002:00038040       ?staticInitialize@Imf@@YAXXZ 10097040 f   ImfHeader.obj
 0002:00038200       ??0?$map@VName@Imf@@PAVAttribute@2@U?$less@VName@Imf@@@std@@V?$allocator@U?$pair@$$CBVName@Imf@@PAVAttribute@2@@std@@@5@@std@@QAE@XZ 10097200 f i ImfHeader.obj
 0002:00038270       ??A?$map@VName@Imf@@PAVAttribute@2@U?$less@VName@Imf@@@std@@V?$allocator@U?$pair@$$CBVName@Imf@@PAVAttribute@2@@std@@@5@@std@@QAEAAPAVAttribute@Imf@@ABVName@3@@Z 10097270 f i ImfHeader.obj
 0002:00038510       ??1?$_Tree@V?$_Tmap_traits@VName@Imf@@PAVAttribute@2@U?$less@VName@Imf@@@std@@V?$allocator@U?$pair@$$CBVName@Imf@@PAVAttribute@2@@std@@@5@$0A@@std@@@std@@QAE@XZ 10097510 f i ImfHeader.obj
 0002:000385b0       ?begin@?$_Tree@V?$_Tmap_traits@VName@Imf@@PAVAttribute@2@U?$less@VName@Imf@@@std@@V?$allocator@U?$pair@$$CBVName@Imf@@PAVAttribute@2@@std@@@5@$0A@@std@@@std@@QAE?AViterator@12@XZ 100975b0 f i ImfHeader.obj
 0002:00038640       ?begin@?$_Tree@V?$_Tmap_traits@VName@Imf@@PAVAttribute@2@U?$less@VName@Imf@@@std@@V?$allocator@U?$pair@$$CBVName@Imf@@PAVAttribute@2@@std@@@5@$0A@@std@@@std@@QBE?AVconst_iterator@12@XZ 10097640 f i ImfHeader.obj
 0002:000386d0       ?end@?$_Tree@V?$_Tmap_traits@VName@Imf@@PAVAttribute@2@U?$less@VName@Imf@@@std@@V?$allocator@U?$pair@$$CBVName@Imf@@PAVAttribute@2@@std@@@5@$0A@@std@@@std@@QAE?AViterator@12@XZ 100976d0 f i ImfHeader.obj
 0002:00038760       ?end@?$_Tree@V?$_Tmap_traits@VName@Imf@@PAVAttribute@2@U?$less@VName@Imf@@@std@@V?$allocator@U?$pair@$$CBVName@Imf@@PAVAttribute@2@@std@@@5@$0A@@std@@@std@@QBE?AVconst_iterator@12@XZ 10097760 f i ImfHeader.obj
 0002:000387f0       ?erase@?$_Tree@V?$_Tmap_traits@VName@Imf@@PAVAttribute@2@U?$less@VName@Imf@@@std@@V?$allocator@U?$pair@$$CBVName@Imf@@PAVAttribute@2@@std@@@5@$0A@@std@@@std@@QAE?AViterator@12@V312@0@Z 100977f0 f i ImfHeader.obj
 0002:00038b00       ?find@?$_Tree@V?$_Tmap_traits@VName@Imf@@PAVAttribute@2@U?$less@VName@Imf@@@std@@V?$allocator@U?$pair@$$CBVName@Imf@@PAVAttribute@2@@std@@@5@$0A@@std@@@std@@QAE?AViterator@12@ABVName@Imf@@@Z 10097b00 f i ImfHeader.obj
 0002:00038d80       ?find@?$_Tree@V?$_Tmap_traits@VName@Imf@@PAVAttribute@2@U?$less@VName@Imf@@@std@@V?$allocator@U?$pair@$$CBVName@Imf@@PAVAttribute@2@@std@@@5@$0A@@std@@@std@@QBE?AVconst_iterator@12@ABVName@Imf@@@Z 10097d80 f i ImfHeader.obj
 0002:00039000       ??Citerator@?$_Tree@V?$_Tmap_traits@VName@Imf@@PAVAttribute@2@U?$less@VName@Imf@@@std@@V?$allocator@U?$pair@$$CBVName@Imf@@PAVAttribute@2@@std@@@5@$0A@@std@@@std@@QBEPAU?$pair@$$CBVName@Imf@@PAVAttribute@2@@2@XZ 10098000 f i ImfHeader.obj
 0002:00039050       ??Eiterator@?$_Tree@V?$_Tmap_traits@VName@Imf@@PAVAttribute@2@U?$less@VName@Imf@@@std@@V?$allocator@U?$pair@$$CBVName@Imf@@PAVAttribute@2@@std@@@5@$0A@@std@@@std@@QAEAAV012@XZ 10098050 f i ImfHeader.obj
 0002:000390b0       ??Cconst_iterator@?$_Tree@V?$_Tmap_traits@VName@Imf@@PAVAttribute@2@U?$less@VName@Imf@@@std@@V?$allocator@U?$pair@$$CBVName@Imf@@PAVAttribute@2@@std@@@5@$0A@@std@@@std@@QBEPBU?$pair@$$CBVName@Imf@@PAVAttribute@2@@2@XZ 100980b0 f i ImfHeader.obj
 0002:00039100       ??Econst_iterator@?$_Tree@V?$_Tmap_traits@VName@Imf@@PAVAttribute@2@U?$less@VName@Imf@@@std@@V?$allocator@U?$pair@$$CBVName@Imf@@PAVAttribute@2@@std@@@5@$0A@@std@@@std@@QAEAAV012@XZ 10098100 f i ImfHeader.obj
 0002:00039160       ??9const_iterator@?$_Tree@V?$_Tmap_traits@VName@Imf@@PAVAttribute@2@U?$less@VName@Imf@@@std@@V?$allocator@U?$pair@$$CBVName@Imf@@PAVAttribute@2@@std@@@5@$0A@@std@@@std@@QBE_NABV012@@Z 10098160 f i ImfHeader.obj
 0002:000391d0       ??4iterator@?$_Tree@V?$_Tmap_traits@VName@Imf@@PAVAttribute@2@U?$less@VName@Imf@@@std@@V?$allocator@U?$pair@$$CBVName@Imf@@PAVAttribute@2@@std@@@5@$0A@@std@@@std@@QAEAAV012@ABV012@@Z 100981d0 f i ImfHeader.obj
 0002:00039230       ??1?$_Tree_val@V?$_Tmap_traits@VName@Imf@@PAVAttribute@2@U?$less@VName@Imf@@@std@@V?$allocator@U?$pair@$$CBVName@Imf@@PAVAttribute@2@@std@@@5@$0A@@std@@@std@@QAE@XZ 10098230 f i ImfHeader.obj
 0002:00039280       ??4const_iterator@?$_Tree@V?$_Tmap_traits@VName@Imf@@PAVAttribute@2@U?$less@VName@Imf@@@std@@V?$allocator@U?$pair@$$CBVName@Imf@@PAVAttribute@2@@std@@@5@$0A@@std@@@std@@QAEAAV012@ABV012@@Z 10098280 f i ImfHeader.obj
 0002:000392f0       ??1?$_Tree_ptr@V?$_Tmap_traits@VName@Imf@@PAVAttribute@2@U?$less@VName@Imf@@@std@@V?$allocator@U?$pair@$$CBVName@Imf@@PAVAttribute@2@@std@@@5@$0A@@std@@@std@@QAE@XZ 100982f0 f i ImfHeader.obj
 0002:00039340       ??4?$_Bidit@U?$pair@$$CBVName@Imf@@PAVAttribute@2@@std@@HPBU12@ABU12@@std@@QAEAAU01@ABU01@@Z 10098340 f i ImfHeader.obj
 0002:000393a0       ??1?$_Tree_nod@V?$_Tmap_traits@VName@Imf@@PAVAttribute@2@U?$less@VName@Imf@@@std@@V?$allocator@U?$pair@$$CBVName@Imf@@PAVAttribute@2@@std@@@5@$0A@@std@@@std@@QAE@XZ 100983a0 f i ImfHeader.obj
 0002:000393f0       ??1?$_Tmap_traits@VName@Imf@@PAVAttribute@2@U?$less@VName@Imf@@@std@@V?$allocator@U?$pair@$$CBVName@Imf@@PAVAttribute@2@@std@@@5@$0A@@std@@QAE@XZ 100983f0 f i ImfHeader.obj
 0002:00039450       ?_Key@?$_Tree@V?$_Tmap_traits@VName@Imf@@PAVAttribute@2@U?$less@VName@Imf@@@std@@V?$allocator@U?$pair@$$CBVName@Imf@@PAVAttribute@2@@std@@@5@$0A@@std@@@std@@KAABVName@Imf@@PAU_Node@?$_Tree_nod@V?$_Tmap_traits@VName@Imf@@PAVAttribute@2@U?$less@VName@Imf@@@std@@V?$allocator@U?$pair@$$CBVName@Imf@@PAVAttribute@2@@std@@@5@$0A@@std@@@2@@Z 10098450 f i ImfHeader.obj
 0002:000394b0       ??0?$_Tree@V?$_Tmap_traits@VName@Imf@@PAVAttribute@2@U?$less@VName@Imf@@@std@@V?$allocator@U?$pair@$$CBVName@Imf@@PAVAttribute@2@@std@@@5@$0A@@std@@@std@@QAE@ABU?$less@VName@Imf@@@1@ABV?$allocator@U?$pair@$$CBVName@Imf@@PAVAttribute@2@@std@@@1@@Z 100984b0 f i ImfHeader.obj
 0002:00039570       ?insert@?$_Tree@V?$_Tmap_traits@VName@Imf@@PAVAttribute@2@U?$less@VName@Imf@@@std@@V?$allocator@U?$pair@$$CBVName@Imf@@PAVAttribute@2@@std@@@5@$0A@@std@@@std@@QAE?AViterator@12@V312@ABU?$pair@$$CBVName@Imf@@PAVAttribute@2@@2@@Z 10098570 f i ImfHeader.obj
 0002:0003a440       ??0iterator@?$_Tree@V?$_Tmap_traits@VName@Imf@@PAVAttribute@2@U?$less@VName@Imf@@@std@@V?$allocator@U?$pair@$$CBVName@Imf@@PAVAttribute@2@@std@@@5@$0A@@std@@@std@@QAE@XZ 10099440 f i ImfHeader.obj
 0002:0003a4a0       ??0const_iterator@?$_Tree@V?$_Tmap_traits@VName@Imf@@PAVAttribute@2@U?$less@VName@Imf@@@std@@V?$allocator@U?$pair@$$CBVName@Imf@@PAVAttribute@2@@std@@@5@$0A@@std@@@std@@QAE@XZ 100994a0 f i ImfHeader.obj
 0002:0003a500       ??0?$_Bidit@U?$pair@$$CBVName@Imf@@PAVAttribute@2@@std@@HPBU12@ABU12@@std@@QAE@XZ 10099500 f i ImfHeader.obj
 0002:0003a560       ?erase@?$_Tree@V?$_Tmap_traits@VName@Imf@@PAVAttribute@2@U?$less@VName@Imf@@@std@@V?$allocator@U?$pair@$$CBVName@Imf@@PAVAttribute@2@@std@@@5@$0A@@std@@@std@@QAE?AViterator@12@V312@@Z 10099560 f i ImfHeader.obj
 0002:0003afa0       ?clear@?$_Tree@V?$_Tmap_traits@VName@Imf@@PAVAttribute@2@U?$less@VName@Imf@@@std@@V?$allocator@U?$pair@$$CBVName@Imf@@PAVAttribute@2@@std@@@5@$0A@@std@@@std@@QAEXXZ 10099fa0 f i ImfHeader.obj
 0002:0003b060       ?lower_bound@?$_Tree@V?$_Tmap_traits@VName@Imf@@PAVAttribute@2@U?$less@VName@Imf@@@std@@V?$allocator@U?$pair@$$CBVName@Imf@@PAVAttribute@2@@std@@@5@$0A@@std@@@std@@QAE?AViterator@12@ABVName@Imf@@@Z 1009a060 f i ImfHeader.obj
 0002:0003b0f0       ?lower_bound@?$_Tree@V?$_Tmap_traits@VName@Imf@@PAVAttribute@2@U?$less@VName@Imf@@@std@@V?$allocator@U?$pair@$$CBVName@Imf@@PAVAttribute@2@@std@@@5@$0A@@std@@@std@@QBE?AVconst_iterator@12@ABVName@Imf@@@Z 1009a0f0 f i ImfHeader.obj
 0002:0003b180       ?_Lmost@?$_Tree@V?$_Tmap_traits@VName@Imf@@PAVAttribute@2@U?$less@VName@Imf@@@std@@V?$allocator@U?$pair@$$CBVName@Imf@@PAVAttribute@2@@std@@@5@$0A@@std@@@std@@IBEAAPAU_Node@?$_Tree_nod@V?$_Tmap_traits@VName@Imf@@PAVAttribute@2@U?$less@VName@Imf@@@std@@V?$allocator@U?$pair@$$CBVName@Imf@@PAVAttribute@2@@std@@@5@$0A@@std@@@2@XZ 1009a180 f i ImfHeader.obj
 0002:0003b1e0       ?_Tidy@?$_Tree@V?$_Tmap_traits@VName@Imf@@PAVAttribute@2@U?$less@VName@Imf@@@std@@V?$allocator@U?$pair@$$CBVName@Imf@@PAVAttribute@2@@std@@@5@$0A@@std@@@std@@IAEXXZ 1009a1e0 f i ImfHeader.obj
 0002:0003b380       ??0?$allocator@U?$pair@$$CBVName@Imf@@PAVAttribute@2@@std@@@std@@QAE@XZ 1009a380 f i ImfHeader.obj
 0002:0003b3c0       ??0iterator@?$_Tree@V?$_Tmap_traits@VName@Imf@@PAVAttribute@2@U?$less@VName@Imf@@@std@@V?$allocator@U?$pair@$$CBVName@Imf@@PAVAttribute@2@@std@@@5@$0A@@std@@@std@@QAE@PAU_Node@?$_Tree_nod@V?$_Tmap_traits@VName@Imf@@PAVAttribute@2@U?$less@VName@Imf@@@std@@V?$allocator@U?$pair@$$CBVName@Imf@@PAVAttribute@2@@std@@@5@$0A@@std@@@2@PBV12@@Z 1009a3c0 f i ImfHeader.obj
 0002:0003b420       ??Diterator@?$_Tree@V?$_Tmap_traits@VName@Imf@@PAVAttribute@2@U?$less@VName@Imf@@@std@@V?$allocator@U?$pair@$$CBVName@Imf@@PAVAttribute@2@@std@@@5@$0A@@std@@@std@@QBEAAU?$pair@$$CBVName@Imf@@PAVAttribute@2@@2@XZ 1009a420 f i ImfHeader.obj
 0002:0003b470       ??Eiterator@?$_Tree@V?$_Tmap_traits@VName@Imf@@PAVAttribute@2@U?$less@VName@Imf@@@std@@V?$allocator@U?$pair@$$CBVName@Imf@@PAVAttribute@2@@std@@@5@$0A@@std@@@std@@QAE?AV012@H@Z 1009a470 f i ImfHeader.obj
 0002:0003b590       ??0const_iterator@?$_Tree@V?$_Tmap_traits@VName@Imf@@PAVAttribute@2@U?$less@VName@Imf@@@std@@V?$allocator@U?$pair@$$CBVName@Imf@@PAVAttribute@2@@std@@@5@$0A@@std@@@std@@QAE@PAU_Node@?$_Tree_nod@V?$_Tmap_traits@VName@Imf@@PAVAttribute@2@U?$less@VName@Imf@@@std@@V?$allocator@U?$pair@$$CBVName@Imf@@PAVAttribute@2@@std@@@5@$0A@@std@@@2@PBV12@@Z 1009a590 f i ImfHeader.obj
 0002:0003b650       ??Dconst_iterator@?$_Tree@V?$_Tmap_traits@VName@Imf@@PAVAttribute@2@U?$less@VName@Imf@@@std@@V?$allocator@U?$pair@$$CBVName@Imf@@PAVAttribute@2@@std@@@5@$0A@@std@@@std@@QBEABU?$pair@$$CBVName@Imf@@PAVAttribute@2@@2@XZ 1009a650 f i ImfHeader.obj
 0002:0003b760       ?_Inc@const_iterator@?$_Tree@V?$_Tmap_traits@VName@Imf@@PAVAttribute@2@U?$less@VName@Imf@@@std@@V?$allocator@U?$pair@$$CBVName@Imf@@PAVAttribute@2@@std@@@5@$0A@@std@@@std@@QAEXXZ 1009a760 f i ImfHeader.obj
 0002:0003b920       ?_Mynode@const_iterator@?$_Tree@V?$_Tmap_traits@VName@Imf@@PAVAttribute@2@U?$less@VName@Imf@@@std@@V?$allocator@U?$pair@$$CBVName@Imf@@PAVAttribute@2@@std@@@5@$0A@@std@@@std@@QBEPAU_Node@?$_Tree_nod@V?$_Tmap_traits@VName@Imf@@PAVAttribute@2@U?$less@VName@Imf@@@std@@V?$allocator@U?$pair@$$CBVName@Imf@@PAVAttribute@2@@std@@@5@$0A@@std@@@3@XZ 1009a920 f i ImfHeader.obj
 0002:0003b960       ??0?$pair@$$CBVName@Imf@@PAVAttribute@2@@std@@QAE@ABVName@Imf@@ABQAVAttribute@3@@Z 1009a960 f i ImfHeader.obj
 0002:0003b9c0       ??1?$pair@Viterator@?$_Tree@V?$_Tmap_traits@VName@Imf@@PAVAttribute@2@U?$less@VName@Imf@@@std@@V?$allocator@U?$pair@$$CBVName@Imf@@PAVAttribute@2@@std@@@5@$0A@@std@@@std@@_N@std@@QAE@XZ 1009a9c0 f i ImfHeader.obj
 0002:0003ba10       ?_Color@?$_Tree@V?$_Tmap_traits@VName@Imf@@PAVAttribute@2@U?$less@VName@Imf@@@std@@V?$allocator@U?$pair@$$CBVName@Imf@@PAVAttribute@2@@std@@@5@$0A@@std@@@std@@KAAADPAU_Node@?$_Tree_nod@V?$_Tmap_traits@VName@Imf@@PAVAttribute@2@U?$less@VName@Imf@@@std@@V?$allocator@U?$pair@$$CBVName@Imf@@PAVAttribute@2@@std@@@5@$0A@@std@@@2@@Z 1009aa10 f i ImfHeader.obj
 0002:0003ba50       ?_Isnil@?$_Tree@V?$_Tmap_traits@VName@Imf@@PAVAttribute@2@U?$less@VName@Imf@@@std@@V?$allocator@U?$pair@$$CBVName@Imf@@PAVAttribute@2@@std@@@5@$0A@@std@@@std@@KAAADPAU_Node@?$_Tree_nod@V?$_Tmap_traits@VName@Imf@@PAVAttribute@2@U?$less@VName@Imf@@@std@@V?$allocator@U?$pair@$$CBVName@Imf@@PAVAttribute@2@@std@@@5@$0A@@std@@@2@@Z 1009aa50 f i ImfHeader.obj
 0002:0003ba90       ?_Left@?$_Tree@V?$_Tmap_traits@VName@Imf@@PAVAttribute@2@U?$less@VName@Imf@@@std@@V?$allocator@U?$pair@$$CBVName@Imf@@PAVAttribute@2@@std@@@5@$0A@@std@@@std@@KAAAPAU_Node@?$_Tree_nod@V?$_Tmap_traits@VName@Imf@@PAVAttribute@2@U?$less@VName@Imf@@@std@@V?$allocator@U?$pair@$$CBVName@Imf@@PAVAttribute@2@@std@@@5@$0A@@std@@@2@PAU342@@Z 1009aa90 f i ImfHeader.obj
 0002:0003bad0       ?_Parent@?$_Tree@V?$_Tmap_traits@VName@Imf@@PAVAttribute@2@U?$less@VName@Imf@@@std@@V?$allocator@U?$pair@$$CBVName@Imf@@PAVAttribute@2@@std@@@5@$0A@@std@@@std@@KAAAPAU_Node@?$_Tree_nod@V?$_Tmap_traits@VName@Imf@@PAVAttribute@2@U?$less@VName@Imf@@@std@@V?$allocator@U?$pair@$$CBVName@Imf@@PAVAttribute@2@@std@@@5@$0A@@std@@@2@PAU342@@Z 1009aad0 f i ImfHeader.obj
 0002:0003bb10       ?_Right@?$_Tree@V?$_Tmap_traits@VName@Imf@@PAVAttribute@2@U?$less@VName@Imf@@@std@@V?$allocator@U?$pair@$$CBVName@Imf@@PAVAttribute@2@@std@@@5@$0A@@std@@@std@@KAAAPAU_Node@?$_Tree_nod@V?$_Tmap_traits@VName@Imf@@PAVAttribute@2@U?$less@VName@Imf@@@std@@V?$allocator@U?$pair@$$CBVName@Imf@@PAVAttribute@2@@std@@@5@$0A@@std@@@2@PAU342@@Z 1009ab10 f i ImfHeader.obj
 0002:0003bb50       ?_Myval@?$_Tree@V?$_Tmap_traits@VName@Imf@@PAVAttribute@2@U?$less@VName@Imf@@@std@@V?$allocator@U?$pair@$$CBVName@Imf@@PAVAttribute@2@@std@@@5@$0A@@std@@@std@@KAAAU?$pair@$$CBVName@Imf@@PAVAttribute@2@@2@PAU_Node@?$_Tree_nod@V?$_Tmap_traits@VName@Imf@@PAVAttribute@2@U?$less@VName@Imf@@@std@@V?$allocator@U?$pair@$$CBVName@Imf@@PAVAttribute@2@@std@@@5@$0A@@std@@@2@@Z 1009ab50 f i ImfHeader.obj
 0002:0003bb90       ?size@?$_Tree@V?$_Tmap_traits@VName@Imf@@PAVAttribute@2@U?$less@VName@Imf@@@std@@V?$allocator@U?$pair@$$CBVName@Imf@@PAVAttribute@2@@std@@@5@$0A@@std@@@std@@QBEIXZ 1009ab90 f i ImfHeader.obj
 0002:0003bbd0       ?insert@?$_Tree@V?$_Tmap_traits@VName@Imf@@PAVAttribute@2@U?$less@VName@Imf@@@std@@V?$allocator@U?$pair@$$CBVName@Imf@@PAVAttribute@2@@std@@@5@$0A@@std@@@std@@QAE?AU?$pair@Viterator@?$_Tree@V?$_Tmap_traits@VName@Imf@@PAVAttribute@2@U?$less@VName@Imf@@@std@@V?$allocator@U?$pair@$$CBVName@Imf@@PAVAttribute@2@@std@@@5@$0A@@std@@@std@@_N@2@ABU?$pair@$$CBVName@Imf@@PAVAttribute@2@@2@@Z 1009abd0 f i ImfHeader.obj
 0002:0003c090       ?_Erase@?$_Tree@V?$_Tmap_traits@VName@Imf@@PAVAttribute@2@U?$less@VName@Imf@@@std@@V?$allocator@U?$pair@$$CBVName@Imf@@PAVAttribute@2@@std@@@5@$0A@@std@@@std@@IAEXPAU_Node@?$_Tree_nod@V?$_Tmap_traits@VName@Imf@@PAVAttribute@2@U?$less@VName@Imf@@@std@@V?$allocator@U?$pair@$$CBVName@Imf@@PAVAttribute@2@@std@@@5@$0A@@std@@@2@@Z 1009b090 f i ImfHeader.obj
 0002:0003c160       ?_Init@?$_Tree@V?$_Tmap_traits@VName@Imf@@PAVAttribute@2@U?$less@VName@Imf@@@std@@V?$allocator@U?$pair@$$CBVName@Imf@@PAVAttribute@2@@std@@@5@$0A@@std@@@std@@IAEXXZ 1009b160 f i ImfHeader.obj
 0002:0003c220       ?_Insert@?$_Tree@V?$_Tmap_traits@VName@Imf@@PAVAttribute@2@U?$less@VName@Imf@@@std@@V?$allocator@U?$pair@$$CBVName@Imf@@PAVAttribute@2@@std@@@5@$0A@@std@@@std@@IAE?AViterator@12@_NPAU_Node@?$_Tree_nod@V?$_Tmap_traits@VName@Imf@@PAVAttribute@2@U?$less@VName@Imf@@@std@@V?$allocator@U?$pair@$$CBVName@Imf@@PAVAttribute@2@@std@@@5@$0A@@std@@@2@ABU?$pair@$$CBVName@Imf@@PAVAttribute@2@@2@@Z 1009b220 f i ImfHeader.obj
 0002:0003c830       ?_Lbound@?$_Tree@V?$_Tmap_traits@VName@Imf@@PAVAttribute@2@U?$less@VName@Imf@@@std@@V?$allocator@U?$pair@$$CBVName@Imf@@PAVAttribute@2@@std@@@5@$0A@@std@@@std@@IBEPAU_Node@?$_Tree_nod@V?$_Tmap_traits@VName@Imf@@PAVAttribute@2@U?$less@VName@Imf@@@std@@V?$allocator@U?$pair@$$CBVName@Imf@@PAVAttribute@2@@std@@@5@$0A@@std@@@2@ABVName@Imf@@@Z 1009b830 f i ImfHeader.obj
 0002:0003c930       ?_Lrotate@?$_Tree@V?$_Tmap_traits@VName@Imf@@PAVAttribute@2@U?$less@VName@Imf@@@std@@V?$allocator@U?$pair@$$CBVName@Imf@@PAVAttribute@2@@std@@@5@$0A@@std@@@std@@IAEXPAU_Node@?$_Tree_nod@V?$_Tmap_traits@VName@Imf@@PAVAttribute@2@U?$less@VName@Imf@@@std@@V?$allocator@U?$pair@$$CBVName@Imf@@PAVAttribute@2@@std@@@5@$0A@@std@@@2@@Z 1009b930 f i ImfHeader.obj
 0002:0003cae0       ?_Max@?$_Tree@V?$_Tmap_traits@VName@Imf@@PAVAttribute@2@U?$less@VName@Imf@@@std@@V?$allocator@U?$pair@$$CBVName@Imf@@PAVAttribute@2@@std@@@5@$0A@@std@@@std@@KAPAU_Node@?$_Tree_nod@V?$_Tmap_traits@VName@Imf@@PAVAttribute@2@U?$less@VName@Imf@@@std@@V?$allocator@U?$pair@$$CBVName@Imf@@PAVAttribute@2@@std@@@5@$0A@@std@@@2@PAU342@@Z 1009bae0 f i ImfHeader.obj
 0002:0003cb60       ?_Min@?$_Tree@V?$_Tmap_traits@VName@Imf@@PAVAttribute@2@U?$less@VName@Imf@@@std@@V?$allocator@U?$pair@$$CBVName@Imf@@PAVAttribute@2@@std@@@5@$0A@@std@@@std@@KAPAU_Node@?$_Tree_nod@V?$_Tmap_traits@VName@Imf@@PAVAttribute@2@U?$less@VName@Imf@@@std@@V?$allocator@U?$pair@$$CBVName@Imf@@PAVAttribute@2@@std@@@5@$0A@@std@@@2@PAU342@@Z 1009bb60 f i ImfHeader.obj
 0002:0003cbe0       ?_Rmost@?$_Tree@V?$_Tmap_traits@VName@Imf@@PAVAttribute@2@U?$less@VName@Imf@@@std@@V?$allocator@U?$pair@$$CBVName@Imf@@PAVAttribute@2@@std@@@5@$0A@@std@@@std@@IBEAAPAU_Node@?$_Tree_nod@V?$_Tmap_traits@VName@Imf@@PAVAttribute@2@U?$less@VName@Imf@@@std@@V?$allocator@U?$pair@$$CBVName@Imf@@PAVAttribute@2@@std@@@5@$0A@@std@@@2@XZ 1009bbe0 f i ImfHeader.obj
 0002:0003cc40       ?_Root@?$_Tree@V?$_Tmap_traits@VName@Imf@@PAVAttribute@2@U?$less@VName@Imf@@@std@@V?$allocator@U?$pair@$$CBVName@Imf@@PAVAttribute@2@@std@@@5@$0A@@std@@@std@@IBEAAPAU_Node@?$_Tree_nod@V?$_Tmap_traits@VName@Imf@@PAVAttribute@2@U?$less@VName@Imf@@@std@@V?$allocator@U?$pair@$$CBVName@Imf@@PAVAttribute@2@@std@@@5@$0A@@std@@@2@XZ 1009bc40 f i ImfHeader.obj
 0002:0003cca0       ?_Rrotate@?$_Tree@V?$_Tmap_traits@VName@Imf@@PAVAttribute@2@U?$less@VName@Imf@@@std@@V?$allocator@U?$pair@$$CBVName@Imf@@PAVAttribute@2@@std@@@5@$0A@@std@@@std@@IAEXPAU_Node@?$_Tree_nod@V?$_Tmap_traits@VName@Imf@@PAVAttribute@2@U?$less@VName@Imf@@@std@@V?$allocator@U?$pair@$$CBVName@Imf@@PAVAttribute@2@@std@@@5@$0A@@std@@@2@@Z 1009bca0 f i ImfHeader.obj
 0002:0003ce50       ?_Orphan_ptr@?$_Tree@V?$_Tmap_traits@VName@Imf@@PAVAttribute@2@U?$less@VName@Imf@@@std@@V?$allocator@U?$pair@$$CBVName@Imf@@PAVAttribute@2@@std@@@5@$0A@@std@@@std@@IBEXAAV12@PAU_Node@?$_Tree_nod@V?$_Tmap_traits@VName@Imf@@PAVAttribute@2@U?$less@VName@Imf@@@std@@V?$allocator@U?$pair@$$CBVName@Imf@@PAVAttribute@2@@std@@@5@$0A@@std@@@2@@Z 1009be50 f i ImfHeader.obj
 0002:0003cf70       ??0?$_Tree_val@V?$_Tmap_traits@VName@Imf@@PAVAttribute@2@U?$less@VName@Imf@@@std@@V?$allocator@U?$pair@$$CBVName@Imf@@PAVAttribute@2@@std@@@5@$0A@@std@@@std@@IAE@ABU?$less@VName@Imf@@@1@V?$allocator@U?$pair@$$CBVName@Imf@@PAVAttribute@2@@std@@@1@@Z 1009bf70 f i ImfHeader.obj
 0002:0003d000       ?_Kfn@?$_Tmap_traits@VName@Imf@@PAVAttribute@2@U?$less@VName@Imf@@@std@@V?$allocator@U?$pair@$$CBVName@Imf@@PAVAttribute@2@@std@@@5@$0A@@std@@SAABVName@Imf@@ABU?$pair@$$CBVName@Imf@@PAVAttribute@2@@2@@Z 1009c000 f i ImfHeader.obj
 0002:0003d040       ??0?$allocator@U?$pair@$$CBVName@Imf@@PAVAttribute@2@@std@@@std@@QAE@ABV01@@Z 1009c040 f i ImfHeader.obj
 0002:0003d080       ?deallocate@?$allocator@U_Node@?$_Tree_nod@V?$_Tmap_traits@VName@Imf@@PAVAttribute@2@U?$less@VName@Imf@@@std@@V?$allocator@U?$pair@$$CBVName@Imf@@PAVAttribute@2@@std@@@5@$0A@@std@@@std@@@std@@QAEXPAU_Node@?$_Tree_nod@V?$_Tmap_traits@VName@Imf@@PAVAttribute@2@U?$less@VName@Imf@@@std@@V?$allocator@U?$pair@$$CBVName@Imf@@PAVAttribute@2@@std@@@5@$0A@@std@@@2@I@Z 1009c080 f i ImfHeader.obj
 0002:0003d0e0       ?destroy@?$allocator@U_Node@?$_Tree_nod@V?$_Tmap_traits@VName@Imf@@PAVAttribute@2@U?$less@VName@Imf@@@std@@V?$allocator@U?$pair@$$CBVName@Imf@@PAVAttribute@2@@std@@@5@$0A@@std@@@std@@@std@@QAEXPAU_Node@?$_Tree_nod@V?$_Tmap_traits@VName@Imf@@PAVAttribute@2@U?$less@VName@Imf@@@std@@V?$allocator@U?$pair@$$CBVName@Imf@@PAVAttribute@2@@std@@@5@$0A@@std@@@2@@Z 1009c0e0 f i ImfHeader.obj
 0002:0003d140       ?destroy@?$allocator@PAU_Node@?$_Tree_nod@V?$_Tmap_traits@VName@Imf@@PAVAttribute@2@U?$less@VName@Imf@@@std@@V?$allocator@U?$pair@$$CBVName@Imf@@PAVAttribute@2@@std@@@5@$0A@@std@@@std@@@std@@QAEXPAPAU_Node@?$_Tree_nod@V?$_Tmap_traits@VName@Imf@@PAVAttribute@2@U?$less@VName@Imf@@@std@@V?$allocator@U?$pair@$$CBVName@Imf@@PAVAttribute@2@@std@@@5@$0A@@std@@@2@@Z 1009c140 f i ImfHeader.obj
 0002:0003d1a0       ??Fiterator@?$_Tree@V?$_Tmap_traits@VName@Imf@@PAVAttribute@2@U?$less@VName@Imf@@@std@@V?$allocator@U?$pair@$$CBVName@Imf@@PAVAttribute@2@@std@@@5@$0A@@std@@@std@@QAEAAV012@XZ 1009c1a0 f i ImfHeader.obj
 0002:0003d200       ?max_size@?$_Tree@V?$_Tmap_traits@VName@Imf@@PAVAttribute@2@U?$less@VName@Imf@@@std@@V?$allocator@U?$pair@$$CBVName@Imf@@PAVAttribute@2@@std@@@5@$0A@@std@@@std@@QBEIXZ 1009c200 f i ImfHeader.obj
 0002:0003d260       ?_Buynode@?$_Tree@V?$_Tmap_traits@VName@Imf@@PAVAttribute@2@U?$less@VName@Imf@@@std@@V?$allocator@U?$pair@$$CBVName@Imf@@PAVAttribute@2@@std@@@5@$0A@@std@@@std@@IAEPAU_Node@?$_Tree_nod@V?$_Tmap_traits@VName@Imf@@PAVAttribute@2@U?$less@VName@Imf@@@std@@V?$allocator@U?$pair@$$CBVName@Imf@@PAVAttribute@2@@std@@@5@$0A@@std@@@2@XZ 1009c260 f i ImfHeader.obj
 0002:0003d490       ?_Buynode@?$_Tree@V?$_Tmap_traits@VName@Imf@@PAVAttribute@2@U?$less@VName@Imf@@@std@@V?$allocator@U?$pair@$$CBVName@Imf@@PAVAttribute@2@@std@@@5@$0A@@std@@@std@@IAEPAU_Node@?$_Tree_nod@V?$_Tmap_traits@VName@Imf@@PAVAttribute@2@U?$less@VName@Imf@@@std@@V?$allocator@U?$pair@$$CBVName@Imf@@PAVAttribute@2@@std@@@5@$0A@@std@@@2@PAU342@00ABU?$pair@$$CBVName@Imf@@PAVAttribute@2@@2@D@Z 1009c490 f i ImfHeader.obj
 0002:0003d5f0       ??0?$_Tree_ptr@V?$_Tmap_traits@VName@Imf@@PAVAttribute@2@U?$less@VName@Imf@@@std@@V?$allocator@U?$pair@$$CBVName@Imf@@PAVAttribute@2@@std@@@5@$0A@@std@@@std@@QAE@ABU?$less@VName@Imf@@@1@V?$allocator@U?$pair@$$CBVName@Imf@@PAVAttribute@2@@std@@@1@@Z 1009c5f0 f i ImfHeader.obj
 0002:0003d680       ??Fconst_iterator@?$_Tree@V?$_Tmap_traits@VName@Imf@@PAVAttribute@2@U?$less@VName@Imf@@@std@@V?$allocator@U?$pair@$$CBVName@Imf@@PAVAttribute@2@@std@@@5@$0A@@std@@@std@@QAEAAV012@XZ 1009c680 f i ImfHeader.obj
 0002:0003d6e0       ??0?$pair@Viterator@?$_Tree@V?$_Tmap_traits@VName@Imf@@PAVAttribute@2@U?$less@VName@Imf@@@std@@V?$allocator@U?$pair@$$CBVName@Imf@@PAVAttribute@2@@std@@@5@$0A@@std@@@std@@_N@std@@QAE@ABViterator@?$_Tree@V?$_Tmap_traits@VName@Imf@@PAVAttribute@2@U?$less@VName@Imf@@@std@@V?$allocator@U?$pair@$$CBVName@Imf@@PAVAttribute@2@@std@@@5@$0A@@std@@@1@AB_N@Z 1009c6e0 f i ImfHeader.obj
 0002:0003d750       ??0?$_Tree_nod@V?$_Tmap_traits@VName@Imf@@PAVAttribute@2@U?$less@VName@Imf@@@std@@V?$allocator@U?$pair@$$CBVName@Imf@@PAVAttribute@2@@std@@@5@$0A@@std@@@std@@IAE@ABU?$less@VName@Imf@@@1@V?$allocator@U?$pair@$$CBVName@Imf@@PAVAttribute@2@@std@@@1@@Z 1009c750 f i ImfHeader.obj
 0002:0003d7c0       ?max_size@?$allocator@U?$pair@$$CBVName@Imf@@PAVAttribute@2@@std@@@std@@QBEIXZ 1009c7c0 f i ImfHeader.obj
 0002:0003d830       ?allocate@?$allocator@U_Node@?$_Tree_nod@V?$_Tmap_traits@VName@Imf@@PAVAttribute@2@U?$less@VName@Imf@@@std@@V?$allocator@U?$pair@$$CBVName@Imf@@PAVAttribute@2@@std@@@5@$0A@@std@@@std@@@std@@QAEPAU_Node@?$_Tree_nod@V?$_Tmap_traits@VName@Imf@@PAVAttribute@2@U?$less@VName@Imf@@@std@@V?$allocator@U?$pair@$$CBVName@Imf@@PAVAttribute@2@@std@@@5@$0A@@std@@@2@I@Z 1009c830 f i ImfHeader.obj
 0002:0003d890       ?construct@?$allocator@PAU_Node@?$_Tree_nod@V?$_Tmap_traits@VName@Imf@@PAVAttribute@2@U?$less@VName@Imf@@@std@@V?$allocator@U?$pair@$$CBVName@Imf@@PAVAttribute@2@@std@@@5@$0A@@std@@@std@@@std@@QAEXPAPAU_Node@?$_Tree_nod@V?$_Tmap_traits@VName@Imf@@PAVAttribute@2@U?$less@VName@Imf@@@std@@V?$allocator@U?$pair@$$CBVName@Imf@@PAVAttribute@2@@std@@@5@$0A@@std@@@2@ABQAU342@@Z 1009c890 f i ImfHeader.obj
 0002:0003d8f0       ?_Dec@const_iterator@?$_Tree@V?$_Tmap_traits@VName@Imf@@PAVAttribute@2@U?$less@VName@Imf@@@std@@V?$allocator@U?$pair@$$CBVName@Imf@@PAVAttribute@2@@std@@@5@$0A@@std@@@std@@QAEXXZ 1009c8f0 f i ImfHeader.obj
 0002:0003dc40       ??0_Node@?$_Tree_nod@V?$_Tmap_traits@VName@Imf@@PAVAttribute@2@U?$less@VName@Imf@@@std@@V?$allocator@U?$pair@$$CBVName@Imf@@PAVAttribute@2@@std@@@5@$0A@@std@@@std@@QAE@PAU012@00ABU?$pair@$$CBVName@Imf@@PAVAttribute@2@@2@D@Z 1009cc40 f i ImfHeader.obj
 0002:0003dcd0       ??0?$_Tmap_traits@VName@Imf@@PAVAttribute@2@U?$less@VName@Imf@@@std@@V?$allocator@U?$pair@$$CBVName@Imf@@PAVAttribute@2@@std@@@5@$0A@@std@@QAE@U?$less@VName@Imf@@@1@@Z 1009ccd0 f i ImfHeader.obj
 0002:0003dd40       ?registerAttributeType@?$TypedAttribute@V?$Box@V?$Vec2@H@Imath@@@Imath@@@Imf@@SAXXZ 1009cd40 f i ImfHeader.obj
 0002:0003dda0       ?registerAttributeType@?$TypedAttribute@V?$Box@V?$Vec2@M@Imath@@@Imath@@@Imf@@SAXXZ 1009cda0 f i ImfHeader.obj
 0002:0003de00       ??0?$TypedAttribute@VChannelList@Imf@@@Imf@@QAE@XZ 1009ce00 f i ImfHeader.obj
 0002:0003dec0       ??1?$TypedAttribute@VChannelList@Imf@@@Imf@@UAE@XZ 1009cec0 f i ImfHeader.obj
 0002:0003df70       ?value@?$TypedAttribute@VChannelList@Imf@@@Imf@@QBEABVChannelList@2@XZ 1009cf70 f i ImfHeader.obj
 0002:0003dfb0       ?value@?$TypedAttribute@VChannelList@Imf@@@Imf@@QAEAAVChannelList@2@XZ 1009cfb0 f i ImfHeader.obj
 0002:0003dff0       ?typeName@?$TypedAttribute@VChannelList@Imf@@@Imf@@UBEPBDXZ 1009cff0 f i ImfHeader.obj
 0002:0003e040       ?copy@?$TypedAttribute@VChannelList@Imf@@@Imf@@UBEPAVAttribute@2@XZ 1009d040 f i ImfHeader.obj
 0002:0003e150       ?copyValueFrom@?$TypedAttribute@VChannelList@Imf@@@Imf@@UAEXABVAttribute@2@@Z 1009d150 f i ImfHeader.obj
 0002:0003e1c0       ?registerAttributeType@?$TypedAttribute@VChannelList@Imf@@@Imf@@SAXXZ 1009d1c0 f i ImfHeader.obj
 0002:0003e220       ?registerAttributeType@?$TypedAttribute@UChromaticities@Imf@@@Imf@@SAXXZ 1009d220 f i ImfHeader.obj
 0002:0003e280       ??0?$TypedAttribute@W4Compression@Imf@@@Imf@@QAE@ABW4Compression@1@@Z 1009d280 f i ImfHeader.obj
 0002:0003e2f0       ??1?$TypedAttribute@W4Compression@Imf@@@Imf@@UAE@XZ 1009d2f0 f i ImfHeader.obj
 0002:0003e350       ?value@?$TypedAttribute@W4Compression@Imf@@@Imf@@QBEABW4Compression@2@XZ 1009d350 f i ImfHeader.obj
 0002:0003e390       ?value@?$TypedAttribute@W4Compression@Imf@@@Imf@@QAEAAW4Compression@2@XZ 1009d390 f i ImfHeader.obj
 0002:0003e3d0       ?typeName@?$TypedAttribute@W4Compression@Imf@@@Imf@@UBEPBDXZ 1009d3d0 f i ImfHeader.obj
 0002:0003e420       ?copy@?$TypedAttribute@W4Compression@Imf@@@Imf@@UBEPAVAttribute@2@XZ 1009d420 f i ImfHeader.obj
 0002:0003e530       ?copyValueFrom@?$TypedAttribute@W4Compression@Imf@@@Imf@@UAEXABVAttribute@2@@Z 1009d530 f i ImfHeader.obj
 0002:0003e5a0       ?registerAttributeType@?$TypedAttribute@W4Compression@Imf@@@Imf@@SAXXZ 1009d5a0 f i ImfHeader.obj
 0002:0003e600       ?registerAttributeType@?$TypedAttribute@W4Envmap@Imf@@@Imf@@SAXXZ 1009d600 f i ImfHeader.obj
 0002:0003e660       ?registerAttributeType@?$TypedAttribute@H@Imf@@SAXXZ 1009d660 f i ImfHeader.obj
 0002:0003e6c0       ?registerAttributeType@?$TypedAttribute@VKeyCode@Imf@@@Imf@@SAXXZ 1009d6c0 f i ImfHeader.obj
 0002:0003e720       ??0?$TypedAttribute@W4LineOrder@Imf@@@Imf@@QAE@ABW4LineOrder@1@@Z 1009d720 f i ImfHeader.obj
 0002:0003e790       ??1?$TypedAttribute@W4LineOrder@Imf@@@Imf@@UAE@XZ 1009d790 f i ImfHeader.obj
 0002:0003e7f0       ?value@?$TypedAttribute@W4LineOrder@Imf@@@Imf@@QBEABW4LineOrder@2@XZ 1009d7f0 f i ImfHeader.obj
 0002:0003e830       ?value@?$TypedAttribute@W4LineOrder@Imf@@@Imf@@QAEAAW4LineOrder@2@XZ 1009d830 f i ImfHeader.obj
 0002:0003e870       ?typeName@?$TypedAttribute@W4LineOrder@Imf@@@Imf@@UBEPBDXZ 1009d870 f i ImfHeader.obj
 0002:0003e8c0       ?copy@?$TypedAttribute@W4LineOrder@Imf@@@Imf@@UBEPAVAttribute@2@XZ 1009d8c0 f i ImfHeader.obj
 0002:0003e9d0       ?copyValueFrom@?$TypedAttribute@W4LineOrder@Imf@@@Imf@@UAEXABVAttribute@2@@Z 1009d9d0 f i ImfHeader.obj
 0002:0003ea40       ?registerAttributeType@?$TypedAttribute@W4LineOrder@Imf@@@Imf@@SAXXZ 1009da40 f i ImfHeader.obj
 0002:0003eaa0       ?registerAttributeType@?$TypedAttribute@V?$Matrix33@M@Imath@@@Imf@@SAXXZ 1009daa0 f i ImfHeader.obj
 0002:0003eb00       ?registerAttributeType@?$TypedAttribute@V?$Matrix44@M@Imath@@@Imf@@SAXXZ 1009db00 f i ImfHeader.obj
 0002:0003eb60       ??0?$TypedAttribute@VPreviewImage@Imf@@@Imf@@QAE@ABVPreviewImage@1@@Z 1009db60 f i ImfHeader.obj
 0002:0003ec20       ??1?$TypedAttribute@VPreviewImage@Imf@@@Imf@@UAE@XZ 1009dc20 f i ImfHeader.obj
 0002:0003ecd0       ?value@?$TypedAttribute@VPreviewImage@Imf@@@Imf@@QBEABVPreviewImage@2@XZ 1009dcd0 f i ImfHeader.obj
 0002:0003ed10       ?value@?$TypedAttribute@VPreviewImage@Imf@@@Imf@@QAEAAVPreviewImage@2@XZ 1009dd10 f i ImfHeader.obj
 0002:0003ed50       ?typeName@?$TypedAttribute@VPreviewImage@Imf@@@Imf@@UBEPBDXZ 1009dd50 f i ImfHeader.obj
 0002:0003eda0       ?copy@?$TypedAttribute@VPreviewImage@Imf@@@Imf@@UBEPAVAttribute@2@XZ 1009dda0 f i ImfHeader.obj
 0002:0003eeb0       ?copyValueFrom@?$TypedAttribute@VPreviewImage@Imf@@@Imf@@UAEXABVAttribute@2@@Z 1009deb0 f i ImfHeader.obj
 0002:0003ef20       ?registerAttributeType@?$TypedAttribute@VPreviewImage@Imf@@@Imf@@SAXXZ 1009df20 f i ImfHeader.obj
 0002:0003ef80       ?registerAttributeType@?$TypedAttribute@V?$basic_string@DU?$char_traits@D@std@@V?$allocator@D@2@@std@@@Imf@@SAXXZ 1009df80 f i ImfHeader.obj
 0002:0003efe0       ??0?$TypedAttribute@VTileDescription@Imf@@@Imf@@QAE@ABVTileDescription@1@@Z 1009dfe0 f i ImfHeader.obj
 0002:0003f070       ??1?$TypedAttribute@VTileDescription@Imf@@@Imf@@UAE@XZ 1009e070 f i ImfHeader.obj
 0002:0003f0d0       ?value@?$TypedAttribute@VTileDescription@Imf@@@Imf@@QBEABVTileDescription@2@XZ 1009e0d0 f i ImfHeader.obj
 0002:0003f110       ?value@?$TypedAttribute@VTileDescription@Imf@@@Imf@@QAEAAVTileDescription@2@XZ 1009e110 f i ImfHeader.obj
 0002:0003f150       ?typeName@?$TypedAttribute@VTileDescription@Imf@@@Imf@@UBEPBDXZ 1009e150 f i ImfHeader.obj
 0002:0003f1a0       ?copy@?$TypedAttribute@VTileDescription@Imf@@@Imf@@UBEPAVAttribute@2@XZ 1009e1a0 f i ImfHeader.obj
 0002:0003f2b0       ?copyValueFrom@?$TypedAttribute@VTileDescription@Imf@@@Imf@@UAEXABVAttribute@2@@Z 1009e2b0 f i ImfHeader.obj
 0002:0003f330       ?registerAttributeType@?$TypedAttribute@VTileDescription@Imf@@@Imf@@SAXXZ 1009e330 f i ImfHeader.obj
 0002:0003f390       ?registerAttributeType@?$TypedAttribute@VTimeCode@Imf@@@Imf@@SAXXZ 1009e390 f i ImfHeader.obj
 0002:0003f3f0       ?registerAttributeType@?$TypedAttribute@V?$Vec2@H@Imath@@@Imf@@SAXXZ 1009e3f0 f i ImfHeader.obj
 0002:0003f450       ?registerAttributeType@?$TypedAttribute@V?$Vec2@M@Imath@@@Imf@@SAXXZ 1009e450 f i ImfHeader.obj
 0002:0003f4b0       ?registerAttributeType@?$TypedAttribute@V?$Vec3@H@Imath@@@Imf@@SAXXZ 1009e4b0 f i ImfHeader.obj
 0002:0003f510       ?registerAttributeType@?$TypedAttribute@V?$Vec3@M@Imath@@@Imf@@SAXXZ 1009e510 f i ImfHeader.obj
 0002:0003f570       ??$findTypedAttribute@V?$TypedAttribute@VTileDescription@Imf@@@Imf@@@Header@Imf@@QBEPBV?$TypedAttribute@VTileDescription@Imf@@@1@QBD@Z 1009e570 f i ImfHeader.obj
 0002:0003f720       ??$typedAttribute@V?$TypedAttribute@VTileDescription@Imf@@@Imf@@@Header@Imf@@QBEABV?$TypedAttribute@VTileDescription@Imf@@@1@QBD@Z 1009e720 f i ImfHeader.obj
 0002:0003f7e0       ??$typedAttribute@V?$TypedAttribute@VTileDescription@Imf@@@Imf@@@Header@Imf@@QAEAAV?$TypedAttribute@VTileDescription@Imf@@@1@QBD@Z 1009e7e0 f i ImfHeader.obj
 0002:0003f8a0       ??$typedAttribute@V?$TypedAttribute@VPreviewImage@Imf@@@Imf@@@Header@Imf@@QBEABV?$TypedAttribute@VPreviewImage@Imf@@@1@QBD@Z 1009e8a0 f i ImfHeader.obj
 0002:0003f960       ??$typedAttribute@V?$TypedAttribute@VPreviewImage@Imf@@@Imf@@@Header@Imf@@QAEAAV?$TypedAttribute@VPreviewImage@Imf@@@1@QBD@Z 1009e960 f i ImfHeader.obj
 0002:0003fa20       ??$findTypedAttribute@V?$TypedAttribute@VPreviewImage@Imf@@@Imf@@@Header@Imf@@QBEPBV?$TypedAttribute@VPreviewImage@Imf@@@1@QBD@Z 1009ea20 f i ImfHeader.obj
 0002:0003fbd0       ??$_Destroy@U_Node@?$_Tree_nod@V?$_Tmap_traits@VName@Imf@@PAVAttribute@2@U?$less@VName@Imf@@@std@@V?$allocator@U?$pair@$$CBVName@Imf@@PAVAttribute@2@@std@@@5@$0A@@std@@@std@@@std@@YAXPAU_Node@?$_Tree_nod@V?$_Tmap_traits@VName@Imf@@PAVAttribute@2@U?$less@VName@Imf@@@std@@V?$allocator@U?$pair@$$CBVName@Imf@@PAVAttribute@2@@std@@@5@$0A@@std@@@0@@Z 1009ebd0 f i ImfHeader.obj
 0002:0003fc00       ??$_Destroy@PAU_Node@?$_Tree_nod@V?$_Tmap_traits@VName@Imf@@PAVAttribute@2@U?$less@VName@Imf@@@std@@V?$allocator@U?$pair@$$CBVName@Imf@@PAVAttribute@2@@std@@@5@$0A@@std@@@std@@@std@@YAXPAPAU_Node@?$_Tree_nod@V?$_Tmap_traits@VName@Imf@@PAVAttribute@2@U?$less@VName@Imf@@@std@@V?$allocator@U?$pair@$$CBVName@Imf@@PAVAttribute@2@@std@@@5@$0A@@std@@@0@@Z 1009ec00 f i ImfHeader.obj
 0002:0003fc30       ??$?0U?$pair@$$CBVName@Imf@@PAVAttribute@2@@std@@@?$allocator@PAU_Node@?$_Tree_nod@V?$_Tmap_traits@VName@Imf@@PAVAttribute@2@U?$less@VName@Imf@@@std@@V?$allocator@U?$pair@$$CBVName@Imf@@PAVAttribute@2@@std@@@5@$0A@@std@@@std@@@std@@QAE@ABV?$allocator@U?$pair@$$CBVName@Imf@@PAVAttribute@2@@std@@@1@@Z 1009ec30 f i ImfHeader.obj
 0002:0003fc70       ??$?0U?$pair@$$CBVName@Imf@@PAVAttribute@2@@std@@@?$allocator@U_Node@?$_Tree_nod@V?$_Tmap_traits@VName@Imf@@PAVAttribute@2@U?$less@VName@Imf@@@std@@V?$allocator@U?$pair@$$CBVName@Imf@@PAVAttribute@2@@std@@@5@$0A@@std@@@std@@@std@@QAE@ABV?$allocator@U?$pair@$$CBVName@Imf@@PAVAttribute@2@@std@@@1@@Z 1009ec70 f i ImfHeader.obj
 0002:0003fcb0       ??$_Allocate@U_Node@?$_Tree_nod@V?$_Tmap_traits@VName@Imf@@PAVAttribute@2@U?$less@VName@Imf@@@std@@V?$allocator@U?$pair@$$CBVName@Imf@@PAVAttribute@2@@std@@@5@$0A@@std@@@std@@@std@@YAPAU_Node@?$_Tree_nod@V?$_Tmap_traits@VName@Imf@@PAVAttribute@2@U?$less@VName@Imf@@@std@@V?$allocator@U?$pair@$$CBVName@Imf@@PAVAttribute@2@@std@@@5@$0A@@std@@@0@IPAU120@@Z 1009ecb0 f i ImfHeader.obj
 0002:0003fd50       ??$_Construct@PAU_Node@?$_Tree_nod@V?$_Tmap_traits@VName@Imf@@PAVAttribute@2@U?$less@VName@Imf@@@std@@V?$allocator@U?$pair@$$CBVName@Imf@@PAVAttribute@2@@std@@@5@$0A@@std@@@std@@PAU123@@std@@YAXPAPAU_Node@?$_Tree_nod@V?$_Tmap_traits@VName@Imf@@PAVAttribute@2@U?$less@VName@Imf@@@std@@V?$allocator@U?$pair@$$CBVName@Imf@@PAVAttribute@2@@std@@@5@$0A@@std@@@0@ABQAU120@@Z 1009ed50 f i ImfHeader.obj
 0002:0003fdf0       ??0ChannelList@Imf@@QAE@XZ 1009edf0 f i ImfHeader.obj
 0002:0003fe50       ??1ChannelList@Imf@@QAE@XZ 1009ee50 f i ImfHeader.obj
 0002:0003fea0       ??_E?$TypedAttribute@VChannelList@Imf@@@Imf@@UAEPAXI@Z 1009eea0 f i ImfHeader.obj
 0002:0003fea0       ??_G?$TypedAttribute@VChannelList@Imf@@@Imf@@UAEPAXI@Z 1009eea0 f i ImfHeader.obj
 0002:0003ff10       ??4ChannelList@Imf@@QAEAAV01@ABV01@@Z 1009ef10 f i ImfHeader.obj
 0002:0003ff70       ??_E?$TypedAttribute@W4Compression@Imf@@@Imf@@UAEPAXI@Z 1009ef70 f i ImfHeader.obj
 0002:0003ff70       ??_G?$TypedAttribute@W4Compression@Imf@@@Imf@@UAEPAXI@Z 1009ef70 f i ImfHeader.obj
 0002:0003ffe0       ??_E?$TypedAttribute@W4LineOrder@Imf@@@Imf@@UAEPAXI@Z 1009efe0 f i ImfHeader.obj
 0002:0003ffe0       ??_G?$TypedAttribute@W4LineOrder@Imf@@@Imf@@UAEPAXI@Z 1009efe0 f i ImfHeader.obj
 0002:00040050       ??_G?$TypedAttribute@VPreviewImage@Imf@@@Imf@@UAEPAXI@Z 1009f050 f i ImfHeader.obj
 0002:00040050       ??_E?$TypedAttribute@VPreviewImage@Imf@@@Imf@@UAEPAXI@Z 1009f050 f i ImfHeader.obj
 0002:000400c0       ??_G?$TypedAttribute@VTileDescription@Imf@@@Imf@@UAEPAXI@Z 1009f0c0 f i ImfHeader.obj
 0002:000400c0       ??_E?$TypedAttribute@VTileDescription@Imf@@@Imf@@UAEPAXI@Z 1009f0c0 f i ImfHeader.obj
 0002:00040130       ??1?$map@VName@Imf@@UChannel@2@U?$less@VName@Imf@@@std@@V?$allocator@U?$pair@$$CBVName@Imf@@UChannel@2@@std@@@5@@std@@QAE@XZ 1009f130 f i ImfHeader.obj
 0002:00040180       ??4?$map@VName@Imf@@UChannel@2@U?$less@VName@Imf@@@std@@V?$allocator@U?$pair@$$CBVName@Imf@@UChannel@2@@std@@@5@@std@@QAEAAV01@ABV01@@Z 1009f180 f i ImfHeader.obj
 0002:000401e0       ??0?$map@VName@Imf@@UChannel@2@U?$less@VName@Imf@@@std@@V?$allocator@U?$pair@$$CBVName@Imf@@UChannel@2@@std@@@5@@std@@QAE@XZ 1009f1e0 f i ImfHeader.obj
 0002:00040250       ??1?$_Tree@V?$_Tmap_traits@VName@Imf@@UChannel@2@U?$less@VName@Imf@@@std@@V?$allocator@U?$pair@$$CBVName@Imf@@UChannel@2@@std@@@5@$0A@@std@@@std@@QAE@XZ 1009f250 f i ImfHeader.obj
 0002:000402f0       ??4?$_Tree@V?$_Tmap_traits@VName@Imf@@UChannel@2@U?$less@VName@Imf@@@std@@V?$allocator@U?$pair@$$CBVName@Imf@@UChannel@2@@std@@@5@$0A@@std@@@std@@QAEAAV01@ABV01@@Z 1009f2f0 f i ImfHeader.obj
 0002:00040420       ??1?$_Tree_val@V?$_Tmap_traits@VName@Imf@@UChannel@2@U?$less@VName@Imf@@@std@@V?$allocator@U?$pair@$$CBVName@Imf@@UChannel@2@@std@@@5@$0A@@std@@@std@@QAE@XZ 1009f420 f i ImfHeader.obj
 0002:00040470       ??1?$_Tree_ptr@V?$_Tmap_traits@VName@Imf@@UChannel@2@U?$less@VName@Imf@@@std@@V?$allocator@U?$pair@$$CBVName@Imf@@UChannel@2@@std@@@5@$0A@@std@@@std@@QAE@XZ 1009f470 f i ImfHeader.obj
 0002:000404c0       ??1?$_Tree_nod@V?$_Tmap_traits@VName@Imf@@UChannel@2@U?$less@VName@Imf@@@std@@V?$allocator@U?$pair@$$CBVName@Imf@@UChannel@2@@std@@@5@$0A@@std@@@std@@QAE@XZ 1009f4c0 f i ImfHeader.obj
 0002:00040510       ??1?$_Tmap_traits@VName@Imf@@UChannel@2@U?$less@VName@Imf@@@std@@V?$allocator@U?$pair@$$CBVName@Imf@@UChannel@2@@std@@@5@$0A@@std@@QAE@XZ 1009f510 f i ImfHeader.obj
 0002:00040570       ??0?$_Tree@V?$_Tmap_traits@VName@Imf@@UChannel@2@U?$less@VName@Imf@@@std@@V?$allocator@U?$pair@$$CBVName@Imf@@UChannel@2@@std@@@5@$0A@@std@@@std@@QAE@ABU?$less@VName@Imf@@@1@ABV?$allocator@U?$pair@$$CBVName@Imf@@UChannel@2@@std@@@1@@Z 1009f570 f i ImfHeader.obj
 0002:00040630       ?erase@?$_Tree@V?$_Tmap_traits@VName@Imf@@UChannel@2@U?$less@VName@Imf@@@std@@V?$allocator@U?$pair@$$CBVName@Imf@@UChannel@2@@std@@@5@$0A@@std@@@std@@QAE?AViterator@12@V312@0@Z 1009f630 f i ImfHeader.obj
 0002:00040940       ?_Copy@?$_Tree@V?$_Tmap_traits@VName@Imf@@UChannel@2@U?$less@VName@Imf@@@std@@V?$allocator@U?$pair@$$CBVName@Imf@@UChannel@2@@std@@@5@$0A@@std@@@std@@IAEXABV12@@Z 1009f940 f i ImfHeader.obj
 0002:00040a60       ?_Tidy@?$_Tree@V?$_Tmap_traits@VName@Imf@@UChannel@2@U?$less@VName@Imf@@@std@@V?$allocator@U?$pair@$$CBVName@Imf@@UChannel@2@@std@@@5@$0A@@std@@@std@@IAEXXZ 1009fa60 f i ImfHeader.obj
 0002:00040c00       ??0?$allocator@U?$pair@$$CBVName@Imf@@UChannel@2@@std@@@std@@QAE@XZ 1009fc00 f i ImfHeader.obj
 0002:00040c40       ?erase@?$_Tree@V?$_Tmap_traits@VName@Imf@@UChannel@2@U?$less@VName@Imf@@@std@@V?$allocator@U?$pair@$$CBVName@Imf@@UChannel@2@@std@@@5@$0A@@std@@@std@@QAE?AViterator@12@V312@@Z 1009fc40 f i ImfHeader.obj
 0002:00041680       ?clear@?$_Tree@V?$_Tmap_traits@VName@Imf@@UChannel@2@U?$less@VName@Imf@@@std@@V?$allocator@U?$pair@$$CBVName@Imf@@UChannel@2@@std@@@5@$0A@@std@@@std@@QAEXXZ 100a0680 f i ImfHeader.obj
 0002:00041740       ?_Copy@?$_Tree@V?$_Tmap_traits@VName@Imf@@UChannel@2@U?$less@VName@Imf@@@std@@V?$allocator@U?$pair@$$CBVName@Imf@@UChannel@2@@std@@@5@$0A@@std@@@std@@IAEPAU_Node@?$_Tree_nod@V?$_Tmap_traits@VName@Imf@@UChannel@2@U?$less@VName@Imf@@@std@@V?$allocator@U?$pair@$$CBVName@Imf@@UChannel@2@@std@@@5@$0A@@std@@@2@PAU342@0@Z 100a0740 f i ImfHeader.obj
 0002:00041950       ?_Init@?$_Tree@V?$_Tmap_traits@VName@Imf@@UChannel@2@U?$less@VName@Imf@@@std@@V?$allocator@U?$pair@$$CBVName@Imf@@UChannel@2@@std@@@5@$0A@@std@@@std@@IAEXXZ 100a0950 f i ImfHeader.obj
 0002:00041a10       ??0?$_Tree_val@V?$_Tmap_traits@VName@Imf@@UChannel@2@U?$less@VName@Imf@@@std@@V?$allocator@U?$pair@$$CBVName@Imf@@UChannel@2@@std@@@5@$0A@@std@@@std@@IAE@ABU?$less@VName@Imf@@@1@V?$allocator@U?$pair@$$CBVName@Imf@@UChannel@2@@std@@@1@@Z 100a0a10 f i ImfHeader.obj
 0002:00041aa0       ??0?$allocator@U?$pair@$$CBVName@Imf@@UChannel@2@@std@@@std@@QAE@ABV01@@Z 100a0aa0 f i ImfHeader.obj
 0002:00041ae0       ?destroy@?$allocator@PAU_Node@?$_Tree_nod@V?$_Tmap_traits@VName@Imf@@UChannel@2@U?$less@VName@Imf@@@std@@V?$allocator@U?$pair@$$CBVName@Imf@@UChannel@2@@std@@@5@$0A@@std@@@std@@@std@@QAEXPAPAU_Node@?$_Tree_nod@V?$_Tmap_traits@VName@Imf@@UChannel@2@U?$less@VName@Imf@@@std@@V?$allocator@U?$pair@$$CBVName@Imf@@UChannel@2@@std@@@5@$0A@@std@@@2@@Z 100a0ae0 f i ImfHeader.obj
 0002:00041b40       ??Eiterator@?$_Tree@V?$_Tmap_traits@VName@Imf@@UChannel@2@U?$less@VName@Imf@@@std@@V?$allocator@U?$pair@$$CBVName@Imf@@UChannel@2@@std@@@5@$0A@@std@@@std@@QAE?AV012@H@Z 100a0b40 f i ImfHeader.obj
 0002:00041c60       ??9const_iterator@?$_Tree@V?$_Tmap_traits@VName@Imf@@UChannel@2@U?$less@VName@Imf@@@std@@V?$allocator@U?$pair@$$CBVName@Imf@@UChannel@2@@std@@@5@$0A@@std@@@std@@QBE_NABV012@@Z 100a0c60 f i ImfHeader.obj
 0002:00041cd0       ?_Erase@?$_Tree@V?$_Tmap_traits@VName@Imf@@UChannel@2@U?$less@VName@Imf@@@std@@V?$allocator@U?$pair@$$CBVName@Imf@@UChannel@2@@std@@@5@$0A@@std@@@std@@IAEXPAU_Node@?$_Tree_nod@V?$_Tmap_traits@VName@Imf@@UChannel@2@U?$less@VName@Imf@@@std@@V?$allocator@U?$pair@$$CBVName@Imf@@UChannel@2@@std@@@5@$0A@@std@@@2@@Z 100a0cd0 f i ImfHeader.obj
 0002:00041da0       ?_Orphan_ptr@?$_Tree@V?$_Tmap_traits@VName@Imf@@UChannel@2@U?$less@VName@Imf@@@std@@V?$allocator@U?$pair@$$CBVName@Imf@@UChannel@2@@std@@@5@$0A@@std@@@std@@IBEXAAV12@PAU_Node@?$_Tree_nod@V?$_Tmap_traits@VName@Imf@@UChannel@2@U?$less@VName@Imf@@@std@@V?$allocator@U?$pair@$$CBVName@Imf@@UChannel@2@@std@@@5@$0A@@std@@@2@@Z 100a0da0 f i ImfHeader.obj
 0002:00041ec0       ?_Buynode@?$_Tree@V?$_Tmap_traits@VName@Imf@@UChannel@2@U?$less@VName@Imf@@@std@@V?$allocator@U?$pair@$$CBVName@Imf@@UChannel@2@@std@@@5@$0A@@std@@@std@@IAEPAU_Node@?$_Tree_nod@V?$_Tmap_traits@VName@Imf@@UChannel@2@U?$less@VName@Imf@@@std@@V?$allocator@U?$pair@$$CBVName@Imf@@UChannel@2@@std@@@5@$0A@@std@@@2@XZ 100a0ec0 f i ImfHeader.obj
 0002:000420f0       ??0?$_Tree_ptr@V?$_Tmap_traits@VName@Imf@@UChannel@2@U?$less@VName@Imf@@@std@@V?$allocator@U?$pair@$$CBVName@Imf@@UChannel@2@@std@@@5@$0A@@std@@@std@@QAE@ABU?$less@VName@Imf@@@1@V?$allocator@U?$pair@$$CBVName@Imf@@UChannel@2@@std@@@1@@Z 100a10f0 f i ImfHeader.obj
 0002:00042180       ?destroy@?$allocator@U_Node@?$_Tree_nod@V?$_Tmap_traits@VName@Imf@@UChannel@2@U?$less@VName@Imf@@@std@@V?$allocator@U?$pair@$$CBVName@Imf@@UChannel@2@@std@@@5@$0A@@std@@@std@@@std@@QAEXPAU_Node@?$_Tree_nod@V?$_Tmap_traits@VName@Imf@@UChannel@2@U?$less@VName@Imf@@@std@@V?$allocator@U?$pair@$$CBVName@Imf@@UChannel@2@@std@@@5@$0A@@std@@@2@@Z 100a1180 f i ImfHeader.obj
 0002:000421e0       ??0?$_Tree_nod@V?$_Tmap_traits@VName@Imf@@UChannel@2@U?$less@VName@Imf@@@std@@V?$allocator@U?$pair@$$CBVName@Imf@@UChannel@2@@std@@@5@$0A@@std@@@std@@IAE@ABU?$less@VName@Imf@@@1@V?$allocator@U?$pair@$$CBVName@Imf@@UChannel@2@@std@@@1@@Z 100a11e0 f i ImfHeader.obj
 0002:00042250       ?construct@?$allocator@PAU_Node@?$_Tree_nod@V?$_Tmap_traits@VName@Imf@@UChannel@2@U?$less@VName@Imf@@@std@@V?$allocator@U?$pair@$$CBVName@Imf@@UChannel@2@@std@@@5@$0A@@std@@@std@@@std@@QAEXPAPAU_Node@?$_Tree_nod@V?$_Tmap_traits@VName@Imf@@UChannel@2@U?$less@VName@Imf@@@std@@V?$allocator@U?$pair@$$CBVName@Imf@@UChannel@2@@std@@@5@$0A@@std@@@2@ABQAU342@@Z 100a1250 f i ImfHeader.obj
 0002:000422b0       ??0?$_Tmap_traits@VName@Imf@@UChannel@2@U?$less@VName@Imf@@@std@@V?$allocator@U?$pair@$$CBVName@Imf@@UChannel@2@@std@@@5@$0A@@std@@QAE@U?$less@VName@Imf@@@1@@Z 100a12b0 f i ImfHeader.obj
 0002:00042320       ?makeNewAttribute@?$TypedAttribute@V?$Box@V?$Vec2@H@Imath@@@Imath@@@Imf@@SAPAVAttribute@2@XZ 100a1320 f i ImfHeader.obj
 0002:00042400       ?makeNewAttribute@?$TypedAttribute@V?$Box@V?$Vec2@M@Imath@@@Imath@@@Imf@@SAPAVAttribute@2@XZ 100a1400 f i ImfHeader.obj
 0002:000424e0       ?makeNewAttribute@?$TypedAttribute@VChannelList@Imf@@@Imf@@SAPAVAttribute@2@XZ 100a14e0 f i ImfHeader.obj
 0002:000425c0       ?cast@?$TypedAttribute@VChannelList@Imf@@@Imf@@SAABV12@ABVAttribute@2@@Z 100a15c0 f i ImfHeader.obj
 0002:00042610       ?makeNewAttribute@?$TypedAttribute@UChromaticities@Imf@@@Imf@@SAPAVAttribute@2@XZ 100a1610 f i ImfHeader.obj
 0002:000426f0       ??0?$TypedAttribute@UChromaticities@Imf@@@Imf@@QAE@XZ 100a16f0 f i ImfHeader.obj
 0002:00042850       ?typeName@?$TypedAttribute@UChromaticities@Imf@@@Imf@@UBEPBDXZ 100a1850 f i ImfHeader.obj
 0002:000428a0       ?copy@?$TypedAttribute@UChromaticities@Imf@@@Imf@@UBEPAVAttribute@2@XZ 100a18a0 f i ImfHeader.obj
 0002:000429b0       ?copyValueFrom@?$TypedAttribute@UChromaticities@Imf@@@Imf@@UAEXABVAttribute@2@@Z 100a19b0 f i ImfHeader.obj
 0002:00042a20       ??_G?$TypedAttribute@UChromaticities@Imf@@@Imf@@UAEPAXI@Z 100a1a20 f i ImfHeader.obj
 0002:00042a20       ??_E?$TypedAttribute@UChromaticities@Imf@@@Imf@@UAEPAXI@Z 100a1a20 f i ImfHeader.obj
 0002:00042a90       ??1?$TypedAttribute@UChromaticities@Imf@@@Imf@@UAE@XZ 100a1a90 f i ImfHeader.obj
 0002:00042af0       ??4Chromaticities@Imf@@QAEAAU01@ABU01@@Z 100a1af0 f i ImfHeader.obj
 0002:00042b90       ?cast@?$TypedAttribute@UChromaticities@Imf@@@Imf@@SAABV12@ABVAttribute@2@@Z 100a1b90 f i ImfHeader.obj
 0002:00042be0       ??0?$TypedAttribute@W4Compression@Imf@@@Imf@@QAE@XZ 100a1be0 f i ImfHeader.obj
 0002:00042c50       ?makeNewAttribute@?$TypedAttribute@W4Compression@Imf@@@Imf@@SAPAVAttribute@2@XZ 100a1c50 f i ImfHeader.obj
 0002:00042d30       ?cast@?$TypedAttribute@W4Compression@Imf@@@Imf@@SAABV12@ABVAttribute@2@@Z 100a1d30 f i ImfHeader.obj
 0002:00042d80       ?makeNewAttribute@?$TypedAttribute@W4Envmap@Imf@@@Imf@@SAPAVAttribute@2@XZ 100a1d80 f i ImfHeader.obj
 0002:00042e60       ??0?$TypedAttribute@W4Envmap@Imf@@@Imf@@QAE@XZ 100a1e60 f i ImfHeader.obj
 0002:00042ed0       ?typeName@?$TypedAttribute@W4Envmap@Imf@@@Imf@@UBEPBDXZ 100a1ed0 f i ImfHeader.obj
 0002:00042f20       ?copy@?$TypedAttribute@W4Envmap@Imf@@@Imf@@UBEPAVAttribute@2@XZ 100a1f20 f i ImfHeader.obj
 0002:00043030       ?copyValueFrom@?$TypedAttribute@W4Envmap@Imf@@@Imf@@UAEXABVAttribute@2@@Z 100a2030 f i ImfHeader.obj
 0002:000430a0       ??_E?$TypedAttribute@W4Envmap@Imf@@@Imf@@UAEPAXI@Z 100a20a0 f i ImfHeader.obj
 0002:000430a0       ??_G?$TypedAttribute@W4Envmap@Imf@@@Imf@@UAEPAXI@Z 100a20a0 f i ImfHeader.obj
 0002:00043110       ??1?$TypedAttribute@W4Envmap@Imf@@@Imf@@UAE@XZ 100a2110 f i ImfHeader.obj
 0002:00043170       ?cast@?$TypedAttribute@W4Envmap@Imf@@@Imf@@SAABV12@ABVAttribute@2@@Z 100a2170 f i ImfHeader.obj
 0002:000431c0       ?makeNewAttribute@?$TypedAttribute@H@Imf@@SAPAVAttribute@2@XZ 100a21c0 f i ImfHeader.obj
 0002:000432a0       ?makeNewAttribute@?$TypedAttribute@VKeyCode@Imf@@@Imf@@SAPAVAttribute@2@XZ 100a22a0 f i ImfHeader.obj
 0002:00043380       ??0?$TypedAttribute@VKeyCode@Imf@@@Imf@@QAE@XZ 100a2380 f i ImfHeader.obj
 0002:00043450       ?typeName@?$TypedAttribute@VKeyCode@Imf@@@Imf@@UBEPBDXZ 100a2450 f i ImfHeader.obj
 0002:000434a0       ?copy@?$TypedAttribute@VKeyCode@Imf@@@Imf@@UBEPAVAttribute@2@XZ 100a24a0 f i ImfHeader.obj
 0002:000435b0       ?copyValueFrom@?$TypedAttribute@VKeyCode@Imf@@@Imf@@UAEXABVAttribute@2@@Z 100a25b0 f i ImfHeader.obj
 0002:00043620       ??_E?$TypedAttribute@VKeyCode@Imf@@@Imf@@UAEPAXI@Z 100a2620 f i ImfHeader.obj
 0002:00043620       ??_G?$TypedAttribute@VKeyCode@Imf@@@Imf@@UAEPAXI@Z 100a2620 f i ImfHeader.obj
 0002:00043690       ??1?$TypedAttribute@VKeyCode@Imf@@@Imf@@UAE@XZ 100a2690 f i ImfHeader.obj
 0002:000436f0       ?cast@?$TypedAttribute@VKeyCode@Imf@@@Imf@@SAABV12@ABVAttribute@2@@Z 100a26f0 f i ImfHeader.obj
 0002:00043740       ??0?$TypedAttribute@W4LineOrder@Imf@@@Imf@@QAE@XZ 100a2740 f i ImfHeader.obj
 0002:000437b0       ?makeNewAttribute@?$TypedAttribute@W4LineOrder@Imf@@@Imf@@SAPAVAttribute@2@XZ 100a27b0 f i ImfHeader.obj
 0002:00043890       ?cast@?$TypedAttribute@W4LineOrder@Imf@@@Imf@@SAABV12@ABVAttribute@2@@Z 100a2890 f i ImfHeader.obj
 0002:000438e0       ?makeNewAttribute@?$TypedAttribute@V?$Matrix33@M@Imath@@@Imf@@SAPAVAttribute@2@XZ 100a28e0 f i ImfHeader.obj
 0002:000439c0       ?makeNewAttribute@?$TypedAttribute@V?$Matrix44@M@Imath@@@Imf@@SAPAVAttribute@2@XZ 100a29c0 f i ImfHeader.obj
 0002:00043aa0       ??0?$TypedAttribute@VPreviewImage@Imf@@@Imf@@QAE@XZ 100a2aa0 f i ImfHeader.obj
 0002:00043b60       ?makeNewAttribute@?$TypedAttribute@VPreviewImage@Imf@@@Imf@@SAPAVAttribute@2@XZ 100a2b60 f i ImfHeader.obj
 0002:00043c40       ?cast@?$TypedAttribute@VPreviewImage@Imf@@@Imf@@SAABV12@ABVAttribute@2@@Z 100a2c40 f i ImfHeader.obj
 0002:00043c90       ?makeNewAttribute@?$TypedAttribute@V?$basic_string@DU?$char_traits@D@std@@V?$allocator@D@2@@std@@@Imf@@SAPAVAttribute@2@XZ 100a2c90 f i ImfHeader.obj
 0002:00043d70       ??0?$TypedAttribute@VTileDescription@Imf@@@Imf@@QAE@XZ 100a2d70 f i ImfHeader.obj
 0002:00043e30       ??0TileDescription@Imf@@QAE@IIW4LevelMode@1@W4LevelRoundingMode@1@@Z 100a2e30 f i ImfHeader.obj
 0002:00043ea0       ?makeNewAttribute@?$TypedAttribute@VTileDescription@Imf@@@Imf@@SAPAVAttribute@2@XZ 100a2ea0 f i ImfHeader.obj
 0002:00043f80       ?cast@?$TypedAttribute@VTileDescription@Imf@@@Imf@@SAABV12@ABVAttribute@2@@Z 100a2f80 f i ImfHeader.obj
 0002:00043fd0       ?makeNewAttribute@?$TypedAttribute@VTimeCode@Imf@@@Imf@@SAPAVAttribute@2@XZ 100a2fd0 f i ImfHeader.obj
 0002:000440b0       ??0?$TypedAttribute@VTimeCode@Imf@@@Imf@@QAE@XZ 100a30b0 f i ImfHeader.obj
 0002:00044170       ?typeName@?$TypedAttribute@VTimeCode@Imf@@@Imf@@UBEPBDXZ 100a3170 f i ImfHeader.obj
 0002:000441c0       ?copy@?$TypedAttribute@VTimeCode@Imf@@@Imf@@UBEPAVAttribute@2@XZ 100a31c0 f i ImfHeader.obj
 0002:000442d0       ?copyValueFrom@?$TypedAttribute@VTimeCode@Imf@@@Imf@@UAEXABVAttribute@2@@Z 100a32d0 f i ImfHeader.obj
 0002:00044340       ??_G?$TypedAttribute@VTimeCode@Imf@@@Imf@@UAEPAXI@Z 100a3340 f i ImfHeader.obj
 0002:00044340       ??_E?$TypedAttribute@VTimeCode@Imf@@@Imf@@UAEPAXI@Z 100a3340 f i ImfHeader.obj
 0002:000443b0       ??1?$TypedAttribute@VTimeCode@Imf@@@Imf@@UAE@XZ 100a33b0 f i ImfHeader.obj
 0002:00044410       ?cast@?$TypedAttribute@VTimeCode@Imf@@@Imf@@SAABV12@ABVAttribute@2@@Z 100a3410 f i ImfHeader.obj
 0002:00044460       ?makeNewAttribute@?$TypedAttribute@V?$Vec2@H@Imath@@@Imf@@SAPAVAttribute@2@XZ 100a3460 f i ImfHeader.obj
 0002:00044540       ?makeNewAttribute@?$TypedAttribute@V?$Vec2@M@Imath@@@Imf@@SAPAVAttribute@2@XZ 100a3540 f i ImfHeader.obj
 0002:00044620       ?makeNewAttribute@?$TypedAttribute@V?$Vec3@H@Imath@@@Imf@@SAPAVAttribute@2@XZ 100a3620 f i ImfHeader.obj
 0002:00044700       ?makeNewAttribute@?$TypedAttribute@V?$Vec3@M@Imath@@@Imf@@SAPAVAttribute@2@XZ 100a3700 f i ImfHeader.obj
 0002:000447e0       ??$_Destroy@PAU_Node@?$_Tree_nod@V?$_Tmap_traits@VName@Imf@@UChannel@2@U?$less@VName@Imf@@@std@@V?$allocator@U?$pair@$$CBVName@Imf@@UChannel@2@@std@@@5@$0A@@std@@@std@@@std@@YAXPAPAU_Node@?$_Tree_nod@V?$_Tmap_traits@VName@Imf@@UChannel@2@U?$less@VName@Imf@@@std@@V?$allocator@U?$pair@$$CBVName@Imf@@UChannel@2@@std@@@5@$0A@@std@@@0@@Z 100a37e0 f i ImfHeader.obj
 0002:00044810       ??$?0U?$pair@$$CBVName@Imf@@UChannel@2@@std@@@?$allocator@PAU_Node@?$_Tree_nod@V?$_Tmap_traits@VName@Imf@@UChannel@2@U?$less@VName@Imf@@@std@@V?$allocator@U?$pair@$$CBVName@Imf@@UChannel@2@@std@@@5@$0A@@std@@@std@@@std@@QAE@ABV?$allocator@U?$pair@$$CBVName@Imf@@UChannel@2@@std@@@1@@Z 100a3810 f i ImfHeader.obj
 0002:00044850       ??$_Destroy@U_Node@?$_Tree_nod@V?$_Tmap_traits@VName@Imf@@UChannel@2@U?$less@VName@Imf@@@std@@V?$allocator@U?$pair@$$CBVName@Imf@@UChannel@2@@std@@@5@$0A@@std@@@std@@@std@@YAXPAU_Node@?$_Tree_nod@V?$_Tmap_traits@VName@Imf@@UChannel@2@U?$less@VName@Imf@@@std@@V?$allocator@U?$pair@$$CBVName@Imf@@UChannel@2@@std@@@5@$0A@@std@@@0@@Z 100a3850 f i ImfHeader.obj
 0002:00044880       ??$?0U?$pair@$$CBVName@Imf@@UChannel@2@@std@@@?$allocator@U_Node@?$_Tree_nod@V?$_Tmap_traits@VName@Imf@@UChannel@2@U?$less@VName@Imf@@@std@@V?$allocator@U?$pair@$$CBVName@Imf@@UChannel@2@@std@@@5@$0A@@std@@@std@@@std@@QAE@ABV?$allocator@U?$pair@$$CBVName@Imf@@UChannel@2@@std@@@1@@Z 100a3880 f i ImfHeader.obj
 0002:000448c0       ??$_Construct@PAU_Node@?$_Tree_nod@V?$_Tmap_traits@VName@Imf@@UChannel@2@U?$less@VName@Imf@@@std@@V?$allocator@U?$pair@$$CBVName@Imf@@UChannel@2@@std@@@5@$0A@@std@@@std@@PAU123@@std@@YAXPAPAU_Node@?$_Tree_nod@V?$_Tmap_traits@VName@Imf@@UChannel@2@U?$less@VName@Imf@@@std@@V?$allocator@U?$pair@$$CBVName@Imf@@UChannel@2@@std@@@5@$0A@@std@@@0@ABQAU120@@Z 100a38c0 f i ImfHeader.obj
 0002:00044960       ?cast@?$TypedAttribute@VChannelList@Imf@@@Imf@@SAPBV12@PBVAttribute@2@@Z 100a3960 f i ImfHeader.obj
 0002:00044a00       ?cast@?$TypedAttribute@UChromaticities@Imf@@@Imf@@SAPBV12@PBVAttribute@2@@Z 100a3a00 f i ImfHeader.obj
 0002:00044aa0       ?cast@?$TypedAttribute@W4Compression@Imf@@@Imf@@SAPBV12@PBVAttribute@2@@Z 100a3aa0 f i ImfHeader.obj
 0002:00044b40       ?cast@?$TypedAttribute@W4Envmap@Imf@@@Imf@@SAPBV12@PBVAttribute@2@@Z 100a3b40 f i ImfHeader.obj
 0002:00044be0       ?cast@?$TypedAttribute@VKeyCode@Imf@@@Imf@@SAPBV12@PBVAttribute@2@@Z 100a3be0 f i ImfHeader.obj
 0002:00044c80       ?cast@?$TypedAttribute@W4LineOrder@Imf@@@Imf@@SAPBV12@PBVAttribute@2@@Z 100a3c80 f i ImfHeader.obj
 0002:00044d20       ?cast@?$TypedAttribute@VPreviewImage@Imf@@@Imf@@SAPBV12@PBVAttribute@2@@Z 100a3d20 f i ImfHeader.obj
 0002:00044dc0       ?cast@?$TypedAttribute@VTileDescription@Imf@@@Imf@@SAPBV12@PBVAttribute@2@@Z 100a3dc0 f i ImfHeader.obj
 0002:00044e60       ?cast@?$TypedAttribute@VTimeCode@Imf@@@Imf@@SAPBV12@PBVAttribute@2@@Z 100a3e60 f i ImfHeader.obj
 0002:00044f00       ?invalidNBits@?A0x15928e88@Imf@@YAXXZ 100a3f00 f   ImfHuf.obj
 0002:00044f70       ?tooMuchData@?A0x15928e88@Imf@@YAXXZ 100a3f70 f   ImfHuf.obj
 0002:00044fe0       ?notEnoughData@?A0x15928e88@Imf@@YAXXZ 100a3fe0 f   ImfHuf.obj
 0002:00045050       ?invalidCode@?A0x15928e88@Imf@@YAXXZ 100a4050 f   ImfHuf.obj
 0002:000450c0       ?invalidTableSize@?A0x15928e88@Imf@@YAXXZ 100a40c0 f   ImfHuf.obj
 0002:00045130       ?unexpectedEndOfTable@?A0x15928e88@Imf@@YAXXZ 100a4130 f   ImfHuf.obj
 0002:000451a0       ?tableTooLong@?A0x15928e88@Imf@@YAXXZ 100a41a0 f   ImfHuf.obj
 0002:00045210       ?invalidTableEntry@?A0x15928e88@Imf@@YAXXZ 100a4210 f   ImfHuf.obj
 0002:00045280       ?hufCanonicalCodeTable@?A0x15928e88@Imf@@YAXQA_K@Z 100a4280 f   ImfHuf.obj
 0002:000455a0       ?hufBuildEncTable@?A0x15928e88@Imf@@YAXPA_KPAH1@Z 100a45a0 f   ImfHuf.obj
 0002:00045c30       ?hufPackEncTable@?A0x15928e88@Imf@@YAXPB_KHHPAPAD@Z 100a4c30 f   ImfHuf.obj
 0002:00045ea0       ?hufLength@?A0x15928e88@Imf@@YA_K_K@Z 100a4ea0 f i ImfHuf.obj
 0002:00045ee0       ?outputBits@?A0x15928e88@Imf@@YAXH_KAA_KAAHAAPAD@Z 100a4ee0 f i ImfHuf.obj
 0002:00045fc0       ?hufUnpackEncTable@?A0x15928e88@Imf@@YAXPAPBDHHHPA_K@Z 100a4fc0 f   ImfHuf.obj
 0002:00046290       ?getBits@?A0x15928e88@Imf@@YA_KHAA_KAAHAAPBD@Z 100a5290 f i ImfHuf.obj
 0002:00046380       ?hufBuildDecTable@?A0x15928e88@Imf@@YAXPB_KHHPAUHufDec@12@@Z 100a5380 f   ImfHuf.obj
 0002:00046700       ?hufCode@?A0x15928e88@Imf@@YA_K_K@Z 100a5700 f i ImfHuf.obj
 0002:00046750       ?hufFreeDecTable@?A0x15928e88@Imf@@YAXPAUHufDec@12@@Z 100a5750 f   ImfHuf.obj
 0002:00046800       ?hufEncode@?A0x15928e88@Imf@@YAHPB_KPBGHHPAD@Z 100a5800 f   ImfHuf.obj
 0002:000469f0       ?sendCode@?A0x15928e88@Imf@@YAX_KH0AA_KAAHAAPAD@Z 100a59f0 f i ImfHuf.obj
 0002:00046b10       ?outputCode@?A0x15928e88@Imf@@YAX_KAA_KAAHAAPAD@Z 100a5b10 f i ImfHuf.obj
 0002:00046ba0       ?hufDecode@?A0x15928e88@Imf@@YAXPB_KPBUHufDec@12@PBDHHHPAG@Z 100a5ba0 f   ImfHuf.obj
 0002:000473c0       ?countFrequencies@?A0x15928e88@Imf@@YAXQA_KQBGH@Z 100a63c0 f   ImfHuf.obj
 0002:00047490       ?writeUInt@?A0x15928e88@Imf@@YAXQADI@Z 100a6490 f   ImfHuf.obj
 0002:00047500       ?readUInt@?A0x15928e88@Imf@@YAIQBD@Z 100a6500 f   ImfHuf.obj
 0002:00047590       ?hufCompress@Imf@@YAHQBGHQAD@Z 100a6590 f   ImfHuf.obj
 0002:00047810       ?hufUncompress@Imf@@YAXQBDHQAGH@Z 100a6810 f   ImfHuf.obj
 0002:00047b00       ??0?$AutoArray@H$0BAAAB@@Imf@@QAE@XZ 100a6b00 f i ImfHuf.obj
 0002:00047b70       ??1?$AutoArray@H$0BAAAB@@Imf@@QAE@XZ 100a6b70 f i ImfHuf.obj
 0002:00047be0       ??B?$AutoArray@H$0BAAAB@@Imf@@QAEPAHXZ 100a6be0 f i ImfHuf.obj
 0002:00047c20       ??0?$AutoArray@PA_K$0BAAAB@@Imf@@QAE@XZ 100a6c20 f i ImfHuf.obj
 0002:00047c90       ??1?$AutoArray@PA_K$0BAAAB@@Imf@@QAE@XZ 100a6c90 f i ImfHuf.obj
 0002:00047d00       ??B?$AutoArray@PA_K$0BAAAB@@Imf@@QAEPAPA_KXZ 100a6d00 f i ImfHuf.obj
 0002:00047d40       ??0?$AutoArray@_K$0BAAAB@@Imf@@QAE@XZ 100a6d40 f i ImfHuf.obj
 0002:00047db0       ??1?$AutoArray@_K$0BAAAB@@Imf@@QAE@XZ 100a6db0 f i ImfHuf.obj
 0002:00047e20       ??B?$AutoArray@_K$0BAAAB@@Imf@@QAEPA_KXZ 100a6e20 f i ImfHuf.obj
 0002:00047e60       ??0?$AutoArray@UHufDec@?A0x15928e88@Imf@@$0EAAA@@Imf@@QAE@XZ 100a6e60 f i ImfHuf.obj
 0002:00047ed0       ??1?$AutoArray@UHufDec@?A0x15928e88@Imf@@$0EAAA@@Imf@@QAE@XZ 100a6ed0 f i ImfHuf.obj
 0002:00047f40       ??B?$AutoArray@UHufDec@?A0x15928e88@Imf@@$0EAAA@@Imf@@QAEPAUHufDec@?A0x15928e88@1@XZ 100a6f40 f i ImfHuf.obj
 0002:00047f80       ??$make_heap@PAPA_KUFHeapCompare@?A0x15928e88@Imf@@@std@@YAXPAPA_K0UFHeapCompare@?A0x15928e88@Imf@@@Z 100a6f80 f i ImfHuf.obj
 0002:00048020       ??$pop_heap@PAPA_KUFHeapCompare@?A0x15928e88@Imf@@@std@@YAXPAPA_K0UFHeapCompare@?A0x15928e88@Imf@@@Z 100a7020 f i ImfHuf.obj
 0002:000480d0       ??$push_heap@PAPA_KUFHeapCompare@?A0x15928e88@Imf@@@std@@YAXPAPA_K0UFHeapCompare@?A0x15928e88@Imf@@@Z 100a70d0 f i ImfHuf.obj
 0002:000481a0       ??$_Checked_base@PAPA_K@std@@YAPAPA_KAAPAPA_K@Z 100a71a0 f i ImfHuf.obj
 0002:00048230       ??$_Dist_type@PAPA_K@std@@YAPAHPAPA_K@Z 100a7230 f i ImfHuf.obj
 0002:00048260       ??$_Val_type@PAPA_K@std@@YAPAPA_KPAPA_K@Z 100a7260 f i ImfHuf.obj
 0002:00048290       ??$_Make_heap@PAPA_KHPA_KUFHeapCompare@?A0x15928e88@Imf@@@std@@YAXPAPA_K0UFHeapCompare@?A0x15928e88@Imf@@PAH0@Z 100a7290 f i ImfHuf.obj
 0002:00048330       ??$_Debug_heap@PAPA_KUFHeapCompare@?A0x15928e88@Imf@@@std@@YAXPAPA_K0UFHeapCompare@?A0x15928e88@Imf@@@Z 100a7330 f i ImfHuf.obj
 0002:000484c0       ??$_Pop_heap_0@PAPA_KPA_KUFHeapCompare@?A0x15928e88@Imf@@@std@@YAXPAPA_K0UFHeapCompare@?A0x15928e88@Imf@@0@Z 100a74c0 f i ImfHuf.obj
 0002:00048540       ??$_Push_heap_0@PAPA_KHPA_KUFHeapCompare@?A0x15928e88@Imf@@@std@@YAXPAPA_K0UFHeapCompare@?A0x15928e88@Imf@@PAH0@Z 100a7540 f i ImfHuf.obj
 0002:000485e0       ??$_Checked_base@PAPA_K@std@@YAPAPA_KAAPAPA_KU_Unchanged_checked_iterator_base_type_tag@0@@Z 100a75e0 f i ImfHuf.obj
 0002:00048620       ??$_Adjust_heap@PAPA_KHPA_KUFHeapCompare@?A0x15928e88@Imf@@@std@@YAXPAPA_KHHPA_KUFHeapCompare@?A0x15928e88@Imf@@@Z 100a7620 f i ImfHuf.obj
 0002:00048750       ??$_Debug_range@PAPA_K@std@@YAXPAPA_K0PB_WI@Z 100a7750 f i ImfHuf.obj
 0002:000487d0       ??$_Debug_pointer@UFHeapCompare@?A0x15928e88@Imf@@@std@@YAXAAUFHeapCompare@?A0x15928e88@Imf@@PB_WI@Z 100a77d0 f i ImfHuf.obj
 0002:00048800       ??$_Debug_lt_pred@UFHeapCompare@?A0x15928e88@Imf@@PA_KPA_K@std@@YA_NUFHeapCompare@?A0x15928e88@Imf@@AAPA_K1PB_WI@Z 100a7800 f i ImfHuf.obj
 0002:000488c0       ??RFHeapCompare@?A0x15928e88@Imf@@QAE_NPA_K0@Z 100a78c0 f i ImfHuf.obj
 0002:00048970       ??$_Pop_heap@PAPA_KHPA_KUFHeapCompare@?A0x15928e88@Imf@@@std@@YAXPAPA_K00PA_KUFHeapCompare@?A0x15928e88@Imf@@PAH@Z 100a7970 f i ImfHuf.obj
 0002:000489f0       ??$_Push_heap@PAPA_KHPA_KUFHeapCompare@?A0x15928e88@Imf@@@std@@YAXPAPA_KHHPA_KUFHeapCompare@?A0x15928e88@Imf@@@Z 100a79f0 f i ImfHuf.obj
 0002:00048ad0       ??$_Iter_cat@PAPA_K@std@@YA?AUrandom_access_iterator_tag@0@ABQAPA_K@Z 100a7ad0 f i ImfHuf.obj
 0002:00048b40       ??$_Debug_range2@PAPA_K@std@@YAXPAPA_K0PB_WIUrandom_access_iterator_tag@0@@Z 100a7b40 f i ImfHuf.obj
 0002:00048bf0       ??$_Debug_pointer@PA_K@std@@YAXPAPA_KPB_WI@Z 100a7bf0 f i ImfHuf.obj
 0002:00048c60       ??0Data@InputFile@Imf@@QAE@_NH@Z 100a7c60 f   ImfInputFile.obj
 0002:00048dc0       ??_GData@InputFile@Imf@@UAEPAXI@Z 100a7dc0 f i ImfInputFile.obj
 0002:00048dc0       ??_EData@InputFile@Imf@@UAEPAXI@Z 100a7dc0 f i ImfInputFile.obj
 0002:00048e30       ??0FrameBuffer@Imf@@QAE@XZ 100a7e30 f i ImfInputFile.obj
 0002:00048e90       ??1Data@InputFile@Imf@@UAE@XZ 100a7e90 f   ImfInputFile.obj
 0002:000490a0       ??1FrameBuffer@Imf@@QAE@XZ 100a80a0 f i ImfInputFile.obj
 0002:000490f0       ??1?$map@VName@Imf@@USlice@2@U?$less@VName@Imf@@@std@@V?$allocator@U?$pair@$$CBVName@Imf@@USlice@2@@std@@@5@@std@@QAE@XZ 100a80f0 f i ImfInputFile.obj
 0002:00049140       ?deleteCachedBuffer@Data@InputFile@Imf@@QAEXXZ 100a8140 f   ImfInputFile.obj
 0002:00049440       ??EIterator@FrameBuffer@Imf@@QAEAAV012@XZ 100a8440 f i ImfInputFile.obj
 0002:000494a0       ?slice@Iterator@FrameBuffer@Imf@@QBEAAUSlice@3@XZ 100a84a0 f i ImfInputFile.obj
 0002:00049500       ??0ConstIterator@FrameBuffer@Imf@@QAE@ABVIterator@12@@Z 100a8500 f i ImfInputFile.obj
 0002:00049560       ??9Imf@@YA_NABVConstIterator@FrameBuffer@0@0@Z 100a8560 f i ImfInputFile.obj
 0002:000495c0       ??8Imf@@YA_NABVConstIterator@FrameBuffer@0@0@Z 100a85c0 f i ImfInputFile.obj
 0002:00049610       ??_GFrameBuffer@Imf@@QAEPAXI@Z 100a8610 f i ImfInputFile.obj
 0002:00049680       ?bufferedReadPixels@?A0xc635d1bd@Imf@@YAXPAUData@InputFile@2@HH@Z 100a8680 f   ImfInputFile.obj
 0002:00049d90       ??EConstIterator@FrameBuffer@Imf@@QAEAAV012@XZ 100a8d90 f i ImfInputFile.obj
 0002:00049df0       ?name@ConstIterator@FrameBuffer@Imf@@QBEPBDXZ 100a8df0 f i ImfInputFile.obj
 0002:00049e50       ?slice@ConstIterator@FrameBuffer@Imf@@QBEABUSlice@3@XZ 100a8e50 f i ImfInputFile.obj
 0002:00049eb0       ?divp@Imath@@YAHHH@Z       100a8eb0 f i ImfInputFile.obj
 0002:00049f90       ?modp@Imath@@YAHHH@Z       100a8f90 f i ImfInputFile.obj
 0002:00049ff0       ??0InputFile@Imf@@QAE@QBDH@Z 100a8ff0 f   ImfInputFile.obj
 0002:0004a380       ??_GInputFile@Imf@@UAEPAXI@Z 100a9380 f i ImfInputFile.obj
 0002:0004a380       ??_EInputFile@Imf@@UAEPAXI@Z 100a9380 f i ImfInputFile.obj
 0002:0004a3f0       ??0InputFile@Imf@@QAE@AAVIStream@1@H@Z 100a93f0 f   ImfInputFile.obj
 0002:0004a700       ?initialize@InputFile@Imf@@AAEXXZ 100a9700 f   ImfInputFile.obj
 0002:0004a9a0       ?isTiled@Imf@@YA_NH@Z      100a99a0 f i ImfInputFile.obj
 0002:0004a9e0       ??1InputFile@Imf@@UAE@XZ   100a99e0 f   ImfInputFile.obj
 0002:0004aaa0       ?fileName@InputFile@Imf@@QBEPBDXZ 100a9aa0 f   ImfInputFile.obj
 0002:0004ab00       ?header@InputFile@Imf@@QBEABVHeader@2@XZ 100a9b00 f   ImfInputFile.obj
 0002:0004ab40       ?version@InputFile@Imf@@QBEHXZ 100a9b40 f   ImfInputFile.obj
 0002:0004ab80       ?setFrameBuffer@InputFile@Imf@@QAEXABVFrameBuffer@2@@Z 100a9b80 f   ImfInputFile.obj
 0002:0004b450       ??4FrameBuffer@Imf@@QAEAAV01@ABV01@@Z 100aa450 f i ImfInputFile.obj
 0002:0004b4b0       ??4?$map@VName@Imf@@USlice@2@U?$less@VName@Imf@@@std@@V?$allocator@U?$pair@$$CBVName@Imf@@USlice@2@@std@@@5@@std@@QAEAAV01@ABV01@@Z 100aa4b0 f i ImfInputFile.obj
 0002:0004b510       ?frameBuffer@InputFile@Imf@@QBEABVFrameBuffer@2@XZ 100aa510 f   ImfInputFile.obj
 0002:0004b600       ?isComplete@InputFile@Imf@@QBE_NXZ 100aa600 f   ImfInputFile.obj
 0002:0004b690       ?readPixels@InputFile@Imf@@QAEXHH@Z 100aa690 f   ImfInputFile.obj
 0002:0004b7d0       ?readPixels@InputFile@Imf@@QAEXH@Z 100aa7d0 f   ImfInputFile.obj
 0002:0004b830       ?rawPixelData@InputFile@Imf@@QAEXHAAPBDAAH@Z 100aa830 f   ImfInputFile.obj
 0002:0004bab0       ?rawTileData@InputFile@Imf@@QAEXAAH000AAPBD0@Z 100aaab0 f   ImfInputFile.obj
 0002:0004bd40       ?tFile@InputFile@Imf@@AAEPAVTiledInputFile@2@XZ 100aad40 f   ImfInputFile.obj
 0002:0004bde0       ??0?$map@VName@Imf@@USlice@2@U?$less@VName@Imf@@@std@@V?$allocator@U?$pair@$$CBVName@Imf@@USlice@2@@std@@@5@@std@@QAE@XZ 100aade0 f i ImfInputFile.obj
 0002:0004be50       ??1?$_Tree@V?$_Tmap_traits@VName@Imf@@USlice@2@U?$less@VName@Imf@@@std@@V?$allocator@U?$pair@$$CBVName@Imf@@USlice@2@@std@@@5@$0A@@std@@@std@@QAE@XZ 100aae50 f i ImfInputFile.obj
 0002:0004bef0       ??4?$_Tree@V?$_Tmap_traits@VName@Imf@@USlice@2@U?$less@VName@Imf@@@std@@V?$allocator@U?$pair@$$CBVName@Imf@@USlice@2@@std@@@5@$0A@@std@@@std@@QAEAAV01@ABV01@@Z 100aaef0 f i ImfInputFile.obj
 0002:0004c020       ??1?$_Tree_val@V?$_Tmap_traits@VName@Imf@@USlice@2@U?$less@VName@Imf@@@std@@V?$allocator@U?$pair@$$CBVName@Imf@@USlice@2@@std@@@5@$0A@@std@@@std@@QAE@XZ 100ab020 f i ImfInputFile.obj
 0002:0004c070       ??1?$_Tree_ptr@V?$_Tmap_traits@VName@Imf@@USlice@2@U?$less@VName@Imf@@@std@@V?$allocator@U?$pair@$$CBVName@Imf@@USlice@2@@std@@@5@$0A@@std@@@std@@QAE@XZ 100ab070 f i ImfInputFile.obj
 0002:0004c0c0       ??1?$_Tree_nod@V?$_Tmap_traits@VName@Imf@@USlice@2@U?$less@VName@Imf@@@std@@V?$allocator@U?$pair@$$CBVName@Imf@@USlice@2@@std@@@5@$0A@@std@@@std@@QAE@XZ 100ab0c0 f i ImfInputFile.obj
 0002:0004c110       ??1?$_Tmap_traits@VName@Imf@@USlice@2@U?$less@VName@Imf@@@std@@V?$allocator@U?$pair@$$CBVName@Imf@@USlice@2@@std@@@5@$0A@@std@@QAE@XZ 100ab110 f i ImfInputFile.obj
 0002:0004c170       ??0?$_Tree@V?$_Tmap_traits@VName@Imf@@USlice@2@U?$less@VName@Imf@@@std@@V?$allocator@U?$pair@$$CBVName@Imf@@USlice@2@@std@@@5@$0A@@std@@@std@@QAE@ABU?$less@VName@Imf@@@1@ABV?$allocator@U?$pair@$$CBVName@Imf@@USlice@2@@std@@@1@@Z 100ab170 f i ImfInputFile.obj
 0002:0004c230       ?erase@?$_Tree@V?$_Tmap_traits@VName@Imf@@USlice@2@U?$less@VName@Imf@@@std@@V?$allocator@U?$pair@$$CBVName@Imf@@USlice@2@@std@@@5@$0A@@std@@@std@@QAE?AViterator@12@V312@0@Z 100ab230 f i ImfInputFile.obj
 0002:0004c540       ?_Copy@?$_Tree@V?$_Tmap_traits@VName@Imf@@USlice@2@U?$less@VName@Imf@@@std@@V?$allocator@U?$pair@$$CBVName@Imf@@USlice@2@@std@@@5@$0A@@std@@@std@@IAEXABV12@@Z 100ab540 f i ImfInputFile.obj
 0002:0004c660       ?_Tidy@?$_Tree@V?$_Tmap_traits@VName@Imf@@USlice@2@U?$less@VName@Imf@@@std@@V?$allocator@U?$pair@$$CBVName@Imf@@USlice@2@@std@@@5@$0A@@std@@@std@@IAEXXZ 100ab660 f i ImfInputFile.obj
 0002:0004c800       ??0?$allocator@U?$pair@$$CBVName@Imf@@USlice@2@@std@@@std@@QAE@XZ 100ab800 f i ImfInputFile.obj
 0002:0004c840       ?erase@?$_Tree@V?$_Tmap_traits@VName@Imf@@USlice@2@U?$less@VName@Imf@@@std@@V?$allocator@U?$pair@$$CBVName@Imf@@USlice@2@@std@@@5@$0A@@std@@@std@@QAE?AViterator@12@V312@@Z 100ab840 f i ImfInputFile.obj
 0002:0004d280       ?clear@?$_Tree@V?$_Tmap_traits@VName@Imf@@USlice@2@U?$less@VName@Imf@@@std@@V?$allocator@U?$pair@$$CBVName@Imf@@USlice@2@@std@@@5@$0A@@std@@@std@@QAEXXZ 100ac280 f i ImfInputFile.obj
 0002:0004d340       ?_Copy@?$_Tree@V?$_Tmap_traits@VName@Imf@@USlice@2@U?$less@VName@Imf@@@std@@V?$allocator@U?$pair@$$CBVName@Imf@@USlice@2@@std@@@5@$0A@@std@@@std@@IAEPAU_Node@?$_Tree_nod@V?$_Tmap_traits@VName@Imf@@USlice@2@U?$less@VName@Imf@@@std@@V?$allocator@U?$pair@$$CBVName@Imf@@USlice@2@@std@@@5@$0A@@std@@@2@PAU342@0@Z 100ac340 f i ImfInputFile.obj
 0002:0004d550       ?_Init@?$_Tree@V?$_Tmap_traits@VName@Imf@@USlice@2@U?$less@VName@Imf@@@std@@V?$allocator@U?$pair@$$CBVName@Imf@@USlice@2@@std@@@5@$0A@@std@@@std@@IAEXXZ 100ac550 f i ImfInputFile.obj
 0002:0004d610       ??0?$_Tree_val@V?$_Tmap_traits@VName@Imf@@USlice@2@U?$less@VName@Imf@@@std@@V?$allocator@U?$pair@$$CBVName@Imf@@USlice@2@@std@@@5@$0A@@std@@@std@@IAE@ABU?$less@VName@Imf@@@1@V?$allocator@U?$pair@$$CBVName@Imf@@USlice@2@@std@@@1@@Z 100ac610 f i ImfInputFile.obj
 0002:0004d6a0       ??0?$allocator@U?$pair@$$CBVName@Imf@@USlice@2@@std@@@std@@QAE@ABV01@@Z 100ac6a0 f i ImfInputFile.obj
 0002:0004d6e0       ?destroy@?$allocator@PAU_Node@?$_Tree_nod@V?$_Tmap_traits@VName@Imf@@USlice@2@U?$less@VName@Imf@@@std@@V?$allocator@U?$pair@$$CBVName@Imf@@USlice@2@@std@@@5@$0A@@std@@@std@@@std@@QAEXPAPAU_Node@?$_Tree_nod@V?$_Tmap_traits@VName@Imf@@USlice@2@U?$less@VName@Imf@@@std@@V?$allocator@U?$pair@$$CBVName@Imf@@USlice@2@@std@@@5@$0A@@std@@@2@@Z 100ac6e0 f i ImfInputFile.obj
 0002:0004d740       ??Eiterator@?$_Tree@V?$_Tmap_traits@VName@Imf@@USlice@2@U?$less@VName@Imf@@@std@@V?$allocator@U?$pair@$$CBVName@Imf@@USlice@2@@std@@@5@$0A@@std@@@std@@QAE?AV012@H@Z 100ac740 f i ImfInputFile.obj
 0002:0004d860       ??9const_iterator@?$_Tree@V?$_Tmap_traits@VName@Imf@@USlice@2@U?$less@VName@Imf@@@std@@V?$allocator@U?$pair@$$CBVName@Imf@@USlice@2@@std@@@5@$0A@@std@@@std@@QBE_NABV012@@Z 100ac860 f i ImfInputFile.obj
 0002:0004d8d0       ?_Erase@?$_Tree@V?$_Tmap_traits@VName@Imf@@USlice@2@U?$less@VName@Imf@@@std@@V?$allocator@U?$pair@$$CBVName@Imf@@USlice@2@@std@@@5@$0A@@std@@@std@@IAEXPAU_Node@?$_Tree_nod@V?$_Tmap_traits@VName@Imf@@USlice@2@U?$less@VName@Imf@@@std@@V?$allocator@U?$pair@$$CBVName@Imf@@USlice@2@@std@@@5@$0A@@std@@@2@@Z 100ac8d0 f i ImfInputFile.obj
 0002:0004d9a0       ?_Orphan_ptr@?$_Tree@V?$_Tmap_traits@VName@Imf@@USlice@2@U?$less@VName@Imf@@@std@@V?$allocator@U?$pair@$$CBVName@Imf@@USlice@2@@std@@@5@$0A@@std@@@std@@IBEXAAV12@PAU_Node@?$_Tree_nod@V?$_Tmap_traits@VName@Imf@@USlice@2@U?$less@VName@Imf@@@std@@V?$allocator@U?$pair@$$CBVName@Imf@@USlice@2@@std@@@5@$0A@@std@@@2@@Z 100ac9a0 f i ImfInputFile.obj
 0002:0004dac0       ?_Buynode@?$_Tree@V?$_Tmap_traits@VName@Imf@@USlice@2@U?$less@VName@Imf@@@std@@V?$allocator@U?$pair@$$CBVName@Imf@@USlice@2@@std@@@5@$0A@@std@@@std@@IAEPAU_Node@?$_Tree_nod@V?$_Tmap_traits@VName@Imf@@USlice@2@U?$less@VName@Imf@@@std@@V?$allocator@U?$pair@$$CBVName@Imf@@USlice@2@@std@@@5@$0A@@std@@@2@XZ 100acac0 f i ImfInputFile.obj
 0002:0004dcf0       ??0?$_Tree_ptr@V?$_Tmap_traits@VName@Imf@@USlice@2@U?$less@VName@Imf@@@std@@V?$allocator@U?$pair@$$CBVName@Imf@@USlice@2@@std@@@5@$0A@@std@@@std@@QAE@ABU?$less@VName@Imf@@@1@V?$allocator@U?$pair@$$CBVName@Imf@@USlice@2@@std@@@1@@Z 100accf0 f i ImfInputFile.obj
 0002:0004dd80       ?destroy@?$allocator@U_Node@?$_Tree_nod@V?$_Tmap_traits@VName@Imf@@USlice@2@U?$less@VName@Imf@@@std@@V?$allocator@U?$pair@$$CBVName@Imf@@USlice@2@@std@@@5@$0A@@std@@@std@@@std@@QAEXPAU_Node@?$_Tree_nod@V?$_Tmap_traits@VName@Imf@@USlice@2@U?$less@VName@Imf@@@std@@V?$allocator@U?$pair@$$CBVName@Imf@@USlice@2@@std@@@5@$0A@@std@@@2@@Z 100acd80 f i ImfInputFile.obj
 0002:0004dde0       ??0?$_Tree_nod@V?$_Tmap_traits@VName@Imf@@USlice@2@U?$less@VName@Imf@@@std@@V?$allocator@U?$pair@$$CBVName@Imf@@USlice@2@@std@@@5@$0A@@std@@@std@@IAE@ABU?$less@VName@Imf@@@1@V?$allocator@U?$pair@$$CBVName@Imf@@USlice@2@@std@@@1@@Z 100acde0 f i ImfInputFile.obj
 0002:0004de50       ?construct@?$allocator@PAU_Node@?$_Tree_nod@V?$_Tmap_traits@VName@Imf@@USlice@2@U?$less@VName@Imf@@@std@@V?$allocator@U?$pair@$$CBVName@Imf@@USlice@2@@std@@@5@$0A@@std@@@std@@@std@@QAEXPAPAU_Node@?$_Tree_nod@V?$_Tmap_traits@VName@Imf@@USlice@2@U?$less@VName@Imf@@@std@@V?$allocator@U?$pair@$$CBVName@Imf@@USlice@2@@std@@@5@$0A@@std@@@2@ABQAU342@@Z 100ace50 f i ImfInputFile.obj
 0002:0004deb0       ??0?$_Tmap_traits@VName@Imf@@USlice@2@U?$less@VName@Imf@@@std@@V?$allocator@U?$pair@$$CBVName@Imf@@USlice@2@@std@@@5@$0A@@std@@QAE@U?$less@VName@Imf@@@1@@Z 100aceb0 f i ImfInputFile.obj
 0002:0004df20       ??$max@H@std@@YAABHABH0@Z  100acf20 f i ImfInputFile.obj
 0002:0004dfc0       ??$_Destroy@PAU_Node@?$_Tree_nod@V?$_Tmap_traits@VName@Imf@@USlice@2@U?$less@VName@Imf@@@std@@V?$allocator@U?$pair@$$CBVName@Imf@@USlice@2@@std@@@5@$0A@@std@@@std@@@std@@YAXPAPAU_Node@?$_Tree_nod@V?$_Tmap_traits@VName@Imf@@USlice@2@U?$less@VName@Imf@@@std@@V?$allocator@U?$pair@$$CBVName@Imf@@USlice@2@@std@@@5@$0A@@std@@@0@@Z 100acfc0 f i ImfInputFile.obj
 0002:0004dff0       ??$?0U?$pair@$$CBVName@Imf@@USlice@2@@std@@@?$allocator@PAU_Node@?$_Tree_nod@V?$_Tmap_traits@VName@Imf@@USlice@2@U?$less@VName@Imf@@@std@@V?$allocator@U?$pair@$$CBVName@Imf@@USlice@2@@std@@@5@$0A@@std@@@std@@@std@@QAE@ABV?$allocator@U?$pair@$$CBVName@Imf@@USlice@2@@std@@@1@@Z 100acff0 f i ImfInputFile.obj
 0002:0004e030       ??$_Destroy@U_Node@?$_Tree_nod@V?$_Tmap_traits@VName@Imf@@USlice@2@U?$less@VName@Imf@@@std@@V?$allocator@U?$pair@$$CBVName@Imf@@USlice@2@@std@@@5@$0A@@std@@@std@@@std@@YAXPAU_Node@?$_Tree_nod@V?$_Tmap_traits@VName@Imf@@USlice@2@U?$less@VName@Imf@@@std@@V?$allocator@U?$pair@$$CBVName@Imf@@USlice@2@@std@@@5@$0A@@std@@@0@@Z 100ad030 f i ImfInputFile.obj
 0002:0004e060       ??$?0U?$pair@$$CBVName@Imf@@USlice@2@@std@@@?$allocator@U_Node@?$_Tree_nod@V?$_Tmap_traits@VName@Imf@@USlice@2@U?$less@VName@Imf@@@std@@V?$allocator@U?$pair@$$CBVName@Imf@@USlice@2@@std@@@5@$0A@@std@@@std@@@std@@QAE@ABV?$allocator@U?$pair@$$CBVName@Imf@@USlice@2@@std@@@1@@Z 100ad060 f i ImfInputFile.obj
 0002:0004e0a0       ??$_Construct@PAU_Node@?$_Tree_nod@V?$_Tmap_traits@VName@Imf@@USlice@2@U?$less@VName@Imf@@@std@@V?$allocator@U?$pair@$$CBVName@Imf@@USlice@2@@std@@@5@$0A@@std@@@std@@PAU123@@std@@YAXPAPAU_Node@?$_Tree_nod@V?$_Tmap_traits@VName@Imf@@USlice@2@U?$less@VName@Imf@@@std@@V?$allocator@U?$pair@$$CBVName@Imf@@USlice@2@@std@@@5@$0A@@std@@@0@ABQAU120@@Z 100ad0a0 f i ImfInputFile.obj
 0002:0004e140       ?staticTypeName@?$TypedAttribute@H@Imf@@SAPBDXZ 100ad140 f   ImfIntAttribute.obj
 0002:0004e180       ??0IStream@Imf@@IAE@QBD@Z  100ad180 f   ImfIO.obj
 0002:0004e200       ??_GIStream@Imf@@UAEPAXI@Z 100ad200 f i ImfIO.obj
 0002:0004e200       ??_EIStream@Imf@@UAEPAXI@Z 100ad200 f i ImfIO.obj
 0002:0004e270       ??1IStream@Imf@@UAE@XZ     100ad270 f   ImfIO.obj
 0002:0004e2e0       ?isMemoryMapped@IStream@Imf@@UBE_NXZ 100ad2e0 f   ImfIO.obj
 0002:0004e320       ?readMemoryMapped@IStream@Imf@@UAEPADH@Z 100ad320 f   ImfIO.obj
 0002:0004e3a0       ?clear@IStream@Imf@@UAEXXZ 100ad3a0 f   ImfIO.obj
 0002:0004e3e0       ?fileName@IStream@Imf@@QBEPBDXZ 100ad3e0 f   ImfIO.obj
 0002:0004e440       ??0OStream@Imf@@IAE@QBD@Z  100ad440 f   ImfIO.obj
 0002:0004e4c0       ??_GOStream@Imf@@UAEPAXI@Z 100ad4c0 f i ImfIO.obj
 0002:0004e4c0       ??_EOStream@Imf@@UAEPAXI@Z 100ad4c0 f i ImfIO.obj
 0002:0004e530       ??1OStream@Imf@@UAE@XZ     100ad530 f   ImfIO.obj
 0002:0004e5a0       ?fileName@OStream@Imf@@QBEPBDXZ 100ad5a0 f   ImfIO.obj
 0002:0004e600       ??0KeyCode@Imf@@QAE@HHHHHHH@Z 100ad600 f   ImfKeyCode.obj
 0002:0004e6c0       ??0KeyCode@Imf@@QAE@ABV01@@Z 100ad6c0 f   ImfKeyCode.obj
 0002:0004e770       ??4KeyCode@Imf@@QAEAAV01@ABV01@@Z 100ad770 f   ImfKeyCode.obj
 0002:0004e820       ?filmMfcCode@KeyCode@Imf@@QBEHXZ 100ad820 f   ImfKeyCode.obj
 0002:0004e860       ?setFilmMfcCode@KeyCode@Imf@@QAEXH@Z 100ad860 f   ImfKeyCode.obj
 0002:0004e8f0       ?filmType@KeyCode@Imf@@QBEHXZ 100ad8f0 f   ImfKeyCode.obj
 0002:0004e930       ?setFilmType@KeyCode@Imf@@QAEXH@Z 100ad930 f   ImfKeyCode.obj
 0002:0004e9c0       ?prefix@KeyCode@Imf@@QBEHXZ 100ad9c0 f   ImfKeyCode.obj
 0002:0004ea00       ?setPrefix@KeyCode@Imf@@QAEXH@Z 100ada00 f   ImfKeyCode.obj
 0002:0004ea90       ?count@KeyCode@Imf@@QBEHXZ 100ada90 f   ImfKeyCode.obj
 0002:0004ead0       ?setCount@KeyCode@Imf@@QAEXH@Z 100adad0 f   ImfKeyCode.obj
 0002:0004eb60       ?perfOffset@KeyCode@Imf@@QBEHXZ 100adb60 f   ImfKeyCode.obj
 0002:0004eba0       ?setPerfOffset@KeyCode@Imf@@QAEXH@Z 100adba0 f   ImfKeyCode.obj
 0002:0004ec30       ?perfsPerFrame@KeyCode@Imf@@QBEHXZ 100adc30 f   ImfKeyCode.obj
 0002:0004ec70       ?setPerfsPerFrame@KeyCode@Imf@@QAEXH@Z 100adc70 f   ImfKeyCode.obj
 0002:0004ed00       ?perfsPerCount@KeyCode@Imf@@QBEHXZ 100add00 f   ImfKeyCode.obj
 0002:0004ed40       ?setPerfsPerCount@KeyCode@Imf@@QAEXH@Z 100add40 f   ImfKeyCode.obj
 0002:0004edd0       ?staticTypeName@?$TypedAttribute@VKeyCode@Imf@@@Imf@@SAPBDXZ 100addd0 f   ImfKeyCodeAttribute.obj
 0002:0004ee10       ?writeValueTo@?$TypedAttribute@VKeyCode@Imf@@@Imf@@UBEXAAVOStream@2@H@Z 100ade10 f   ImfKeyCodeAttribute.obj
 0002:0004ef30       ?readValueFrom@?$TypedAttribute@VKeyCode@Imf@@@Imf@@UAEXAAVIStream@2@HH@Z 100adf30 f   ImfKeyCodeAttribute.obj
 0002:0004f0c0       ?staticTypeName@?$TypedAttribute@W4LineOrder@Imf@@@Imf@@SAPBDXZ 100ae0c0 f   ImfLineOrderAttribute.obj
 0002:0004f100       ?writeValueTo@?$TypedAttribute@W4LineOrder@Imf@@@Imf@@UBEXAAVOStream@2@H@Z 100ae100 f   ImfLineOrderAttribute.obj
 0002:0004f170       ?readValueFrom@?$TypedAttribute@W4LineOrder@Imf@@@Imf@@UAEXAAVIStream@2@HH@Z 100ae170 f   ImfLineOrderAttribute.obj
 0002:0004f210       ?apply@HalfLut@Imf@@QBEXPAVhalf@@HH@Z 100ae210 f   ImfLut.obj
 0002:0004f2b0       ?apply@HalfLut@Imf@@QBEXABUSlice@2@ABV?$Box@V?$Vec2@H@Imath@@@Imath@@@Z 100ae2b0 f   ImfLut.obj
 0002:0004f540       ?apply@RgbaLut@Imf@@QBEXPAURgba@2@HH@Z 100ae540 f   ImfLut.obj
 0002:0004f6c0       ?apply@RgbaLut@Imf@@QBEXPAURgba@2@HHABV?$Box@V?$Vec2@H@Imath@@@Imath@@@Z 100ae6c0 f   ImfLut.obj
 0002:0004f8c0       ?round12log@Imf@@YA?AVhalf@@V2@@Z 100ae8c0 f   ImfLut.obj
 0002:0004fa60       ?log@@YAMM@Z               100aea60 f i ImfLut.obj
 0002:0004fac0       _logf                      100aeac0 f i ImfLut.obj
 0002:0004fb30       ??R?$halfFunction@Vhalf@@@@QBE?AVhalf@@V1@@Z 100aeb30 f i ImfLut.obj
 0002:0004fba0       ?staticTypeName@?$TypedAttribute@V?$Matrix33@M@Imath@@@Imf@@SAPBDXZ 100aeba0 f   ImfMatrixAttribute.obj
 0002:0004fbe0       ?writeValueTo@?$TypedAttribute@V?$Matrix33@M@Imath@@@Imf@@UBEXAAVOStream@2@H@Z 100aebe0 f   ImfMatrixAttribute.obj
 0002:0004fd90       ?readValueFrom@?$TypedAttribute@V?$Matrix33@M@Imath@@@Imf@@UAEXAAVIStream@2@HH@Z 100aed90 f   ImfMatrixAttribute.obj
 0002:0004ff20       ?staticTypeName@?$TypedAttribute@V?$Matrix44@M@Imath@@@Imf@@SAPBDXZ 100aef20 f   ImfMatrixAttribute.obj
 0002:0004ff60       ?writeValueTo@?$TypedAttribute@V?$Matrix44@M@Imath@@@Imf@@UBEXAAVOStream@2@H@Z 100aef60 f   ImfMatrixAttribute.obj
 0002:00050230       ?readValueFrom@?$TypedAttribute@V?$Matrix44@M@Imath@@@Imf@@UAEXAAVIStream@2@HH@Z 100af230 f   ImfMatrixAttribute.obj
 0002:000504b0       ??A?$Matrix33@M@Imath@@QAEPAMH@Z 100af4b0 f i ImfMatrixAttribute.obj
 0002:00050500       ?pixelTypeSize@Imf@@YAHW4PixelType@1@@Z 100af500 f   ImfMisc.obj
 0002:000505c0       ??$size@I@Xdr@Imf@@YAHXZ   100af5c0 f i ImfMisc.obj
 0002:00050600       ??$size@M@Xdr@Imf@@YAHXZ   100af600 f i ImfMisc.obj
 0002:00050640       ??$size@Vhalf@@@Xdr@Imf@@YAHXZ 100af640 f i ImfMisc.obj
 0002:00050680       ?bytesPerLineTable@Imf@@YAIABVHeader@1@AAV?$vector@IV?$allocator@I@std@@@std@@@Z 100af680 f   ImfMisc.obj
 0002:00050960       ?offsetInLineBufferTable@Imf@@YAXABV?$vector@IV?$allocator@I@std@@@std@@HAAV23@@Z 100af960 f   ImfMisc.obj
 0002:00050a30       ?lineBufferMinY@Imf@@YAHHHH@Z 100afa30 f   ImfMisc.obj
 0002:00050a80       ?lineBufferMaxY@Imf@@YAHHHH@Z 100afa80 f   ImfMisc.obj
 0002:00050ae0       ?defaultFormat@Imf@@YA?AW4Format@Compressor@1@PAV31@@Z 100afae0 f   ImfMisc.obj
 0002:00050b60       ?numLinesInBuffer@Imf@@YAHPAVCompressor@1@@Z 100afb60 f   ImfMisc.obj
 0002:00050be0       ?copyIntoFrameBuffer@Imf@@YAXAAPBDPAD1I_NNW4Format@Compressor@1@W4PixelType@1@4@Z 100afbe0 f   ImfMisc.obj
 0002:00051870       ?skipChannel@Imf@@YAXAAPBDW4PixelType@1@I@Z 100b0870 f   ImfMisc.obj
 0002:00051970       ?convertInPlace@Imf@@YAXAAPADAAPBDW4PixelType@1@I@Z 100b0970 f   ImfMisc.obj
 0002:00051b10       ?copyFromFrameBuffer@Imf@@YAXAAPADAAPBDPBDIW4Format@Compressor@1@W4PixelType@1@@Z 100b0b10 f   ImfMisc.obj
 0002:00051e00       ?fillChannelWithZeroes@Imf@@YAXAAPADW4Format@Compressor@1@W4PixelType@1@I@Z 100b0e00 f   ImfMisc.obj
 0002:00052110       ?resize@?$vector@IV?$allocator@I@std@@@std@@QAEXI@Z 100b1110 f i ImfMisc.obj
 0002:00052170       ?size@?$vector@IV?$allocator@I@std@@@std@@QBEIXZ 100b1170 f i ImfMisc.obj
 0002:000521e0       ??A?$vector@IV?$allocator@I@std@@@std@@QBEABII@Z 100b11e0 f i ImfMisc.obj
 0002:00052360       ??A?$vector@IV?$allocator@I@std@@@std@@QAEAAII@Z 100b1360 f i ImfMisc.obj
 0002:000524e0       ?resize@?$vector@IV?$allocator@I@std@@@std@@QAEXII@Z 100b14e0 f i ImfMisc.obj
 0002:000526a0       ??1?$_Vector_iterator@IV?$allocator@I@std@@@std@@QAE@XZ 100b16a0 f i ImfMisc.obj
 0002:000526f0       ??1?$_Vector_const_iterator@IV?$allocator@I@std@@@std@@QAE@XZ 100b16f0 f i ImfMisc.obj
 0002:00052740       ??1?$_Ranit@IHPBIABI@std@@QAE@XZ 100b1740 f i ImfMisc.obj
 0002:00052790       ?begin@?$vector@IV?$allocator@I@std@@@std@@QAE?AV?$_Vector_iterator@IV?$allocator@I@std@@@2@XZ 100b1790 f i ImfMisc.obj
 0002:00052820       ?end@?$vector@IV?$allocator@I@std@@@std@@QAE?AV?$_Vector_iterator@IV?$allocator@I@std@@@2@XZ 100b1820 f i ImfMisc.obj
 0002:000528b0       ?erase@?$vector@IV?$allocator@I@std@@@std@@QAE?AV?$_Vector_iterator@IV?$allocator@I@std@@@2@V32@0@Z 100b18b0 f i ImfMisc.obj
 0002:00052a70       ?_Insert_n@?$vector@IV?$allocator@I@std@@@std@@IAEXV?$_Vector_iterator@IV?$allocator@I@std@@@2@IABI@Z 100b1a70 f i ImfMisc.obj
 0002:00052fa0       ??H?$_Vector_iterator@IV?$allocator@I@std@@@std@@QBE?AV01@H@Z 100b1fa0 f i ImfMisc.obj
 0002:000530c0       ??0?$_Vector_iterator@IV?$allocator@I@std@@@std@@QAE@ABV01@@Z 100b20c0 f i ImfMisc.obj
 0002:00053120       ??0?$_Vector_const_iterator@IV?$allocator@I@std@@@std@@QAE@ABV01@@Z 100b2120 f i ImfMisc.obj
 0002:00053190       ??0?$_Ranit@IHPBIABI@std@@QAE@ABU01@@Z 100b2190 f i ImfMisc.obj
 0002:000531f0       ?capacity@?$vector@IV?$allocator@I@std@@@std@@QBEIXZ 100b21f0 f i ImfMisc.obj
 0002:00053260       ?max_size@?$vector@IV?$allocator@I@std@@@std@@QBEIXZ 100b2260 f i ImfMisc.obj
 0002:000532c0       ?_Destroy@?$vector@IV?$allocator@I@std@@@std@@IAEXPAI0@Z 100b22c0 f i ImfMisc.obj
 0002:00053330       ?_Ufill@?$vector@IV?$allocator@I@std@@@std@@IAEPAIPAIIABI@Z 100b2330 f i ImfMisc.obj
 0002:000533b0       ?_Xlen@?$vector@IV?$allocator@I@std@@@std@@KAXXZ 100b23b0 f i ImfMisc.obj
 0002:000534a0       ?_Orphan_range@?$vector@IV?$allocator@I@std@@@std@@IBEXPAI0@Z 100b24a0 f i ImfMisc.obj
 0002:000535b0       ?deallocate@?$allocator@I@std@@QAEXPAII@Z 100b25b0 f i ImfMisc.obj
 0002:00053610       ?allocate@?$allocator@I@std@@QAEPAII@Z 100b2610 f i ImfMisc.obj
 0002:00053670       ??0?$_Vector_iterator@IV?$allocator@I@std@@@std@@QAE@PAIPBV_Container_base@1@@Z 100b2670 f i ImfMisc.obj
 0002:000536d0       ??Y?$_Vector_iterator@IV?$allocator@I@std@@@std@@QAEAAV01@H@Z 100b26d0 f i ImfMisc.obj
 0002:00053730       ??9?$_Vector_const_iterator@IV?$allocator@I@std@@@std@@QBE_NABV01@@Z 100b2730 f i ImfMisc.obj
 0002:000537a0       ??M?$_Vector_const_iterator@IV?$allocator@I@std@@@std@@QBE_NABV01@@Z 100b27a0 f i ImfMisc.obj
 0002:00053810       ?max_size@?$allocator@I@std@@QBEIXZ 100b2810 f i ImfMisc.obj
 0002:00053880       ??0?$_Vector_const_iterator@IV?$allocator@I@std@@@std@@QAE@PAIPBV_Container_base@1@@Z 100b2880 f i ImfMisc.obj
 0002:000539c0       ??Y?$_Vector_const_iterator@IV?$allocator@I@std@@@std@@QAEAAV01@H@Z 100b29c0 f i ImfMisc.obj
 0002:00053b40       ??8?$_Vector_const_iterator@IV?$allocator@I@std@@@std@@QBE_NABV01@@Z 100b2b40 f i ImfMisc.obj
 0002:00053bb0       ?_Compat@?$_Vector_const_iterator@IV?$allocator@I@std@@@std@@QBEXABV12@@Z 100b2bb0 f i ImfMisc.obj
 0002:00053cb0       ??0?$_Ranit@IHPBIABI@std@@QAE@XZ 100b2cb0 f i ImfMisc.obj
 0002:00053d10       ??$read@UCharPtrIO@Imf@@PBD@Xdr@Imf@@YAXAAPBDAAVhalf@@@Z 100b2d10 f i ImfMisc.obj
 0002:00053dc0       ??$read@UCharPtrIO@Imf@@PBD@Xdr@Imf@@YAXAAPBDAAM@Z 100b2dc0 f i ImfMisc.obj
 0002:00053eb0       ??$read@UCharPtrIO@Imf@@PBD@Xdr@Imf@@YAXAAPBDAAI@Z 100b2eb0 f i ImfMisc.obj
 0002:00053f80       ??$skip@UCharPtrIO@Imf@@PBD@Xdr@Imf@@YAXAAPBDH@Z 100b2f80 f i ImfMisc.obj
 0002:00054080       ?readChars@CharPtrIO@Imf@@SA_NAAPBDQADH@Z 100b3080 f i ImfMisc.obj
 0002:00054100       ??$write@UCharPtrIO@Imf@@PAD@Xdr@Imf@@YAXAAPADVhalf@@@Z 100b3100 f i ImfMisc.obj
 0002:000541b0       ??$write@UCharPtrIO@Imf@@PAD@Xdr@Imf@@YAXAAPADM@Z 100b31b0 f i ImfMisc.obj
 0002:00054280       ??$write@UCharPtrIO@Imf@@PAD@Xdr@Imf@@YAXAAPADI@Z 100b3280 f i ImfMisc.obj
 0002:00054340       ??$unchecked_copy@PAIPAI@stdext@@YAPAIPAI00@Z 100b3340 f i ImfMisc.obj
 0002:00054410       ??$_Umove@PAI@?$vector@IV?$allocator@I@std@@@std@@IAEPAIPAI00@Z 100b3410 f i ImfMisc.obj
 0002:00054480       ??$fill@PAII@std@@YAXPAI0ABI@Z 100b3480 f i ImfMisc.obj
 0002:000544f0       ??$_Unchecked_move_backward@PAIPAI@stdext@@YAPAIPAI00@Z 100b34f0 f i ImfMisc.obj
 0002:000545b0       ??$_Destroy_range@IV?$allocator@I@std@@@std@@YAXPAI0AAV?$allocator@I@0@@Z 100b35b0 f i ImfMisc.obj
 0002:00054630       ??$unchecked_uninitialized_fill_n@PAIIIV?$allocator@I@std@@@stdext@@YAXPAIIABIAAV?$allocator@I@std@@@Z 100b3630 f i ImfMisc.obj
 0002:000546d0       ??$_Allocate@I@std@@YAPAIIPAI@Z 100b36d0 f i ImfMisc.obj
 0002:00054770       ??$readUnsignedChars@UCharPtrIO@Imf@@PBD@Xdr@Imf@@YAXAAPBDQAEH@Z 100b3770 f i ImfMisc.obj
 0002:000547d0       ??$writeUnsignedChars@UCharPtrIO@Imf@@PAD@Xdr@Imf@@YAXAAPADQBEH@Z 100b37d0 f i ImfMisc.obj
 0002:00054830       ?writeChars@CharPtrIO@Imf@@SAXAAPADQBDH@Z 100b3830 f i ImfMisc.obj
 0002:000548b0       ??$_Checked_base@PAI@std@@YAPAIAAPAI@Z 100b38b0 f i ImfMisc.obj
 0002:00054940       ??$_Iter_random@PAIPAI@std@@YA?AUrandom_access_iterator_tag@0@ABQAI0@Z 100b3940 f i ImfMisc.obj
 0002:000549b0       ??$_Ptr_cat@PAIPAI@std@@YA?AU_Scalar_ptr_iterator_tag@0@AAPAI0@Z 100b39b0 f i ImfMisc.obj
 0002:00054a20       ??$_Copy_opt@PAIPAIUrandom_access_iterator_tag@std@@@std@@YAPAIPAI00Urandom_access_iterator_tag@0@U_Scalar_ptr_iterator_tag@0@U_Range_checked_iterator_tag@0@@Z 100b3a20 f i ImfMisc.obj
 0002:00054b00       ??$_Unchecked_uninitialized_move@PAIPAIV?$allocator@I@std@@@stdext@@YAPAIPAI00AAV?$allocator@I@std@@@Z 100b3b00 f i ImfMisc.obj
 0002:00054bb0       ??$_Fill@PAII@std@@YAXPAI0ABI@Z 100b3bb0 f i ImfMisc.obj
 0002:00054c40       ??$_Move_cat@PAI@std@@YA?AU_Undefined_move_tag@0@ABQAI@Z 100b3c40 f i ImfMisc.obj
 0002:00054cb0       ??$_Move_backward_opt@PAIPAIUrandom_access_iterator_tag@std@@U_Undefined_move_tag@2@@std@@YAPAIPAI00Urandom_access_iterator_tag@0@U_Undefined_move_tag@0@U_Range_checked_iterator_tag@0@@Z 100b3cb0 f i ImfMisc.obj
 0002:00054d50       ??$_Destroy_range@IV?$allocator@I@std@@@std@@YAXPAI0AAV?$allocator@I@0@U_Scalar_ptr_iterator_tag@0@@Z 100b3d50 f i ImfMisc.obj
 0002:00054d80       ??$_Uninit_fill_n@PAIIIV?$allocator@I@std@@@std@@YAXPAIIABIAAV?$allocator@I@0@U_Scalar_ptr_iterator_tag@0@U_Range_checked_iterator_tag@0@@Z 100b3d80 f i ImfMisc.obj
 0002:00054de0       ??$_Checked_base@PAI@std@@YAPAIAAPAIU_Unchanged_checked_iterator_base_type_tag@0@@Z 100b3de0 f i ImfMisc.obj
 0002:00054e20       ??$_Debug_range@PAI@std@@YAXPAI0PB_WI@Z 100b3e20 f i ImfMisc.obj
 0002:00054ea0       ??$_Debug_pointer@I@std@@YAXPAIPB_WI@Z 100b3ea0 f i ImfMisc.obj
 0002:00054f10       ??$_Uninit_move@PAIPAIV?$allocator@I@std@@U_Undefined_move_tag@2@@std@@YAPAIPAI00AAV?$allocator@I@0@U_Undefined_move_tag@0@U_Range_checked_iterator_tag@0@@Z 100b3f10 f i ImfMisc.obj
 0002:00054f70       ??$_Copy_backward_opt@PAIPAIUrandom_access_iterator_tag@std@@@std@@YAPAIPAI00Urandom_access_iterator_tag@0@U_Scalar_ptr_iterator_tag@0@U_Range_checked_iterator_tag@0@@Z 100b3f70 f i ImfMisc.obj
 0002:00055060       ??$unchecked_fill_n@PAIII@stdext@@YAXPAIIABI@Z 100b4060 f i ImfMisc.obj
 0002:000550f0       ??$_Iter_cat@PAI@std@@YA?AUrandom_access_iterator_tag@0@ABQAI@Z 100b40f0 f i ImfMisc.obj
 0002:00055160       ??$_Debug_range2@PAI@std@@YAXPAI0PB_WIUrandom_access_iterator_tag@0@@Z 100b4160 f i ImfMisc.obj
 0002:00055210       ??$unchecked_uninitialized_copy@PAIPAIV?$allocator@I@std@@@stdext@@YAPAIPAI00AAV?$allocator@I@std@@@Z 100b4210 f i ImfMisc.obj
 0002:000552c0       ??$_Fill_n@PAIII@std@@YAXPAIIABIUrandom_access_iterator_tag@0@U_Range_checked_iterator_tag@0@@Z 100b42c0 f i ImfMisc.obj
 0002:00055350       ??$_Uninit_copy@PAIPAIV?$allocator@I@std@@@std@@YAPAIPAI00AAV?$allocator@I@0@U_Scalar_ptr_iterator_tag@0@U_Range_checked_iterator_tag@0@@Z 100b4350 f i ImfMisc.obj
 0002:00055420       ??$_Fill_n@PAIII@std@@YAXPAIIABIU_Range_checked_iterator_tag@0@@Z 100b4420 f i ImfMisc.obj
 0002:00055480       ??0OpaqueAttribute@Imf@@QAE@QBD@Z 100b4480 f   ImfOpaqueAttribute.obj
 0002:00055590       ??_GOpaqueAttribute@Imf@@UAEPAXI@Z 100b4590 f i ImfOpaqueAttribute.obj
 0002:00055590       ??_EOpaqueAttribute@Imf@@UAEPAXI@Z 100b4590 f i ImfOpaqueAttribute.obj
 0002:00055600       ??0OpaqueAttribute@Imf@@QAE@ABV01@@Z 100b4600 f   ImfOpaqueAttribute.obj
 0002:00055770       ??1OpaqueAttribute@Imf@@UAE@XZ 100b4770 f   ImfOpaqueAttribute.obj
 0002:00055830       ?typeName@OpaqueAttribute@Imf@@UBEPBDXZ 100b4830 f   ImfOpaqueAttribute.obj
 0002:00055890       ?copy@OpaqueAttribute@Imf@@UBEPAVAttribute@2@XZ 100b4890 f   ImfOpaqueAttribute.obj
 0002:00055980       ?writeValueTo@OpaqueAttribute@Imf@@UBEXAAVOStream@2@H@Z 100b4980 f   ImfOpaqueAttribute.obj
 0002:000559f0       ?readValueFrom@OpaqueAttribute@Imf@@UAEXAAVIStream@2@HH@Z 100b49f0 f   ImfOpaqueAttribute.obj
 0002:00055a80       ?copyValueFrom@OpaqueAttribute@Imf@@UAEXABVAttribute@2@@Z 100b4a80 f   ImfOpaqueAttribute.obj
 0002:00055d10       ??0?$Array@D@Imf@@QAE@XZ   100b4d10 f i ImfOpaqueAttribute.obj
 0002:00055d60       ??0?$Array@D@Imf@@QAE@J@Z  100b4d60 f i ImfOpaqueAttribute.obj
 0002:00055dd0       ??1?$Array@D@Imf@@QAE@XZ   100b4dd0 f i ImfOpaqueAttribute.obj
 0002:00055e40       ??B?$Array@D@Imf@@QAEPADXZ 100b4e40 f i ImfOpaqueAttribute.obj
 0002:00055e80       ??B?$Array@D@Imf@@QBEPBDXZ 100b4e80 f i ImfOpaqueAttribute.obj
 0002:00055ec0       ?resizeErase@?$Array@D@Imf@@QAEXJ@Z 100b4ec0 f i ImfOpaqueAttribute.obj
 0002:00055f60       ??$write@UStreamIO@Imf@@VOStream@2@@Xdr@Imf@@YAXAAVOStream@1@QBDH@Z 100b4f60 f i ImfOpaqueAttribute.obj
 0002:00055fc0       ??$read@UStreamIO@Imf@@VIStream@2@@Xdr@Imf@@YAXAAVIStream@1@QADH@Z 100b4fc0 f i ImfOpaqueAttribute.obj
 0002:00056020       ??0OutSliceInfo@?A0xae07d9b6@Imf@@QAE@W4PixelType@2@PBDIIHH_N@Z 100b5020 f   ImfOutputFile.obj
 0002:000560b0       ??0LineBuffer@?A0xae07d9b6@Imf@@QAE@PAVCompressor@2@@Z 100b50b0 f   ImfOutputFile.obj
 0002:000561d0       ??1LineBuffer@?A0xae07d9b6@Imf@@QAE@XZ 100b51d0 f   ImfOutputFile.obj
 0002:00056300       ??0Data@OutputFile@Imf@@QAE@_NH@Z 100b5300 f   ImfOutputFile.obj
 0002:00056500       ??_GData@OutputFile@Imf@@UAEPAXI@Z 100b5500 f i ImfOutputFile.obj
 0002:00056500       ??_EData@OutputFile@Imf@@UAEPAXI@Z 100b5500 f i ImfOutputFile.obj
 0002:00056570       ??1Data@OutputFile@Imf@@UAE@XZ 100b5570 f   ImfOutputFile.obj
 0002:000567c0       ??_GLineBuffer@?A0xae07d9b6@Imf@@QAEPAXI@Z 100b57c0 f i ImfOutputFile.obj
 0002:00056830       ?writeLineOffsets@?A0xae07d9b6@Imf@@YA_KAAVOStream@2@ABV?$vector@_KV?$allocator@_K@std@@@std@@@Z 100b5830 f   ImfOutputFile.obj
 0002:00056990       ?writePixelData@?A0xae07d9b6@Imf@@YAXPAUData@OutputFile@2@HQBDH@Z 100b5990 f   ImfOutputFile.obj
 0002:00056b30       ??$size@H@Xdr@Imf@@YAHXZ   100b5b30 f i ImfOutputFile.obj
 0002:00056b70       ?convertToXdr@?A0xae07d9b6@Imf@@YAXPAUData@OutputFile@2@AAV?$Array@D@2@HHH@Z 100b5b70 f   ImfOutputFile.obj
 0002:00056de0       ??0LineBufferTask@?A0xae07d9b6@Imf@@QAE@PAVTaskGroup@IlmThread@@PAUData@OutputFile@2@HHH@Z 100b5de0 f   ImfOutputFile.obj
 0002:00056fd0       ?wait@LineBuffer@?A0xae07d9b6@Imf@@QAEXXZ 100b5fd0 f i ImfOutputFile.obj
 0002:00057030       ?getLineBuffer@Data@OutputFile@Imf@@QAEPAULineBuffer@?A0xae07d9b6@3@H@Z 100b6030 f i ImfOutputFile.obj
 0002:000570b0       ??_ELineBufferTask@?A0xae07d9b6@Imf@@UAEPAXI@Z 100b60b0 f i ImfOutputFile.obj
 0002:000570b0       ??_GLineBufferTask@?A0xae07d9b6@Imf@@UAEPAXI@Z 100b60b0 f i ImfOutputFile.obj
 0002:00057120       ??1LineBufferTask@?A0xae07d9b6@Imf@@UAE@XZ 100b6120 f   ImfOutputFile.obj
 0002:000571d0       ?post@LineBuffer@?A0xae07d9b6@Imf@@QAEXXZ 100b61d0 f i ImfOutputFile.obj
 0002:00057230       ?execute@LineBufferTask@?A0xae07d9b6@Imf@@UAEXXZ 100b6230 f   ImfOutputFile.obj
 0002:000578c0       ??0OutputFile@Imf@@QAE@QBDABVHeader@1@H@Z 100b68c0 f   ImfOutputFile.obj
 0002:00057c60       ??_EOutputFile@Imf@@UAEPAXI@Z 100b6c60 f i ImfOutputFile.obj
 0002:00057c60       ??_GOutputFile@Imf@@UAEPAXI@Z 100b6c60 f i ImfOutputFile.obj
 0002:00057cd0       ??0OutputFile@Imf@@QAE@AAVOStream@1@ABVHeader@1@H@Z 100b6cd0 f   ImfOutputFile.obj
 0002:00057ff0       ?initialize@OutputFile@Imf@@AAEXABVHeader@2@@Z 100b6ff0 f   ImfOutputFile.obj
 0002:000584b0       ??1OutputFile@Imf@@UAE@XZ  100b74b0 f   ImfOutputFile.obj
 0002:00058680       ?fileName@OutputFile@Imf@@QBEPBDXZ 100b7680 f   ImfOutputFile.obj
 0002:000586e0       ?header@OutputFile@Imf@@QBEABVHeader@2@XZ 100b76e0 f   ImfOutputFile.obj
 0002:00058720       ?setFrameBuffer@OutputFile@Imf@@QAEXABVFrameBuffer@2@@Z 100b7720 f   ImfOutputFile.obj
 0002:00058f30       ?frameBuffer@OutputFile@Imf@@QBEABVFrameBuffer@2@XZ 100b7f30 f   ImfOutputFile.obj
 0002:00058ff0       ?writePixels@OutputFile@Imf@@QAEXH@Z 100b7ff0 f   ImfOutputFile.obj
 0002:00059ae0       ??0IoExc@Iex@@QAE@ABV?$basic_string@DU?$char_traits@D@std@@V?$allocator@D@2@@std@@@Z 100b8ae0 f i ImfOutputFile.obj
 0002:00059b50       ??_EIoExc@Iex@@UAEPAXI@Z   100b8b50 f i ImfOutputFile.obj
 0002:00059b50       ??_GIoExc@Iex@@UAEPAXI@Z   100b8b50 f i ImfOutputFile.obj
 0002:00059bc0       ??1IoExc@Iex@@UAE@XZ       100b8bc0 f i ImfOutputFile.obj
 0002:00059c10       ?writePixelData@?A0xae07d9b6@Imf@@YAXPAUData@OutputFile@2@PBULineBuffer@12@@Z 100b8c10 f i ImfOutputFile.obj
 0002:00059c80       ??0IoExc@Iex@@QAE@ABV01@@Z 100b8c80 f i ImfOutputFile.obj
 0002:00059cf0       ?currentScanLine@OutputFile@Imf@@QBEHXZ 100b8cf0 f   ImfOutputFile.obj
 0002:00059db0       ?copyPixels@OutputFile@Imf@@QAEXAAVInputFile@2@@Z 100b8db0 f   ImfOutputFile.obj
 0002:0005a890       ??0LogicExc@Iex@@QAE@AAV?$basic_stringstream@DU?$char_traits@D@std@@V?$allocator@D@2@@std@@@Z 100b9890 f i ImfOutputFile.obj
 0002:0005a900       ??_GLogicExc@Iex@@UAEPAXI@Z 100b9900 f i ImfOutputFile.obj
 0002:0005a900       ??_ELogicExc@Iex@@UAEPAXI@Z 100b9900 f i ImfOutputFile.obj
 0002:0005a970       ??1LogicExc@Iex@@UAE@XZ    100b9970 f i ImfOutputFile.obj
 0002:0005a9c0       ??0LogicExc@Iex@@QAE@ABV01@@Z 100b99c0 f i ImfOutputFile.obj
 0002:0005aa30       ?updatePreviewImage@OutputFile@Imf@@QAEXQBUPreviewRgba@2@@Z 100b9a30 f   ImfOutputFile.obj
 0002:0005af80       ?width@PreviewImage@Imf@@QBEIXZ 100b9f80 f i ImfOutputFile.obj
 0002:0005afc0       ?height@PreviewImage@Imf@@QBEIXZ 100b9fc0 f i ImfOutputFile.obj
 0002:0005b000       ?pixels@PreviewImage@Imf@@QAEPAUPreviewRgba@2@XZ 100ba000 f i ImfOutputFile.obj
 0002:0005b040       ?breakScanLine@OutputFile@Imf@@QAEXHHHD@Z 100ba040 f   ImfOutputFile.obj
 0002:0005b370       ??0?$vector@_KV?$allocator@_K@std@@@std@@QAE@XZ 100ba370 f i ImfOutputFile.obj
 0002:0005b430       ??1?$vector@_KV?$allocator@_K@std@@@std@@QAE@XZ 100ba430 f i ImfOutputFile.obj
 0002:0005b4d0       ?resize@?$vector@_KV?$allocator@_K@std@@@std@@QAEXI@Z 100ba4d0 f i ImfOutputFile.obj
 0002:0005b530       ?size@?$vector@_KV?$allocator@_K@std@@@std@@QBEIXZ 100ba530 f i ImfOutputFile.obj
 0002:0005b5a0       ??A?$vector@_KV?$allocator@_K@std@@@std@@QBEAB_KI@Z 100ba5a0 f i ImfOutputFile.obj
 0002:0005b720       ??A?$vector@_KV?$allocator@_K@std@@@std@@QAEAA_KI@Z 100ba720 f i ImfOutputFile.obj
 0002:0005b8a0       ??0?$vector@IV?$allocator@I@std@@@std@@QAE@XZ 100ba8a0 f i ImfOutputFile.obj
 0002:0005b960       ??1?$vector@IV?$allocator@I@std@@@std@@QAE@XZ 100ba960 f i ImfOutputFile.obj
 0002:0005ba00       ??0?$vector@UOutSliceInfo@?A0xae07d9b6@Imf@@V?$allocator@UOutSliceInfo@?A0xae07d9b6@Imf@@@std@@@std@@QAE@XZ 100baa00 f i ImfOutputFile.obj
 0002:0005bac0       ??1?$vector@UOutSliceInfo@?A0xae07d9b6@Imf@@V?$allocator@UOutSliceInfo@?A0xae07d9b6@Imf@@@std@@@std@@QAE@XZ 100baac0 f i ImfOutputFile.obj
 0002:0005bb60       ??4?$vector@UOutSliceInfo@?A0xae07d9b6@Imf@@V?$allocator@UOutSliceInfo@?A0xae07d9b6@Imf@@@std@@@std@@QAEAAV01@ABV01@@Z 100bab60 f i ImfOutputFile.obj
 0002:0005bda0       ?size@?$vector@UOutSliceInfo@?A0xae07d9b6@Imf@@V?$allocator@UOutSliceInfo@?A0xae07d9b6@Imf@@@std@@@std@@QBEIXZ 100bada0 f i ImfOutputFile.obj
 0002:0005be20       ??A?$vector@UOutSliceInfo@?A0xae07d9b6@Imf@@V?$allocator@UOutSliceInfo@?A0xae07d9b6@Imf@@@std@@@std@@QAEAAUOutSliceInfo@?A0xae07d9b6@Imf@@I@Z 100bae20 f i ImfOutputFile.obj
 0002:0005bfa0       ?push_back@?$vector@UOutSliceInfo@?A0xae07d9b6@Imf@@V?$allocator@UOutSliceInfo@?A0xae07d9b6@Imf@@@std@@@std@@QAEXABUOutSliceInfo@?A0xae07d9b6@Imf@@@Z 100bafa0 f i ImfOutputFile.obj
 0002:0005c090       ??0?$vector@PAULineBuffer@?A0xae07d9b6@Imf@@V?$allocator@PAULineBuffer@?A0xae07d9b6@Imf@@@std@@@std@@QAE@XZ 100bb090 f i ImfOutputFile.obj
 0002:0005c150       ??1?$vector@PAULineBuffer@?A0xae07d9b6@Imf@@V?$allocator@PAULineBuffer@?A0xae07d9b6@Imf@@@std@@@std@@QAE@XZ 100bb150 f i ImfOutputFile.obj
 0002:0005c1f0       ?resize@?$vector@PAULineBuffer@?A0xae07d9b6@Imf@@V?$allocator@PAULineBuffer@?A0xae07d9b6@Imf@@@std@@@std@@QAEXI@Z 100bb1f0 f i ImfOutputFile.obj
 0002:0005c250       ?size@?$vector@PAULineBuffer@?A0xae07d9b6@Imf@@V?$allocator@PAULineBuffer@?A0xae07d9b6@Imf@@@std@@@std@@QBEIXZ 100bb250 f i ImfOutputFile.obj
 0002:0005c2c0       ??A?$vector@PAULineBuffer@?A0xae07d9b6@Imf@@V?$allocator@PAULineBuffer@?A0xae07d9b6@Imf@@@std@@@std@@QAEAAPAULineBuffer@?A0xae07d9b6@Imf@@I@Z 100bb2c0 f i ImfOutputFile.obj
 0002:0005c440       ??1?$_Vector_val@_KV?$allocator@_K@std@@@std@@QAE@XZ 100bb440 f i ImfOutputFile.obj
 0002:0005c4a0       ??1?$_Vector_val@IV?$allocator@I@std@@@std@@QAE@XZ 100bb4a0 f i ImfOutputFile.obj
 0002:0005c500       ??1?$_Vector_val@UOutSliceInfo@?A0xae07d9b6@Imf@@V?$allocator@UOutSliceInfo@?A0xae07d9b6@Imf@@@std@@@std@@QAE@XZ 100bb500 f i ImfOutputFile.obj
 0002:0005c560       ??1?$_Vector_iterator@UOutSliceInfo@?A0xae07d9b6@Imf@@V?$allocator@UOutSliceInfo@?A0xae07d9b6@Imf@@@std@@@std@@QAE@XZ 100bb560 f i ImfOutputFile.obj
 0002:0005c5b0       ??1?$_Vector_val@PAULineBuffer@?A0xae07d9b6@Imf@@V?$allocator@PAULineBuffer@?A0xae07d9b6@Imf@@@std@@@std@@QAE@XZ 100bb5b0 f i ImfOutputFile.obj
 0002:0005c610       ??1?$_Vector_const_iterator@UOutSliceInfo@?A0xae07d9b6@Imf@@V?$allocator@UOutSliceInfo@?A0xae07d9b6@Imf@@@std@@@std@@QAE@XZ 100bb610 f i ImfOutputFile.obj
 0002:0005c660       ??1?$_Ranit@UOutSliceInfo@?A0xae07d9b6@Imf@@HPBU123@ABU123@@std@@QAE@XZ 100bb660 f i ImfOutputFile.obj
 0002:0005c6b0       ?resize@?$vector@_KV?$allocator@_K@std@@@std@@QAEXI_K@Z 100bb6b0 f i ImfOutputFile.obj
 0002:0005c870       ?_Buy@?$vector@_KV?$allocator@_K@std@@@std@@IAE_NI@Z 100bb870 f i ImfOutputFile.obj
 0002:0005c950       ?_Tidy@?$vector@_KV?$allocator@_K@std@@@std@@IAEXXZ 100bb950 f i ImfOutputFile.obj
 0002:0005ca30       ??0?$_Vector_val@_KV?$allocator@_K@std@@@std@@IAE@V?$allocator@_K@1@@Z 100bba30 f i ImfOutputFile.obj
 0002:0005cab0       ??0?$allocator@_K@std@@QAE@XZ 100bbab0 f i ImfOutputFile.obj
 0002:0005caf0       ?_Buy@?$vector@IV?$allocator@I@std@@@std@@IAE_NI@Z 100bbaf0 f i ImfOutputFile.obj
 0002:0005cbd0       ?_Tidy@?$vector@IV?$allocator@I@std@@@std@@IAEXXZ 100bbbd0 f i ImfOutputFile.obj
 0002:0005ccb0       ??0?$_Vector_val@IV?$allocator@I@std@@@std@@IAE@V?$allocator@I@1@@Z 100bbcb0 f i ImfOutputFile.obj
 0002:0005cd30       ??0?$allocator@I@std@@QAE@XZ 100bbd30 f i ImfOutputFile.obj
 0002:0005cd70       ?capacity@?$vector@UOutSliceInfo@?A0xae07d9b6@Imf@@V?$allocator@UOutSliceInfo@?A0xae07d9b6@Imf@@@std@@@std@@QBEIXZ 100bbd70 f i ImfOutputFile.obj
 0002:0005cdf0       ?end@?$vector@UOutSliceInfo@?A0xae07d9b6@Imf@@V?$allocator@UOutSliceInfo@?A0xae07d9b6@Imf@@@std@@@std@@QAE?AV?$_Vector_iterator@UOutSliceInfo@?A0xae07d9b6@Imf@@V?$allocator@UOutSliceInfo@?A0xae07d9b6@Imf@@@std@@@2@XZ 100bbdf0 f i ImfOutputFile.obj
 0002:0005ce80       ?insert@?$vector@UOutSliceInfo@?A0xae07d9b6@Imf@@V?$allocator@UOutSliceInfo@?A0xae07d9b6@Imf@@@std@@@std@@QAE?AV?$_Vector_iterator@UOutSliceInfo@?A0xae07d9b6@Imf@@V?$allocator@UOutSliceInfo@?A0xae07d9b6@Imf@@@std@@@2@V32@ABUOutSliceInfo@?A0xae07d9b6@Imf@@@Z 100bbe80 f i ImfOutputFile.obj
 0002:0005d080       ?clear@?$vector@UOutSliceInfo@?A0xae07d9b6@Imf@@V?$allocator@UOutSliceInfo@?A0xae07d9b6@Imf@@@std@@@std@@QAEXXZ 100bc080 f i ImfOutputFile.obj
 0002:0005d190       ?_Buy@?$vector@UOutSliceInfo@?A0xae07d9b6@Imf@@V?$allocator@UOutSliceInfo@?A0xae07d9b6@Imf@@@std@@@std@@IAE_NI@Z 100bc190 f i ImfOutputFile.obj
 0002:0005d270       ?_Destroy@?$vector@UOutSliceInfo@?A0xae07d9b6@Imf@@V?$allocator@UOutSliceInfo@?A0xae07d9b6@Imf@@@std@@@std@@IAEXPAUOutSliceInfo@?A0xae07d9b6@Imf@@0@Z 100bc270 f i ImfOutputFile.obj
 0002:0005d2e0       ?_Tidy@?$vector@UOutSliceInfo@?A0xae07d9b6@Imf@@V?$allocator@UOutSliceInfo@?A0xae07d9b6@Imf@@@std@@@std@@IAEXXZ 100bc2e0 f i ImfOutputFile.obj
 0002:0005d3c0       ?_Ufill@?$vector@UOutSliceInfo@?A0xae07d9b6@Imf@@V?$allocator@UOutSliceInfo@?A0xae07d9b6@Imf@@@std@@@std@@IAEPAUOutSliceInfo@?A0xae07d9b6@Imf@@PAU345@IABU345@@Z 100bc3c0 f i ImfOutputFile.obj
 0002:0005d440       ?_Orphan_range@?$vector@UOutSliceInfo@?A0xae07d9b6@Imf@@V?$allocator@UOutSliceInfo@?A0xae07d9b6@Imf@@@std@@@std@@IBEXPAUOutSliceInfo@?A0xae07d9b6@Imf@@0@Z 100bc440 f i ImfOutputFile.obj
 0002:0005d550       ??0?$_Vector_val@UOutSliceInfo@?A0xae07d9b6@Imf@@V?$allocator@UOutSliceInfo@?A0xae07d9b6@Imf@@@std@@@std@@IAE@V?$allocator@UOutSliceInfo@?A0xae07d9b6@Imf@@@1@@Z 100bc550 f i ImfOutputFile.obj
 0002:0005d5d0       ??0?$allocator@UOutSliceInfo@?A0xae07d9b6@Imf@@@std@@QAE@XZ 100bc5d0 f i ImfOutputFile.obj
 0002:0005d610       ?deallocate@?$allocator@UOutSliceInfo@?A0xae07d9b6@Imf@@@std@@QAEXPAUOutSliceInfo@?A0xae07d9b6@Imf@@I@Z 100bc610 f i ImfOutputFile.obj
 0002:0005d670       ?resize@?$vector@PAULineBuffer@?A0xae07d9b6@Imf@@V?$allocator@PAULineBuffer@?A0xae07d9b6@Imf@@@std@@@std@@QAEXIPAULineBuffer@?A0xae07d9b6@Imf@@@Z 100bc670 f i ImfOutputFile.obj
 0002:0005d830       ?_Buy@?$vector@PAULineBuffer@?A0xae07d9b6@Imf@@V?$allocator@PAULineBuffer@?A0xae07d9b6@Imf@@@std@@@std@@IAE_NI@Z 100bc830 f i ImfOutputFile.obj
 0002:0005d910       ?_Tidy@?$vector@PAULineBuffer@?A0xae07d9b6@Imf@@V?$allocator@PAULineBuffer@?A0xae07d9b6@Imf@@@std@@@std@@IAEXXZ 100bc910 f i ImfOutputFile.obj
 0002:0005d9f0       ??0?$_Vector_val@PAULineBuffer@?A0xae07d9b6@Imf@@V?$allocator@PAULineBuffer@?A0xae07d9b6@Imf@@@std@@@std@@IAE@V?$allocator@PAULineBuffer@?A0xae07d9b6@Imf@@@1@@Z 100bc9f0 f i ImfOutputFile.obj
 0002:0005da70       ??0?$allocator@PAULineBuffer@?A0xae07d9b6@Imf@@@std@@QAE@XZ 100bca70 f i ImfOutputFile.obj
 0002:0005dab0       ??1?$_Vector_iterator@_KV?$allocator@_K@std@@@std@@QAE@XZ 100bcab0 f i ImfOutputFile.obj
 0002:0005db00       ??0?$_Vector_iterator@UOutSliceInfo@?A0xae07d9b6@Imf@@V?$allocator@UOutSliceInfo@?A0xae07d9b6@Imf@@@std@@@std@@QAE@ABV01@@Z 100bcb00 f i ImfOutputFile.obj
 0002:0005db60       ??1?$_Vector_iterator@PAULineBuffer@?A0xae07d9b6@Imf@@V?$allocator@PAULineBuffer@?A0xae07d9b6@Imf@@@std@@@std@@QAE@XZ 100bcb60 f i ImfOutputFile.obj
 0002:0005dbb0       ??1?$_Vector_const_iterator@_KV?$allocator@_K@std@@@std@@QAE@XZ 100bcbb0 f i ImfOutputFile.obj
 0002:0005dc00       ??0?$_Vector_const_iterator@UOutSliceInfo@?A0xae07d9b6@Imf@@V?$allocator@UOutSliceInfo@?A0xae07d9b6@Imf@@@std@@@std@@QAE@ABV01@@Z 100bcc00 f i ImfOutputFile.obj
 0002:0005dc70       ??1?$_Vector_const_iterator@PAULineBuffer@?A0xae07d9b6@Imf@@V?$allocator@PAULineBuffer@?A0xae07d9b6@Imf@@@std@@@std@@QAE@XZ 100bcc70 f i ImfOutputFile.obj
 0002:0005dcc0       ??1?$_Ranit@_KHPB_KAB_K@std@@QAE@XZ 100bccc0 f i ImfOutputFile.obj
 0002:0005dd10       ??0?$_Ranit@UOutSliceInfo@?A0xae07d9b6@Imf@@HPBU123@ABU123@@std@@QAE@ABU01@@Z 100bcd10 f i ImfOutputFile.obj
 0002:0005dd70       ??1?$_Ranit@PAULineBuffer@?A0xae07d9b6@Imf@@HPBQAU123@ABQAU123@@std@@QAE@XZ 100bcd70 f i ImfOutputFile.obj
 0002:0005ddc0       ?begin@?$vector@_KV?$allocator@_K@std@@@std@@QAE?AV?$_Vector_iterator@_KV?$allocator@_K@std@@@2@XZ 100bcdc0 f i ImfOutputFile.obj
 0002:0005de50       ?end@?$vector@_KV?$allocator@_K@std@@@std@@QAE?AV?$_Vector_iterator@_KV?$allocator@_K@std@@@2@XZ 100bce50 f i ImfOutputFile.obj
 0002:0005dee0       ?max_size@?$vector@_KV?$allocator@_K@std@@@std@@QBEIXZ 100bcee0 f i ImfOutputFile.obj
 0002:0005df40       ?erase@?$vector@_KV?$allocator@_K@std@@@std@@QAE?AV?$_Vector_iterator@_KV?$allocator@_K@std@@@2@V32@0@Z 100bcf40 f i ImfOutputFile.obj
 0002:0005e100       ?_Destroy@?$vector@_KV?$allocator@_K@std@@@std@@IAEXPA_K0@Z 100bd100 f i ImfOutputFile.obj
 0002:0005e170       ?_Insert_n@?$vector@_KV?$allocator@_K@std@@@std@@IAEXV?$_Vector_iterator@_KV?$allocator@_K@std@@@2@IAB_K@Z 100bd170 f i ImfOutputFile.obj
 0002:0005e6b0       ?_Xlen@?$vector@_KV?$allocator@_K@std@@@std@@KAXXZ 100bd6b0 f i ImfOutputFile.obj
 0002:0005e7a0       ??0?$allocator@_K@std@@QAE@ABV01@@Z 100bd7a0 f i ImfOutputFile.obj
 0002:0005e7e0       ?deallocate@?$allocator@_K@std@@QAEXPA_KI@Z 100bd7e0 f i ImfOutputFile.obj
 0002:0005e840       ?allocate@?$allocator@_K@std@@QAEPA_KI@Z 100bd840 f i ImfOutputFile.obj
 0002:0005e8a0       ??0?$allocator@I@std@@QAE@ABV01@@Z 100bd8a0 f i ImfOutputFile.obj
 0002:0005e8e0       ?begin@?$vector@UOutSliceInfo@?A0xae07d9b6@Imf@@V?$allocator@UOutSliceInfo@?A0xae07d9b6@Imf@@@std@@@std@@QAE?AV?$_Vector_iterator@UOutSliceInfo@?A0xae07d9b6@Imf@@V?$allocator@UOutSliceInfo@?A0xae07d9b6@Imf@@@std@@@2@XZ 100bd8e0 f i ImfOutputFile.obj
 0002:0005e970       ?max_size@?$vector@UOutSliceInfo@?A0xae07d9b6@Imf@@V?$allocator@UOutSliceInfo@?A0xae07d9b6@Imf@@@std@@@std@@QBEIXZ 100bd970 f i ImfOutputFile.obj
 0002:0005e9d0       ?erase@?$vector@UOutSliceInfo@?A0xae07d9b6@Imf@@V?$allocator@UOutSliceInfo@?A0xae07d9b6@Imf@@@std@@@std@@QAE?AV?$_Vector_iterator@UOutSliceInfo@?A0xae07d9b6@Imf@@V?$allocator@UOutSliceInfo@?A0xae07d9b6@Imf@@@std@@@2@V32@0@Z 100bd9d0 f i ImfOutputFile.obj
 0002:0005eb90       ?_Insert_n@?$vector@UOutSliceInfo@?A0xae07d9b6@Imf@@V?$allocator@UOutSliceInfo@?A0xae07d9b6@Imf@@@std@@@std@@IAEXV?$_Vector_iterator@UOutSliceInfo@?A0xae07d9b6@Imf@@V?$allocator@UOutSliceInfo@?A0xae07d9b6@Imf@@@std@@@2@IABUOutSliceInfo@?A0xae07d9b6@Imf@@@Z 100bdb90 f i ImfOutputFile.obj
 0002:0005f0e0       ?_Xlen@?$vector@UOutSliceInfo@?A0xae07d9b6@Imf@@V?$allocator@UOutSliceInfo@?A0xae07d9b6@Imf@@@std@@@std@@KAXXZ 100be0e0 f i ImfOutputFile.obj
 0002:0005f1d0       ??0?$allocator@UOutSliceInfo@?A0xae07d9b6@Imf@@@std@@QAE@ABV01@@Z 100be1d0 f i ImfOutputFile.obj
 0002:0005f210       ?allocate@?$allocator@UOutSliceInfo@?A0xae07d9b6@Imf@@@std@@QAEPAUOutSliceInfo@?A0xae07d9b6@Imf@@I@Z 100be210 f i ImfOutputFile.obj
 0002:0005f270       ?begin@?$vector@PAULineBuffer@?A0xae07d9b6@Imf@@V?$allocator@PAULineBuffer@?A0xae07d9b6@Imf@@@std@@@std@@QAE?AV?$_Vector_iterator@PAULineBuffer@?A0xae07d9b6@Imf@@V?$allocator@PAULineBuffer@?A0xae07d9b6@Imf@@@std@@@2@XZ 100be270 f i ImfOutputFile.obj
 0002:0005f300       ?end@?$vector@PAULineBuffer@?A0xae07d9b6@Imf@@V?$allocator@PAULineBuffer@?A0xae07d9b6@Imf@@@std@@@std@@QAE?AV?$_Vector_iterator@PAULineBuffer@?A0xae07d9b6@Imf@@V?$allocator@PAULineBuffer@?A0xae07d9b6@Imf@@@std@@@2@XZ 100be300 f i ImfOutputFile.obj
 0002:0005f390       ?max_size@?$vector@PAULineBuffer@?A0xae07d9b6@Imf@@V?$allocator@PAULineBuffer@?A0xae07d9b6@Imf@@@std@@@std@@QBEIXZ 100be390 f i ImfOutputFile.obj
 0002:0005f3f0       ?erase@?$vector@PAULineBuffer@?A0xae07d9b6@Imf@@V?$allocator@PAULineBuffer@?A0xae07d9b6@Imf@@@std@@@std@@QAE?AV?$_Vector_iterator@PAULineBuffer@?A0xae07d9b6@Imf@@V?$allocator@PAULineBuffer@?A0xae07d9b6@Imf@@@std@@@2@V32@0@Z 100be3f0 f i ImfOutputFile.obj
 0002:0005f5b0       ?_Destroy@?$vector@PAULineBuffer@?A0xae07d9b6@Imf@@V?$allocator@PAULineBuffer@?A0xae07d9b6@Imf@@@std@@@std@@IAEXPAPAULineBuffer@?A0xae07d9b6@Imf@@0@Z 100be5b0 f i ImfOutputFile.obj
 0002:0005f620       ?_Insert_n@?$vector@PAULineBuffer@?A0xae07d9b6@Imf@@V?$allocator@PAULineBuffer@?A0xae07d9b6@Imf@@@std@@@std@@IAEXV?$_Vector_iterator@PAULineBuffer@?A0xae07d9b6@Imf@@V?$allocator@PAULineBuffer@?A0xae07d9b6@Imf@@@std@@@2@IABQAULineBuffer@?A0xae07d9b6@Imf@@@Z 100be620 f i ImfOutputFile.obj
 0002:0005fb50       ?_Xlen@?$vector@PAULineBuffer@?A0xae07d9b6@Imf@@V?$allocator@PAULineBuffer@?A0xae07d9b6@Imf@@@std@@@std@@KAXXZ 100beb50 f i ImfOutputFile.obj
 0002:0005fc40       ??0?$allocator@PAULineBuffer@?A0xae07d9b6@Imf@@@std@@QAE@ABV01@@Z 100bec40 f i ImfOutputFile.obj
 0002:0005fc80       ?deallocate@?$allocator@PAULineBuffer@?A0xae07d9b6@Imf@@@std@@QAEXPAPAULineBuffer@?A0xae07d9b6@Imf@@I@Z 100bec80 f i ImfOutputFile.obj
 0002:0005fce0       ?allocate@?$allocator@PAULineBuffer@?A0xae07d9b6@Imf@@@std@@QAEPAPAULineBuffer@?A0xae07d9b6@Imf@@I@Z 100bece0 f i ImfOutputFile.obj
 0002:0005fd40       ??0?$_Vector_iterator@UOutSliceInfo@?A0xae07d9b6@Imf@@V?$allocator@UOutSliceInfo@?A0xae07d9b6@Imf@@@std@@@std@@QAE@PAUOutSliceInfo@?A0xae07d9b6@Imf@@PBV_Container_base@1@@Z 100bed40 f i ImfOutputFile.obj
 0002:0005fda0       ??H?$_Vector_iterator@UOutSliceInfo@?A0xae07d9b6@Imf@@V?$allocator@UOutSliceInfo@?A0xae07d9b6@Imf@@@std@@@std@@QBE?AV01@H@Z 100beda0 f i ImfOutputFile.obj
 0002:0005fec0       ??G?$_Vector_iterator@UOutSliceInfo@?A0xae07d9b6@Imf@@V?$allocator@UOutSliceInfo@?A0xae07d9b6@Imf@@@std@@@std@@QBEHABV?$_Vector_const_iterator@UOutSliceInfo@?A0xae07d9b6@Imf@@V?$allocator@UOutSliceInfo@?A0xae07d9b6@Imf@@@std@@@1@@Z 100beec0 f i ImfOutputFile.obj
 0002:0005ff20       ??H?$_Vector_iterator@_KV?$allocator@_K@std@@@std@@QBE?AV01@H@Z 100bef20 f i ImfOutputFile.obj
 0002:00060040       ??H?$_Vector_iterator@PAULineBuffer@?A0xae07d9b6@Imf@@V?$allocator@PAULineBuffer@?A0xae07d9b6@Imf@@@std@@@std@@QBE?AV01@H@Z 100bf040 f i ImfOutputFile.obj
 0002:00060160       ??0?$_Vector_iterator@_KV?$allocator@_K@std@@@std@@QAE@ABV01@@Z 100bf160 f i ImfOutputFile.obj
 0002:000601c0       ??0?$_Vector_iterator@PAULineBuffer@?A0xae07d9b6@Imf@@V?$allocator@PAULineBuffer@?A0xae07d9b6@Imf@@@std@@@std@@QAE@ABV01@@Z 100bf1c0 f i ImfOutputFile.obj
 0002:00060220       ??0?$_Vector_const_iterator@_KV?$allocator@_K@std@@@std@@QAE@ABV01@@Z 100bf220 f i ImfOutputFile.obj
 0002:00060290       ??0?$_Vector_const_iterator@PAULineBuffer@?A0xae07d9b6@Imf@@V?$allocator@PAULineBuffer@?A0xae07d9b6@Imf@@@std@@@std@@QAE@ABV01@@Z 100bf290 f i ImfOutputFile.obj
 0002:00060300       ??0?$_Ranit@_KHPB_KAB_K@std@@QAE@ABU01@@Z 100bf300 f i ImfOutputFile.obj
 0002:00060360       ??0?$_Ranit@PAULineBuffer@?A0xae07d9b6@Imf@@HPBQAU123@ABQAU123@@std@@QAE@ABU01@@Z 100bf360 f i ImfOutputFile.obj
 0002:000603c0       ?capacity@?$vector@_KV?$allocator@_K@std@@@std@@QBEIXZ 100bf3c0 f i ImfOutputFile.obj
 0002:00060430       ?_Ufill@?$vector@_KV?$allocator@_K@std@@@std@@IAEPA_KPA_KIAB_K@Z 100bf430 f i ImfOutputFile.obj
 0002:000604b0       ?_Orphan_range@?$vector@_KV?$allocator@_K@std@@@std@@IBEXPA_K0@Z 100bf4b0 f i ImfOutputFile.obj
 0002:000605c0       ?max_size@?$allocator@_K@std@@QBEIXZ 100bf5c0 f i ImfOutputFile.obj
 0002:00060630       ?max_size@?$allocator@UOutSliceInfo@?A0xae07d9b6@Imf@@@std@@QBEIXZ 100bf630 f i ImfOutputFile.obj
 0002:000606a0       ?capacity@?$vector@PAULineBuffer@?A0xae07d9b6@Imf@@V?$allocator@PAULineBuffer@?A0xae07d9b6@Imf@@@std@@@std@@QBEIXZ 100bf6a0 f i ImfOutputFile.obj
 0002:00060710       ?_Ufill@?$vector@PAULineBuffer@?A0xae07d9b6@Imf@@V?$allocator@PAULineBuffer@?A0xae07d9b6@Imf@@@std@@@std@@IAEPAPAULineBuffer@?A0xae07d9b6@Imf@@PAPAU345@IABQAU345@@Z 100bf710 f i ImfOutputFile.obj
 0002:00060790       ?_Orphan_range@?$vector@PAULineBuffer@?A0xae07d9b6@Imf@@V?$allocator@PAULineBuffer@?A0xae07d9b6@Imf@@@std@@@std@@IBEXPAPAULineBuffer@?A0xae07d9b6@Imf@@0@Z 100bf790 f i ImfOutputFile.obj
 0002:000608a0       ?max_size@?$allocator@PAULineBuffer@?A0xae07d9b6@Imf@@@std@@QBEIXZ 100bf8a0 f i ImfOutputFile.obj
 0002:00060910       ??Y?$_Vector_iterator@UOutSliceInfo@?A0xae07d9b6@Imf@@V?$allocator@UOutSliceInfo@?A0xae07d9b6@Imf@@@std@@@std@@QAEAAV01@H@Z 100bf910 f i ImfOutputFile.obj
 0002:00060970       ??0?$_Vector_const_iterator@UOutSliceInfo@?A0xae07d9b6@Imf@@V?$allocator@UOutSliceInfo@?A0xae07d9b6@Imf@@@std@@@std@@QAE@PAUOutSliceInfo@?A0xae07d9b6@Imf@@PBV_Container_base@1@@Z 100bf970 f i ImfOutputFile.obj
 0002:00060ab0       ??G?$_Vector_const_iterator@UOutSliceInfo@?A0xae07d9b6@Imf@@V?$allocator@UOutSliceInfo@?A0xae07d9b6@Imf@@@std@@@std@@QBEHABV01@@Z 100bfab0 f i ImfOutputFile.obj
 0002:00060b20       ??9?$_Vector_const_iterator@UOutSliceInfo@?A0xae07d9b6@Imf@@V?$allocator@UOutSliceInfo@?A0xae07d9b6@Imf@@@std@@@std@@QBE_NABV01@@Z 100bfb20 f i ImfOutputFile.obj
 0002:00060b90       ??M?$_Vector_const_iterator@UOutSliceInfo@?A0xae07d9b6@Imf@@V?$allocator@UOutSliceInfo@?A0xae07d9b6@Imf@@@std@@@std@@QBE_NABV01@@Z 100bfb90 f i ImfOutputFile.obj
 0002:00060c00       ??0?$_Vector_iterator@_KV?$allocator@_K@std@@@std@@QAE@PA_KPBV_Container_base@1@@Z 100bfc00 f i ImfOutputFile.obj
 0002:00060c60       ??Y?$_Vector_iterator@_KV?$allocator@_K@std@@@std@@QAEAAV01@H@Z 100bfc60 f i ImfOutputFile.obj
 0002:00060cc0       ??9?$_Vector_const_iterator@_KV?$allocator@_K@std@@@std@@QBE_NABV01@@Z 100bfcc0 f i ImfOutputFile.obj
 0002:00060d30       ??M?$_Vector_const_iterator@_KV?$allocator@_K@std@@@std@@QBE_NABV01@@Z 100bfd30 f i ImfOutputFile.obj
 0002:00060da0       ??0?$_Vector_iterator@PAULineBuffer@?A0xae07d9b6@Imf@@V?$allocator@PAULineBuffer@?A0xae07d9b6@Imf@@@std@@@std@@QAE@PAPAULineBuffer@?A0xae07d9b6@Imf@@PBV_Container_base@1@@Z 100bfda0 f i ImfOutputFile.obj
 0002:00060e00       ??Y?$_Vector_iterator@PAULineBuffer@?A0xae07d9b6@Imf@@V?$allocator@PAULineBuffer@?A0xae07d9b6@Imf@@@std@@@std@@QAEAAV01@H@Z 100bfe00 f i ImfOutputFile.obj
 0002:00060e60       ??9?$_Vector_const_iterator@PAULineBuffer@?A0xae07d9b6@Imf@@V?$allocator@PAULineBuffer@?A0xae07d9b6@Imf@@@std@@@std@@QBE_NABV01@@Z 100bfe60 f i ImfOutputFile.obj
 0002:00060ed0       ??M?$_Vector_const_iterator@PAULineBuffer@?A0xae07d9b6@Imf@@V?$allocator@PAULineBuffer@?A0xae07d9b6@Imf@@@std@@@std@@QBE_NABV01@@Z 100bfed0 f i ImfOutputFile.obj
 0002:00060f40       ??0?$_Ranit@UOutSliceInfo@?A0xae07d9b6@Imf@@HPBU123@ABU123@@std@@QAE@XZ 100bff40 f i ImfOutputFile.obj
 0002:00060fa0       ??Y?$_Vector_const_iterator@UOutSliceInfo@?A0xae07d9b6@Imf@@V?$allocator@UOutSliceInfo@?A0xae07d9b6@Imf@@@std@@@std@@QAEAAV01@H@Z 100bffa0 f i ImfOutputFile.obj
 0002:00061120       ??8?$_Vector_const_iterator@UOutSliceInfo@?A0xae07d9b6@Imf@@V?$allocator@UOutSliceInfo@?A0xae07d9b6@Imf@@@std@@@std@@QBE_NABV01@@Z 100c0120 f i ImfOutputFile.obj
 0002:00061190       ?_Compat@?$_Vector_const_iterator@UOutSliceInfo@?A0xae07d9b6@Imf@@V?$allocator@UOutSliceInfo@?A0xae07d9b6@Imf@@@std@@@std@@QBEXABV12@@Z 100c0190 f i ImfOutputFile.obj
 0002:00061290       ??0?$_Vector_const_iterator@_KV?$allocator@_K@std@@@std@@QAE@PA_KPBV_Container_base@1@@Z 100c0290 f i ImfOutputFile.obj
 0002:000613d0       ??Y?$_Vector_const_iterator@_KV?$allocator@_K@std@@@std@@QAEAAV01@H@Z 100c03d0 f i ImfOutputFile.obj
 0002:00061550       ??8?$_Vector_const_iterator@_KV?$allocator@_K@std@@@std@@QBE_NABV01@@Z 100c0550 f i ImfOutputFile.obj
 0002:000615c0       ?_Compat@?$_Vector_const_iterator@_KV?$allocator@_K@std@@@std@@QBEXABV12@@Z 100c05c0 f i ImfOutputFile.obj
 0002:000616c0       ??0?$_Vector_const_iterator@PAULineBuffer@?A0xae07d9b6@Imf@@V?$allocator@PAULineBuffer@?A0xae07d9b6@Imf@@@std@@@std@@QAE@PAPAULineBuffer@?A0xae07d9b6@Imf@@PBV_Container_base@1@@Z 100c06c0 f i ImfOutputFile.obj
 0002:00061800       ??Y?$_Vector_const_iterator@PAULineBuffer@?A0xae07d9b6@Imf@@V?$allocator@PAULineBuffer@?A0xae07d9b6@Imf@@@std@@@std@@QAEAAV01@H@Z 100c0800 f i ImfOutputFile.obj
 0002:00061980       ??8?$_Vector_const_iterator@PAULineBuffer@?A0xae07d9b6@Imf@@V?$allocator@PAULineBuffer@?A0xae07d9b6@Imf@@@std@@@std@@QBE_NABV01@@Z 100c0980 f i ImfOutputFile.obj
 0002:000619f0       ?_Compat@?$_Vector_const_iterator@PAULineBuffer@?A0xae07d9b6@Imf@@V?$allocator@PAULineBuffer@?A0xae07d9b6@Imf@@@std@@@std@@QBEXABV12@@Z 100c09f0 f i ImfOutputFile.obj
 0002:00061af0       ??0?$_Ranit@_KHPB_KAB_K@std@@QAE@XZ 100c0af0 f i ImfOutputFile.obj
 0002:00061b50       ??0?$_Ranit@PAULineBuffer@?A0xae07d9b6@Imf@@HPBQAU123@ABQAU123@@std@@QAE@XZ 100c0b50 f i ImfOutputFile.obj
 0002:00061bb0       ??8?$Box@V?$Vec2@H@Imath@@@Imath@@QBE_NABV01@@Z 100c0bb0 f i ImfOutputFile.obj
 0002:00061c60       ??$write@UStreamIO@Imf@@VOStream@2@@Xdr@Imf@@YAXAAVOStream@1@_K@Z 100c0c60 f i ImfOutputFile.obj
 0002:00061da0       ??$unchecked_copy@PAUOutSliceInfo@?A0xae07d9b6@Imf@@PAU123@@stdext@@YAPAUOutSliceInfo@?A0xae07d9b6@Imf@@PAU123@00@Z 100c0da0 f i ImfOutputFile.obj
 0002:00061e70       ??$_Ucopy@PAUOutSliceInfo@?A0xae07d9b6@Imf@@@?$vector@UOutSliceInfo@?A0xae07d9b6@Imf@@V?$allocator@UOutSliceInfo@?A0xae07d9b6@Imf@@@std@@@std@@IAEPAUOutSliceInfo@?A0xae07d9b6@Imf@@PAU234@00@Z 100c0e70 f i ImfOutputFile.obj
 0002:00061ee0       ??$_Destroy_range@UOutSliceInfo@?A0xae07d9b6@Imf@@V?$allocator@UOutSliceInfo@?A0xae07d9b6@Imf@@@std@@@std@@YAXPAUOutSliceInfo@?A0xae07d9b6@Imf@@0AAV?$allocator@UOutSliceInfo@?A0xae07d9b6@Imf@@@0@@Z 100c0ee0 f i ImfOutputFile.obj
 0002:00061f60       ??$unchecked_uninitialized_fill_n@PAUOutSliceInfo@?A0xae07d9b6@Imf@@IU123@V?$allocator@UOutSliceInfo@?A0xae07d9b6@Imf@@@std@@@stdext@@YAXPAUOutSliceInfo@?A0xae07d9b6@Imf@@IABU123@AAV?$allocator@UOutSliceInfo@?A0xae07d9b6@Imf@@@std@@@Z 100c0f60 f i ImfOutputFile.obj
 0002:00062000       ??$unchecked_copy@PA_KPA_K@stdext@@YAPA_KPA_K00@Z 100c1000 f i ImfOutputFile.obj
 0002:000620d0       ??$_Destroy_range@_KV?$allocator@_K@std@@@std@@YAXPA_K0AAV?$allocator@_K@0@@Z 100c10d0 f i ImfOutputFile.obj
 0002:00062150       ??$_Umove@PA_K@?$vector@_KV?$allocator@_K@std@@@std@@IAEPA_KPA_K00@Z 100c1150 f i ImfOutputFile.obj
 0002:000621c0       ??$fill@PA_K_K@std@@YAXPA_K0AB_K@Z 100c11c0 f i ImfOutputFile.obj
 0002:00062230       ??$_Unchecked_move_backward@PA_KPA_K@stdext@@YAPA_KPA_K00@Z 100c1230 f i ImfOutputFile.obj
 0002:000622f0       ??$_Allocate@_K@std@@YAPA_KIPA_K@Z 100c12f0 f i ImfOutputFile.obj
 0002:00062390       ??$_Umove@PAUOutSliceInfo@?A0xae07d9b6@Imf@@@?$vector@UOutSliceInfo@?A0xae07d9b6@Imf@@V?$allocator@UOutSliceInfo@?A0xae07d9b6@Imf@@@std@@@std@@IAEPAUOutSliceInfo@?A0xae07d9b6@Imf@@PAU234@00@Z 100c1390 f i ImfOutputFile.obj
 0002:00062400       ??$fill@PAUOutSliceInfo@?A0xae07d9b6@Imf@@U123@@std@@YAXPAUOutSliceInfo@?A0xae07d9b6@Imf@@0ABU123@@Z 100c1400 f i ImfOutputFile.obj
 0002:00062470       ??$_Unchecked_move_backward@PAUOutSliceInfo@?A0xae07d9b6@Imf@@PAU123@@stdext@@YAPAUOutSliceInfo@?A0xae07d9b6@Imf@@PAU123@00@Z 100c1470 f i ImfOutputFile.obj
 0002:00062530       ??$_Allocate@UOutSliceInfo@?A0xae07d9b6@Imf@@@std@@YAPAUOutSliceInfo@?A0xae07d9b6@Imf@@IPAU123@@Z 100c1530 f i ImfOutputFile.obj
 0002:000625d0       ??$unchecked_copy@PAPAULineBuffer@?A0xae07d9b6@Imf@@PAPAU123@@stdext@@YAPAPAULineBuffer@?A0xae07d9b6@Imf@@PAPAU123@00@Z 100c15d0 f i ImfOutputFile.obj
 0002:000626a0       ??$_Destroy_range@PAULineBuffer@?A0xae07d9b6@Imf@@V?$allocator@PAULineBuffer@?A0xae07d9b6@Imf@@@std@@@std@@YAXPAPAULineBuffer@?A0xae07d9b6@Imf@@0AAV?$allocator@PAULineBuffer@?A0xae07d9b6@Imf@@@0@@Z 100c16a0 f i ImfOutputFile.obj
 0002:00062720       ??$_Umove@PAPAULineBuffer@?A0xae07d9b6@Imf@@@?$vector@PAULineBuffer@?A0xae07d9b6@Imf@@V?$allocator@PAULineBuffer@?A0xae07d9b6@Imf@@@std@@@std@@IAEPAPAULineBuffer@?A0xae07d9b6@Imf@@PAPAU234@00@Z 100c1720 f i ImfOutputFile.obj
 0002:00062790       ??$fill@PAPAULineBuffer@?A0xae07d9b6@Imf@@PAU123@@std@@YAXPAPAULineBuffer@?A0xae07d9b6@Imf@@0ABQAU123@@Z 100c1790 f i ImfOutputFile.obj
 0002:00062800       ??$_Unchecked_move_backward@PAPAULineBuffer@?A0xae07d9b6@Imf@@PAPAU123@@stdext@@YAPAPAULineBuffer@?A0xae07d9b6@Imf@@PAPAU123@00@Z 100c1800 f i ImfOutputFile.obj
 0002:000628c0       ??$_Allocate@PAULineBuffer@?A0xae07d9b6@Imf@@@std@@YAPAPAULineBuffer@?A0xae07d9b6@Imf@@IPAPAU123@@Z 100c18c0 f i ImfOutputFile.obj
 0002:00062960       ??$unchecked_uninitialized_fill_n@PA_KI_KV?$allocator@_K@std@@@stdext@@YAXPA_KIAB_KAAV?$allocator@_K@std@@@Z 100c1960 f i ImfOutputFile.obj
 0002:00062a00       ??$unchecked_uninitialized_fill_n@PAPAULineBuffer@?A0xae07d9b6@Imf@@IPAU123@V?$allocator@PAULineBuffer@?A0xae07d9b6@Imf@@@std@@@stdext@@YAXPAPAULineBuffer@?A0xae07d9b6@Imf@@IABQAU123@AAV?$allocator@PAULineBuffer@?A0xae07d9b6@Imf@@@std@@@Z 100c1a00 f i ImfOutputFile.obj
 0002:00062aa0       ??$?8H@?$Vec2@H@Imath@@QBE_NABV01@@Z 100c1aa0 f i ImfOutputFile.obj
 0002:00062b20       ??$_Checked_base@PAUOutSliceInfo@?A0xae07d9b6@Imf@@@std@@YAPAUOutSliceInfo@?A0xae07d9b6@Imf@@AAPAU123@@Z 100c1b20 f i ImfOutputFile.obj
 0002:00062bb0       ??$_Iter_random@PAUOutSliceInfo@?A0xae07d9b6@Imf@@PAU123@@std@@YA?AUrandom_access_iterator_tag@0@ABQAUOutSliceInfo@?A0xae07d9b6@Imf@@0@Z 100c1bb0 f i ImfOutputFile.obj
 0002:00062c20       ??$_Ptr_cat@PAUOutSliceInfo@?A0xae07d9b6@Imf@@PAU123@@std@@YA?AU_Nonscalar_ptr_iterator_tag@0@AAPAUOutSliceInfo@?A0xae07d9b6@Imf@@0@Z 100c1c20 f i ImfOutputFile.obj
 0002:00062c90       ??$_Copy_opt@PAUOutSliceInfo@?A0xae07d9b6@Imf@@PAU123@@std@@YAPAUOutSliceInfo@?A0xae07d9b6@Imf@@PAU123@00Urandom_access_iterator_tag@0@U_Nonscalar_ptr_iterator_tag@0@U_Range_checked_iterator_tag@0@@Z 100c1c90 f i ImfOutputFile.obj
 0002:00062d50       ??$unchecked_uninitialized_copy@PAUOutSliceInfo@?A0xae07d9b6@Imf@@PAU123@V?$allocator@UOutSliceInfo@?A0xae07d9b6@Imf@@@std@@@stdext@@YAPAUOutSliceInfo@?A0xae07d9b6@Imf@@PAU123@00AAV?$allocator@UOutSliceInfo@?A0xae07d9b6@Imf@@@std@@@Z 100c1d50 f i ImfOutputFile.obj
 0002:00062e00       ??$_Destroy_range@UOutSliceInfo@?A0xae07d9b6@Imf@@V?$allocator@UOutSliceInfo@?A0xae07d9b6@Imf@@@std@@@std@@YAXPAUOutSliceInfo@?A0xae07d9b6@Imf@@0AAV?$allocator@UOutSliceInfo@?A0xae07d9b6@Imf@@@0@U_Nonscalar_ptr_iterator_tag@0@@Z 100c1e00 f i ImfOutputFile.obj
 0002:00062e70       ??$_Uninit_fill_n@PAUOutSliceInfo@?A0xae07d9b6@Imf@@IU123@V?$allocator@UOutSliceInfo@?A0xae07d9b6@Imf@@@std@@@std@@YAXPAUOutSliceInfo@?A0xae07d9b6@Imf@@IABU123@AAV?$allocator@UOutSliceInfo@?A0xae07d9b6@Imf@@@0@U_Nonscalar_ptr_iterator_tag@0@U_Range_checked_iterator_tag@0@@Z 100c1e70 f i ImfOutputFile.obj
 0002:00062f80       ??$_Checked_base@PA_K@std@@YAPA_KAAPA_K@Z 100c1f80 f i ImfOutputFile.obj
 0002:00063010       ??$_Iter_random@PA_KPA_K@std@@YA?AUrandom_access_iterator_tag@0@ABQA_K0@Z 100c2010 f i ImfOutputFile.obj
 0002:00063080       ??$_Ptr_cat@PA_KPA_K@std@@YA?AU_Scalar_ptr_iterator_tag@0@AAPA_K0@Z 100c2080 f i ImfOutputFile.obj
 0002:000630f0       ??$_Copy_opt@PA_KPA_KUrandom_access_iterator_tag@std@@@std@@YAPA_KPA_K00Urandom_access_iterator_tag@0@U_Scalar_ptr_iterator_tag@0@U_Range_checked_iterator_tag@0@@Z 100c20f0 f i ImfOutputFile.obj
 0002:000631d0       ??$_Destroy_range@_KV?$allocator@_K@std@@@std@@YAXPA_K0AAV?$allocator@_K@0@U_Scalar_ptr_iterator_tag@0@@Z 100c21d0 f i ImfOutputFile.obj
 0002:00063200       ??$_Unchecked_uninitialized_move@PA_KPA_KV?$allocator@_K@std@@@stdext@@YAPA_KPA_K00AAV?$allocator@_K@std@@@Z 100c2200 f i ImfOutputFile.obj
 0002:000632b0       ??$_Fill@PA_K_K@std@@YAXPA_K0AB_K@Z 100c22b0 f i ImfOutputFile.obj
 0002:00063340       ??$_Move_cat@PA_K@std@@YA?AU_Undefined_move_tag@0@ABQA_K@Z 100c2340 f i ImfOutputFile.obj
 0002:000633b0       ??$_Move_backward_opt@PA_KPA_KUrandom_access_iterator_tag@std@@U_Undefined_move_tag@2@@std@@YAPA_KPA_K00Urandom_access_iterator_tag@0@U_Undefined_move_tag@0@U_Range_checked_iterator_tag@0@@Z 100c23b0 f i ImfOutputFile.obj
 0002:00063450       ??$_Unchecked_uninitialized_move@PAUOutSliceInfo@?A0xae07d9b6@Imf@@PAU123@V?$allocator@UOutSliceInfo@?A0xae07d9b6@Imf@@@std@@@stdext@@YAPAUOutSliceInfo@?A0xae07d9b6@Imf@@PAU123@00AAV?$allocator@UOutSliceInfo@?A0xae07d9b6@Imf@@@std@@@Z 100c2450 f i ImfOutputFile.obj
 0002:00063500       ??$_Fill@PAUOutSliceInfo@?A0xae07d9b6@Imf@@U123@@std@@YAXPAUOutSliceInfo@?A0xae07d9b6@Imf@@0ABU123@@Z 100c2500 f i ImfOutputFile.obj
 0002:00063590       ??$_Move_cat@PAUOutSliceInfo@?A0xae07d9b6@Imf@@@std@@YA?AU_Undefined_move_tag@0@ABQAUOutSliceInfo@?A0xae07d9b6@Imf@@@Z 100c2590 f i ImfOutputFile.obj
 0002:00063600       ??$_Move_backward_opt@PAUOutSliceInfo@?A0xae07d9b6@Imf@@PAU123@Urandom_access_iterator_tag@std@@U_Undefined_move_tag@5@@std@@YAPAUOutSliceInfo@?A0xae07d9b6@Imf@@PAU123@00Urandom_access_iterator_tag@0@U_Undefined_move_tag@0@U_Range_checked_iterator_tag@0@@Z 100c2600 f i ImfOutputFile.obj
 0002:000636a0       ??$_Checked_base@PAPAULineBuffer@?A0xae07d9b6@Imf@@@std@@YAPAPAULineBuffer@?A0xae07d9b6@Imf@@AAPAPAU123@@Z 100c26a0 f i ImfOutputFile.obj
 0002:00063730       ??$_Iter_random@PAPAULineBuffer@?A0xae07d9b6@Imf@@PAPAU123@@std@@YA?AUrandom_access_iterator_tag@0@ABQAPAULineBuffer@?A0xae07d9b6@Imf@@0@Z 100c2730 f i ImfOutputFile.obj
 0002:000637a0       ??$_Ptr_cat@PAPAULineBuffer@?A0xae07d9b6@Imf@@PAPAU123@@std@@YA?AU_Scalar_ptr_iterator_tag@0@AAPAPAULineBuffer@?A0xae07d9b6@Imf@@0@Z 100c27a0 f i ImfOutputFile.obj
 0002:00063810       ??$_Copy_opt@PAPAULineBuffer@?A0xae07d9b6@Imf@@PAPAU123@Urandom_access_iterator_tag@std@@@std@@YAPAPAULineBuffer@?A0xae07d9b6@Imf@@PAPAU123@00Urandom_access_iterator_tag@0@U_Scalar_ptr_iterator_tag@0@U_Range_checked_iterator_tag@0@@Z 100c2810 f i ImfOutputFile.obj
 0002:000638f0       ??$_Destroy_range@PAULineBuffer@?A0xae07d9b6@Imf@@V?$allocator@PAULineBuffer@?A0xae07d9b6@Imf@@@std@@@std@@YAXPAPAULineBuffer@?A0xae07d9b6@Imf@@0AAV?$allocator@PAULineBuffer@?A0xae07d9b6@Imf@@@0@U_Scalar_ptr_iterator_tag@0@@Z 100c28f0 f i ImfOutputFile.obj
 0002:00063920       ??$_Unchecked_uninitialized_move@PAPAULineBuffer@?A0xae07d9b6@Imf@@PAPAU123@V?$allocator@PAULineBuffer@?A0xae07d9b6@Imf@@@std@@@stdext@@YAPAPAULineBuffer@?A0xae07d9b6@Imf@@PAPAU123@00AAV?$allocator@PAULineBuffer@?A0xae07d9b6@Imf@@@std@@@Z 100c2920 f i ImfOutputFile.obj
 0002:000639d0       ??$_Fill@PAPAULineBuffer@?A0xae07d9b6@Imf@@PAU123@@std@@YAXPAPAULineBuffer@?A0xae07d9b6@Imf@@0ABQAU123@@Z 100c29d0 f i ImfOutputFile.obj
 0002:00063a60       ??$_Move_cat@PAPAULineBuffer@?A0xae07d9b6@Imf@@@std@@YA?AU_Undefined_move_tag@0@ABQAPAULineBuffer@?A0xae07d9b6@Imf@@@Z 100c2a60 f i ImfOutputFile.obj
 0002:00063ad0       ??$_Move_backward_opt@PAPAULineBuffer@?A0xae07d9b6@Imf@@PAPAU123@Urandom_access_iterator_tag@std@@U_Undefined_move_tag@5@@std@@YAPAPAULineBuffer@?A0xae07d9b6@Imf@@PAPAU123@00Urandom_access_iterator_tag@0@U_Undefined_move_tag@0@U_Range_checked_iterator_tag@0@@Z 100c2ad0 f i ImfOutputFile.obj
 0002:00063b70       ??$_Uninit_fill_n@PA_KI_KV?$allocator@_K@std@@@std@@YAXPA_KIAB_KAAV?$allocator@_K@0@U_Scalar_ptr_iterator_tag@0@U_Range_checked_iterator_tag@0@@Z 100c2b70 f i ImfOutputFile.obj
 0002:00063bd0       ??$_Uninit_fill_n@PAPAULineBuffer@?A0xae07d9b6@Imf@@IPAU123@V?$allocator@PAULineBuffer@?A0xae07d9b6@Imf@@@std@@@std@@YAXPAPAULineBuffer@?A0xae07d9b6@Imf@@IABQAU123@AAV?$allocator@PAULineBuffer@?A0xae07d9b6@Imf@@@0@U_Scalar_ptr_iterator_tag@0@U_Range_checked_iterator_tag@0@@Z 100c2bd0 f i ImfOutputFile.obj
 0002:00063c30       ?construct@?$allocator@UOutSliceInfo@?A0xae07d9b6@Imf@@@std@@QAEXPAUOutSliceInfo@?A0xae07d9b6@Imf@@ABU345@@Z 100c2c30 f i ImfOutputFile.obj
 0002:00063c90       ?destroy@?$allocator@UOutSliceInfo@?A0xae07d9b6@Imf@@@std@@QAEXPAUOutSliceInfo@?A0xae07d9b6@Imf@@@Z 100c2c90 f i ImfOutputFile.obj
 0002:00063cf0       ??$_Checked_base@PAUOutSliceInfo@?A0xae07d9b6@Imf@@@std@@YAPAUOutSliceInfo@?A0xae07d9b6@Imf@@AAPAU123@U_Unchanged_checked_iterator_base_type_tag@0@@Z 100c2cf0 f i ImfOutputFile.obj
 0002:00063d30       ??$_Copy_opt@PAUOutSliceInfo@?A0xae07d9b6@Imf@@PAU123@Uforward_iterator_tag@std@@@std@@YAPAUOutSliceInfo@?A0xae07d9b6@Imf@@PAU123@00Uforward_iterator_tag@0@U_Nonscalar_ptr_iterator_tag@0@U_Range_checked_iterator_tag@0@@Z 100c2d30 f i ImfOutputFile.obj
 0002:00063dd0       ??$_Uninit_copy@PAUOutSliceInfo@?A0xae07d9b6@Imf@@PAU123@V?$allocator@UOutSliceInfo@?A0xae07d9b6@Imf@@@std@@@std@@YAPAUOutSliceInfo@?A0xae07d9b6@Imf@@PAU123@00AAV?$allocator@UOutSliceInfo@?A0xae07d9b6@Imf@@@0@U_Nonscalar_ptr_iterator_tag@0@U_Range_checked_iterator_tag@0@@Z 100c2dd0 f i ImfOutputFile.obj
 0002:00063f20       ??$_Checked_base@PA_K@std@@YAPA_KAAPA_KU_Unchanged_checked_iterator_base_type_tag@0@@Z 100c2f20 f i ImfOutputFile.obj
 0002:00063f60       ??$_Debug_range@PA_K@std@@YAXPA_K0PB_WI@Z 100c2f60 f i ImfOutputFile.obj
 0002:00063fe0       ??$_Debug_pointer@_K@std@@YAXPA_KPB_WI@Z 100c2fe0 f i ImfOutputFile.obj
 0002:00064050       ??$_Uninit_move@PA_KPA_KV?$allocator@_K@std@@U_Undefined_move_tag@2@@std@@YAPA_KPA_K00AAV?$allocator@_K@0@U_Undefined_move_tag@0@U_Range_checked_iterator_tag@0@@Z 100c3050 f i ImfOutputFile.obj
 0002:000640b0       ??$_Copy_backward_opt@PA_KPA_KUrandom_access_iterator_tag@std@@@std@@YAPA_KPA_K00Urandom_access_iterator_tag@0@U_Scalar_ptr_iterator_tag@0@U_Range_checked_iterator_tag@0@@Z 100c30b0 f i ImfOutputFile.obj
 0002:000641a0       ??$_Uninit_move@PAUOutSliceInfo@?A0xae07d9b6@Imf@@PAU123@V?$allocator@UOutSliceInfo@?A0xae07d9b6@Imf@@@std@@U_Undefined_move_tag@5@@std@@YAPAUOutSliceInfo@?A0xae07d9b6@Imf@@PAU123@00AAV?$allocator@UOutSliceInfo@?A0xae07d9b6@Imf@@@0@U_Undefined_move_tag@0@U_Range_checked_iterator_tag@0@@Z 100c31a0 f i ImfOutputFile.obj
 0002:00064200       ??$_Debug_range@PAUOutSliceInfo@?A0xae07d9b6@Imf@@@std@@YAXPAUOutSliceInfo@?A0xae07d9b6@Imf@@0PB_WI@Z 100c3200 f i ImfOutputFile.obj
 0002:00064280       ??$_Copy_backward_opt@PAUOutSliceInfo@?A0xae07d9b6@Imf@@PAU123@@std@@YAPAUOutSliceInfo@?A0xae07d9b6@Imf@@PAU123@00Urandom_access_iterator_tag@0@U_Nonscalar_ptr_iterator_tag@0@U_Range_checked_iterator_tag@0@@Z 100c3280 f i ImfOutputFile.obj
 0002:00064340       ??$_Checked_base@PAPAULineBuffer@?A0xae07d9b6@Imf@@@std@@YAPAPAULineBuffer@?A0xae07d9b6@Imf@@AAPAPAU123@U_Unchanged_checked_iterator_base_type_tag@0@@Z 100c3340 f i ImfOutputFile.obj
 0002:00064380       ??$_Debug_range@PAPAULineBuffer@?A0xae07d9b6@Imf@@@std@@YAXPAPAULineBuffer@?A0xae07d9b6@Imf@@0PB_WI@Z 100c3380 f i ImfOutputFile.obj
 0002:00064400       ??$_Debug_pointer@PAULineBuffer@?A0xae07d9b6@Imf@@@std@@YAXPAPAULineBuffer@?A0xae07d9b6@Imf@@PB_WI@Z 100c3400 f i ImfOutputFile.obj
 0002:00064470       ??$_Uninit_move@PAPAULineBuffer@?A0xae07d9b6@Imf@@PAPAU123@V?$allocator@PAULineBuffer@?A0xae07d9b6@Imf@@@std@@U_Undefined_move_tag@5@@std@@YAPAPAULineBuffer@?A0xae07d9b6@Imf@@PAPAU123@00AAV?$allocator@PAULineBuffer@?A0xae07d9b6@Imf@@@0@U_Undefined_move_tag@0@U_Range_checked_iterator_tag@0@@Z 100c3470 f i ImfOutputFile.obj
 0002:000644d0       ??$_Copy_backward_opt@PAPAULineBuffer@?A0xae07d9b6@Imf@@PAPAU123@Urandom_access_iterator_tag@std@@@std@@YAPAPAULineBuffer@?A0xae07d9b6@Imf@@PAPAU123@00Urandom_access_iterator_tag@0@U_Scalar_ptr_iterator_tag@0@U_Range_checked_iterator_tag@0@@Z 100c34d0 f i ImfOutputFile.obj
 0002:000645c0       ??$unchecked_fill_n@PA_KI_K@stdext@@YAXPA_KIAB_K@Z 100c35c0 f i ImfOutputFile.obj
 0002:00064650       ??$unchecked_fill_n@PAPAULineBuffer@?A0xae07d9b6@Imf@@IPAU123@@stdext@@YAXPAPAULineBuffer@?A0xae07d9b6@Imf@@IABQAU123@@Z 100c3650 f i ImfOutputFile.obj
 0002:000646e0       ??$_Construct@UOutSliceInfo@?A0xae07d9b6@Imf@@U123@@std@@YAXPAUOutSliceInfo@?A0xae07d9b6@Imf@@ABU123@@Z 100c36e0 f i ImfOutputFile.obj
 0002:00064780       ??$_Destroy@UOutSliceInfo@?A0xae07d9b6@Imf@@@std@@YAXPAUOutSliceInfo@?A0xae07d9b6@Imf@@@Z 100c3780 f i ImfOutputFile.obj
 0002:000647b0       ??$_Debug_pointer@UOutSliceInfo@?A0xae07d9b6@Imf@@@std@@YAXPAUOutSliceInfo@?A0xae07d9b6@Imf@@PB_WI@Z 100c37b0 f i ImfOutputFile.obj
 0002:00064820       ??$_Iter_cat@PA_K@std@@YA?AUrandom_access_iterator_tag@0@ABQA_K@Z 100c3820 f i ImfOutputFile.obj
 0002:00064890       ??$_Debug_range2@PA_K@std@@YAXPA_K0PB_WIUrandom_access_iterator_tag@0@@Z 100c3890 f i ImfOutputFile.obj
 0002:00064940       ??$unchecked_uninitialized_copy@PA_KPA_KV?$allocator@_K@std@@@stdext@@YAPA_KPA_K00AAV?$allocator@_K@std@@@Z 100c3940 f i ImfOutputFile.obj
 0002:000649f0       ??$_Iter_cat@PAUOutSliceInfo@?A0xae07d9b6@Imf@@@std@@YA?AUrandom_access_iterator_tag@0@ABQAUOutSliceInfo@?A0xae07d9b6@Imf@@@Z 100c39f0 f i ImfOutputFile.obj
 0002:00064a60       ??$_Debug_range2@PAUOutSliceInfo@?A0xae07d9b6@Imf@@@std@@YAXPAUOutSliceInfo@?A0xae07d9b6@Imf@@0PB_WIUrandom_access_iterator_tag@0@@Z 100c3a60 f i ImfOutputFile.obj
 0002:00064b10       ??$_Copy_backward_opt@PAUOutSliceInfo@?A0xae07d9b6@Imf@@PAU123@Uforward_iterator_tag@std@@@std@@YAPAUOutSliceInfo@?A0xae07d9b6@Imf@@PAU123@00Uforward_iterator_tag@0@U_Nonscalar_ptr_iterator_tag@0@U_Range_checked_iterator_tag@0@@Z 100c3b10 f i ImfOutputFile.obj
 0002:00064bb0       ??$_Iter_cat@PAPAULineBuffer@?A0xae07d9b6@Imf@@@std@@YA?AUrandom_access_iterator_tag@0@ABQAPAULineBuffer@?A0xae07d9b6@Imf@@@Z 100c3bb0 f i ImfOutputFile.obj
 0002:00064c20       ??$_Debug_range2@PAPAULineBuffer@?A0xae07d9b6@Imf@@@std@@YAXPAPAULineBuffer@?A0xae07d9b6@Imf@@0PB_WIUrandom_access_iterator_tag@0@@Z 100c3c20 f i ImfOutputFile.obj
 0002:00064cd0       ??$unchecked_uninitialized_copy@PAPAULineBuffer@?A0xae07d9b6@Imf@@PAPAU123@V?$allocator@PAULineBuffer@?A0xae07d9b6@Imf@@@std@@@stdext@@YAPAPAULineBuffer@?A0xae07d9b6@Imf@@PAPAU123@00AAV?$allocator@PAULineBuffer@?A0xae07d9b6@Imf@@@std@@@Z 100c3cd0 f i ImfOutputFile.obj
 0002:00064d80       ??$_Fill_n@PA_KI_K@std@@YAXPA_KIAB_KUrandom_access_iterator_tag@0@U_Range_checked_iterator_tag@0@@Z 100c3d80 f i ImfOutputFile.obj
 0002:00064e10       ??$_Fill_n@PAPAULineBuffer@?A0xae07d9b6@Imf@@IPAU123@@std@@YAXPAPAULineBuffer@?A0xae07d9b6@Imf@@IABQAU123@Urandom_access_iterator_tag@0@U_Range_checked_iterator_tag@0@@Z 100c3e10 f i ImfOutputFile.obj
 0002:00064ea0       ??$_Uninit_copy@PA_KPA_KV?$allocator@_K@std@@@std@@YAPA_KPA_K00AAV?$allocator@_K@0@U_Scalar_ptr_iterator_tag@0@U_Range_checked_iterator_tag@0@@Z 100c3ea0 f i ImfOutputFile.obj
 0002:00064f70       ??$_Uninit_copy@PAPAULineBuffer@?A0xae07d9b6@Imf@@PAPAU123@V?$allocator@PAULineBuffer@?A0xae07d9b6@Imf@@@std@@@std@@YAPAPAULineBuffer@?A0xae07d9b6@Imf@@PAPAU123@00AAV?$allocator@PAULineBuffer@?A0xae07d9b6@Imf@@@0@U_Scalar_ptr_iterator_tag@0@U_Range_checked_iterator_tag@0@@Z 100c3f70 f i ImfOutputFile.obj
 0002:00065040       ??$_Fill_n@PA_KI_K@std@@YAXPA_KIAB_KU_Range_checked_iterator_tag@0@@Z 100c4040 f i ImfOutputFile.obj
 0002:000650b0       ??$_Fill_n@PAPAULineBuffer@?A0xae07d9b6@Imf@@IPAU123@@std@@YAXPAPAULineBuffer@?A0xae07d9b6@Imf@@IABQAU123@U_Range_checked_iterator_tag@0@@Z 100c40b0 f i ImfOutputFile.obj
 0002:00065110       ?bitmapFromData@?A0x7b5a27d6@Imf@@YAXQBGHQAEAAG2@Z 100c4110 f   ImfPizCompressor.obj
 0002:00065270       ?forwardLutFromBitmap@?A0x7b5a27d6@Imf@@YAGQBEQAG@Z 100c4270 f   ImfPizCompressor.obj
 0002:00065330       ?reverseLutFromBitmap@?A0x7b5a27d6@Imf@@YAGQBEQAG@Z 100c4330 f   ImfPizCompressor.obj
 0002:00065410       ?applyLut@?A0x7b5a27d6@Imf@@YAXQBGQAGH@Z 100c4410 f   ImfPizCompressor.obj
 0002:00065490       ?numSamples@?A0x7b5a27d6@Imf@@YAHHHH@Z 100c4490 f   ImfPizCompressor.obj
 0002:00065520       ??0PizCompressor@Imf@@QAE@ABVHeader@1@HH@Z 100c4520 f   ImfPizCompressor.obj
 0002:000658d0       ?header@Compressor@Imf@@QBEABVHeader@2@XZ 100c48d0 f i ImfPizCompressor.obj
 0002:00065910       ??_EPizCompressor@Imf@@UAEPAXI@Z 100c4910 f i ImfPizCompressor.obj
 0002:00065910       ??_GPizCompressor@Imf@@UAEPAXI@Z 100c4910 f i ImfPizCompressor.obj
 0002:00065980       ??1PizCompressor@Imf@@UAE@XZ 100c4980 f   ImfPizCompressor.obj
 0002:00065a40       ?numScanLines@PizCompressor@Imf@@UBEHXZ 100c4a40 f   ImfPizCompressor.obj
 0002:00065a80       ?format@PizCompressor@Imf@@UBE?AW4Format@Compressor@2@XZ 100c4a80 f   ImfPizCompressor.obj
 0002:00065ac0       ?compress@PizCompressor@Imf@@UAEHPBDHHAAPBD@Z 100c4ac0 f   ImfPizCompressor.obj
 0002:00065b90       ?compressTile@PizCompressor@Imf@@UAEHPBDHV?$Box@V?$Vec2@H@Imath@@@Imath@@AAPBD@Z 100c4b90 f   ImfPizCompressor.obj
 0002:00065c10       ?uncompress@PizCompressor@Imf@@UAEHPBDHHAAPBD@Z 100c4c10 f   ImfPizCompressor.obj
 0002:00065ce0       ?uncompressTile@PizCompressor@Imf@@UAEHPBDHV?$Box@V?$Vec2@H@Imath@@@Imath@@AAPBD@Z 100c4ce0 f   ImfPizCompressor.obj
 0002:00065d60       ?compress@PizCompressor@Imf@@AAEHPBDHV?$Box@V?$Vec2@H@Imath@@@Imath@@AAPBD@Z 100c4d60 f   ImfPizCompressor.obj
 0002:00066690       ?uncompress@PizCompressor@Imf@@AAEHPBDHV?$Box@V?$Vec2@H@Imath@@@Imath@@AAPBD@Z 100c5690 f   ImfPizCompressor.obj
 0002:00066f70       ??0?$AutoArray@E$0CAAA@@Imf@@QAE@XZ 100c5f70 f i ImfPizCompressor.obj
 0002:00066fe0       ??1?$AutoArray@E$0CAAA@@Imf@@QAE@XZ 100c5fe0 f i ImfPizCompressor.obj
 0002:00067050       ??B?$AutoArray@E$0CAAA@@Imf@@QAEPAEXZ 100c6050 f i ImfPizCompressor.obj
 0002:00067090       ??0?$AutoArray@G$0BAAAA@@Imf@@QAE@XZ 100c6090 f i ImfPizCompressor.obj
 0002:00067100       ??1?$AutoArray@G$0BAAAA@@Imf@@QAE@XZ 100c6100 f i ImfPizCompressor.obj
 0002:00067170       ??B?$AutoArray@G$0BAAAA@@Imf@@QAEPAGXZ 100c6170 f i ImfPizCompressor.obj
 0002:000671b0       ??$read@UCharPtrIO@Imf@@PBD@Xdr@Imf@@YAXAAPBDAAH@Z 100c61b0 f i ImfPizCompressor.obj
 0002:00067280       ??$read@UCharPtrIO@Imf@@PBD@Xdr@Imf@@YAXAAPBDAAG@Z 100c6280 f i ImfPizCompressor.obj
 0002:00067330       ??$write@UCharPtrIO@Imf@@PAD@Xdr@Imf@@YAXAAPADH@Z 100c6330 f i ImfPizCompressor.obj
 0002:000673f0       ??$write@UCharPtrIO@Imf@@PAD@Xdr@Imf@@YAXAAPADG@Z 100c63f0 f i ImfPizCompressor.obj
 0002:00067490       ??$write@UCharPtrIO@Imf@@PAD@Xdr@Imf@@YAXAAPADQBDH@Z 100c6490 f i ImfPizCompressor.obj
 0002:000674f0       ??$read@UCharPtrIO@Imf@@PBD@Xdr@Imf@@YAXAAPBDQADH@Z 100c64f0 f i ImfPizCompressor.obj
 0002:00067550       ??$readSignedChars@UCharPtrIO@Imf@@PBD@Xdr@Imf@@YAXAAPBDQACH@Z 100c6550 f i ImfPizCompressor.obj
 0002:000675b0       ??$writeSignedChars@UCharPtrIO@Imf@@PAD@Xdr@Imf@@YAXAAPADQBCH@Z 100c65b0 f i ImfPizCompressor.obj
 0002:00067610       ??0PreviewImage@Imf@@QAE@IIQBUPreviewRgba@1@@Z 100c6610 f   ImfPreviewImage.obj
 0002:00067810       ??0PreviewRgba@Imf@@QAE@EEEE@Z 100c6810 f i ImfPreviewImage.obj
 0002:00067880       ??_FPreviewRgba@Imf@@QAEXXZ 100c6880 f i ImfPreviewImage.obj
 0002:000678e0       ??0PreviewImage@Imf@@QAE@ABV01@@Z 100c68e0 f   ImfPreviewImage.obj
 0002:00067a90       ??1PreviewImage@Imf@@QAE@XZ 100c6a90 f   ImfPreviewImage.obj
 0002:00067b00       ??4PreviewImage@Imf@@QAEAAV01@ABV01@@Z 100c6b00 f   ImfPreviewImage.obj
 0002:00067cd0       ?staticTypeName@?$TypedAttribute@VPreviewImage@Imf@@@Imf@@SAPBDXZ 100c6cd0 f   ImfPreviewImageAttribute.obj
 0002:00067d10       ?writeValueTo@?$TypedAttribute@VPreviewImage@Imf@@@Imf@@UBEXAAVOStream@2@H@Z 100c6d10 f   ImfPreviewImageAttribute.obj
 0002:00067e60       ?pixels@PreviewImage@Imf@@QBEPBUPreviewRgba@2@XZ 100c6e60 f i ImfPreviewImageAttribute.obj
 0002:00067ea0       ?readValueFrom@?$TypedAttribute@VPreviewImage@Imf@@@Imf@@UAEXAAVIStream@2@HH@Z 100c6ea0 f   ImfPreviewImageAttribute.obj
 0002:000680b0       ??$write@UStreamIO@Imf@@VOStream@2@@Xdr@Imf@@YAXAAVOStream@1@I@Z 100c70b0 f i ImfPreviewImageAttribute.obj
 0002:00068170       ?numSamples@?A0xdde4bc13@Imf@@YAHHHH@Z 100c7170 f   ImfPxr24Compressor.obj
 0002:00068200       ?notEnoughData@?A0xdde4bc13@Imf@@YAXXZ 100c7200 f   ImfPxr24Compressor.obj
 0002:00068270       ?tooMuchData@?A0xdde4bc13@Imf@@YAXXZ 100c7270 f   ImfPxr24Compressor.obj
 0002:000682e0       ??0Pxr24Compressor@Imf@@QAE@ABVHeader@1@HH@Z 100c72e0 f   ImfPxr24Compressor.obj
 0002:00068490       ??_EPxr24Compressor@Imf@@UAEPAXI@Z 100c7490 f i ImfPxr24Compressor.obj
 0002:00068490       ??_GPxr24Compressor@Imf@@UAEPAXI@Z 100c7490 f i ImfPxr24Compressor.obj
 0002:00068500       ??1Pxr24Compressor@Imf@@UAE@XZ 100c7500 f   ImfPxr24Compressor.obj
 0002:000685a0       ?numScanLines@Pxr24Compressor@Imf@@UBEHXZ 100c75a0 f   ImfPxr24Compressor.obj
 0002:000685e0       ?format@Pxr24Compressor@Imf@@UBE?AW4Format@Compressor@2@XZ 100c75e0 f   ImfPxr24Compressor.obj
 0002:00068620       ?compress@Pxr24Compressor@Imf@@UAEHPBDHHAAPBD@Z 100c7620 f   ImfPxr24Compressor.obj
 0002:000686e0       ?compressTile@Pxr24Compressor@Imf@@UAEHPBDHV?$Box@V?$Vec2@H@Imath@@@Imath@@AAPBD@Z 100c76e0 f   ImfPxr24Compressor.obj
 0002:00068760       ?uncompress@Pxr24Compressor@Imf@@UAEHPBDHHAAPBD@Z 100c7760 f   ImfPxr24Compressor.obj
 0002:00068820       ?uncompressTile@Pxr24Compressor@Imf@@UAEHPBDHV?$Box@V?$Vec2@H@Imath@@@Imath@@AAPBD@Z 100c7820 f   ImfPxr24Compressor.obj
 0002:000688a0       ?compress@Pxr24Compressor@Imf@@AAEHPBDHV?$Box@V?$Vec2@H@Imath@@@Imath@@AAPBD@Z 100c78a0 f   ImfPxr24Compressor.obj
 0002:00069170       ?floatToFloat24@?A0xdde4bc13@Imf@@YAIM@Z 100c8170 f i ImfPxr24Compressor.obj
 0002:00069290       ?uncompress@Pxr24Compressor@Imf@@AAEHPBDHV?$Box@V?$Vec2@H@Imath@@@Imath@@AAPBD@Z 100c8290 f   ImfPxr24Compressor.obj
 0002:00069b00       ?insertChannels@?A0x09a9f3d3@Imf@@YAXAAVHeader@2@W4RgbaChannels@2@@Z 100c8b00 f   ImfRgbaFile.obj
 0002:00069d40       ?rgbaChannels@?A0x09a9f3d3@Imf@@YA?AW4RgbaChannels@2@ABVChannelList@2@@Z 100c8d40 f   ImfRgbaFile.obj
 0002:00069e70       ?ywFromHeader@?A0x09a9f3d3@Imf@@YA?AV?$Vec3@M@Imath@@ABVHeader@2@@Z 100c8e70 f   ImfRgbaFile.obj
 0002:00069fe0       ??0ToYca@RgbaOutputFile@Imf@@QAE@AAVOutputFile@2@W4RgbaChannels@2@@Z 100c8fe0 f   ImfRgbaFile.obj
 0002:0006a3d0       ??0Rgba@Imf@@QAE@XZ        100c93d0 f i ImfRgbaFile.obj
 0002:0006a450       ??_EToYca@RgbaOutputFile@Imf@@UAEPAXI@Z 100c9450 f i ImfRgbaFile.obj
 0002:0006a450       ??_GToYca@RgbaOutputFile@Imf@@UAEPAXI@Z 100c9450 f i ImfRgbaFile.obj
 0002:0006a4c0       ??1ToYca@RgbaOutputFile@Imf@@UAE@XZ 100c94c0 f   ImfRgbaFile.obj
 0002:0006a590       ?setYCRounding@ToYca@RgbaOutputFile@Imf@@QAEXII@Z 100c9590 f   ImfRgbaFile.obj
 0002:0006a5f0       ?setFrameBuffer@ToYca@RgbaOutputFile@Imf@@QAEXPBURgba@3@II@Z 100c95f0 f   ImfRgbaFile.obj
 0002:0006a8a0       ?writePixels@ToYca@RgbaOutputFile@Imf@@QAEXH@Z 100c98a0 f   ImfRgbaFile.obj
 0002:0006aed0       ??4Rgba@Imf@@QAEAAU01@ABU01@@Z 100c9ed0 f i ImfRgbaFile.obj
 0002:0006af80       ?currentScanLine@ToYca@RgbaOutputFile@Imf@@QBEHXZ 100c9f80 f   ImfRgbaFile.obj
 0002:0006afc0       ?padTmpBuf@ToYca@RgbaOutputFile@Imf@@AAEXXZ 100c9fc0 f   ImfRgbaFile.obj
 0002:0006b090       ?rotateBuffers@ToYca@RgbaOutputFile@Imf@@AAEXXZ 100ca090 f   ImfRgbaFile.obj
 0002:0006b120       ?duplicateLastBuffer@ToYca@RgbaOutputFile@Imf@@AAEXXZ 100ca120 f   ImfRgbaFile.obj
 0002:0006b1a0       ?duplicateSecondToLastBuffer@ToYca@RgbaOutputFile@Imf@@AAEXXZ 100ca1a0 f   ImfRgbaFile.obj
 0002:0006b220       ?decimateChromaVertAndWriteScanLine@ToYca@RgbaOutputFile@Imf@@AAEXXZ 100ca220 f   ImfRgbaFile.obj
 0002:0006b340       ??0RgbaOutputFile@Imf@@QAE@QBDABVHeader@1@W4RgbaChannels@1@H@Z 100ca340 f   ImfRgbaFile.obj
 0002:0006b560       ??_GRgbaOutputFile@Imf@@UAEPAXI@Z 100ca560 f i ImfRgbaFile.obj
 0002:0006b560       ??_ERgbaOutputFile@Imf@@UAEPAXI@Z 100ca560 f i ImfRgbaFile.obj
 0002:0006b5d0       ??0RgbaOutputFile@Imf@@QAE@AAVOStream@1@ABVHeader@1@W4RgbaChannels@1@H@Z 100ca5d0 f   ImfRgbaFile.obj
 0002:0006b7f0       ??0RgbaOutputFile@Imf@@QAE@QBDABV?$Box@V?$Vec2@H@Imath@@@Imath@@1W4RgbaChannels@1@MV?$Vec2@M@3@MW4LineOrder@1@W4Compression@1@H@Z 100ca7f0 f   ImfRgbaFile.obj
 0002:0006ba70       ??0RgbaOutputFile@Imf@@QAE@QBDHHW4RgbaChannels@1@MV?$Vec2@M@Imath@@MW4LineOrder@1@W4Compression@1@H@Z 100caa70 f   ImfRgbaFile.obj
 0002:0006bcb0       ??1RgbaOutputFile@Imf@@UAE@XZ 100cacb0 f   ImfRgbaFile.obj
 0002:0006bdd0       ?setFrameBuffer@RgbaOutputFile@Imf@@QAEXPBURgba@2@II@Z 100cadd0 f   ImfRgbaFile.obj
 0002:0006c060       ?writePixels@RgbaOutputFile@Imf@@QAEXH@Z 100cb060 f   ImfRgbaFile.obj
 0002:0006c180       ?currentScanLine@RgbaOutputFile@Imf@@QBEHXZ 100cb180 f   ImfRgbaFile.obj
 0002:0006c2a0       ?header@RgbaOutputFile@Imf@@QBEABVHeader@2@XZ 100cb2a0 f   ImfRgbaFile.obj
 0002:0006c300       ?frameBuffer@RgbaOutputFile@Imf@@QBEABVFrameBuffer@2@XZ 100cb300 f   ImfRgbaFile.obj
 0002:0006c360       ?displayWindow@RgbaOutputFile@Imf@@QBEABV?$Box@V?$Vec2@H@Imath@@@Imath@@XZ 100cb360 f   ImfRgbaFile.obj
 0002:0006c3c0       ?dataWindow@RgbaOutputFile@Imf@@QBEABV?$Box@V?$Vec2@H@Imath@@@Imath@@XZ 100cb3c0 f   ImfRgbaFile.obj
 0002:0006c420       ?pixelAspectRatio@RgbaOutputFile@Imf@@QBEMXZ 100cb420 f   ImfRgbaFile.obj
 0002:0006c480       ?screenWindowCenter@RgbaOutputFile@Imf@@QBE?BV?$Vec2@M@Imath@@XZ 100cb480 f   ImfRgbaFile.obj
 0002:0006c4f0       ?screenWindowWidth@RgbaOutputFile@Imf@@QBEMXZ 100cb4f0 f   ImfRgbaFile.obj
 0002:0006c550       ?lineOrder@RgbaOutputFile@Imf@@QBE?AW4LineOrder@2@XZ 100cb550 f   ImfRgbaFile.obj
 0002:0006c5b0       ?compression@RgbaOutputFile@Imf@@QBE?AW4Compression@2@XZ 100cb5b0 f   ImfRgbaFile.obj
 0002:0006c610       ?channels@RgbaOutputFile@Imf@@QBE?AW4RgbaChannels@2@XZ 100cb610 f   ImfRgbaFile.obj
 0002:0006c680       ?updatePreviewImage@RgbaOutputFile@Imf@@QAEXQBUPreviewRgba@2@@Z 100cb680 f   ImfRgbaFile.obj
 0002:0006c6e0       ?setYCRounding@RgbaOutputFile@Imf@@QAEXII@Z 100cb6e0 f   ImfRgbaFile.obj
 0002:0006c7f0       ?breakScanLine@RgbaOutputFile@Imf@@QAEXHHHD@Z 100cb7f0 f   ImfRgbaFile.obj
 0002:0006c860       ??0FromYca@RgbaInputFile@Imf@@QAE@AAVInputFile@2@W4RgbaChannels@2@@Z 100cb860 f   ImfRgbaFile.obj
 0002:0006cce0       ??_EFromYca@RgbaInputFile@Imf@@UAEPAXI@Z 100cbce0 f i ImfRgbaFile.obj
 0002:0006cce0       ??_GFromYca@RgbaInputFile@Imf@@UAEPAXI@Z 100cbce0 f i ImfRgbaFile.obj
 0002:0006cd50       ??1FromYca@RgbaInputFile@Imf@@UAE@XZ 100cbd50 f   ImfRgbaFile.obj
 0002:0006ce70       ?setFrameBuffer@FromYca@RgbaInputFile@Imf@@QAEXPAURgba@3@II@Z 100cbe70 f   ImfRgbaFile.obj
 0002:0006d120       ?readPixels@FromYca@RgbaInputFile@Imf@@QAEXHH@Z 100cc120 f   ImfRgbaFile.obj
 0002:0006d210       ?readPixels@FromYca@RgbaInputFile@Imf@@AAEXH@Z 100cc210 f   ImfRgbaFile.obj
 0002:0006d930       ?rotateBuf1@FromYca@RgbaInputFile@Imf@@AAEXH@Z 100cc930 f   ImfRgbaFile.obj
 0002:0006da70       ?rotateBuf2@FromYca@RgbaInputFile@Imf@@AAEXH@Z 100cca70 f   ImfRgbaFile.obj
 0002:0006db90       ?readYCAScanLine@FromYca@RgbaInputFile@Imf@@AAEXHQAURgba@3@@Z 100ccb90 f   ImfRgbaFile.obj
 0002:0006dd00       ??4half@@QAEAAV0@M@Z       100ccd00 f i ImfRgbaFile.obj
 0002:0006dd70       ?padTmpBuf@FromYca@RgbaInputFile@Imf@@AAEXXZ 100ccd70 f   ImfRgbaFile.obj
 0002:0006de40       ??0RgbaInputFile@Imf@@QAE@QBDH@Z 100cce40 f   ImfRgbaFile.obj
 0002:0006dff0       ??_ERgbaInputFile@Imf@@UAEPAXI@Z 100ccff0 f i ImfRgbaFile.obj
 0002:0006dff0       ??_GRgbaInputFile@Imf@@UAEPAXI@Z 100ccff0 f i ImfRgbaFile.obj
 0002:0006e060       ??0RgbaInputFile@Imf@@QAE@AAVIStream@1@H@Z 100cd060 f   ImfRgbaFile.obj
 0002:0006e210       ??1RgbaInputFile@Imf@@UAE@XZ 100cd210 f   ImfRgbaFile.obj
 0002:0006e330       ?setFrameBuffer@RgbaInputFile@Imf@@QAEXPAURgba@2@II@Z 100cd330 f   ImfRgbaFile.obj
 0002:0006e5c0       ?readPixels@RgbaInputFile@Imf@@QAEXHH@Z 100cd5c0 f   ImfRgbaFile.obj
 0002:0006e6e0       ?readPixels@RgbaInputFile@Imf@@QAEXH@Z 100cd6e0 f   ImfRgbaFile.obj
 0002:0006e740       ?isComplete@RgbaInputFile@Imf@@QBE_NXZ 100cd740 f   ImfRgbaFile.obj
 0002:0006e7a0       ?header@RgbaInputFile@Imf@@QBEABVHeader@2@XZ 100cd7a0 f   ImfRgbaFile.obj
 0002:0006e800       ?fileName@RgbaInputFile@Imf@@QBEPBDXZ 100cd800 f   ImfRgbaFile.obj
 0002:0006e860       ?frameBuffer@RgbaInputFile@Imf@@QBEABVFrameBuffer@2@XZ 100cd860 f   ImfRgbaFile.obj
 0002:0006e8c0       ?displayWindow@RgbaInputFile@Imf@@QBEABV?$Box@V?$Vec2@H@Imath@@@Imath@@XZ 100cd8c0 f   ImfRgbaFile.obj
 0002:0006e920       ?dataWindow@RgbaInputFile@Imf@@QBEABV?$Box@V?$Vec2@H@Imath@@@Imath@@XZ 100cd920 f   ImfRgbaFile.obj
 0002:0006e980       ?pixelAspectRatio@RgbaInputFile@Imf@@QBEMXZ 100cd980 f   ImfRgbaFile.obj
 0002:0006e9e0       ?screenWindowCenter@RgbaInputFile@Imf@@QBE?BV?$Vec2@M@Imath@@XZ 100cd9e0 f   ImfRgbaFile.obj
 0002:0006ea50       ?screenWindowWidth@RgbaInputFile@Imf@@QBEMXZ 100cda50 f   ImfRgbaFile.obj
 0002:0006eab0       ?lineOrder@RgbaInputFile@Imf@@QBE?AW4LineOrder@2@XZ 100cdab0 f   ImfRgbaFile.obj
 0002:0006eb10       ?compression@RgbaInputFile@Imf@@QBE?AW4Compression@2@XZ 100cdb10 f   ImfRgbaFile.obj
 0002:0006eb70       ?channels@RgbaInputFile@Imf@@QBE?AW4RgbaChannels@2@XZ 100cdb70 f   ImfRgbaFile.obj
 0002:0006ebe0       ?version@RgbaInputFile@Imf@@QBEHXZ 100cdbe0 f   ImfRgbaFile.obj
 0002:0006ec40       ?isEmpty@?$Box@V?$Vec2@H@Imath@@@Imath@@QBE_NXZ 100cdc40 f i ImfRgbaFile.obj
 0002:0006ece0       ?dimensions@?$Vec2@H@Imath@@SAIXZ 100cdce0 f i ImfRgbaFile.obj
 0002:0006ed20       ??A?$Vec2@H@Imath@@QBEABHH@Z 100cdd20 f i ImfRgbaFile.obj
 0002:0006ed70       ?computeYw@RgbaYca@Imf@@YA?AV?$Vec3@M@Imath@@ABUChromaticities@2@@Z 100cdd70 f   ImfRgbaYca.obj
 0002:0006eec0       ?RGBAtoYCA@RgbaYca@Imf@@YAXABV?$Vec3@M@Imath@@H_NQBURgba@2@QAU52@@Z 100cdec0 f   ImfRgbaYca.obj
 0002:0006f2a0       ?isFinite@half@@QBE_NXZ    100ce2a0 f i ImfRgbaYca.obj
 0002:0006f300       ?decimateChromaHoriz@RgbaYca@Imf@@YAXHQBURgba@2@QAU32@@Z 100ce300 f   ImfRgbaYca.obj
 0002:0006f8f0       ?decimateChromaVert@RgbaYca@Imf@@YAXHQBQBURgba@2@QAU32@@Z 100ce8f0 f   ImfRgbaYca.obj
 0002:0006ff20       ?roundYCA@RgbaYca@Imf@@YAXHIIQBURgba@2@QAU32@@Z 100cef20 f   ImfRgbaYca.obj
 0002:00070060       ?reconstructChromaHoriz@RgbaYca@Imf@@YAXHQBURgba@2@QAU32@@Z 100cf060 f   ImfRgbaYca.obj
 0002:00070640       ?reconstructChromaVert@RgbaYca@Imf@@YAXHQBQBURgba@2@QAU32@@Z 100cf640 f   ImfRgbaYca.obj
 0002:00070c00       ?YCAtoRGBA@RgbaYca@Imf@@YAXABV?$Vec3@M@Imath@@HQBURgba@2@QAU52@@Z 100cfc00 f   ImfRgbaYca.obj
 0002:00070df0       ?desaturate@?A0xaaf212b6@RgbaYca@Imf@@YAXABURgba@3@MABV?$Vec3@M@Imath@@AAU43@@Z 100cfdf0 f   ImfRgbaYca.obj
 0002:000710d0       ??Xhalf@@QAEAAV0@M@Z       100d00d0 f i ImfRgbaYca.obj
 0002:00071160       ?fixSaturation@RgbaYca@Imf@@YAXABV?$Vec3@M@Imath@@HQBQBURgba@2@QAU52@@Z 100d0160 f   ImfRgbaYca.obj
 0002:00071430       ?saturation@?A0xaaf212b6@RgbaYca@Imf@@YAMABURgba@3@@Z 100d0430 f i ImfRgbaYca.obj
 0002:00071520       ??K?$Vec3@M@Imath@@QBE?AV01@M@Z 100d0520 f i ImfRgbaYca.obj
 0002:000715e0       ??$max@Vhalf@@@std@@YAABVhalf@@ABV1@0@Z 100d05e0 f i ImfRgbaYca.obj
 0002:00071680       ??$min@Vhalf@@@std@@YAABVhalf@@ABV1@0@Z 100d0680 f i ImfRgbaYca.obj
 0002:00071720       ??$max@M@std@@YAABMABM0@Z  100d0720 f i ImfRgbaYca.obj
 0002:000717c0       ??$min@M@std@@YAABMABM0@Z  100d07c0 f i ImfRgbaYca.obj
 0002:00071860       ??$_Debug_lt@Vhalf@@V1@@std@@YA_NABVhalf@@0PB_WI@Z 100d0860 f i ImfRgbaYca.obj
 0002:00071930       ??$_Debug_lt@MM@std@@YA_NABM0PB_WI@Z 100d0930 f i ImfRgbaYca.obj
 0002:000719d0       ?rleCompress@?A0xe2edf97d@Imf@@YAHHQBDQAC@Z 100d09d0 f   ImfRleCompressor.obj
 0002:00071b90       ?rleUncompress@?A0xe2edf97d@Imf@@YAHHHQBCQAD@Z 100d0b90 f   ImfRleCompressor.obj
 0002:00071d30       ??0RleCompressor@Imf@@QAE@ABVHeader@1@H@Z 100d0d30 f   ImfRleCompressor.obj
 0002:00071e60       ??_GRleCompressor@Imf@@UAEPAXI@Z 100d0e60 f i ImfRleCompressor.obj
 0002:00071e60       ??_ERleCompressor@Imf@@UAEPAXI@Z 100d0e60 f i ImfRleCompressor.obj
 0002:00071ed0       ??1RleCompressor@Imf@@UAE@XZ 100d0ed0 f   ImfRleCompressor.obj
 0002:00071f70       ?numScanLines@RleCompressor@Imf@@UBEHXZ 100d0f70 f   ImfRleCompressor.obj
 0002:00071fb0       ?compress@RleCompressor@Imf@@UAEHPBDHHAAPBD@Z 100d0fb0 f   ImfRleCompressor.obj
 0002:00072160       ?uncompress@RleCompressor@Imf@@UAEHPBDHHAAPBD@Z 100d1160 f   ImfRleCompressor.obj
 0002:00072340       ??0InSliceInfo@?A0xe06365b4@Imf@@QAE@W4PixelType@2@0PADIIHH_N2N@Z 100d1340 f   ImfScanLineInputFile.obj
 0002:000723f0       ??0LineBuffer@?A0xe06365b4@Imf@@QAE@QAVCompressor@2@@Z 100d13f0 f   ImfScanLineInputFile.obj
 0002:00072520       ??1LineBuffer@?A0xe06365b4@Imf@@QAE@XZ 100d1520 f   ImfScanLineInputFile.obj
 0002:00072640       ??0Data@ScanLineInputFile@Imf@@QAE@PAVIStream@2@H@Z 100d1640 f   ImfScanLineInputFile.obj
 0002:00072810       ??_EData@ScanLineInputFile@Imf@@UAEPAXI@Z 100d1810 f i ImfScanLineInputFile.obj
 0002:00072810       ??_GData@ScanLineInputFile@Imf@@UAEPAXI@Z 100d1810 f i ImfScanLineInputFile.obj
 0002:00072880       ??1Data@ScanLineInputFile@Imf@@UAE@XZ 100d1880 f   ImfScanLineInputFile.obj
 0002:00072a50       ??_GLineBuffer@?A0xe06365b4@Imf@@QAEPAXI@Z 100d1a50 f i ImfScanLineInputFile.obj
 0002:00072ac0       ?reconstructLineOffsets@?A0xe06365b4@Imf@@YAXAAVIStream@2@W4LineOrder@2@AAV?$vector@_KV?$allocator@_K@std@@@std@@@Z 100d1ac0 f   ImfScanLineInputFile.obj
 0002:00072d40       ?readLineOffsets@?A0xe06365b4@Imf@@YAXAAVIStream@2@W4LineOrder@2@AAV?$vector@_KV?$allocator@_K@std@@@std@@AA_N@Z 100d1d40 f   ImfScanLineInputFile.obj
 0002:00072e50       ?readPixelData@?A0xe06365b4@Imf@@YAXPAUData@ScanLineInputFile@2@HAAPADAAH@Z 100d1e50 f   ImfScanLineInputFile.obj
 0002:00073230       ??0LineBufferTask@?A0xe06365b4@Imf@@QAE@PAVTaskGroup@IlmThread@@PAUData@ScanLineInputFile@2@PAULineBuffer@12@HH@Z 100d2230 f   ImfScanLineInputFile.obj
 0002:000732d0       ??_ELineBufferTask@?A0xe06365b4@Imf@@UAEPAXI@Z 100d22d0 f i ImfScanLineInputFile.obj
 0002:000732d0       ??_GLineBufferTask@?A0xe06365b4@Imf@@UAEPAXI@Z 100d22d0 f i ImfScanLineInputFile.obj
 0002:00073340       ??1LineBufferTask@?A0xe06365b4@Imf@@UAE@XZ 100d2340 f   ImfScanLineInputFile.obj
 0002:000733f0       ?post@LineBuffer@?A0xe06365b4@Imf@@QAEXXZ 100d23f0 f i ImfScanLineInputFile.obj
 0002:00073450       ?execute@LineBufferTask@?A0xe06365b4@Imf@@UAEXXZ 100d2450 f   ImfScanLineInputFile.obj
 0002:00073b00       ?newLineBufferTask@?A0xe06365b4@Imf@@YAPAVLineBufferTask@12@PAVTaskGroup@IlmThread@@PAUData@ScanLineInputFile@2@HHH@Z 100d2b00 f   ImfScanLineInputFile.obj
 0002:00073d20       ?wait@LineBuffer@?A0xe06365b4@Imf@@QAEXXZ 100d2d20 f i ImfScanLineInputFile.obj
 0002:00073d80       ?getLineBuffer@Data@ScanLineInputFile@Imf@@QAEPAULineBuffer@?A0xe06365b4@3@H@Z 100d2d80 f i ImfScanLineInputFile.obj
 0002:00073e00       ??0ScanLineInputFile@Imf@@QAE@ABVHeader@1@PAVIStream@1@H@Z 100d2e00 f   ImfScanLineInputFile.obj
 0002:00074430       ??_EScanLineInputFile@Imf@@UAEPAXI@Z 100d3430 f i ImfScanLineInputFile.obj
 0002:00074430       ??_GScanLineInputFile@Imf@@UAEPAXI@Z 100d3430 f i ImfScanLineInputFile.obj
 0002:000744a0       ??1ScanLineInputFile@Imf@@UAE@XZ 100d34a0 f   ImfScanLineInputFile.obj
 0002:00074600       ?fileName@ScanLineInputFile@Imf@@QBEPBDXZ 100d3600 f   ImfScanLineInputFile.obj
 0002:00074660       ?header@ScanLineInputFile@Imf@@QBEABVHeader@2@XZ 100d3660 f   ImfScanLineInputFile.obj
 0002:000746a0       ?version@ScanLineInputFile@Imf@@QBEHXZ 100d36a0 f   ImfScanLineInputFile.obj
 0002:000746e0       ?setFrameBuffer@ScanLineInputFile@Imf@@QAEXABVFrameBuffer@2@@Z 100d36e0 f   ImfScanLineInputFile.obj
 0002:000750b0       ?frameBuffer@ScanLineInputFile@Imf@@QBEABVFrameBuffer@2@XZ 100d40b0 f   ImfScanLineInputFile.obj
 0002:00075170       ?isComplete@ScanLineInputFile@Imf@@QBE_NXZ 100d4170 f   ImfScanLineInputFile.obj
 0002:000751c0       ?readPixels@ScanLineInputFile@Imf@@QAEXHH@Z 100d41c0 f   ImfScanLineInputFile.obj
 0002:00075780       ?readPixels@ScanLineInputFile@Imf@@QAEXH@Z 100d4780 f   ImfScanLineInputFile.obj
 0002:000757e0       ?rawPixelData@ScanLineInputFile@Imf@@QAEXHAAPBDAAH@Z 100d47e0 f   ImfScanLineInputFile.obj
 0002:00075b30       ??0?$vector@UInSliceInfo@?A0xe06365b4@Imf@@V?$allocator@UInSliceInfo@?A0xe06365b4@Imf@@@std@@@std@@QAE@XZ 100d4b30 f i ImfScanLineInputFile.obj
 0002:00075bf0       ??1?$vector@UInSliceInfo@?A0xe06365b4@Imf@@V?$allocator@UInSliceInfo@?A0xe06365b4@Imf@@@std@@@std@@QAE@XZ 100d4bf0 f i ImfScanLineInputFile.obj
 0002:00075c90       ??4?$vector@UInSliceInfo@?A0xe06365b4@Imf@@V?$allocator@UInSliceInfo@?A0xe06365b4@Imf@@@std@@@std@@QAEAAV01@ABV01@@Z 100d4c90 f i ImfScanLineInputFile.obj
 0002:00075ed0       ?size@?$vector@UInSliceInfo@?A0xe06365b4@Imf@@V?$allocator@UInSliceInfo@?A0xe06365b4@Imf@@@std@@@std@@QBEIXZ 100d4ed0 f i ImfScanLineInputFile.obj
 0002:00075f50       ??A?$vector@UInSliceInfo@?A0xe06365b4@Imf@@V?$allocator@UInSliceInfo@?A0xe06365b4@Imf@@@std@@@std@@QAEAAUInSliceInfo@?A0xe06365b4@Imf@@I@Z 100d4f50 f i ImfScanLineInputFile.obj
 0002:000760d0       ?push_back@?$vector@UInSliceInfo@?A0xe06365b4@Imf@@V?$allocator@UInSliceInfo@?A0xe06365b4@Imf@@@std@@@std@@QAEXABUInSliceInfo@?A0xe06365b4@Imf@@@Z 100d50d0 f i ImfScanLineInputFile.obj
 0002:000761c0       ??0?$vector@PAULineBuffer@?A0xe06365b4@Imf@@V?$allocator@PAULineBuffer@?A0xe06365b4@Imf@@@std@@@std@@QAE@XZ 100d51c0 f i ImfScanLineInputFile.obj
 0002:00076280       ??1?$vector@PAULineBuffer@?A0xe06365b4@Imf@@V?$allocator@PAULineBuffer@?A0xe06365b4@Imf@@@std@@@std@@QAE@XZ 100d5280 f i ImfScanLineInputFile.obj
 0002:00076320       ?resize@?$vector@PAULineBuffer@?A0xe06365b4@Imf@@V?$allocator@PAULineBuffer@?A0xe06365b4@Imf@@@std@@@std@@QAEXI@Z 100d5320 f i ImfScanLineInputFile.obj
 0002:00076380       ?size@?$vector@PAULineBuffer@?A0xe06365b4@Imf@@V?$allocator@PAULineBuffer@?A0xe06365b4@Imf@@@std@@@std@@QBEIXZ 100d5380 f i ImfScanLineInputFile.obj
 0002:000763f0       ??A?$vector@PAULineBuffer@?A0xe06365b4@Imf@@V?$allocator@PAULineBuffer@?A0xe06365b4@Imf@@@std@@@std@@QAEAAPAULineBuffer@?A0xe06365b4@Imf@@I@Z 100d53f0 f i ImfScanLineInputFile.obj
 0002:00076570       ??1?$_Vector_val@UInSliceInfo@?A0xe06365b4@Imf@@V?$allocator@UInSliceInfo@?A0xe06365b4@Imf@@@std@@@std@@QAE@XZ 100d5570 f i ImfScanLineInputFile.obj
 0002:000765d0       ??1?$_Vector_iterator@UInSliceInfo@?A0xe06365b4@Imf@@V?$allocator@UInSliceInfo@?A0xe06365b4@Imf@@@std@@@std@@QAE@XZ 100d55d0 f i ImfScanLineInputFile.obj
 0002:00076620       ??1?$_Vector_val@PAULineBuffer@?A0xe06365b4@Imf@@V?$allocator@PAULineBuffer@?A0xe06365b4@Imf@@@std@@@std@@QAE@XZ 100d5620 f i ImfScanLineInputFile.obj
 0002:00076680       ??1?$_Vector_const_iterator@UInSliceInfo@?A0xe06365b4@Imf@@V?$allocator@UInSliceInfo@?A0xe06365b4@Imf@@@std@@@std@@QAE@XZ 100d5680 f i ImfScanLineInputFile.obj
 0002:000766d0       ??1?$_Ranit@UInSliceInfo@?A0xe06365b4@Imf@@HPBU123@ABU123@@std@@QAE@XZ 100d56d0 f i ImfScanLineInputFile.obj
 0002:00076720       ?capacity@?$vector@UInSliceInfo@?A0xe06365b4@Imf@@V?$allocator@UInSliceInfo@?A0xe06365b4@Imf@@@std@@@std@@QBEIXZ 100d5720 f i ImfScanLineInputFile.obj
 0002:000767a0       ?end@?$vector@UInSliceInfo@?A0xe06365b4@Imf@@V?$allocator@UInSliceInfo@?A0xe06365b4@Imf@@@std@@@std@@QAE?AV?$_Vector_iterator@UInSliceInfo@?A0xe06365b4@Imf@@V?$allocator@UInSliceInfo@?A0xe06365b4@Imf@@@std@@@2@XZ 100d57a0 f i ImfScanLineInputFile.obj
 0002:00076830       ?insert@?$vector@UInSliceInfo@?A0xe06365b4@Imf@@V?$allocator@UInSliceInfo@?A0xe06365b4@Imf@@@std@@@std@@QAE?AV?$_Vector_iterator@UInSliceInfo@?A0xe06365b4@Imf@@V?$allocator@UInSliceInfo@?A0xe06365b4@Imf@@@std@@@2@V32@ABUInSliceInfo@?A0xe06365b4@Imf@@@Z 100d5830 f i ImfScanLineInputFile.obj
 0002:00076a30       ?clear@?$vector@UInSliceInfo@?A0xe06365b4@Imf@@V?$allocator@UInSliceInfo@?A0xe06365b4@Imf@@@std@@@std@@QAEXXZ 100d5a30 f i ImfScanLineInputFile.obj
 0002:00076b40       ?_Buy@?$vector@UInSliceInfo@?A0xe06365b4@Imf@@V?$allocator@UInSliceInfo@?A0xe06365b4@Imf@@@std@@@std@@IAE_NI@Z 100d5b40 f i ImfScanLineInputFile.obj
 0002:00076c20       ?_Destroy@?$vector@UInSliceInfo@?A0xe06365b4@Imf@@V?$allocator@UInSliceInfo@?A0xe06365b4@Imf@@@std@@@std@@IAEXPAUInSliceInfo@?A0xe06365b4@Imf@@0@Z 100d5c20 f i ImfScanLineInputFile.obj
 0002:00076c90       ?_Tidy@?$vector@UInSliceInfo@?A0xe06365b4@Imf@@V?$allocator@UInSliceInfo@?A0xe06365b4@Imf@@@std@@@std@@IAEXXZ 100d5c90 f i ImfScanLineInputFile.obj
 0002:00076d70       ?_Ufill@?$vector@UInSliceInfo@?A0xe06365b4@Imf@@V?$allocator@UInSliceInfo@?A0xe06365b4@Imf@@@std@@@std@@IAEPAUInSliceInfo@?A0xe06365b4@Imf@@PAU345@IABU345@@Z 100d5d70 f i ImfScanLineInputFile.obj
 0002:00076df0       ?_Orphan_range@?$vector@UInSliceInfo@?A0xe06365b4@Imf@@V?$allocator@UInSliceInfo@?A0xe06365b4@Imf@@@std@@@std@@IBEXPAUInSliceInfo@?A0xe06365b4@Imf@@0@Z 100d5df0 f i ImfScanLineInputFile.obj
 0002:00076f00       ??0?$_Vector_val@UInSliceInfo@?A0xe06365b4@Imf@@V?$allocator@UInSliceInfo@?A0xe06365b4@Imf@@@std@@@std@@IAE@V?$allocator@UInSliceInfo@?A0xe06365b4@Imf@@@1@@Z 100d5f00 f i ImfScanLineInputFile.obj
 0002:00076f80       ??0?$allocator@UInSliceInfo@?A0xe06365b4@Imf@@@std@@QAE@XZ 100d5f80 f i ImfScanLineInputFile.obj
 0002:00076fc0       ?deallocate@?$allocator@UInSliceInfo@?A0xe06365b4@Imf@@@std@@QAEXPAUInSliceInfo@?A0xe06365b4@Imf@@I@Z 100d5fc0 f i ImfScanLineInputFile.obj
 0002:00077020       ?resize@?$vector@PAULineBuffer@?A0xe06365b4@Imf@@V?$allocator@PAULineBuffer@?A0xe06365b4@Imf@@@std@@@std@@QAEXIPAULineBuffer@?A0xe06365b4@Imf@@@Z 100d6020 f i ImfScanLineInputFile.obj
 0002:000771e0       ?_Buy@?$vector@PAULineBuffer@?A0xe06365b4@Imf@@V?$allocator@PAULineBuffer@?A0xe06365b4@Imf@@@std@@@std@@IAE_NI@Z 100d61e0 f i ImfScanLineInputFile.obj
 0002:000772c0       ?_Tidy@?$vector@PAULineBuffer@?A0xe06365b4@Imf@@V?$allocator@PAULineBuffer@?A0xe06365b4@Imf@@@std@@@std@@IAEXXZ 100d62c0 f i ImfScanLineInputFile.obj
 0002:000773a0       ??0?$_Vector_val@PAULineBuffer@?A0xe06365b4@Imf@@V?$allocator@PAULineBuffer@?A0xe06365b4@Imf@@@std@@@std@@IAE@V?$allocator@PAULineBuffer@?A0xe06365b4@Imf@@@1@@Z 100d63a0 f i ImfScanLineInputFile.obj
 0002:00077420       ??0?$allocator@PAULineBuffer@?A0xe06365b4@Imf@@@std@@QAE@XZ 100d6420 f i ImfScanLineInputFile.obj
 0002:00077460       ??0?$_Vector_iterator@UInSliceInfo@?A0xe06365b4@Imf@@V?$allocator@UInSliceInfo@?A0xe06365b4@Imf@@@std@@@std@@QAE@ABV01@@Z 100d6460 f i ImfScanLineInputFile.obj
 0002:000774c0       ??1?$_Vector_iterator@PAULineBuffer@?A0xe06365b4@Imf@@V?$allocator@PAULineBuffer@?A0xe06365b4@Imf@@@std@@@std@@QAE@XZ 100d64c0 f i ImfScanLineInputFile.obj
 0002:00077510       ??0?$_Vector_const_iterator@UInSliceInfo@?A0xe06365b4@Imf@@V?$allocator@UInSliceInfo@?A0xe06365b4@Imf@@@std@@@std@@QAE@ABV01@@Z 100d6510 f i ImfScanLineInputFile.obj
 0002:00077580       ??1?$_Vector_const_iterator@PAULineBuffer@?A0xe06365b4@Imf@@V?$allocator@PAULineBuffer@?A0xe06365b4@Imf@@@std@@@std@@QAE@XZ 100d6580 f i ImfScanLineInputFile.obj
 0002:000775d0       ??0?$_Ranit@UInSliceInfo@?A0xe06365b4@Imf@@HPBU123@ABU123@@std@@QAE@ABU01@@Z 100d65d0 f i ImfScanLineInputFile.obj
 0002:00077630       ??1?$_Ranit@PAULineBuffer@?A0xe06365b4@Imf@@HPBQAU123@ABQAU123@@std@@QAE@XZ 100d6630 f i ImfScanLineInputFile.obj
 0002:00077680       ?begin@?$vector@UInSliceInfo@?A0xe06365b4@Imf@@V?$allocator@UInSliceInfo@?A0xe06365b4@Imf@@@std@@@std@@QAE?AV?$_Vector_iterator@UInSliceInfo@?A0xe06365b4@Imf@@V?$allocator@UInSliceInfo@?A0xe06365b4@Imf@@@std@@@2@XZ 100d6680 f i ImfScanLineInputFile.obj
 0002:00077710       ?max_size@?$vector@UInSliceInfo@?A0xe06365b4@Imf@@V?$allocator@UInSliceInfo@?A0xe06365b4@Imf@@@std@@@std@@QBEIXZ 100d6710 f i ImfScanLineInputFile.obj
 0002:00077770       ?erase@?$vector@UInSliceInfo@?A0xe06365b4@Imf@@V?$allocator@UInSliceInfo@?A0xe06365b4@Imf@@@std@@@std@@QAE?AV?$_Vector_iterator@UInSliceInfo@?A0xe06365b4@Imf@@V?$allocator@UInSliceInfo@?A0xe06365b4@Imf@@@std@@@2@V32@0@Z 100d6770 f i ImfScanLineInputFile.obj
 0002:00077930       ?_Insert_n@?$vector@UInSliceInfo@?A0xe06365b4@Imf@@V?$allocator@UInSliceInfo@?A0xe06365b4@Imf@@@std@@@std@@IAEXV?$_Vector_iterator@UInSliceInfo@?A0xe06365b4@Imf@@V?$allocator@UInSliceInfo@?A0xe06365b4@Imf@@@std@@@2@IABUInSliceInfo@?A0xe06365b4@Imf@@@Z 100d6930 f i ImfScanLineInputFile.obj
 0002:00077e80       ?_Xlen@?$vector@UInSliceInfo@?A0xe06365b4@Imf@@V?$allocator@UInSliceInfo@?A0xe06365b4@Imf@@@std@@@std@@KAXXZ 100d6e80 f i ImfScanLineInputFile.obj
 0002:00077f70       ??0?$allocator@UInSliceInfo@?A0xe06365b4@Imf@@@std@@QAE@ABV01@@Z 100d6f70 f i ImfScanLineInputFile.obj
 0002:00077fb0       ?allocate@?$allocator@UInSliceInfo@?A0xe06365b4@Imf@@@std@@QAEPAUInSliceInfo@?A0xe06365b4@Imf@@I@Z 100d6fb0 f i ImfScanLineInputFile.obj
 0002:00078010       ?begin@?$vector@PAULineBuffer@?A0xe06365b4@Imf@@V?$allocator@PAULineBuffer@?A0xe06365b4@Imf@@@std@@@std@@QAE?AV?$_Vector_iterator@PAULineBuffer@?A0xe06365b4@Imf@@V?$allocator@PAULineBuffer@?A0xe06365b4@Imf@@@std@@@2@XZ 100d7010 f i ImfScanLineInputFile.obj
 0002:000780a0       ?end@?$vector@PAULineBuffer@?A0xe06365b4@Imf@@V?$allocator@PAULineBuffer@?A0xe06365b4@Imf@@@std@@@std@@QAE?AV?$_Vector_iterator@PAULineBuffer@?A0xe06365b4@Imf@@V?$allocator@PAULineBuffer@?A0xe06365b4@Imf@@@std@@@2@XZ 100d70a0 f i ImfScanLineInputFile.obj
 0002:00078130       ?max_size@?$vector@PAULineBuffer@?A0xe06365b4@Imf@@V?$allocator@PAULineBuffer@?A0xe06365b4@Imf@@@std@@@std@@QBEIXZ 100d7130 f i ImfScanLineInputFile.obj
 0002:00078190       ?erase@?$vector@PAULineBuffer@?A0xe06365b4@Imf@@V?$allocator@PAULineBuffer@?A0xe06365b4@Imf@@@std@@@std@@QAE?AV?$_Vector_iterator@PAULineBuffer@?A0xe06365b4@Imf@@V?$allocator@PAULineBuffer@?A0xe06365b4@Imf@@@std@@@2@V32@0@Z 100d7190 f i ImfScanLineInputFile.obj
 0002:00078350       ?_Destroy@?$vector@PAULineBuffer@?A0xe06365b4@Imf@@V?$allocator@PAULineBuffer@?A0xe06365b4@Imf@@@std@@@std@@IAEXPAPAULineBuffer@?A0xe06365b4@Imf@@0@Z 100d7350 f i ImfScanLineInputFile.obj
 0002:000783c0       ?_Insert_n@?$vector@PAULineBuffer@?A0xe06365b4@Imf@@V?$allocator@PAULineBuffer@?A0xe06365b4@Imf@@@std@@@std@@IAEXV?$_Vector_iterator@PAULineBuffer@?A0xe06365b4@Imf@@V?$allocator@PAULineBuffer@?A0xe06365b4@Imf@@@std@@@2@IABQAULineBuffer@?A0xe06365b4@Imf@@@Z 100d73c0 f i ImfScanLineInputFile.obj
 0002:000788f0       ?_Xlen@?$vector@PAULineBuffer@?A0xe06365b4@Imf@@V?$allocator@PAULineBuffer@?A0xe06365b4@Imf@@@std@@@std@@KAXXZ 100d78f0 f i ImfScanLineInputFile.obj
 0002:000789e0       ??0?$allocator@PAULineBuffer@?A0xe06365b4@Imf@@@std@@QAE@ABV01@@Z 100d79e0 f i ImfScanLineInputFile.obj
 0002:00078a20       ?deallocate@?$allocator@PAULineBuffer@?A0xe06365b4@Imf@@@std@@QAEXPAPAULineBuffer@?A0xe06365b4@Imf@@I@Z 100d7a20 f i ImfScanLineInputFile.obj
 0002:00078a80       ?allocate@?$allocator@PAULineBuffer@?A0xe06365b4@Imf@@@std@@QAEPAPAULineBuffer@?A0xe06365b4@Imf@@I@Z 100d7a80 f i ImfScanLineInputFile.obj
 0002:00078ae0       ??0?$_Vector_iterator@UInSliceInfo@?A0xe06365b4@Imf@@V?$allocator@UInSliceInfo@?A0xe06365b4@Imf@@@std@@@std@@QAE@PAUInSliceInfo@?A0xe06365b4@Imf@@PBV_Container_base@1@@Z 100d7ae0 f i ImfScanLineInputFile.obj
 0002:00078b40       ??H?$_Vector_iterator@UInSliceInfo@?A0xe06365b4@Imf@@V?$allocator@UInSliceInfo@?A0xe06365b4@Imf@@@std@@@std@@QBE?AV01@H@Z 100d7b40 f i ImfScanLineInputFile.obj
 0002:00078c60       ??G?$_Vector_iterator@UInSliceInfo@?A0xe06365b4@Imf@@V?$allocator@UInSliceInfo@?A0xe06365b4@Imf@@@std@@@std@@QBEHABV?$_Vector_const_iterator@UInSliceInfo@?A0xe06365b4@Imf@@V?$allocator@UInSliceInfo@?A0xe06365b4@Imf@@@std@@@1@@Z 100d7c60 f i ImfScanLineInputFile.obj
 0002:00078cc0       ??H?$_Vector_iterator@PAULineBuffer@?A0xe06365b4@Imf@@V?$allocator@PAULineBuffer@?A0xe06365b4@Imf@@@std@@@std@@QBE?AV01@H@Z 100d7cc0 f i ImfScanLineInputFile.obj
 0002:00078de0       ??0?$_Vector_iterator@PAULineBuffer@?A0xe06365b4@Imf@@V?$allocator@PAULineBuffer@?A0xe06365b4@Imf@@@std@@@std@@QAE@ABV01@@Z 100d7de0 f i ImfScanLineInputFile.obj
 0002:00078e40       ??0?$_Vector_const_iterator@PAULineBuffer@?A0xe06365b4@Imf@@V?$allocator@PAULineBuffer@?A0xe06365b4@Imf@@@std@@@std@@QAE@ABV01@@Z 100d7e40 f i ImfScanLineInputFile.obj
 0002:00078eb0       ??0?$_Ranit@PAULineBuffer@?A0xe06365b4@Imf@@HPBQAU123@ABQAU123@@std@@QAE@ABU01@@Z 100d7eb0 f i ImfScanLineInputFile.obj
 0002:00078f10       ?max_size@?$allocator@UInSliceInfo@?A0xe06365b4@Imf@@@std@@QBEIXZ 100d7f10 f i ImfScanLineInputFile.obj
 0002:00078f80       ?capacity@?$vector@PAULineBuffer@?A0xe06365b4@Imf@@V?$allocator@PAULineBuffer@?A0xe06365b4@Imf@@@std@@@std@@QBEIXZ 100d7f80 f i ImfScanLineInputFile.obj
 0002:00078ff0       ?_Ufill@?$vector@PAULineBuffer@?A0xe06365b4@Imf@@V?$allocator@PAULineBuffer@?A0xe06365b4@Imf@@@std@@@std@@IAEPAPAULineBuffer@?A0xe06365b4@Imf@@PAPAU345@IABQAU345@@Z 100d7ff0 f i ImfScanLineInputFile.obj
 0002:00079070       ?_Orphan_range@?$vector@PAULineBuffer@?A0xe06365b4@Imf@@V?$allocator@PAULineBuffer@?A0xe06365b4@Imf@@@std@@@std@@IBEXPAPAULineBuffer@?A0xe06365b4@Imf@@0@Z 100d8070 f i ImfScanLineInputFile.obj
 0002:00079180       ?max_size@?$allocator@PAULineBuffer@?A0xe06365b4@Imf@@@std@@QBEIXZ 100d8180 f i ImfScanLineInputFile.obj
 0002:000791f0       ??Y?$_Vector_iterator@UInSliceInfo@?A0xe06365b4@Imf@@V?$allocator@UInSliceInfo@?A0xe06365b4@Imf@@@std@@@std@@QAEAAV01@H@Z 100d81f0 f i ImfScanLineInputFile.obj
 0002:00079250       ??0?$_Vector_const_iterator@UInSliceInfo@?A0xe06365b4@Imf@@V?$allocator@UInSliceInfo@?A0xe06365b4@Imf@@@std@@@std@@QAE@PAUInSliceInfo@?A0xe06365b4@Imf@@PBV_Container_base@1@@Z 100d8250 f i ImfScanLineInputFile.obj
 0002:00079390       ??G?$_Vector_const_iterator@UInSliceInfo@?A0xe06365b4@Imf@@V?$allocator@UInSliceInfo@?A0xe06365b4@Imf@@@std@@@std@@QBEHABV01@@Z 100d8390 f i ImfScanLineInputFile.obj
 0002:00079400       ??9?$_Vector_const_iterator@UInSliceInfo@?A0xe06365b4@Imf@@V?$allocator@UInSliceInfo@?A0xe06365b4@Imf@@@std@@@std@@QBE_NABV01@@Z 100d8400 f i ImfScanLineInputFile.obj
 0002:00079470       ??M?$_Vector_const_iterator@UInSliceInfo@?A0xe06365b4@Imf@@V?$allocator@UInSliceInfo@?A0xe06365b4@Imf@@@std@@@std@@QBE_NABV01@@Z 100d8470 f i ImfScanLineInputFile.obj
 0002:000794e0       ??0?$_Vector_iterator@PAULineBuffer@?A0xe06365b4@Imf@@V?$allocator@PAULineBuffer@?A0xe06365b4@Imf@@@std@@@std@@QAE@PAPAULineBuffer@?A0xe06365b4@Imf@@PBV_Container_base@1@@Z 100d84e0 f i ImfScanLineInputFile.obj
 0002:00079540       ??Y?$_Vector_iterator@PAULineBuffer@?A0xe06365b4@Imf@@V?$allocator@PAULineBuffer@?A0xe06365b4@Imf@@@std@@@std@@QAEAAV01@H@Z 100d8540 f i ImfScanLineInputFile.obj
 0002:000795a0       ??9?$_Vector_const_iterator@PAULineBuffer@?A0xe06365b4@Imf@@V?$allocator@PAULineBuffer@?A0xe06365b4@Imf@@@std@@@std@@QBE_NABV01@@Z 100d85a0 f i ImfScanLineInputFile.obj
 0002:00079610       ??M?$_Vector_const_iterator@PAULineBuffer@?A0xe06365b4@Imf@@V?$allocator@PAULineBuffer@?A0xe06365b4@Imf@@@std@@@std@@QBE_NABV01@@Z 100d8610 f i ImfScanLineInputFile.obj
 0002:00079680       ??0?$_Ranit@UInSliceInfo@?A0xe06365b4@Imf@@HPBU123@ABU123@@std@@QAE@XZ 100d8680 f i ImfScanLineInputFile.obj
 0002:000796e0       ??Y?$_Vector_const_iterator@UInSliceInfo@?A0xe06365b4@Imf@@V?$allocator@UInSliceInfo@?A0xe06365b4@Imf@@@std@@@std@@QAEAAV01@H@Z 100d86e0 f i ImfScanLineInputFile.obj
 0002:00079860       ??8?$_Vector_const_iterator@UInSliceInfo@?A0xe06365b4@Imf@@V?$allocator@UInSliceInfo@?A0xe06365b4@Imf@@@std@@@std@@QBE_NABV01@@Z 100d8860 f i ImfScanLineInputFile.obj
 0002:000798d0       ?_Compat@?$_Vector_const_iterator@UInSliceInfo@?A0xe06365b4@Imf@@V?$allocator@UInSliceInfo@?A0xe06365b4@Imf@@@std@@@std@@QBEXABV12@@Z 100d88d0 f i ImfScanLineInputFile.obj
 0002:000799d0       ??0?$_Vector_const_iterator@PAULineBuffer@?A0xe06365b4@Imf@@V?$allocator@PAULineBuffer@?A0xe06365b4@Imf@@@std@@@std@@QAE@PAPAULineBuffer@?A0xe06365b4@Imf@@PBV_Container_base@1@@Z 100d89d0 f i ImfScanLineInputFile.obj
 0002:00079b10       ??Y?$_Vector_const_iterator@PAULineBuffer@?A0xe06365b4@Imf@@V?$allocator@PAULineBuffer@?A0xe06365b4@Imf@@@std@@@std@@QAEAAV01@H@Z 100d8b10 f i ImfScanLineInputFile.obj
 0002:00079c90       ??8?$_Vector_const_iterator@PAULineBuffer@?A0xe06365b4@Imf@@V?$allocator@PAULineBuffer@?A0xe06365b4@Imf@@@std@@@std@@QBE_NABV01@@Z 100d8c90 f i ImfScanLineInputFile.obj
 0002:00079d00       ?_Compat@?$_Vector_const_iterator@PAULineBuffer@?A0xe06365b4@Imf@@V?$allocator@PAULineBuffer@?A0xe06365b4@Imf@@@std@@@std@@QBEXABV12@@Z 100d8d00 f i ImfScanLineInputFile.obj
 0002:00079e00       ??0?$_Ranit@PAULineBuffer@?A0xe06365b4@Imf@@HPBQAU123@ABQAU123@@std@@QAE@XZ 100d8e00 f i ImfScanLineInputFile.obj
 0002:00079e60       ??$read@UStreamIO@Imf@@VIStream@2@@Xdr@Imf@@YAXAAVIStream@1@AA_K@Z 100d8e60 f i ImfScanLineInputFile.obj
 0002:00079ff0       ??$unchecked_copy@PAUInSliceInfo@?A0xe06365b4@Imf@@PAU123@@stdext@@YAPAUInSliceInfo@?A0xe06365b4@Imf@@PAU123@00@Z 100d8ff0 f i ImfScanLineInputFile.obj
 0002:0007a0c0       ??$_Ucopy@PAUInSliceInfo@?A0xe06365b4@Imf@@@?$vector@UInSliceInfo@?A0xe06365b4@Imf@@V?$allocator@UInSliceInfo@?A0xe06365b4@Imf@@@std@@@std@@IAEPAUInSliceInfo@?A0xe06365b4@Imf@@PAU234@00@Z 100d90c0 f i ImfScanLineInputFile.obj
 0002:0007a130       ??$_Destroy_range@UInSliceInfo@?A0xe06365b4@Imf@@V?$allocator@UInSliceInfo@?A0xe06365b4@Imf@@@std@@@std@@YAXPAUInSliceInfo@?A0xe06365b4@Imf@@0AAV?$allocator@UInSliceInfo@?A0xe06365b4@Imf@@@0@@Z 100d9130 f i ImfScanLineInputFile.obj
 0002:0007a1b0       ??$unchecked_uninitialized_fill_n@PAUInSliceInfo@?A0xe06365b4@Imf@@IU123@V?$allocator@UInSliceInfo@?A0xe06365b4@Imf@@@std@@@stdext@@YAXPAUInSliceInfo@?A0xe06365b4@Imf@@IABU123@AAV?$allocator@UInSliceInfo@?A0xe06365b4@Imf@@@std@@@Z 100d91b0 f i ImfScanLineInputFile.obj
 0002:0007a250       ??$_Umove@PAUInSliceInfo@?A0xe06365b4@Imf@@@?$vector@UInSliceInfo@?A0xe06365b4@Imf@@V?$allocator@UInSliceInfo@?A0xe06365b4@Imf@@@std@@@std@@IAEPAUInSliceInfo@?A0xe06365b4@Imf@@PAU234@00@Z 100d9250 f i ImfScanLineInputFile.obj
 0002:0007a2c0       ??$fill@PAUInSliceInfo@?A0xe06365b4@Imf@@U123@@std@@YAXPAUInSliceInfo@?A0xe06365b4@Imf@@0ABU123@@Z 100d92c0 f i ImfScanLineInputFile.obj
 0002:0007a330       ??$_Unchecked_move_backward@PAUInSliceInfo@?A0xe06365b4@Imf@@PAU123@@stdext@@YAPAUInSliceInfo@?A0xe06365b4@Imf@@PAU123@00@Z 100d9330 f i ImfScanLineInputFile.obj
 0002:0007a3f0       ??$_Allocate@UInSliceInfo@?A0xe06365b4@Imf@@@std@@YAPAUInSliceInfo@?A0xe06365b4@Imf@@IPAU123@@Z 100d93f0 f i ImfScanLineInputFile.obj
 0002:0007a490       ??$unchecked_copy@PAPAULineBuffer@?A0xe06365b4@Imf@@PAPAU123@@stdext@@YAPAPAULineBuffer@?A0xe06365b4@Imf@@PAPAU123@00@Z 100d9490 f i ImfScanLineInputFile.obj
 0002:0007a560       ??$_Destroy_range@PAULineBuffer@?A0xe06365b4@Imf@@V?$allocator@PAULineBuffer@?A0xe06365b4@Imf@@@std@@@std@@YAXPAPAULineBuffer@?A0xe06365b4@Imf@@0AAV?$allocator@PAULineBuffer@?A0xe06365b4@Imf@@@0@@Z 100d9560 f i ImfScanLineInputFile.obj
 0002:0007a5e0       ??$_Umove@PAPAULineBuffer@?A0xe06365b4@Imf@@@?$vector@PAULineBuffer@?A0xe06365b4@Imf@@V?$allocator@PAULineBuffer@?A0xe06365b4@Imf@@@std@@@std@@IAEPAPAULineBuffer@?A0xe06365b4@Imf@@PAPAU234@00@Z 100d95e0 f i ImfScanLineInputFile.obj
 0002:0007a650       ??$fill@PAPAULineBuffer@?A0xe06365b4@Imf@@PAU123@@std@@YAXPAPAULineBuffer@?A0xe06365b4@Imf@@0ABQAU123@@Z 100d9650 f i ImfScanLineInputFile.obj
 0002:0007a6c0       ??$_Unchecked_move_backward@PAPAULineBuffer@?A0xe06365b4@Imf@@PAPAU123@@stdext@@YAPAPAULineBuffer@?A0xe06365b4@Imf@@PAPAU123@00@Z 100d96c0 f i ImfScanLineInputFile.obj
 0002:0007a780       ??$_Allocate@PAULineBuffer@?A0xe06365b4@Imf@@@std@@YAPAPAULineBuffer@?A0xe06365b4@Imf@@IPAPAU123@@Z 100d9780 f i ImfScanLineInputFile.obj
 0002:0007a820       ??$unchecked_uninitialized_fill_n@PAPAULineBuffer@?A0xe06365b4@Imf@@IPAU123@V?$allocator@PAULineBuffer@?A0xe06365b4@Imf@@@std@@@stdext@@YAXPAPAULineBuffer@?A0xe06365b4@Imf@@IABQAU123@AAV?$allocator@PAULineBuffer@?A0xe06365b4@Imf@@@std@@@Z 100d9820 f i ImfScanLineInputFile.obj
 0002:0007a8c0       ??$_Checked_base@PAUInSliceInfo@?A0xe06365b4@Imf@@@std@@YAPAUInSliceInfo@?A0xe06365b4@Imf@@AAPAU123@@Z 100d98c0 f i ImfScanLineInputFile.obj
 0002:0007a950       ??$_Iter_random@PAUInSliceInfo@?A0xe06365b4@Imf@@PAU123@@std@@YA?AUrandom_access_iterator_tag@0@ABQAUInSliceInfo@?A0xe06365b4@Imf@@0@Z 100d9950 f i ImfScanLineInputFile.obj
 0002:0007a9c0       ??$_Ptr_cat@PAUInSliceInfo@?A0xe06365b4@Imf@@PAU123@@std@@YA?AU_Nonscalar_ptr_iterator_tag@0@AAPAUInSliceInfo@?A0xe06365b4@Imf@@0@Z 100d99c0 f i ImfScanLineInputFile.obj
 0002:0007aa30       ??$_Copy_opt@PAUInSliceInfo@?A0xe06365b4@Imf@@PAU123@@std@@YAPAUInSliceInfo@?A0xe06365b4@Imf@@PAU123@00Urandom_access_iterator_tag@0@U_Nonscalar_ptr_iterator_tag@0@U_Range_checked_iterator_tag@0@@Z 100d9a30 f i ImfScanLineInputFile.obj
 0002:0007aaf0       ??$unchecked_uninitialized_copy@PAUInSliceInfo@?A0xe06365b4@Imf@@PAU123@V?$allocator@UInSliceInfo@?A0xe06365b4@Imf@@@std@@@stdext@@YAPAUInSliceInfo@?A0xe06365b4@Imf@@PAU123@00AAV?$allocator@UInSliceInfo@?A0xe06365b4@Imf@@@std@@@Z 100d9af0 f i ImfScanLineInputFile.obj
 0002:0007aba0       ??$_Destroy_range@UInSliceInfo@?A0xe06365b4@Imf@@V?$allocator@UInSliceInfo@?A0xe06365b4@Imf@@@std@@@std@@YAXPAUInSliceInfo@?A0xe06365b4@Imf@@0AAV?$allocator@UInSliceInfo@?A0xe06365b4@Imf@@@0@U_Nonscalar_ptr_iterator_tag@0@@Z 100d9ba0 f i ImfScanLineInputFile.obj
 0002:0007ac10       ??$_Uninit_fill_n@PAUInSliceInfo@?A0xe06365b4@Imf@@IU123@V?$allocator@UInSliceInfo@?A0xe06365b4@Imf@@@std@@@std@@YAXPAUInSliceInfo@?A0xe06365b4@Imf@@IABU123@AAV?$allocator@UInSliceInfo@?A0xe06365b4@Imf@@@0@U_Nonscalar_ptr_iterator_tag@0@U_Range_checked_iterator_tag@0@@Z 100d9c10 f i ImfScanLineInputFile.obj
 0002:0007ad20       ??$_Unchecked_uninitialized_move@PAUInSliceInfo@?A0xe06365b4@Imf@@PAU123@V?$allocator@UInSliceInfo@?A0xe06365b4@Imf@@@std@@@stdext@@YAPAUInSliceInfo@?A0xe06365b4@Imf@@PAU123@00AAV?$allocator@UInSliceInfo@?A0xe06365b4@Imf@@@std@@@Z 100d9d20 f i ImfScanLineInputFile.obj
 0002:0007add0       ??$_Fill@PAUInSliceInfo@?A0xe06365b4@Imf@@U123@@std@@YAXPAUInSliceInfo@?A0xe06365b4@Imf@@0ABU123@@Z 100d9dd0 f i ImfScanLineInputFile.obj
 0002:0007ae60       ??$_Move_cat@PAUInSliceInfo@?A0xe06365b4@Imf@@@std@@YA?AU_Undefined_move_tag@0@ABQAUInSliceInfo@?A0xe06365b4@Imf@@@Z 100d9e60 f i ImfScanLineInputFile.obj
 0002:0007aed0       ??$_Move_backward_opt@PAUInSliceInfo@?A0xe06365b4@Imf@@PAU123@Urandom_access_iterator_tag@std@@U_Undefined_move_tag@5@@std@@YAPAUInSliceInfo@?A0xe06365b4@Imf@@PAU123@00Urandom_access_iterator_tag@0@U_Undefined_move_tag@0@U_Range_checked_iterator_tag@0@@Z 100d9ed0 f i ImfScanLineInputFile.obj
 0002:0007af70       ??$_Checked_base@PAPAULineBuffer@?A0xe06365b4@Imf@@@std@@YAPAPAULineBuffer@?A0xe06365b4@Imf@@AAPAPAU123@@Z 100d9f70 f i ImfScanLineInputFile.obj
 0002:0007b000       ??$_Iter_random@PAPAULineBuffer@?A0xe06365b4@Imf@@PAPAU123@@std@@YA?AUrandom_access_iterator_tag@0@ABQAPAULineBuffer@?A0xe06365b4@Imf@@0@Z 100da000 f i ImfScanLineInputFile.obj
 0002:0007b070       ??$_Ptr_cat@PAPAULineBuffer@?A0xe06365b4@Imf@@PAPAU123@@std@@YA?AU_Scalar_ptr_iterator_tag@0@AAPAPAULineBuffer@?A0xe06365b4@Imf@@0@Z 100da070 f i ImfScanLineInputFile.obj
 0002:0007b0e0       ??$_Copy_opt@PAPAULineBuffer@?A0xe06365b4@Imf@@PAPAU123@Urandom_access_iterator_tag@std@@@std@@YAPAPAULineBuffer@?A0xe06365b4@Imf@@PAPAU123@00Urandom_access_iterator_tag@0@U_Scalar_ptr_iterator_tag@0@U_Range_checked_iterator_tag@0@@Z 100da0e0 f i ImfScanLineInputFile.obj
 0002:0007b1c0       ??$_Destroy_range@PAULineBuffer@?A0xe06365b4@Imf@@V?$allocator@PAULineBuffer@?A0xe06365b4@Imf@@@std@@@std@@YAXPAPAULineBuffer@?A0xe06365b4@Imf@@0AAV?$allocator@PAULineBuffer@?A0xe06365b4@Imf@@@0@U_Scalar_ptr_iterator_tag@0@@Z 100da1c0 f i ImfScanLineInputFile.obj
 0002:0007b1f0       ??$_Unchecked_uninitialized_move@PAPAULineBuffer@?A0xe06365b4@Imf@@PAPAU123@V?$allocator@PAULineBuffer@?A0xe06365b4@Imf@@@std@@@stdext@@YAPAPAULineBuffer@?A0xe06365b4@Imf@@PAPAU123@00AAV?$allocator@PAULineBuffer@?A0xe06365b4@Imf@@@std@@@Z 100da1f0 f i ImfScanLineInputFile.obj
 0002:0007b2a0       ??$_Fill@PAPAULineBuffer@?A0xe06365b4@Imf@@PAU123@@std@@YAXPAPAULineBuffer@?A0xe06365b4@Imf@@0ABQAU123@@Z 100da2a0 f i ImfScanLineInputFile.obj
 0002:0007b330       ??$_Move_cat@PAPAULineBuffer@?A0xe06365b4@Imf@@@std@@YA?AU_Undefined_move_tag@0@ABQAPAULineBuffer@?A0xe06365b4@Imf@@@Z 100da330 f i ImfScanLineInputFile.obj
 0002:0007b3a0       ??$_Move_backward_opt@PAPAULineBuffer@?A0xe06365b4@Imf@@PAPAU123@Urandom_access_iterator_tag@std@@U_Undefined_move_tag@5@@std@@YAPAPAULineBuffer@?A0xe06365b4@Imf@@PAPAU123@00Urandom_access_iterator_tag@0@U_Undefined_move_tag@0@U_Range_checked_iterator_tag@0@@Z 100da3a0 f i ImfScanLineInputFile.obj
 0002:0007b440       ??$_Uninit_fill_n@PAPAULineBuffer@?A0xe06365b4@Imf@@IPAU123@V?$allocator@PAULineBuffer@?A0xe06365b4@Imf@@@std@@@std@@YAXPAPAULineBuffer@?A0xe06365b4@Imf@@IABQAU123@AAV?$allocator@PAULineBuffer@?A0xe06365b4@Imf@@@0@U_Scalar_ptr_iterator_tag@0@U_Range_checked_iterator_tag@0@@Z 100da440 f i ImfScanLineInputFile.obj
 0002:0007b4a0       ?construct@?$allocator@UInSliceInfo@?A0xe06365b4@Imf@@@std@@QAEXPAUInSliceInfo@?A0xe06365b4@Imf@@ABU345@@Z 100da4a0 f i ImfScanLineInputFile.obj
 0002:0007b500       ?destroy@?$allocator@UInSliceInfo@?A0xe06365b4@Imf@@@std@@QAEXPAUInSliceInfo@?A0xe06365b4@Imf@@@Z 100da500 f i ImfScanLineInputFile.obj
 0002:0007b560       ??$_Checked_base@PAUInSliceInfo@?A0xe06365b4@Imf@@@std@@YAPAUInSliceInfo@?A0xe06365b4@Imf@@AAPAU123@U_Unchanged_checked_iterator_base_type_tag@0@@Z 100da560 f i ImfScanLineInputFile.obj
 0002:0007b5a0       ??$_Copy_opt@PAUInSliceInfo@?A0xe06365b4@Imf@@PAU123@Uforward_iterator_tag@std@@@std@@YAPAUInSliceInfo@?A0xe06365b4@Imf@@PAU123@00Uforward_iterator_tag@0@U_Nonscalar_ptr_iterator_tag@0@U_Range_checked_iterator_tag@0@@Z 100da5a0 f i ImfScanLineInputFile.obj
 0002:0007b640       ??$_Uninit_copy@PAUInSliceInfo@?A0xe06365b4@Imf@@PAU123@V?$allocator@UInSliceInfo@?A0xe06365b4@Imf@@@std@@@std@@YAPAUInSliceInfo@?A0xe06365b4@Imf@@PAU123@00AAV?$allocator@UInSliceInfo@?A0xe06365b4@Imf@@@0@U_Nonscalar_ptr_iterator_tag@0@U_Range_checked_iterator_tag@0@@Z 100da640 f i ImfScanLineInputFile.obj
 0002:0007b790       ??$_Uninit_move@PAUInSliceInfo@?A0xe06365b4@Imf@@PAU123@V?$allocator@UInSliceInfo@?A0xe06365b4@Imf@@@std@@U_Undefined_move_tag@5@@std@@YAPAUInSliceInfo@?A0xe06365b4@Imf@@PAU123@00AAV?$allocator@UInSliceInfo@?A0xe06365b4@Imf@@@0@U_Undefined_move_tag@0@U_Range_checked_iterator_tag@0@@Z 100da790 f i ImfScanLineInputFile.obj
 0002:0007b7f0       ??$_Debug_range@PAUInSliceInfo@?A0xe06365b4@Imf@@@std@@YAXPAUInSliceInfo@?A0xe06365b4@Imf@@0PB_WI@Z 100da7f0 f i ImfScanLineInputFile.obj
 0002:0007b870       ??$_Copy_backward_opt@PAUInSliceInfo@?A0xe06365b4@Imf@@PAU123@@std@@YAPAUInSliceInfo@?A0xe06365b4@Imf@@PAU123@00Urandom_access_iterator_tag@0@U_Nonscalar_ptr_iterator_tag@0@U_Range_checked_iterator_tag@0@@Z 100da870 f i ImfScanLineInputFile.obj
 0002:0007b930       ??$_Checked_base@PAPAULineBuffer@?A0xe06365b4@Imf@@@std@@YAPAPAULineBuffer@?A0xe06365b4@Imf@@AAPAPAU123@U_Unchanged_checked_iterator_base_type_tag@0@@Z 100da930 f i ImfScanLineInputFile.obj
 0002:0007b970       ??$_Debug_range@PAPAULineBuffer@?A0xe06365b4@Imf@@@std@@YAXPAPAULineBuffer@?A0xe06365b4@Imf@@0PB_WI@Z 100da970 f i ImfScanLineInputFile.obj
 0002:0007b9f0       ??$_Debug_pointer@PAULineBuffer@?A0xe06365b4@Imf@@@std@@YAXPAPAULineBuffer@?A0xe06365b4@Imf@@PB_WI@Z 100da9f0 f i ImfScanLineInputFile.obj
 0002:0007ba60       ??$_Uninit_move@PAPAULineBuffer@?A0xe06365b4@Imf@@PAPAU123@V?$allocator@PAULineBuffer@?A0xe06365b4@Imf@@@std@@U_Undefined_move_tag@5@@std@@YAPAPAULineBuffer@?A0xe06365b4@Imf@@PAPAU123@00AAV?$allocator@PAULineBuffer@?A0xe06365b4@Imf@@@0@U_Undefined_move_tag@0@U_Range_checked_iterator_tag@0@@Z 100daa60 f i ImfScanLineInputFile.obj
 0002:0007bac0       ??$_Copy_backward_opt@PAPAULineBuffer@?A0xe06365b4@Imf@@PAPAU123@Urandom_access_iterator_tag@std@@@std@@YAPAPAULineBuffer@?A0xe06365b4@Imf@@PAPAU123@00Urandom_access_iterator_tag@0@U_Scalar_ptr_iterator_tag@0@U_Range_checked_iterator_tag@0@@Z 100daac0 f i ImfScanLineInputFile.obj
 0002:0007bbb0       ??$unchecked_fill_n@PAPAULineBuffer@?A0xe06365b4@Imf@@IPAU123@@stdext@@YAXPAPAULineBuffer@?A0xe06365b4@Imf@@IABQAU123@@Z 100dabb0 f i ImfScanLineInputFile.obj
 0002:0007bc40       ??$_Construct@UInSliceInfo@?A0xe06365b4@Imf@@U123@@std@@YAXPAUInSliceInfo@?A0xe06365b4@Imf@@ABU123@@Z 100dac40 f i ImfScanLineInputFile.obj
 0002:0007bce0       ??$_Destroy@UInSliceInfo@?A0xe06365b4@Imf@@@std@@YAXPAUInSliceInfo@?A0xe06365b4@Imf@@@Z 100dace0 f i ImfScanLineInputFile.obj
 0002:0007bd10       ??$_Debug_pointer@UInSliceInfo@?A0xe06365b4@Imf@@@std@@YAXPAUInSliceInfo@?A0xe06365b4@Imf@@PB_WI@Z 100dad10 f i ImfScanLineInputFile.obj
 0002:0007bd80       ??$_Iter_cat@PAUInSliceInfo@?A0xe06365b4@Imf@@@std@@YA?AUrandom_access_iterator_tag@0@ABQAUInSliceInfo@?A0xe06365b4@Imf@@@Z 100dad80 f i ImfScanLineInputFile.obj
 0002:0007bdf0       ??$_Debug_range2@PAUInSliceInfo@?A0xe06365b4@Imf@@@std@@YAXPAUInSliceInfo@?A0xe06365b4@Imf@@0PB_WIUrandom_access_iterator_tag@0@@Z 100dadf0 f i ImfScanLineInputFile.obj
 0002:0007bea0       ??$_Copy_backward_opt@PAUInSliceInfo@?A0xe06365b4@Imf@@PAU123@Uforward_iterator_tag@std@@@std@@YAPAUInSliceInfo@?A0xe06365b4@Imf@@PAU123@00Uforward_iterator_tag@0@U_Nonscalar_ptr_iterator_tag@0@U_Range_checked_iterator_tag@0@@Z 100daea0 f i ImfScanLineInputFile.obj
 0002:0007bf40       ??$_Iter_cat@PAPAULineBuffer@?A0xe06365b4@Imf@@@std@@YA?AUrandom_access_iterator_tag@0@ABQAPAULineBuffer@?A0xe06365b4@Imf@@@Z 100daf40 f i ImfScanLineInputFile.obj
 0002:0007bfb0       ??$_Debug_range2@PAPAULineBuffer@?A0xe06365b4@Imf@@@std@@YAXPAPAULineBuffer@?A0xe06365b4@Imf@@0PB_WIUrandom_access_iterator_tag@0@@Z 100dafb0 f i ImfScanLineInputFile.obj
 0002:0007c060       ??$unchecked_uninitialized_copy@PAPAULineBuffer@?A0xe06365b4@Imf@@PAPAU123@V?$allocator@PAULineBuffer@?A0xe06365b4@Imf@@@std@@@stdext@@YAPAPAULineBuffer@?A0xe06365b4@Imf@@PAPAU123@00AAV?$allocator@PAULineBuffer@?A0xe06365b4@Imf@@@std@@@Z 100db060 f i ImfScanLineInputFile.obj
 0002:0007c110       ??$_Fill_n@PAPAULineBuffer@?A0xe06365b4@Imf@@IPAU123@@std@@YAXPAPAULineBuffer@?A0xe06365b4@Imf@@IABQAU123@Urandom_access_iterator_tag@0@U_Range_checked_iterator_tag@0@@Z 100db110 f i ImfScanLineInputFile.obj
 0002:0007c1a0       ??$_Uninit_copy@PAPAULineBuffer@?A0xe06365b4@Imf@@PAPAU123@V?$allocator@PAULineBuffer@?A0xe06365b4@Imf@@@std@@@std@@YAPAPAULineBuffer@?A0xe06365b4@Imf@@PAPAU123@00AAV?$allocator@PAULineBuffer@?A0xe06365b4@Imf@@@0@U_Scalar_ptr_iterator_tag@0@U_Range_checked_iterator_tag@0@@Z 100db1a0 f i ImfScanLineInputFile.obj
 0002:0007c270       ??$_Fill_n@PAPAULineBuffer@?A0xe06365b4@Imf@@IPAU123@@std@@YAXPAPAULineBuffer@?A0xe06365b4@Imf@@IABQAU123@U_Range_checked_iterator_tag@0@@Z 100db270 f i ImfScanLineInputFile.obj
 0002:0007c2d0       ?addChromaticities@Imf@@YAXAAVHeader@1@ABUChromaticities@1@@Z 100db2d0 f   ImfStandardAttributes.obj
 0002:0007c3b0       ?hasChromaticities@Imf@@YA_NABVHeader@1@@Z 100db3b0 f   ImfStandardAttributes.obj
 0002:0007c410       ?chromaticitiesAttribute@Imf@@YAABV?$TypedAttribute@UChromaticities@Imf@@@1@ABVHeader@1@@Z 100db410 f   ImfStandardAttributes.obj
 0002:0007c460       ?chromaticitiesAttribute@Imf@@YAAAV?$TypedAttribute@UChromaticities@Imf@@@1@AAVHeader@1@@Z 100db460 f   ImfStandardAttributes.obj
 0002:0007c4b0       ?chromaticities@Imf@@YAABUChromaticities@1@ABVHeader@1@@Z 100db4b0 f   ImfStandardAttributes.obj
 0002:0007c510       ?chromaticities@Imf@@YAAAUChromaticities@1@AAVHeader@1@@Z 100db510 f   ImfStandardAttributes.obj
 0002:0007c570       ?addWhiteLuminance@Imf@@YAXAAVHeader@1@ABM@Z 100db570 f   ImfStandardAttributes.obj
 0002:0007c650       ?hasWhiteLuminance@Imf@@YA_NABVHeader@1@@Z 100db650 f   ImfStandardAttributes.obj
 0002:0007c6b0       ?whiteLuminanceAttribute@Imf@@YAABV?$TypedAttribute@M@1@ABVHeader@1@@Z 100db6b0 f   ImfStandardAttributes.obj
 0002:0007c700       ?whiteLuminanceAttribute@Imf@@YAAAV?$TypedAttribute@M@1@AAVHeader@1@@Z 100db700 f   ImfStandardAttributes.obj
 0002:0007c750       ?whiteLuminance@Imf@@YAABMABVHeader@1@@Z 100db750 f   ImfStandardAttributes.obj
 0002:0007c7b0       ?whiteLuminance@Imf@@YAAAMAAVHeader@1@@Z 100db7b0 f   ImfStandardAttributes.obj
 0002:0007c810       ?addXDensity@Imf@@YAXAAVHeader@1@ABM@Z 100db810 f   ImfStandardAttributes.obj
 0002:0007c8f0       ?hasXDensity@Imf@@YA_NABVHeader@1@@Z 100db8f0 f   ImfStandardAttributes.obj
 0002:0007c950       ?xDensityAttribute@Imf@@YAABV?$TypedAttribute@M@1@ABVHeader@1@@Z 100db950 f   ImfStandardAttributes.obj
 0002:0007c9a0       ?xDensityAttribute@Imf@@YAAAV?$TypedAttribute@M@1@AAVHeader@1@@Z 100db9a0 f   ImfStandardAttributes.obj
 0002:0007c9f0       ?xDensity@Imf@@YAABMABVHeader@1@@Z 100db9f0 f   ImfStandardAttributes.obj
 0002:0007ca50       ?xDensity@Imf@@YAAAMAAVHeader@1@@Z 100dba50 f   ImfStandardAttributes.obj
 0002:0007cab0       ?addOwner@Imf@@YAXAAVHeader@1@ABV?$basic_string@DU?$char_traits@D@std@@V?$allocator@D@2@@std@@@Z 100dbab0 f   ImfStandardAttributes.obj
 0002:0007cb90       ?hasOwner@Imf@@YA_NABVHeader@1@@Z 100dbb90 f   ImfStandardAttributes.obj
 0002:0007cbf0       ?ownerAttribute@Imf@@YAABV?$TypedAttribute@V?$basic_string@DU?$char_traits@D@std@@V?$allocator@D@2@@std@@@1@ABVHeader@1@@Z 100dbbf0 f   ImfStandardAttributes.obj
 0002:0007cc40       ?ownerAttribute@Imf@@YAAAV?$TypedAttribute@V?$basic_string@DU?$char_traits@D@std@@V?$allocator@D@2@@std@@@1@AAVHeader@1@@Z 100dbc40 f   ImfStandardAttributes.obj
 0002:0007cc90       ?owner@Imf@@YAABV?$basic_string@DU?$char_traits@D@std@@V?$allocator@D@2@@std@@ABVHeader@1@@Z 100dbc90 f   ImfStandardAttributes.obj
 0002:0007ccf0       ?owner@Imf@@YAAAV?$basic_string@DU?$char_traits@D@std@@V?$allocator@D@2@@std@@AAVHeader@1@@Z 100dbcf0 f   ImfStandardAttributes.obj
 0002:0007cd50       ?addComments@Imf@@YAXAAVHeader@1@ABV?$basic_string@DU?$char_traits@D@std@@V?$allocator@D@2@@std@@@Z 100dbd50 f   ImfStandardAttributes.obj
 0002:0007ce30       ?hasComments@Imf@@YA_NABVHeader@1@@Z 100dbe30 f   ImfStandardAttributes.obj
 0002:0007ce90       ?commentsAttribute@Imf@@YAABV?$TypedAttribute@V?$basic_string@DU?$char_traits@D@std@@V?$allocator@D@2@@std@@@1@ABVHeader@1@@Z 100dbe90 f   ImfStandardAttributes.obj
 0002:0007cee0       ?commentsAttribute@Imf@@YAAAV?$TypedAttribute@V?$basic_string@DU?$char_traits@D@std@@V?$allocator@D@2@@std@@@1@AAVHeader@1@@Z 100dbee0 f   ImfStandardAttributes.obj
 0002:0007cf30       ?comments@Imf@@YAABV?$basic_string@DU?$char_traits@D@std@@V?$allocator@D@2@@std@@ABVHeader@1@@Z 100dbf30 f   ImfStandardAttributes.obj
 0002:0007cf90       ?comments@Imf@@YAAAV?$basic_string@DU?$char_traits@D@std@@V?$allocator@D@2@@std@@AAVHeader@1@@Z 100dbf90 f   ImfStandardAttributes.obj
 0002:0007cff0       ?addCapDate@Imf@@YAXAAVHeader@1@ABV?$basic_string@DU?$char_traits@D@std@@V?$allocator@D@2@@std@@@Z 100dbff0 f   ImfStandardAttributes.obj
 0002:0007d0d0       ?hasCapDate@Imf@@YA_NABVHeader@1@@Z 100dc0d0 f   ImfStandardAttributes.obj
 0002:0007d130       ?capDateAttribute@Imf@@YAABV?$TypedAttribute@V?$basic_string@DU?$char_traits@D@std@@V?$allocator@D@2@@std@@@1@ABVHeader@1@@Z 100dc130 f   ImfStandardAttributes.obj
 0002:0007d180       ?capDateAttribute@Imf@@YAAAV?$TypedAttribute@V?$basic_string@DU?$char_traits@D@std@@V?$allocator@D@2@@std@@@1@AAVHeader@1@@Z 100dc180 f   ImfStandardAttributes.obj
 0002:0007d1d0       ?capDate@Imf@@YAABV?$basic_string@DU?$char_traits@D@std@@V?$allocator@D@2@@std@@ABVHeader@1@@Z 100dc1d0 f   ImfStandardAttributes.obj
 0002:0007d230       ?capDate@Imf@@YAAAV?$basic_string@DU?$char_traits@D@std@@V?$allocator@D@2@@std@@AAVHeader@1@@Z 100dc230 f   ImfStandardAttributes.obj
 0002:0007d290       ?addutcOffset@Imf@@YAXAAVHeader@1@ABM@Z 100dc290 f   ImfStandardAttributes.obj
 0002:0007d370       ?hasutcOffset@Imf@@YA_NABVHeader@1@@Z 100dc370 f   ImfStandardAttributes.obj
 0002:0007d3d0       ?utcOffsetAttribute@Imf@@YAABV?$TypedAttribute@M@1@ABVHeader@1@@Z 100dc3d0 f   ImfStandardAttributes.obj
 0002:0007d420       ?utcOffsetAttribute@Imf@@YAAAV?$TypedAttribute@M@1@AAVHeader@1@@Z 100dc420 f   ImfStandardAttributes.obj
 0002:0007d470       ?utcOffset@Imf@@YAABMABVHeader@1@@Z 100dc470 f   ImfStandardAttributes.obj
 0002:0007d4d0       ?utcOffset@Imf@@YAAAMAAVHeader@1@@Z 100dc4d0 f   ImfStandardAttributes.obj
 0002:0007d530       ?addLongitude@Imf@@YAXAAVHeader@1@ABM@Z 100dc530 f   ImfStandardAttributes.obj
 0002:0007d610       ?hasLongitude@Imf@@YA_NABVHeader@1@@Z 100dc610 f   ImfStandardAttributes.obj
 0002:0007d670       ?longitudeAttribute@Imf@@YAABV?$TypedAttribute@M@1@ABVHeader@1@@Z 100dc670 f   ImfStandardAttributes.obj
 0002:0007d6c0       ?longitudeAttribute@Imf@@YAAAV?$TypedAttribute@M@1@AAVHeader@1@@Z 100dc6c0 f   ImfStandardAttributes.obj
 0002:0007d710       ?longitude@Imf@@YAABMABVHeader@1@@Z 100dc710 f   ImfStandardAttributes.obj
 0002:0007d770       ?longitude@Imf@@YAAAMAAVHeader@1@@Z 100dc770 f   ImfStandardAttributes.obj
 0002:0007d7d0       ?addLatitude@Imf@@YAXAAVHeader@1@ABM@Z 100dc7d0 f   ImfStandardAttributes.obj
 0002:0007d8b0       ?hasLatitude@Imf@@YA_NABVHeader@1@@Z 100dc8b0 f   ImfStandardAttributes.obj
 0002:0007d910       ?latitudeAttribute@Imf@@YAABV?$TypedAttribute@M@1@ABVHeader@1@@Z 100dc910 f   ImfStandardAttributes.obj
 0002:0007d960       ?latitudeAttribute@Imf@@YAAAV?$TypedAttribute@M@1@AAVHeader@1@@Z 100dc960 f   ImfStandardAttributes.obj
 0002:0007d9b0       ?latitude@Imf@@YAABMABVHeader@1@@Z 100dc9b0 f   ImfStandardAttributes.obj
 0002:0007da10       ?latitude@Imf@@YAAAMAAVHeader@1@@Z 100dca10 f   ImfStandardAttributes.obj
 0002:0007da70       ?addAltitude@Imf@@YAXAAVHeader@1@ABM@Z 100dca70 f   ImfStandardAttributes.obj
 0002:0007db50       ?hasAltitude@Imf@@YA_NABVHeader@1@@Z 100dcb50 f   ImfStandardAttributes.obj
 0002:0007dbb0       ?altitudeAttribute@Imf@@YAABV?$TypedAttribute@M@1@ABVHeader@1@@Z 100dcbb0 f   ImfStandardAttributes.obj
 0002:0007dc00       ?altitudeAttribute@Imf@@YAAAV?$TypedAttribute@M@1@AAVHeader@1@@Z 100dcc00 f   ImfStandardAttributes.obj
 0002:0007dc50       ?altitude@Imf@@YAABMABVHeader@1@@Z 100dcc50 f   ImfStandardAttributes.obj
 0002:0007dcb0       ?altitude@Imf@@YAAAMAAVHeader@1@@Z 100dccb0 f   ImfStandardAttributes.obj
 0002:0007dd10       ?addFocus@Imf@@YAXAAVHeader@1@ABM@Z 100dcd10 f   ImfStandardAttributes.obj
 0002:0007ddf0       ?hasFocus@Imf@@YA_NABVHeader@1@@Z 100dcdf0 f   ImfStandardAttributes.obj
 0002:0007de50       ?focusAttribute@Imf@@YAABV?$TypedAttribute@M@1@ABVHeader@1@@Z 100dce50 f   ImfStandardAttributes.obj
 0002:0007dea0       ?focusAttribute@Imf@@YAAAV?$TypedAttribute@M@1@AAVHeader@1@@Z 100dcea0 f   ImfStandardAttributes.obj
 0002:0007def0       ?focus@Imf@@YAABMABVHeader@1@@Z 100dcef0 f   ImfStandardAttributes.obj
 0002:0007df50       ?focus@Imf@@YAAAMAAVHeader@1@@Z 100dcf50 f   ImfStandardAttributes.obj
 0002:0007dfb0       ?addExpTime@Imf@@YAXAAVHeader@1@ABM@Z 100dcfb0 f   ImfStandardAttributes.obj
 0002:0007e090       ?hasExpTime@Imf@@YA_NABVHeader@1@@Z 100dd090 f   ImfStandardAttributes.obj
 0002:0007e0f0       ?expTimeAttribute@Imf@@YAABV?$TypedAttribute@M@1@ABVHeader@1@@Z 100dd0f0 f   ImfStandardAttributes.obj
 0002:0007e140       ?expTimeAttribute@Imf@@YAAAV?$TypedAttribute@M@1@AAVHeader@1@@Z 100dd140 f   ImfStandardAttributes.obj
 0002:0007e190       ?expTime@Imf@@YAABMABVHeader@1@@Z 100dd190 f   ImfStandardAttributes.obj
 0002:0007e1f0       ?expTime@Imf@@YAAAMAAVHeader@1@@Z 100dd1f0 f   ImfStandardAttributes.obj
 0002:0007e250       ?addAperture@Imf@@YAXAAVHeader@1@ABM@Z 100dd250 f   ImfStandardAttributes.obj
 0002:0007e330       ?hasAperture@Imf@@YA_NABVHeader@1@@Z 100dd330 f   ImfStandardAttributes.obj
 0002:0007e390       ?apertureAttribute@Imf@@YAABV?$TypedAttribute@M@1@ABVHeader@1@@Z 100dd390 f   ImfStandardAttributes.obj
 0002:0007e3e0       ?apertureAttribute@Imf@@YAAAV?$TypedAttribute@M@1@AAVHeader@1@@Z 100dd3e0 f   ImfStandardAttributes.obj
 0002:0007e430       ?aperture@Imf@@YAABMABVHeader@1@@Z 100dd430 f   ImfStandardAttributes.obj
 0002:0007e490       ?aperture@Imf@@YAAAMAAVHeader@1@@Z 100dd490 f   ImfStandardAttributes.obj
 0002:0007e4f0       ?addIsoSpeed@Imf@@YAXAAVHeader@1@ABM@Z 100dd4f0 f   ImfStandardAttributes.obj
 0002:0007e5d0       ?hasIsoSpeed@Imf@@YA_NABVHeader@1@@Z 100dd5d0 f   ImfStandardAttributes.obj
 0002:0007e630       ?isoSpeedAttribute@Imf@@YAABV?$TypedAttribute@M@1@ABVHeader@1@@Z 100dd630 f   ImfStandardAttributes.obj
 0002:0007e680       ?isoSpeedAttribute@Imf@@YAAAV?$TypedAttribute@M@1@AAVHeader@1@@Z 100dd680 f   ImfStandardAttributes.obj
 0002:0007e6d0       ?isoSpeed@Imf@@YAABMABVHeader@1@@Z 100dd6d0 f   ImfStandardAttributes.obj
 0002:0007e730       ?isoSpeed@Imf@@YAAAMAAVHeader@1@@Z 100dd730 f   ImfStandardAttributes.obj
 0002:0007e790       ?addEnvmap@Imf@@YAXAAVHeader@1@ABW4Envmap@1@@Z 100dd790 f   ImfStandardAttributes.obj
 0002:0007e870       ?hasEnvmap@Imf@@YA_NABVHeader@1@@Z 100dd870 f   ImfStandardAttributes.obj
 0002:0007e8d0       ?envmapAttribute@Imf@@YAABV?$TypedAttribute@W4Envmap@Imf@@@1@ABVHeader@1@@Z 100dd8d0 f   ImfStandardAttributes.obj
 0002:0007e920       ?envmapAttribute@Imf@@YAAAV?$TypedAttribute@W4Envmap@Imf@@@1@AAVHeader@1@@Z 100dd920 f   ImfStandardAttributes.obj
 0002:0007e970       ?envmap@Imf@@YAABW4Envmap@1@ABVHeader@1@@Z 100dd970 f   ImfStandardAttributes.obj
 0002:0007e9d0       ?envmap@Imf@@YAAAW4Envmap@1@AAVHeader@1@@Z 100dd9d0 f   ImfStandardAttributes.obj
 0002:0007ea30       ?addKeyCode@Imf@@YAXAAVHeader@1@ABVKeyCode@1@@Z 100dda30 f   ImfStandardAttributes.obj
 0002:0007eb10       ?hasKeyCode@Imf@@YA_NABVHeader@1@@Z 100ddb10 f   ImfStandardAttributes.obj
 0002:0007eb70       ?keyCodeAttribute@Imf@@YAABV?$TypedAttribute@VKeyCode@Imf@@@1@ABVHeader@1@@Z 100ddb70 f   ImfStandardAttributes.obj
 0002:0007ebc0       ?keyCodeAttribute@Imf@@YAAAV?$TypedAttribute@VKeyCode@Imf@@@1@AAVHeader@1@@Z 100ddbc0 f   ImfStandardAttributes.obj
 0002:0007ec10       ?keyCode@Imf@@YAABVKeyCode@1@ABVHeader@1@@Z 100ddc10 f   ImfStandardAttributes.obj
 0002:0007ec70       ?keyCode@Imf@@YAAAVKeyCode@1@AAVHeader@1@@Z 100ddc70 f   ImfStandardAttributes.obj
 0002:0007ecd0       ?addTimeCode@Imf@@YAXAAVHeader@1@ABVTimeCode@1@@Z 100ddcd0 f   ImfStandardAttributes.obj
 0002:0007edb0       ?hasTimeCode@Imf@@YA_NABVHeader@1@@Z 100dddb0 f   ImfStandardAttributes.obj
 0002:0007ee10       ?timeCodeAttribute@Imf@@YAABV?$TypedAttribute@VTimeCode@Imf@@@1@ABVHeader@1@@Z 100dde10 f   ImfStandardAttributes.obj
 0002:0007ee60       ?timeCodeAttribute@Imf@@YAAAV?$TypedAttribute@VTimeCode@Imf@@@1@AAVHeader@1@@Z 100dde60 f   ImfStandardAttributes.obj
 0002:0007eeb0       ?timeCode@Imf@@YAABVTimeCode@1@ABVHeader@1@@Z 100ddeb0 f   ImfStandardAttributes.obj
 0002:0007ef10       ?timeCode@Imf@@YAAAVTimeCode@1@AAVHeader@1@@Z 100ddf10 f   ImfStandardAttributes.obj
 0002:0007ef70       ?addWrapmodes@Imf@@YAXAAVHeader@1@ABV?$basic_string@DU?$char_traits@D@std@@V?$allocator@D@2@@std@@@Z 100ddf70 f   ImfStandardAttributes.obj
 0002:0007f050       ?hasWrapmodes@Imf@@YA_NABVHeader@1@@Z 100de050 f   ImfStandardAttributes.obj
 0002:0007f0b0       ?wrapmodesAttribute@Imf@@YAABV?$TypedAttribute@V?$basic_string@DU?$char_traits@D@std@@V?$allocator@D@2@@std@@@1@ABVHeader@1@@Z 100de0b0 f   ImfStandardAttributes.obj
 0002:0007f100       ?wrapmodesAttribute@Imf@@YAAAV?$TypedAttribute@V?$basic_string@DU?$char_traits@D@std@@V?$allocator@D@2@@std@@@1@AAVHeader@1@@Z 100de100 f   ImfStandardAttributes.obj
 0002:0007f150       ?wrapmodes@Imf@@YAABV?$basic_string@DU?$char_traits@D@std@@V?$allocator@D@2@@std@@ABVHeader@1@@Z 100de150 f   ImfStandardAttributes.obj
 0002:0007f1b0       ?wrapmodes@Imf@@YAAAV?$basic_string@DU?$char_traits@D@std@@V?$allocator@D@2@@std@@AAVHeader@1@@Z 100de1b0 f   ImfStandardAttributes.obj
 0002:0007f210       ??0?$TypedAttribute@UChromaticities@Imf@@@Imf@@QAE@ABUChromaticities@1@@Z 100de210 f i ImfStandardAttributes.obj
 0002:0007f2d0       ?value@?$TypedAttribute@UChromaticities@Imf@@@Imf@@QBEABUChromaticities@2@XZ 100de2d0 f i ImfStandardAttributes.obj
 0002:0007f310       ?value@?$TypedAttribute@UChromaticities@Imf@@@Imf@@QAEAAUChromaticities@2@XZ 100de310 f i ImfStandardAttributes.obj
 0002:0007f350       ??0?$TypedAttribute@W4Envmap@Imf@@@Imf@@QAE@ABW4Envmap@1@@Z 100de350 f i ImfStandardAttributes.obj
 0002:0007f3c0       ?value@?$TypedAttribute@W4Envmap@Imf@@@Imf@@QBEABW4Envmap@2@XZ 100de3c0 f i ImfStandardAttributes.obj
 0002:0007f400       ?value@?$TypedAttribute@W4Envmap@Imf@@@Imf@@QAEAAW4Envmap@2@XZ 100de400 f i ImfStandardAttributes.obj
 0002:0007f440       ??0?$TypedAttribute@VKeyCode@Imf@@@Imf@@QAE@ABVKeyCode@1@@Z 100de440 f i ImfStandardAttributes.obj
 0002:0007f500       ?value@?$TypedAttribute@VKeyCode@Imf@@@Imf@@QBEABVKeyCode@2@XZ 100de500 f i ImfStandardAttributes.obj
 0002:0007f540       ?value@?$TypedAttribute@VKeyCode@Imf@@@Imf@@QAEAAVKeyCode@2@XZ 100de540 f i ImfStandardAttributes.obj
 0002:0007f580       ??0?$TypedAttribute@VTimeCode@Imf@@@Imf@@QAE@ABVTimeCode@1@@Z 100de580 f i ImfStandardAttributes.obj
 0002:0007f640       ?value@?$TypedAttribute@VTimeCode@Imf@@@Imf@@QBEABVTimeCode@2@XZ 100de640 f i ImfStandardAttributes.obj
 0002:0007f680       ?value@?$TypedAttribute@VTimeCode@Imf@@@Imf@@QAEAAVTimeCode@2@XZ 100de680 f i ImfStandardAttributes.obj
 0002:0007f6c0       ??$findTypedAttribute@V?$TypedAttribute@UChromaticities@Imf@@@Imf@@@Header@Imf@@QBEPBV?$TypedAttribute@UChromaticities@Imf@@@1@QBD@Z 100de6c0 f i ImfStandardAttributes.obj
 0002:0007f870       ??$typedAttribute@V?$TypedAttribute@UChromaticities@Imf@@@Imf@@@Header@Imf@@QBEABV?$TypedAttribute@UChromaticities@Imf@@@1@QBD@Z 100de870 f i ImfStandardAttributes.obj
 0002:0007f930       ??$typedAttribute@V?$TypedAttribute@UChromaticities@Imf@@@Imf@@@Header@Imf@@QAEAAV?$TypedAttribute@UChromaticities@Imf@@@1@QBD@Z 100de930 f i ImfStandardAttributes.obj
 0002:0007f9f0       ??$findTypedAttribute@V?$TypedAttribute@M@Imf@@@Header@Imf@@QBEPBV?$TypedAttribute@M@1@QBD@Z 100de9f0 f i ImfStandardAttributes.obj
 0002:0007fba0       ??$findTypedAttribute@V?$TypedAttribute@V?$basic_string@DU?$char_traits@D@std@@V?$allocator@D@2@@std@@@Imf@@@Header@Imf@@QBEPBV?$TypedAttribute@V?$basic_string@DU?$char_traits@D@std@@V?$allocator@D@2@@std@@@1@QBD@Z 100deba0 f i ImfStandardAttributes.obj
 0002:0007fd50       ??$findTypedAttribute@V?$TypedAttribute@W4Envmap@Imf@@@Imf@@@Header@Imf@@QBEPBV?$TypedAttribute@W4Envmap@Imf@@@1@QBD@Z 100ded50 f i ImfStandardAttributes.obj
 0002:0007ff00       ??$typedAttribute@V?$TypedAttribute@W4Envmap@Imf@@@Imf@@@Header@Imf@@QBEABV?$TypedAttribute@W4Envmap@Imf@@@1@QBD@Z 100def00 f i ImfStandardAttributes.obj
 0002:0007ffc0       ??$typedAttribute@V?$TypedAttribute@W4Envmap@Imf@@@Imf@@@Header@Imf@@QAEAAV?$TypedAttribute@W4Envmap@Imf@@@1@QBD@Z 100defc0 f i ImfStandardAttributes.obj
 0002:00080080       ??$findTypedAttribute@V?$TypedAttribute@VKeyCode@Imf@@@Imf@@@Header@Imf@@QBEPBV?$TypedAttribute@VKeyCode@Imf@@@1@QBD@Z 100df080 f i ImfStandardAttributes.obj
 0002:00080230       ??$typedAttribute@V?$TypedAttribute@VKeyCode@Imf@@@Imf@@@Header@Imf@@QBEABV?$TypedAttribute@VKeyCode@Imf@@@1@QBD@Z 100df230 f i ImfStandardAttributes.obj
 0002:000802f0       ??$typedAttribute@V?$TypedAttribute@VKeyCode@Imf@@@Imf@@@Header@Imf@@QAEAAV?$TypedAttribute@VKeyCode@Imf@@@1@QBD@Z 100df2f0 f i ImfStandardAttributes.obj
 0002:000803b0       ??$findTypedAttribute@V?$TypedAttribute@VTimeCode@Imf@@@Imf@@@Header@Imf@@QBEPBV?$TypedAttribute@VTimeCode@Imf@@@1@QBD@Z 100df3b0 f i ImfStandardAttributes.obj
 0002:00080560       ??$typedAttribute@V?$TypedAttribute@VTimeCode@Imf@@@Imf@@@Header@Imf@@QBEABV?$TypedAttribute@VTimeCode@Imf@@@1@QBD@Z 100df560 f i ImfStandardAttributes.obj
 0002:00080620       ??$typedAttribute@V?$TypedAttribute@VTimeCode@Imf@@@Imf@@@Header@Imf@@QAEAAV?$TypedAttribute@VTimeCode@Imf@@@1@QBD@Z 100df620 f i ImfStandardAttributes.obj
 0002:000806e0       ?clearError@?A0x3b65d326@Imf@@YAXXZ 100df6e0 f   ImfStdIO.obj
 0002:00080740       ?checkError@?A0x3b65d326@Imf@@YA_NAAV?$basic_istream@DU?$char_traits@D@std@@@std@@@Z 100df740 f   ImfStdIO.obj
 0002:00080860       ?checkError@?A0x3b65d326@Imf@@YAXAAV?$basic_ostream@DU?$char_traits@D@std@@@std@@@Z 100df860 f   ImfStdIO.obj
 0002:000809b0       ??0ErrnoExc@Iex@@QAE@PBD@Z 100df9b0 f i ImfStdIO.obj
 0002:00080a20       ??_EErrnoExc@Iex@@UAEPAXI@Z 100dfa20 f i ImfStdIO.obj
 0002:00080a20       ??_GErrnoExc@Iex@@UAEPAXI@Z 100dfa20 f i ImfStdIO.obj
 0002:00080a90       ??1ErrnoExc@Iex@@UAE@XZ    100dfa90 f i ImfStdIO.obj
 0002:00080ae0       ??0ErrnoExc@Iex@@QAE@ABV01@@Z 100dfae0 f i ImfStdIO.obj
 0002:00080b50       ??0StdIFStream@Imf@@QAE@QBD@Z 100dfb50 f   ImfStdIO.obj
 0002:00080dc0       ??_G?$basic_ifstream@DU?$char_traits@D@std@@@std@@UAEPAXI@Z 100dfdc0 f i ImfStdIO.obj
 0002:00080dc0       ??_E?$basic_ifstream@DU?$char_traits@D@std@@@std@@UAEPAXI@Z 100dfdc0 f i ImfStdIO.obj
 0002:00080e50       ??_EStdIFStream@Imf@@UAEPAXI@Z 100dfe50 f i ImfStdIO.obj
 0002:00080e50       ??_GStdIFStream@Imf@@UAEPAXI@Z 100dfe50 f i ImfStdIO.obj
 0002:00080ec0       ??0StdIFStream@Imf@@QAE@AAV?$basic_ifstream@DU?$char_traits@D@std@@@std@@QBD@Z 100dfec0 f   ImfStdIO.obj
 0002:00080f40       ??1StdIFStream@Imf@@UAE@XZ 100dff40 f   ImfStdIO.obj
 0002:00081080       ?read@StdIFStream@Imf@@UAE_NQADH@Z 100e0080 f   ImfStdIO.obj
 0002:00081160       ?tellg@StdIFStream@Imf@@UAE_KXZ 100e0160 f   ImfStdIO.obj
 0002:000811e0       ?seekg@StdIFStream@Imf@@UAEX_K@Z 100e01e0 f   ImfStdIO.obj
 0002:00081260       ?clear@StdIFStream@Imf@@UAEXXZ 100e0260 f   ImfStdIO.obj
 0002:000812e0       ??0StdOFStream@Imf@@QAE@QBD@Z 100e02e0 f   ImfStdIO.obj
 0002:00081550       ??_G?$basic_ofstream@DU?$char_traits@D@std@@@std@@UAEPAXI@Z 100e0550 f i ImfStdIO.obj
 0002:00081550       ??_E?$basic_ofstream@DU?$char_traits@D@std@@@std@@UAEPAXI@Z 100e0550 f i ImfStdIO.obj
 0002:000815e0       ??_EStdOFStream@Imf@@UAEPAXI@Z 100e05e0 f i ImfStdIO.obj
 0002:000815e0       ??_GStdOFStream@Imf@@UAEPAXI@Z 100e05e0 f i ImfStdIO.obj
 0002:00081650       ??0StdOFStream@Imf@@QAE@AAV?$basic_ofstream@DU?$char_traits@D@std@@@std@@QBD@Z 100e0650 f   ImfStdIO.obj
 0002:000816d0       ??1StdOFStream@Imf@@UAE@XZ 100e06d0 f   ImfStdIO.obj
 0002:00081810       ?write@StdOFStream@Imf@@UAEXQBDH@Z 100e0810 f   ImfStdIO.obj
 0002:000818a0       ?tellp@StdOFStream@Imf@@UAE_KXZ 100e08a0 f   ImfStdIO.obj
 0002:00081920       ?seekp@StdOFStream@Imf@@UAEX_K@Z 100e0920 f   ImfStdIO.obj
 0002:000819a0       ??0StdOSStream@Imf@@QAE@XZ 100e09a0 f   ImfStdIO.obj
 0002:00081a70       ??_GStdOSStream@Imf@@UAEPAXI@Z 100e0a70 f i ImfStdIO.obj
 0002:00081a70       ??_EStdOSStream@Imf@@UAEPAXI@Z 100e0a70 f i ImfStdIO.obj
 0002:00081ae0       ?write@StdOSStream@Imf@@UAEXQBDH@Z 100e0ae0 f   ImfStdIO.obj
 0002:00081b70       ?tellp@StdOSStream@Imf@@UAE_KXZ 100e0b70 f   ImfStdIO.obj
 0002:00081bf0       ?seekp@StdOSStream@Imf@@UAEX_K@Z 100e0bf0 f   ImfStdIO.obj
 0002:00081c70       ??0?$fpos@H@std@@QAE@J@Z   100e0c70 f i ImfStdIO.obj
 0002:00081ce0       ??B?$fpos@H@std@@QBEJXZ    100e0ce0 f i ImfStdIO.obj
 0002:00081d30       ?staticTypeName@?$TypedAttribute@V?$basic_string@DU?$char_traits@D@std@@V?$allocator@D@2@@std@@@Imf@@SAPBDXZ 100e0d30 f   ImfStringAttribute.obj
 0002:00081d70       ?writeValueTo@?$TypedAttribute@V?$basic_string@DU?$char_traits@D@std@@V?$allocator@D@2@@std@@@Imf@@UBEXAAVOStream@2@H@Z 100e0d70 f   ImfStringAttribute.obj
 0002:00081e30       ?readValueFrom@?$TypedAttribute@V?$basic_string@DU?$char_traits@D@std@@V?$allocator@D@2@@std@@@Imf@@UAEXAAVIStream@2@HH@Z 100e0e30 f   ImfStringAttribute.obj
 0002:00081ef0       ??$write@UStreamIO@Imf@@VOStream@2@@Xdr@Imf@@YAXAAVOStream@1@D@Z 100e0ef0 f i ImfStringAttribute.obj
 0002:00081f50       ??$read@UStreamIO@Imf@@VIStream@2@@Xdr@Imf@@YAXAAVIStream@1@AAD@Z 100e0f50 f i ImfStringAttribute.obj
 0002:00081fb0       ?isOpenExrFile@Imf@@YA_NQBDAA_N@Z 100e0fb0 f   ImfTestFile.obj
 0002:00082170       ?isOpenExrFile@Imf@@YA_NQBD@Z 100e1170 f   ImfTestFile.obj
 0002:00082200       ?isTiledOpenExrFile@Imf@@YA_NQBD@Z 100e1200 f   ImfTestFile.obj
 0002:000822d0       ?isOpenExrFile@Imf@@YA_NAAVIStream@1@AA_N@Z 100e12d0 f   ImfTestFile.obj
 0002:000824e0       ?isOpenExrFile@Imf@@YA_NAAVIStream@1@@Z 100e14e0 f   ImfTestFile.obj
 0002:00082570       ?isTiledOpenExrFile@Imf@@YA_NAAVIStream@1@@Z 100e1570 f   ImfTestFile.obj
 0002:00082640       ??$read@UStreamIO@Imf@@VStdIFStream@2@@Xdr@Imf@@YAXAAVStdIFStream@1@AAH@Z 100e1640 f i ImfTestFile.obj
 0002:00082710       ??$readSignedChars@UStreamIO@Imf@@VStdIFStream@2@@Xdr@Imf@@YAXAAVStdIFStream@1@QACH@Z 100e1710 f i ImfTestFile.obj
 0002:00082770       ?globalThreadCount@Imf@@YAHXZ 100e1770 f   ImfThreading.obj
 0002:000827c0       ?setGlobalThreadCount@Imf@@YAXH@Z 100e17c0 f   ImfThreading.obj
 0002:00082820       ?staticTypeName@?$TypedAttribute@VTileDescription@Imf@@@Imf@@SAPBDXZ 100e1820 f   ImfTileDescriptionAttribute.obj
 0002:00082860       ?writeValueTo@?$TypedAttribute@VTileDescription@Imf@@@Imf@@UBEXAAVOStream@2@H@Z 100e1860 f   ImfTileDescriptionAttribute.obj
 0002:00082910       ?readValueFrom@?$TypedAttribute@VTileDescription@Imf@@@Imf@@UAEXAAVIStream@2@HH@Z 100e1910 f   ImfTileDescriptionAttribute.obj
 0002:00082a00       ??$read@UStreamIO@Imf@@VIStream@2@@Xdr@Imf@@YAXAAVIStream@1@AAI@Z 100e1a00 f i ImfTileDescriptionAttribute.obj
 0002:00082ad0       ??0TInSliceInfo@?A0xf349abed@Imf@@QAE@W4PixelType@2@0PADII_N2NHH@Z 100e1ad0 f   ImfTiledInputFile.obj
 0002:00082b80       ??0TileBuffer@?A0xf349abed@Imf@@QAE@QAVCompressor@2@@Z 100e1b80 f   ImfTiledInputFile.obj
 0002:00082cd0       ??1TileBuffer@?A0xf349abed@Imf@@QAE@XZ 100e1cd0 f   ImfTiledInputFile.obj
 0002:00082df0       ??0Data@TiledInputFile@Imf@@QAE@_NH@Z 100e1df0 f   ImfTiledInputFile.obj
 0002:00082ff0       ??_EData@TiledInputFile@Imf@@UAEPAXI@Z 100e1ff0 f i ImfTiledInputFile.obj
 0002:00082ff0       ??_GData@TiledInputFile@Imf@@UAEPAXI@Z 100e1ff0 f i ImfTiledInputFile.obj
 0002:00083060       ??1TileOffsets@Imf@@QAE@XZ 100e2060 f i ImfTiledInputFile.obj
 0002:000830c0       ??1Data@TiledInputFile@Imf@@UAE@XZ 100e20c0 f   ImfTiledInputFile.obj
 0002:00083320       ??_GTileBuffer@?A0xf349abed@Imf@@QAEPAXI@Z 100e2320 f i ImfTiledInputFile.obj
 0002:00083390       ?readTileData@?A0xf349abed@Imf@@YAXPAUData@TiledInputFile@2@HHHHAAPADAAH@Z 100e2390 f   ImfTiledInputFile.obj
 0002:00083960       ?readNextTileData@?A0xf349abed@Imf@@YAXPAUData@TiledInputFile@2@AAH111AAPAD1@Z 100e2960 f   ImfTiledInputFile.obj
 0002:00083ae0       ??0TileBufferTask@?A0xf349abed@Imf@@QAE@PAVTaskGroup@IlmThread@@PAUData@TiledInputFile@2@PAUTileBuffer@12@@Z 100e2ae0 f   ImfTiledInputFile.obj
 0002:00083b60       ??_GTileBufferTask@?A0xf349abed@Imf@@UAEPAXI@Z 100e2b60 f i ImfTiledInputFile.obj
 0002:00083b60       ??_ETileBufferTask@?A0xf349abed@Imf@@UAEPAXI@Z 100e2b60 f i ImfTiledInputFile.obj
 0002:00083bd0       ??1TileBufferTask@?A0xf349abed@Imf@@UAE@XZ 100e2bd0 f   ImfTiledInputFile.obj
 0002:00083c80       ?post@TileBuffer@?A0xf349abed@Imf@@QAEXXZ 100e2c80 f i ImfTiledInputFile.obj
 0002:00083ce0       ?execute@TileBufferTask@?A0xf349abed@Imf@@UAEXXZ 100e2ce0 f   ImfTiledInputFile.obj
 0002:00084260       ?newTileBufferTask@?A0xf349abed@Imf@@YAPAVTileBufferTask@12@PAVTaskGroup@IlmThread@@PAUData@TiledInputFile@2@HHHHH@Z 100e3260 f   ImfTiledInputFile.obj
 0002:00084410       ?wait@TileBuffer@?A0xf349abed@Imf@@QAEXXZ 100e3410 f i ImfTiledInputFile.obj
 0002:00084470       ?getTileBuffer@Data@TiledInputFile@Imf@@QAEPAUTileBuffer@?A0xf349abed@3@H@Z 100e3470 f i ImfTiledInputFile.obj
 0002:000844f0       ??0TiledInputFile@Imf@@QAE@QBDH@Z 100e34f0 f   ImfTiledInputFile.obj
 0002:000848b0       ??_ETiledInputFile@Imf@@UAEPAXI@Z 100e38b0 f i ImfTiledInputFile.obj
 0002:000848b0       ??_GTiledInputFile@Imf@@UAEPAXI@Z 100e38b0 f i ImfTiledInputFile.obj
 0002:00084920       ??0TiledInputFile@Imf@@QAE@AAVIStream@1@H@Z 100e3920 f   ImfTiledInputFile.obj
 0002:00084c60       ??0TiledInputFile@Imf@@AAE@ABVHeader@1@PAVIStream@1@HH@Z 100e3c60 f   ImfTiledInputFile.obj
 0002:00084db0       ?initialize@TiledInputFile@Imf@@AAEXXZ 100e3db0 f   ImfTiledInputFile.obj
 0002:00085300       ??4TileOffsets@Imf@@QAEAAV01@ABV01@@Z 100e4300 f i ImfTiledInputFile.obj
 0002:00085390       ??1TiledInputFile@Imf@@UAE@XZ 100e4390 f   ImfTiledInputFile.obj
 0002:000854f0       ?fileName@TiledInputFile@Imf@@QBEPBDXZ 100e44f0 f   ImfTiledInputFile.obj
 0002:00085550       ?header@TiledInputFile@Imf@@QBEABVHeader@2@XZ 100e4550 f   ImfTiledInputFile.obj
 0002:00085590       ?version@TiledInputFile@Imf@@QBEHXZ 100e4590 f   ImfTiledInputFile.obj
 0002:000855d0       ?setFrameBuffer@TiledInputFile@Imf@@QAEXABVFrameBuffer@2@@Z 100e45d0 f   ImfTiledInputFile.obj
 0002:00086070       ?frameBuffer@TiledInputFile@Imf@@QBEABVFrameBuffer@2@XZ 100e5070 f   ImfTiledInputFile.obj
 0002:00086130       ?isComplete@TiledInputFile@Imf@@QBE_NXZ 100e5130 f   ImfTiledInputFile.obj
 0002:00086180       ?readTiles@TiledInputFile@Imf@@QAEXHHHHHH@Z 100e5180 f   ImfTiledInputFile.obj
 0002:000868f0       ?readTiles@TiledInputFile@Imf@@QAEXHHHHH@Z 100e58f0 f   ImfTiledInputFile.obj
 0002:00086960       ?readTile@TiledInputFile@Imf@@QAEXHHHH@Z 100e5960 f   ImfTiledInputFile.obj
 0002:000869d0       ?readTile@TiledInputFile@Imf@@QAEXHHH@Z 100e59d0 f   ImfTiledInputFile.obj
 0002:00086a40       ?rawTileData@TiledInputFile@Imf@@QAEXAAH000AAPBD0@Z 100e5a40 f   ImfTiledInputFile.obj
 0002:00086d60       ?tileXSize@TiledInputFile@Imf@@QBEIXZ 100e5d60 f   ImfTiledInputFile.obj
 0002:00086da0       ?tileYSize@TiledInputFile@Imf@@QBEIXZ 100e5da0 f   ImfTiledInputFile.obj
 0002:00086de0       ?levelMode@TiledInputFile@Imf@@QBE?AW4LevelMode@2@XZ 100e5de0 f   ImfTiledInputFile.obj
 0002:00086e20       ?levelRoundingMode@TiledInputFile@Imf@@QBE?AW4LevelRoundingMode@2@XZ 100e5e20 f   ImfTiledInputFile.obj
 0002:00086e60       ?numLevels@TiledInputFile@Imf@@QBEHXZ 100e5e60 f   ImfTiledInputFile.obj
 0002:00087020       ?numXLevels@TiledInputFile@Imf@@QBEHXZ 100e6020 f   ImfTiledInputFile.obj
 0002:00087060       ?numYLevels@TiledInputFile@Imf@@QBEHXZ 100e6060 f   ImfTiledInputFile.obj
 0002:000870b0       ?isValidLevel@TiledInputFile@Imf@@QBE_NHH@Z 100e60b0 f   ImfTiledInputFile.obj
 0002:00087160       ?levelWidth@TiledInputFile@Imf@@QBEHH@Z 100e6160 f   ImfTiledInputFile.obj
 0002:000873b0       ?levelHeight@TiledInputFile@Imf@@QBEHH@Z 100e63b0 f   ImfTiledInputFile.obj
 0002:00087600       ?numXTiles@TiledInputFile@Imf@@QBEHH@Z 100e6600 f   ImfTiledInputFile.obj
 0002:000877e0       ?numYTiles@TiledInputFile@Imf@@QBEHH@Z 100e67e0 f   ImfTiledInputFile.obj
 0002:000879c0       ?dataWindowForLevel@TiledInputFile@Imf@@QBE?AV?$Box@V?$Vec2@H@Imath@@@Imath@@H@Z 100e69c0 f   ImfTiledInputFile.obj
 0002:00087a30       ?dataWindowForLevel@TiledInputFile@Imf@@QBE?AV?$Box@V?$Vec2@H@Imath@@@Imath@@HH@Z 100e6a30 f   ImfTiledInputFile.obj
 0002:00087c90       ?dataWindowForTile@TiledInputFile@Imf@@QBE?AV?$Box@V?$Vec2@H@Imath@@@Imath@@HHH@Z 100e6c90 f   ImfTiledInputFile.obj
 0002:00087d00       ?dataWindowForTile@TiledInputFile@Imf@@QBE?AV?$Box@V?$Vec2@H@Imath@@@Imath@@HHHH@Z 100e6d00 f   ImfTiledInputFile.obj
 0002:00087fd0       ?isValidTile@TiledInputFile@Imf@@ABE_NHHHH@Z 100e6fd0 f   ImfTiledInputFile.obj
 0002:000880b0       ??1?$vector@V?$vector@V?$vector@_KV?$allocator@_K@std@@@std@@V?$allocator@V?$vector@_KV?$allocator@_K@std@@@std@@@2@@std@@V?$allocator@V?$vector@V?$vector@_KV?$allocator@_K@std@@@std@@V?$allocator@V?$vector@_KV?$allocator@_K@std@@@std@@@2@@std@@@2@@std@@QAE@XZ 100e70b0 f i ImfTiledInputFile.obj
 0002:00088150       ??4?$vector@V?$vector@V?$vector@_KV?$allocator@_K@std@@@std@@V?$allocator@V?$vector@_KV?$allocator@_K@std@@@std@@@2@@std@@V?$allocator@V?$vector@V?$vector@_KV?$allocator@_K@std@@@std@@V?$allocator@V?$vector@_KV?$allocator@_K@std@@@std@@@2@@std@@@2@@std@@QAEAAV01@ABV01@@Z 100e7150 f i ImfTiledInputFile.obj
 0002:00088390       ??0?$vector@UTInSliceInfo@?A0xf349abed@Imf@@V?$allocator@UTInSliceInfo@?A0xf349abed@Imf@@@std@@@std@@QAE@XZ 100e7390 f i ImfTiledInputFile.obj
 0002:00088450       ??1?$vector@UTInSliceInfo@?A0xf349abed@Imf@@V?$allocator@UTInSliceInfo@?A0xf349abed@Imf@@@std@@@std@@QAE@XZ 100e7450 f i ImfTiledInputFile.obj
 0002:000884f0       ??4?$vector@UTInSliceInfo@?A0xf349abed@Imf@@V?$allocator@UTInSliceInfo@?A0xf349abed@Imf@@@std@@@std@@QAEAAV01@ABV01@@Z 100e74f0 f i ImfTiledInputFile.obj
 0002:00088730       ?size@?$vector@UTInSliceInfo@?A0xf349abed@Imf@@V?$allocator@UTInSliceInfo@?A0xf349abed@Imf@@@std@@@std@@QBEIXZ 100e7730 f i ImfTiledInputFile.obj
 0002:000887b0       ??A?$vector@UTInSliceInfo@?A0xf349abed@Imf@@V?$allocator@UTInSliceInfo@?A0xf349abed@Imf@@@std@@@std@@QAEAAUTInSliceInfo@?A0xf349abed@Imf@@I@Z 100e77b0 f i ImfTiledInputFile.obj
 0002:00088930       ?push_back@?$vector@UTInSliceInfo@?A0xf349abed@Imf@@V?$allocator@UTInSliceInfo@?A0xf349abed@Imf@@@std@@@std@@QAEXABUTInSliceInfo@?A0xf349abed@Imf@@@Z 100e7930 f i ImfTiledInputFile.obj
 0002:00088a20       ??0?$vector@PAUTileBuffer@?A0xf349abed@Imf@@V?$allocator@PAUTileBuffer@?A0xf349abed@Imf@@@std@@@std@@QAE@XZ 100e7a20 f i ImfTiledInputFile.obj
 0002:00088ae0       ??1?$vector@PAUTileBuffer@?A0xf349abed@Imf@@V?$allocator@PAUTileBuffer@?A0xf349abed@Imf@@@std@@@std@@QAE@XZ 100e7ae0 f i ImfTiledInputFile.obj
 0002:00088b80       ?resize@?$vector@PAUTileBuffer@?A0xf349abed@Imf@@V?$allocator@PAUTileBuffer@?A0xf349abed@Imf@@@std@@@std@@QAEXI@Z 100e7b80 f i ImfTiledInputFile.obj
 0002:00088be0       ?size@?$vector@PAUTileBuffer@?A0xf349abed@Imf@@V?$allocator@PAUTileBuffer@?A0xf349abed@Imf@@@std@@@std@@QBEIXZ 100e7be0 f i ImfTiledInputFile.obj
 0002:00088c50       ??A?$vector@PAUTileBuffer@?A0xf349abed@Imf@@V?$allocator@PAUTileBuffer@?A0xf349abed@Imf@@@std@@@std@@QAEAAPAUTileBuffer@?A0xf349abed@Imf@@I@Z 100e7c50 f i ImfTiledInputFile.obj
 0002:00088dd0       ??1?$_Vector_val@V?$vector@V?$vector@_KV?$allocator@_K@std@@@std@@V?$allocator@V?$vector@_KV?$allocator@_K@std@@@std@@@2@@std@@V?$allocator@V?$vector@V?$vector@_KV?$allocator@_K@std@@@std@@V?$allocator@V?$vector@_KV?$allocator@_K@std@@@std@@@2@@std@@@2@@std@@QAE@XZ 100e7dd0 f i ImfTiledInputFile.obj
 0002:00088e30       ??1?$_Vector_val@UTInSliceInfo@?A0xf349abed@Imf@@V?$allocator@UTInSliceInfo@?A0xf349abed@Imf@@@std@@@std@@QAE@XZ 100e7e30 f i ImfTiledInputFile.obj
 0002:00088e90       ??1?$_Vector_iterator@UTInSliceInfo@?A0xf349abed@Imf@@V?$allocator@UTInSliceInfo@?A0xf349abed@Imf@@@std@@@std@@QAE@XZ 100e7e90 f i ImfTiledInputFile.obj
 0002:00088ee0       ??1?$_Vector_val@PAUTileBuffer@?A0xf349abed@Imf@@V?$allocator@PAUTileBuffer@?A0xf349abed@Imf@@@std@@@std@@QAE@XZ 100e7ee0 f i ImfTiledInputFile.obj
 0002:00088f40       ??1?$_Vector_const_iterator@UTInSliceInfo@?A0xf349abed@Imf@@V?$allocator@UTInSliceInfo@?A0xf349abed@Imf@@@std@@@std@@QAE@XZ 100e7f40 f i ImfTiledInputFile.obj
 0002:00088f90       ??1?$_Ranit@UTInSliceInfo@?A0xf349abed@Imf@@HPBU123@ABU123@@std@@QAE@XZ 100e7f90 f i ImfTiledInputFile.obj
 0002:00088fe0       ?capacity@?$vector@V?$vector@V?$vector@_KV?$allocator@_K@std@@@std@@V?$allocator@V?$vector@_KV?$allocator@_K@std@@@std@@@2@@std@@V?$allocator@V?$vector@V?$vector@_KV?$allocator@_K@std@@@std@@V?$allocator@V?$vector@_KV?$allocator@_K@std@@@std@@@2@@std@@@2@@std@@QBEIXZ 100e7fe0 f i ImfTiledInputFile.obj
 0002:00089060       ?size@?$vector@V?$vector@V?$vector@_KV?$allocator@_K@std@@@std@@V?$allocator@V?$vector@_KV?$allocator@_K@std@@@std@@@2@@std@@V?$allocator@V?$vector@V?$vector@_KV?$allocator@_K@std@@@std@@V?$allocator@V?$vector@_KV?$allocator@_K@std@@@std@@@2@@std@@@2@@std@@QBEIXZ 100e8060 f i ImfTiledInputFile.obj
 0002:000890e0       ?clear@?$vector@V?$vector@V?$vector@_KV?$allocator@_K@std@@@std@@V?$allocator@V?$vector@_KV?$allocator@_K@std@@@std@@@2@@std@@V?$allocator@V?$vector@V?$vector@_KV?$allocator@_K@std@@@std@@V?$allocator@V?$vector@_KV?$allocator@_K@std@@@std@@@2@@std@@@2@@std@@QAEXXZ 100e80e0 f i ImfTiledInputFile.obj
 0002:000891f0       ?_Buy@?$vector@V?$vector@V?$vector@_KV?$allocator@_K@std@@@std@@V?$allocator@V?$vector@_KV?$allocator@_K@std@@@std@@@2@@std@@V?$allocator@V?$vector@V?$vector@_KV?$allocator@_K@std@@@std@@V?$allocator@V?$vector@_KV?$allocator@_K@std@@@std@@@2@@std@@@2@@std@@IAE_NI@Z 100e81f0 f i ImfTiledInputFile.obj
 0002:000892d0       ?_Destroy@?$vector@V?$vector@V?$vector@_KV?$allocator@_K@std@@@std@@V?$allocator@V?$vector@_KV?$allocator@_K@std@@@std@@@2@@std@@V?$allocator@V?$vector@V?$vector@_KV?$allocator@_K@std@@@std@@V?$allocator@V?$vector@_KV?$allocator@_K@std@@@std@@@2@@std@@@2@@std@@IAEXPAV?$vector@V?$vector@_KV?$allocator@_K@std@@@std@@V?$allocator@V?$vector@_KV?$allocator@_K@std@@@std@@@2@@2@0@Z 100e82d0 f i ImfTiledInputFile.obj
 0002:00089340       ?_Tidy@?$vector@V?$vector@V?$vector@_KV?$allocator@_K@std@@@std@@V?$allocator@V?$vector@_KV?$allocator@_K@std@@@std@@@2@@std@@V?$allocator@V?$vector@V?$vector@_KV?$allocator@_K@std@@@std@@V?$allocator@V?$vector@_KV?$allocator@_K@std@@@std@@@2@@std@@@2@@std@@IAEXXZ 100e8340 f i ImfTiledInputFile.obj
 0002:00089420       ?deallocate@?$allocator@V?$vector@V?$vector@_KV?$allocator@_K@std@@@std@@V?$allocator@V?$vector@_KV?$allocator@_K@std@@@std@@@2@@std@@@std@@QAEXPAV?$vector@V?$vector@_KV?$allocator@_K@std@@@std@@V?$allocator@V?$vector@_KV?$allocator@_K@std@@@std@@@2@@2@I@Z 100e8420 f i ImfTiledInputFile.obj
 0002:00089480       ?capacity@?$vector@UTInSliceInfo@?A0xf349abed@Imf@@V?$allocator@UTInSliceInfo@?A0xf349abed@Imf@@@std@@@std@@QBEIXZ 100e8480 f i ImfTiledInputFile.obj
 0002:00089500       ?end@?$vector@UTInSliceInfo@?A0xf349abed@Imf@@V?$allocator@UTInSliceInfo@?A0xf349abed@Imf@@@std@@@std@@QAE?AV?$_Vector_iterator@UTInSliceInfo@?A0xf349abed@Imf@@V?$allocator@UTInSliceInfo@?A0xf349abed@Imf@@@std@@@2@XZ 100e8500 f i ImfTiledInputFile.obj
 0002:00089590       ?insert@?$vector@UTInSliceInfo@?A0xf349abed@Imf@@V?$allocator@UTInSliceInfo@?A0xf349abed@Imf@@@std@@@std@@QAE?AV?$_Vector_iterator@UTInSliceInfo@?A0xf349abed@Imf@@V?$allocator@UTInSliceInfo@?A0xf349abed@Imf@@@std@@@2@V32@ABUTInSliceInfo@?A0xf349abed@Imf@@@Z 100e8590 f i ImfTiledInputFile.obj
 0002:00089790       ?clear@?$vector@UTInSliceInfo@?A0xf349abed@Imf@@V?$allocator@UTInSliceInfo@?A0xf349abed@Imf@@@std@@@std@@QAEXXZ 100e8790 f i ImfTiledInputFile.obj
 0002:000898a0       ?_Buy@?$vector@UTInSliceInfo@?A0xf349abed@Imf@@V?$allocator@UTInSliceInfo@?A0xf349abed@Imf@@@std@@@std@@IAE_NI@Z 100e88a0 f i ImfTiledInputFile.obj
 0002:00089980       ?_Destroy@?$vector@UTInSliceInfo@?A0xf349abed@Imf@@V?$allocator@UTInSliceInfo@?A0xf349abed@Imf@@@std@@@std@@IAEXPAUTInSliceInfo@?A0xf349abed@Imf@@0@Z 100e8980 f i ImfTiledInputFile.obj
 0002:000899f0       ?_Tidy@?$vector@UTInSliceInfo@?A0xf349abed@Imf@@V?$allocator@UTInSliceInfo@?A0xf349abed@Imf@@@std@@@std@@IAEXXZ 100e89f0 f i ImfTiledInputFile.obj
 0002:00089ad0       ?_Ufill@?$vector@UTInSliceInfo@?A0xf349abed@Imf@@V?$allocator@UTInSliceInfo@?A0xf349abed@Imf@@@std@@@std@@IAEPAUTInSliceInfo@?A0xf349abed@Imf@@PAU345@IABU345@@Z 100e8ad0 f i ImfTiledInputFile.obj
 0002:00089b50       ?_Orphan_range@?$vector@UTInSliceInfo@?A0xf349abed@Imf@@V?$allocator@UTInSliceInfo@?A0xf349abed@Imf@@@std@@@std@@IBEXPAUTInSliceInfo@?A0xf349abed@Imf@@0@Z 100e8b50 f i ImfTiledInputFile.obj
 0002:00089c60       ??0?$_Vector_val@UTInSliceInfo@?A0xf349abed@Imf@@V?$allocator@UTInSliceInfo@?A0xf349abed@Imf@@@std@@@std@@IAE@V?$allocator@UTInSliceInfo@?A0xf349abed@Imf@@@1@@Z 100e8c60 f i ImfTiledInputFile.obj
 0002:00089ce0       ??0?$allocator@UTInSliceInfo@?A0xf349abed@Imf@@@std@@QAE@XZ 100e8ce0 f i ImfTiledInputFile.obj
 0002:00089d20       ?deallocate@?$allocator@UTInSliceInfo@?A0xf349abed@Imf@@@std@@QAEXPAUTInSliceInfo@?A0xf349abed@Imf@@I@Z 100e8d20 f i ImfTiledInputFile.obj
 0002:00089d80       ?resize@?$vector@PAUTileBuffer@?A0xf349abed@Imf@@V?$allocator@PAUTileBuffer@?A0xf349abed@Imf@@@std@@@std@@QAEXIPAUTileBuffer@?A0xf349abed@Imf@@@Z 100e8d80 f i ImfTiledInputFile.obj
 0002:00089f40       ?_Buy@?$vector@PAUTileBuffer@?A0xf349abed@Imf@@V?$allocator@PAUTileBuffer@?A0xf349abed@Imf@@@std@@@std@@IAE_NI@Z 100e8f40 f i ImfTiledInputFile.obj
 0002:0008a020       ?_Tidy@?$vector@PAUTileBuffer@?A0xf349abed@Imf@@V?$allocator@PAUTileBuffer@?A0xf349abed@Imf@@@std@@@std@@IAEXXZ 100e9020 f i ImfTiledInputFile.obj
 0002:0008a100       ??0?$_Vector_val@PAUTileBuffer@?A0xf349abed@Imf@@V?$allocator@PAUTileBuffer@?A0xf349abed@Imf@@@std@@@std@@IAE@V?$allocator@PAUTileBuffer@?A0xf349abed@Imf@@@1@@Z 100e9100 f i ImfTiledInputFile.obj
 0002:0008a180       ??0?$allocator@PAUTileBuffer@?A0xf349abed@Imf@@@std@@QAE@XZ 100e9180 f i ImfTiledInputFile.obj
 0002:0008a1c0       ??1?$_Vector_iterator@V?$vector@V?$vector@_KV?$allocator@_K@std@@@std@@V?$allocator@V?$vector@_KV?$allocator@_K@std@@@std@@@2@@std@@V?$allocator@V?$vector@V?$vector@_KV?$allocator@_K@std@@@std@@V?$allocator@V?$vector@_KV?$allocator@_K@std@@@std@@@2@@std@@@2@@std@@QAE@XZ 100e91c0 f i ImfTiledInputFile.obj
 0002:0008a210       ??0?$_Vector_iterator@UTInSliceInfo@?A0xf349abed@Imf@@V?$allocator@UTInSliceInfo@?A0xf349abed@Imf@@@std@@@std@@QAE@ABV01@@Z 100e9210 f i ImfTiledInputFile.obj
 0002:0008a270       ??1?$_Vector_iterator@PAUTileBuffer@?A0xf349abed@Imf@@V?$allocator@PAUTileBuffer@?A0xf349abed@Imf@@@std@@@std@@QAE@XZ 100e9270 f i ImfTiledInputFile.obj
 0002:0008a2c0       ??1?$_Vector_const_iterator@V?$vector@V?$vector@_KV?$allocator@_K@std@@@std@@V?$allocator@V?$vector@_KV?$allocator@_K@std@@@std@@@2@@std@@V?$allocator@V?$vector@V?$vector@_KV?$allocator@_K@std@@@std@@V?$allocator@V?$vector@_KV?$allocator@_K@std@@@std@@@2@@std@@@2@@std@@QAE@XZ 100e92c0 f i ImfTiledInputFile.obj
 0002:0008a310       ??0?$_Vector_const_iterator@UTInSliceInfo@?A0xf349abed@Imf@@V?$allocator@UTInSliceInfo@?A0xf349abed@Imf@@@std@@@std@@QAE@ABV01@@Z 100e9310 f i ImfTiledInputFile.obj
 0002:0008a380       ??1?$_Vector_const_iterator@PAUTileBuffer@?A0xf349abed@Imf@@V?$allocator@PAUTileBuffer@?A0xf349abed@Imf@@@std@@@std@@QAE@XZ 100e9380 f i ImfTiledInputFile.obj
 0002:0008a3d0       ??1?$_Ranit@V?$vector@V?$vector@_KV?$allocator@_K@std@@@std@@V?$allocator@V?$vector@_KV?$allocator@_K@std@@@std@@@2@@std@@HPBV12@ABV12@@std@@QAE@XZ 100e93d0 f i ImfTiledInputFile.obj
 0002:0008a420       ??0?$_Ranit@UTInSliceInfo@?A0xf349abed@Imf@@HPBU123@ABU123@@std@@QAE@ABU01@@Z 100e9420 f i ImfTiledInputFile.obj
 0002:0008a480       ??1?$_Ranit@PAUTileBuffer@?A0xf349abed@Imf@@HPBQAU123@ABQAU123@@std@@QAE@XZ 100e9480 f i ImfTiledInputFile.obj
 0002:0008a4d0       ?begin@?$vector@V?$vector@V?$vector@_KV?$allocator@_K@std@@@std@@V?$allocator@V?$vector@_KV?$allocator@_K@std@@@std@@@2@@std@@V?$allocator@V?$vector@V?$vector@_KV?$allocator@_K@std@@@std@@V?$allocator@V?$vector@_KV?$allocator@_K@std@@@std@@@2@@std@@@2@@std@@QAE?AV?$_Vector_iterator@V?$vector@V?$vector@_KV?$allocator@_K@std@@@std@@V?$allocator@V?$vector@_KV?$allocator@_K@std@@@std@@@2@@std@@V?$allocator@V?$vector@V?$vector@_KV?$allocator@_K@std@@@std@@V?$allocator@V?$vector@_KV?$allocator@_K@std@@@std@@@2@@std@@@2@@2@XZ 100e94d0 f i ImfTiledInputFile.obj
 0002:0008a560       ?end@?$vector@V?$vector@V?$vector@_KV?$allocator@_K@std@@@std@@V?$allocator@V?$vector@_KV?$allocator@_K@std@@@std@@@2@@std@@V?$allocator@V?$vector@V?$vector@_KV?$allocator@_K@std@@@std@@V?$allocator@V?$vector@_KV?$allocator@_K@std@@@std@@@2@@std@@@2@@std@@QAE?AV?$_Vector_iterator@V?$vector@V?$vector@_KV?$allocator@_K@std@@@std@@V?$allocator@V?$vector@_KV?$allocator@_K@std@@@std@@@2@@std@@V?$allocator@V?$vector@V?$vector@_KV?$allocator@_K@std@@@std@@V?$allocator@V?$vector@_KV?$allocator@_K@std@@@std@@@2@@std@@@2@@2@XZ 100e9560 f i ImfTiledInputFile.obj
 0002:0008a5f0       ?max_size@?$vector@V?$vector@V?$vector@_KV?$allocator@_K@std@@@std@@V?$allocator@V?$vector@_KV?$allocator@_K@std@@@std@@@2@@std@@V?$allocator@V?$vector@V?$vector@_KV?$allocator@_K@std@@@std@@V?$allocator@V?$vector@_KV?$allocator@_K@std@@@std@@@2@@std@@@2@@std@@QBEIXZ 100e95f0 f i ImfTiledInputFile.obj
 0002:0008a650       ?erase@?$vector@V?$vector@V?$vector@_KV?$allocator@_K@std@@@std@@V?$allocator@V?$vector@_KV?$allocator@_K@std@@@std@@@2@@std@@V?$allocator@V?$vector@V?$vector@_KV?$allocator@_K@std@@@std@@V?$allocator@V?$vector@_KV?$allocator@_K@std@@@std@@@2@@std@@@2@@std@@QAE?AV?$_Vector_iterator@V?$vector@V?$vector@_KV?$allocator@_K@std@@@std@@V?$allocator@V?$vector@_KV?$allocator@_K@std@@@std@@@2@@std@@V?$allocator@V?$vector@V?$vector@_KV?$allocator@_K@std@@@std@@V?$allocator@V?$vector@_KV?$allocator@_K@std@@@std@@@2@@std@@@2@@2@V32@0@Z 100e9650 f i ImfTiledInputFile.obj
 0002:0008a810       ?_Xlen@?$vector@V?$vector@V?$vector@_KV?$allocator@_K@std@@@std@@V?$allocator@V?$vector@_KV?$allocator@_K@std@@@std@@@2@@std@@V?$allocator@V?$vector@V?$vector@_KV?$allocator@_K@std@@@std@@V?$allocator@V?$vector@_KV?$allocator@_K@std@@@std@@@2@@std@@@2@@std@@KAXXZ 100e9810 f i ImfTiledInputFile.obj
 0002:0008a900       ?allocate@?$allocator@V?$vector@V?$vector@_KV?$allocator@_K@std@@@std@@V?$allocator@V?$vector@_KV?$allocator@_K@std@@@std@@@2@@std@@@std@@QAEPAV?$vector@V?$vector@_KV?$allocator@_K@std@@@std@@V?$allocator@V?$vector@_KV?$allocator@_K@std@@@std@@@2@@2@I@Z 100e9900 f i ImfTiledInputFile.obj
 0002:0008a960       ?begin@?$vector@UTInSliceInfo@?A0xf349abed@Imf@@V?$allocator@UTInSliceInfo@?A0xf349abed@Imf@@@std@@@std@@QAE?AV?$_Vector_iterator@UTInSliceInfo@?A0xf349abed@Imf@@V?$allocator@UTInSliceInfo@?A0xf349abed@Imf@@@std@@@2@XZ 100e9960 f i ImfTiledInputFile.obj
 0002:0008a9f0       ?max_size@?$vector@UTInSliceInfo@?A0xf349abed@Imf@@V?$allocator@UTInSliceInfo@?A0xf349abed@Imf@@@std@@@std@@QBEIXZ 100e99f0 f i ImfTiledInputFile.obj
 0002:0008aa50       ?erase@?$vector@UTInSliceInfo@?A0xf349abed@Imf@@V?$allocator@UTInSliceInfo@?A0xf349abed@Imf@@@std@@@std@@QAE?AV?$_Vector_iterator@UTInSliceInfo@?A0xf349abed@Imf@@V?$allocator@UTInSliceInfo@?A0xf349abed@Imf@@@std@@@2@V32@0@Z 100e9a50 f i ImfTiledInputFile.obj
 0002:0008ac10       ?_Insert_n@?$vector@UTInSliceInfo@?A0xf349abed@Imf@@V?$allocator@UTInSliceInfo@?A0xf349abed@Imf@@@std@@@std@@IAEXV?$_Vector_iterator@UTInSliceInfo@?A0xf349abed@Imf@@V?$allocator@UTInSliceInfo@?A0xf349abed@Imf@@@std@@@2@IABUTInSliceInfo@?A0xf349abed@Imf@@@Z 100e9c10 f i ImfTiledInputFile.obj
 0002:0008b160       ?_Xlen@?$vector@UTInSliceInfo@?A0xf349abed@Imf@@V?$allocator@UTInSliceInfo@?A0xf349abed@Imf@@@std@@@std@@KAXXZ 100ea160 f i ImfTiledInputFile.obj
 0002:0008b250       ??0?$allocator@UTInSliceInfo@?A0xf349abed@Imf@@@std@@QAE@ABV01@@Z 100ea250 f i ImfTiledInputFile.obj
 0002:0008b290       ?allocate@?$allocator@UTInSliceInfo@?A0xf349abed@Imf@@@std@@QAEPAUTInSliceInfo@?A0xf349abed@Imf@@I@Z 100ea290 f i ImfTiledInputFile.obj
 0002:0008b2f0       ?begin@?$vector@PAUTileBuffer@?A0xf349abed@Imf@@V?$allocator@PAUTileBuffer@?A0xf349abed@Imf@@@std@@@std@@QAE?AV?$_Vector_iterator@PAUTileBuffer@?A0xf349abed@Imf@@V?$allocator@PAUTileBuffer@?A0xf349abed@Imf@@@std@@@2@XZ 100ea2f0 f i ImfTiledInputFile.obj
 0002:0008b380       ?end@?$vector@PAUTileBuffer@?A0xf349abed@Imf@@V?$allocator@PAUTileBuffer@?A0xf349abed@Imf@@@std@@@std@@QAE?AV?$_Vector_iterator@PAUTileBuffer@?A0xf349abed@Imf@@V?$allocator@PAUTileBuffer@?A0xf349abed@Imf@@@std@@@2@XZ 100ea380 f i ImfTiledInputFile.obj
 0002:0008b410       ?max_size@?$vector@PAUTileBuffer@?A0xf349abed@Imf@@V?$allocator@PAUTileBuffer@?A0xf349abed@Imf@@@std@@@std@@QBEIXZ 100ea410 f i ImfTiledInputFile.obj
 0002:0008b470       ?erase@?$vector@PAUTileBuffer@?A0xf349abed@Imf@@V?$allocator@PAUTileBuffer@?A0xf349abed@Imf@@@std@@@std@@QAE?AV?$_Vector_iterator@PAUTileBuffer@?A0xf349abed@Imf@@V?$allocator@PAUTileBuffer@?A0xf349abed@Imf@@@std@@@2@V32@0@Z 100ea470 f i ImfTiledInputFile.obj
 0002:0008b630       ?_Destroy@?$vector@PAUTileBuffer@?A0xf349abed@Imf@@V?$allocator@PAUTileBuffer@?A0xf349abed@Imf@@@std@@@std@@IAEXPAPAUTileBuffer@?A0xf349abed@Imf@@0@Z 100ea630 f i ImfTiledInputFile.obj
 0002:0008b6a0       ?_Insert_n@?$vector@PAUTileBuffer@?A0xf349abed@Imf@@V?$allocator@PAUTileBuffer@?A0xf349abed@Imf@@@std@@@std@@IAEXV?$_Vector_iterator@PAUTileBuffer@?A0xf349abed@Imf@@V?$allocator@PAUTileBuffer@?A0xf349abed@Imf@@@std@@@2@IABQAUTileBuffer@?A0xf349abed@Imf@@@Z 100ea6a0 f i ImfTiledInputFile.obj
 0002:0008bbd0       ?_Xlen@?$vector@PAUTileBuffer@?A0xf349abed@Imf@@V?$allocator@PAUTileBuffer@?A0xf349abed@Imf@@@std@@@std@@KAXXZ 100eabd0 f i ImfTiledInputFile.obj
 0002:0008bcc0       ??0?$allocator@PAUTileBuffer@?A0xf349abed@Imf@@@std@@QAE@ABV01@@Z 100eacc0 f i ImfTiledInputFile.obj
 0002:0008bd00       ?deallocate@?$allocator@PAUTileBuffer@?A0xf349abed@Imf@@@std@@QAEXPAPAUTileBuffer@?A0xf349abed@Imf@@I@Z 100ead00 f i ImfTiledInputFile.obj
 0002:0008bd60       ?allocate@?$allocator@PAUTileBuffer@?A0xf349abed@Imf@@@std@@QAEPAPAUTileBuffer@?A0xf349abed@Imf@@I@Z 100ead60 f i ImfTiledInputFile.obj
 0002:0008bdc0       ??0?$_Vector_iterator@UTInSliceInfo@?A0xf349abed@Imf@@V?$allocator@UTInSliceInfo@?A0xf349abed@Imf@@@std@@@std@@QAE@PAUTInSliceInfo@?A0xf349abed@Imf@@PBV_Container_base@1@@Z 100eadc0 f i ImfTiledInputFile.obj
 0002:0008be20       ??H?$_Vector_iterator@UTInSliceInfo@?A0xf349abed@Imf@@V?$allocator@UTInSliceInfo@?A0xf349abed@Imf@@@std@@@std@@QBE?AV01@H@Z 100eae20 f i ImfTiledInputFile.obj
 0002:0008bf40       ??G?$_Vector_iterator@UTInSliceInfo@?A0xf349abed@Imf@@V?$allocator@UTInSliceInfo@?A0xf349abed@Imf@@@std@@@std@@QBEHABV?$_Vector_const_iterator@UTInSliceInfo@?A0xf349abed@Imf@@V?$allocator@UTInSliceInfo@?A0xf349abed@Imf@@@std@@@1@@Z 100eaf40 f i ImfTiledInputFile.obj
 0002:0008bfa0       ??H?$_Vector_iterator@PAUTileBuffer@?A0xf349abed@Imf@@V?$allocator@PAUTileBuffer@?A0xf349abed@Imf@@@std@@@std@@QBE?AV01@H@Z 100eafa0 f i ImfTiledInputFile.obj
 0002:0008c0c0       ??0?$_Vector_iterator@PAUTileBuffer@?A0xf349abed@Imf@@V?$allocator@PAUTileBuffer@?A0xf349abed@Imf@@@std@@@std@@QAE@ABV01@@Z 100eb0c0 f i ImfTiledInputFile.obj
 0002:0008c120       ??0?$_Vector_const_iterator@PAUTileBuffer@?A0xf349abed@Imf@@V?$allocator@PAUTileBuffer@?A0xf349abed@Imf@@@std@@@std@@QAE@ABV01@@Z 100eb120 f i ImfTiledInputFile.obj
 0002:0008c190       ??0?$_Ranit@PAUTileBuffer@?A0xf349abed@Imf@@HPBQAU123@ABQAU123@@std@@QAE@ABU01@@Z 100eb190 f i ImfTiledInputFile.obj
 0002:0008c1f0       ?_Orphan_range@?$vector@V?$vector@V?$vector@_KV?$allocator@_K@std@@@std@@V?$allocator@V?$vector@_KV?$allocator@_K@std@@@std@@@2@@std@@V?$allocator@V?$vector@V?$vector@_KV?$allocator@_K@std@@@std@@V?$allocator@V?$vector@_KV?$allocator@_K@std@@@std@@@2@@std@@@2@@std@@IBEXPAV?$vector@V?$vector@_KV?$allocator@_K@std@@@std@@V?$allocator@V?$vector@_KV?$allocator@_K@std@@@std@@@2@@2@0@Z 100eb1f0 f i ImfTiledInputFile.obj
 0002:0008c300       ?max_size@?$allocator@V?$vector@V?$vector@_KV?$allocator@_K@std@@@std@@V?$allocator@V?$vector@_KV?$allocator@_K@std@@@std@@@2@@std@@@std@@QBEIXZ 100eb300 f i ImfTiledInputFile.obj
 0002:0008c370       ?max_size@?$allocator@UTInSliceInfo@?A0xf349abed@Imf@@@std@@QBEIXZ 100eb370 f i ImfTiledInputFile.obj
 0002:0008c3e0       ?capacity@?$vector@PAUTileBuffer@?A0xf349abed@Imf@@V?$allocator@PAUTileBuffer@?A0xf349abed@Imf@@@std@@@std@@QBEIXZ 100eb3e0 f i ImfTiledInputFile.obj
 0002:0008c450       ?_Ufill@?$vector@PAUTileBuffer@?A0xf349abed@Imf@@V?$allocator@PAUTileBuffer@?A0xf349abed@Imf@@@std@@@std@@IAEPAPAUTileBuffer@?A0xf349abed@Imf@@PAPAU345@IABQAU345@@Z 100eb450 f i ImfTiledInputFile.obj
 0002:0008c4d0       ?_Orphan_range@?$vector@PAUTileBuffer@?A0xf349abed@Imf@@V?$allocator@PAUTileBuffer@?A0xf349abed@Imf@@@std@@@std@@IBEXPAPAUTileBuffer@?A0xf349abed@Imf@@0@Z 100eb4d0 f i ImfTiledInputFile.obj
 0002:0008c5e0       ?max_size@?$allocator@PAUTileBuffer@?A0xf349abed@Imf@@@std@@QBEIXZ 100eb5e0 f i ImfTiledInputFile.obj
 0002:0008c650       ??Y?$_Vector_iterator@UTInSliceInfo@?A0xf349abed@Imf@@V?$allocator@UTInSliceInfo@?A0xf349abed@Imf@@@std@@@std@@QAEAAV01@H@Z 100eb650 f i ImfTiledInputFile.obj
 0002:0008c6b0       ??0?$_Vector_const_iterator@UTInSliceInfo@?A0xf349abed@Imf@@V?$allocator@UTInSliceInfo@?A0xf349abed@Imf@@@std@@@std@@QAE@PAUTInSliceInfo@?A0xf349abed@Imf@@PBV_Container_base@1@@Z 100eb6b0 f i ImfTiledInputFile.obj
 0002:0008c7f0       ??G?$_Vector_const_iterator@UTInSliceInfo@?A0xf349abed@Imf@@V?$allocator@UTInSliceInfo@?A0xf349abed@Imf@@@std@@@std@@QBEHABV01@@Z 100eb7f0 f i ImfTiledInputFile.obj
 0002:0008c860       ??9?$_Vector_const_iterator@UTInSliceInfo@?A0xf349abed@Imf@@V?$allocator@UTInSliceInfo@?A0xf349abed@Imf@@@std@@@std@@QBE_NABV01@@Z 100eb860 f i ImfTiledInputFile.obj
 0002:0008c8d0       ??M?$_Vector_const_iterator@UTInSliceInfo@?A0xf349abed@Imf@@V?$allocator@UTInSliceInfo@?A0xf349abed@Imf@@@std@@@std@@QBE_NABV01@@Z 100eb8d0 f i ImfTiledInputFile.obj
 0002:0008c940       ??0?$_Vector_iterator@V?$vector@V?$vector@_KV?$allocator@_K@std@@@std@@V?$allocator@V?$vector@_KV?$allocator@_K@std@@@std@@@2@@std@@V?$allocator@V?$vector@V?$vector@_KV?$allocator@_K@std@@@std@@V?$allocator@V?$vector@_KV?$allocator@_K@std@@@std@@@2@@std@@@2@@std@@QAE@PAV?$vector@V?$vector@_KV?$allocator@_K@std@@@std@@V?$allocator@V?$vector@_KV?$allocator@_K@std@@@std@@@2@@1@PBV_Container_base@1@@Z 100eb940 f i ImfTiledInputFile.obj
 0002:0008c9a0       ??9?$_Vector_const_iterator@V?$vector@V?$vector@_KV?$allocator@_K@std@@@std@@V?$allocator@V?$vector@_KV?$allocator@_K@std@@@std@@@2@@std@@V?$allocator@V?$vector@V?$vector@_KV?$allocator@_K@std@@@std@@V?$allocator@V?$vector@_KV?$allocator@_K@std@@@std@@@2@@std@@@2@@std@@QBE_NABV01@@Z 100eb9a0 f i ImfTiledInputFile.obj
 0002:0008ca10       ??M?$_Vector_const_iterator@V?$vector@V?$vector@_KV?$allocator@_K@std@@@std@@V?$allocator@V?$vector@_KV?$allocator@_K@std@@@std@@@2@@std@@V?$allocator@V?$vector@V?$vector@_KV?$allocator@_K@std@@@std@@V?$allocator@V?$vector@_KV?$allocator@_K@std@@@std@@@2@@std@@@2@@std@@QBE_NABV01@@Z 100eba10 f i ImfTiledInputFile.obj
 0002:0008ca80       ??0?$_Vector_iterator@PAUTileBuffer@?A0xf349abed@Imf@@V?$allocator@PAUTileBuffer@?A0xf349abed@Imf@@@std@@@std@@QAE@PAPAUTileBuffer@?A0xf349abed@Imf@@PBV_Container_base@1@@Z 100eba80 f i ImfTiledInputFile.obj
 0002:0008cae0       ??Y?$_Vector_iterator@PAUTileBuffer@?A0xf349abed@Imf@@V?$allocator@PAUTileBuffer@?A0xf349abed@Imf@@@std@@@std@@QAEAAV01@H@Z 100ebae0 f i ImfTiledInputFile.obj
 0002:0008cb40       ??9?$_Vector_const_iterator@PAUTileBuffer@?A0xf349abed@Imf@@V?$allocator@PAUTileBuffer@?A0xf349abed@Imf@@@std@@@std@@QBE_NABV01@@Z 100ebb40 f i ImfTiledInputFile.obj
 0002:0008cbb0       ??M?$_Vector_const_iterator@PAUTileBuffer@?A0xf349abed@Imf@@V?$allocator@PAUTileBuffer@?A0xf349abed@Imf@@@std@@@std@@QBE_NABV01@@Z 100ebbb0 f i ImfTiledInputFile.obj
 0002:0008cc20       ??0?$_Ranit@UTInSliceInfo@?A0xf349abed@Imf@@HPBU123@ABU123@@std@@QAE@XZ 100ebc20 f i ImfTiledInputFile.obj
 0002:0008cc80       ??Y?$_Vector_const_iterator@UTInSliceInfo@?A0xf349abed@Imf@@V?$allocator@UTInSliceInfo@?A0xf349abed@Imf@@@std@@@std@@QAEAAV01@H@Z 100ebc80 f i ImfTiledInputFile.obj
 0002:0008ce00       ??8?$_Vector_const_iterator@UTInSliceInfo@?A0xf349abed@Imf@@V?$allocator@UTInSliceInfo@?A0xf349abed@Imf@@@std@@@std@@QBE_NABV01@@Z 100ebe00 f i ImfTiledInputFile.obj
 0002:0008ce70       ?_Compat@?$_Vector_const_iterator@UTInSliceInfo@?A0xf349abed@Imf@@V?$allocator@UTInSliceInfo@?A0xf349abed@Imf@@@std@@@std@@QBEXABV12@@Z 100ebe70 f i ImfTiledInputFile.obj
 0002:0008cf70       ??0?$_Vector_const_iterator@V?$vector@V?$vector@_KV?$allocator@_K@std@@@std@@V?$allocator@V?$vector@_KV?$allocator@_K@std@@@std@@@2@@std@@V?$allocator@V?$vector@V?$vector@_KV?$allocator@_K@std@@@std@@V?$allocator@V?$vector@_KV?$allocator@_K@std@@@std@@@2@@std@@@2@@std@@QAE@PAV?$vector@V?$vector@_KV?$allocator@_K@std@@@std@@V?$allocator@V?$vector@_KV?$allocator@_K@std@@@std@@@2@@1@PBV_Container_base@1@@Z 100ebf70 f i ImfTiledInputFile.obj
 0002:0008d0b0       ??8?$_Vector_const_iterator@V?$vector@V?$vector@_KV?$allocator@_K@std@@@std@@V?$allocator@V?$vector@_KV?$allocator@_K@std@@@std@@@2@@std@@V?$allocator@V?$vector@V?$vector@_KV?$allocator@_K@std@@@std@@V?$allocator@V?$vector@_KV?$allocator@_K@std@@@std@@@2@@std@@@2@@std@@QBE_NABV01@@Z 100ec0b0 f i ImfTiledInputFile.obj
 0002:0008d120       ?_Compat@?$_Vector_const_iterator@V?$vector@V?$vector@_KV?$allocator@_K@std@@@std@@V?$allocator@V?$vector@_KV?$allocator@_K@std@@@std@@@2@@std@@V?$allocator@V?$vector@V?$vector@_KV?$allocator@_K@std@@@std@@V?$allocator@V?$vector@_KV?$allocator@_K@std@@@std@@@2@@std@@@2@@std@@QBEXABV12@@Z 100ec120 f i ImfTiledInputFile.obj
 0002:0008d220       ??0?$_Vector_const_iterator@PAUTileBuffer@?A0xf349abed@Imf@@V?$allocator@PAUTileBuffer@?A0xf349abed@Imf@@@std@@@std@@QAE@PAPAUTileBuffer@?A0xf349abed@Imf@@PBV_Container_base@1@@Z 100ec220 f i ImfTiledInputFile.obj
 0002:0008d360       ??Y?$_Vector_const_iterator@PAUTileBuffer@?A0xf349abed@Imf@@V?$allocator@PAUTileBuffer@?A0xf349abed@Imf@@@std@@@std@@QAEAAV01@H@Z 100ec360 f i ImfTiledInputFile.obj
 0002:0008d4e0       ??8?$_Vector_const_iterator@PAUTileBuffer@?A0xf349abed@Imf@@V?$allocator@PAUTileBuffer@?A0xf349abed@Imf@@@std@@@std@@QBE_NABV01@@Z 100ec4e0 f i ImfTiledInputFile.obj
 0002:0008d550       ?_Compat@?$_Vector_const_iterator@PAUTileBuffer@?A0xf349abed@Imf@@V?$allocator@PAUTileBuffer@?A0xf349abed@Imf@@@std@@@std@@QBEXABV12@@Z 100ec550 f i ImfTiledInputFile.obj
 0002:0008d650       ??0?$_Ranit@V?$vector@V?$vector@_KV?$allocator@_K@std@@@std@@V?$allocator@V?$vector@_KV?$allocator@_K@std@@@std@@@2@@std@@HPBV12@ABV12@@std@@QAE@XZ 100ec650 f i ImfTiledInputFile.obj
 0002:0008d6b0       ??0?$_Ranit@PAUTileBuffer@?A0xf349abed@Imf@@HPBQAU123@ABQAU123@@std@@QAE@XZ 100ec6b0 f i ImfTiledInputFile.obj
 0002:0008d710       ??$swap@H@std@@YAXAAH0@Z   100ec710 f i ImfTiledInputFile.obj
 0002:0008d760       ??$unchecked_copy@PAV?$vector@V?$vector@_KV?$allocator@_K@std@@@std@@V?$allocator@V?$vector@_KV?$allocator@_K@std@@@std@@@2@@std@@PAV12@@stdext@@YAPAV?$vector@V?$vector@_KV?$allocator@_K@std@@@std@@V?$allocator@V?$vector@_KV?$allocator@_K@std@@@std@@@2@@std@@PAV12@00@Z 100ec760 f i ImfTiledInputFile.obj
 0002:0008d830       ??$_Ucopy@PAV?$vector@V?$vector@_KV?$allocator@_K@std@@@std@@V?$allocator@V?$vector@_KV?$allocator@_K@std@@@std@@@2@@std@@@?$vector@V?$vector@V?$vector@_KV?$allocator@_K@std@@@std@@V?$allocator@V?$vector@_KV?$allocator@_K@std@@@std@@@2@@std@@V?$allocator@V?$vector@V?$vector@_KV?$allocator@_K@std@@@std@@V?$allocator@V?$vector@_KV?$allocator@_K@std@@@std@@@2@@std@@@2@@std@@IAEPAV?$vector@V?$vector@_KV?$allocator@_K@std@@@std@@V?$allocator@V?$vector@_KV?$allocator@_K@std@@@std@@@2@@1@PAV21@00@Z 100ec830 f i ImfTiledInputFile.obj
 0002:0008d8a0       ??$unchecked_copy@PAUTInSliceInfo@?A0xf349abed@Imf@@PAU123@@stdext@@YAPAUTInSliceInfo@?A0xf349abed@Imf@@PAU123@00@Z 100ec8a0 f i ImfTiledInputFile.obj
 0002:0008d970       ??$_Ucopy@PAUTInSliceInfo@?A0xf349abed@Imf@@@?$vector@UTInSliceInfo@?A0xf349abed@Imf@@V?$allocator@UTInSliceInfo@?A0xf349abed@Imf@@@std@@@std@@IAEPAUTInSliceInfo@?A0xf349abed@Imf@@PAU234@00@Z 100ec970 f i ImfTiledInputFile.obj
 0002:0008d9e0       ??$_Destroy_range@V?$vector@V?$vector@_KV?$allocator@_K@std@@@std@@V?$allocator@V?$vector@_KV?$allocator@_K@std@@@std@@@2@@std@@V?$allocator@V?$vector@V?$vector@_KV?$allocator@_K@std@@@std@@V?$allocator@V?$vector@_KV?$allocator@_K@std@@@std@@@2@@std@@@2@@std@@YAXPAV?$vector@V?$vector@_KV?$allocator@_K@std@@@std@@V?$allocator@V?$vector@_KV?$allocator@_K@std@@@std@@@2@@0@0AAV?$allocator@V?$vector@V?$vector@_KV?$allocator@_K@std@@@std@@V?$allocator@V?$vector@_KV?$allocator@_K@std@@@std@@@2@@std@@@0@@Z 100ec9e0 f i ImfTiledInputFile.obj
 0002:0008da60       ??$_Destroy_range@UTInSliceInfo@?A0xf349abed@Imf@@V?$allocator@UTInSliceInfo@?A0xf349abed@Imf@@@std@@@std@@YAXPAUTInSliceInfo@?A0xf349abed@Imf@@0AAV?$allocator@UTInSliceInfo@?A0xf349abed@Imf@@@0@@Z 100eca60 f i ImfTiledInputFile.obj
 0002:0008dae0       ??$unchecked_uninitialized_fill_n@PAUTInSliceInfo@?A0xf349abed@Imf@@IU123@V?$allocator@UTInSliceInfo@?A0xf349abed@Imf@@@std@@@stdext@@YAXPAUTInSliceInfo@?A0xf349abed@Imf@@IABU123@AAV?$allocator@UTInSliceInfo@?A0xf349abed@Imf@@@std@@@Z 100ecae0 f i ImfTiledInputFile.obj
 0002:0008db80       ??$_Allocate@V?$vector@V?$vector@_KV?$allocator@_K@std@@@std@@V?$allocator@V?$vector@_KV?$allocator@_K@std@@@std@@@2@@std@@@std@@YAPAV?$vector@V?$vector@_KV?$allocator@_K@std@@@std@@V?$allocator@V?$vector@_KV?$allocator@_K@std@@@std@@@2@@0@IPAV10@@Z 100ecb80 f i ImfTiledInputFile.obj
 0002:0008dc20       ??$_Umove@PAUTInSliceInfo@?A0xf349abed@Imf@@@?$vector@UTInSliceInfo@?A0xf349abed@Imf@@V?$allocator@UTInSliceInfo@?A0xf349abed@Imf@@@std@@@std@@IAEPAUTInSliceInfo@?A0xf349abed@Imf@@PAU234@00@Z 100ecc20 f i ImfTiledInputFile.obj
 0002:0008dc90       ??$fill@PAUTInSliceInfo@?A0xf349abed@Imf@@U123@@std@@YAXPAUTInSliceInfo@?A0xf349abed@Imf@@0ABU123@@Z 100ecc90 f i ImfTiledInputFile.obj
 0002:0008dd00       ??$_Unchecked_move_backward@PAUTInSliceInfo@?A0xf349abed@Imf@@PAU123@@stdext@@YAPAUTInSliceInfo@?A0xf349abed@Imf@@PAU123@00@Z 100ecd00 f i ImfTiledInputFile.obj
 0002:0008ddc0       ??$_Allocate@UTInSliceInfo@?A0xf349abed@Imf@@@std@@YAPAUTInSliceInfo@?A0xf349abed@Imf@@IPAU123@@Z 100ecdc0 f i ImfTiledInputFile.obj
 0002:0008de60       ??$unchecked_copy@PAPAUTileBuffer@?A0xf349abed@Imf@@PAPAU123@@stdext@@YAPAPAUTileBuffer@?A0xf349abed@Imf@@PAPAU123@00@Z 100ece60 f i ImfTiledInputFile.obj
 0002:0008df30       ??$_Destroy_range@PAUTileBuffer@?A0xf349abed@Imf@@V?$allocator@PAUTileBuffer@?A0xf349abed@Imf@@@std@@@std@@YAXPAPAUTileBuffer@?A0xf349abed@Imf@@0AAV?$allocator@PAUTileBuffer@?A0xf349abed@Imf@@@0@@Z 100ecf30 f i ImfTiledInputFile.obj
 0002:0008dfb0       ??$_Umove@PAPAUTileBuffer@?A0xf349abed@Imf@@@?$vector@PAUTileBuffer@?A0xf349abed@Imf@@V?$allocator@PAUTileBuffer@?A0xf349abed@Imf@@@std@@@std@@IAEPAPAUTileBuffer@?A0xf349abed@Imf@@PAPAU234@00@Z 100ecfb0 f i ImfTiledInputFile.obj
 0002:0008e020       ??$fill@PAPAUTileBuffer@?A0xf349abed@Imf@@PAU123@@std@@YAXPAPAUTileBuffer@?A0xf349abed@Imf@@0ABQAU123@@Z 100ed020 f i ImfTiledInputFile.obj
 0002:0008e090       ??$_Unchecked_move_backward@PAPAUTileBuffer@?A0xf349abed@Imf@@PAPAU123@@stdext@@YAPAPAUTileBuffer@?A0xf349abed@Imf@@PAPAU123@00@Z 100ed090 f i ImfTiledInputFile.obj
 0002:0008e150       ??$_Allocate@PAUTileBuffer@?A0xf349abed@Imf@@@std@@YAPAPAUTileBuffer@?A0xf349abed@Imf@@IPAPAU123@@Z 100ed150 f i ImfTiledInputFile.obj
 0002:0008e1f0       ??$unchecked_uninitialized_fill_n@PAPAUTileBuffer@?A0xf349abed@Imf@@IPAU123@V?$allocator@PAUTileBuffer@?A0xf349abed@Imf@@@std@@@stdext@@YAXPAPAUTileBuffer@?A0xf349abed@Imf@@IABQAU123@AAV?$allocator@PAUTileBuffer@?A0xf349abed@Imf@@@std@@@Z 100ed1f0 f i ImfTiledInputFile.obj
 0002:0008e290       ??$_Checked_base@PAV?$vector@V?$vector@_KV?$allocator@_K@std@@@std@@V?$allocator@V?$vector@_KV?$allocator@_K@std@@@std@@@2@@std@@@std@@YAPAV?$vector@V?$vector@_KV?$allocator@_K@std@@@std@@V?$allocator@V?$vector@_KV?$allocator@_K@std@@@std@@@2@@0@AAPAV10@@Z 100ed290 f i ImfTiledInputFile.obj
 0002:0008e320       ??$_Iter_random@PAV?$vector@V?$vector@_KV?$allocator@_K@std@@@std@@V?$allocator@V?$vector@_KV?$allocator@_K@std@@@std@@@2@@std@@PAV12@@std@@YA?AUrandom_access_iterator_tag@0@ABQAV?$vector@V?$vector@_KV?$allocator@_K@std@@@std@@V?$allocator@V?$vector@_KV?$allocator@_K@std@@@std@@@2@@0@0@Z 100ed320 f i ImfTiledInputFile.obj
 0002:0008e390       ??$_Ptr_cat@PAV?$vector@V?$vector@_KV?$allocator@_K@std@@@std@@V?$allocator@V?$vector@_KV?$allocator@_K@std@@@std@@@2@@std@@PAV12@@std@@YA?AU_Nonscalar_ptr_iterator_tag@0@AAPAV?$vector@V?$vector@_KV?$allocator@_K@std@@@std@@V?$allocator@V?$vector@_KV?$allocator@_K@std@@@std@@@2@@0@0@Z 100ed390 f i ImfTiledInputFile.obj
 0002:0008e400       ??$_Copy_opt@PAV?$vector@V?$vector@_KV?$allocator@_K@std@@@std@@V?$allocator@V?$vector@_KV?$allocator@_K@std@@@std@@@2@@std@@PAV12@@std@@YAPAV?$vector@V?$vector@_KV?$allocator@_K@std@@@std@@V?$allocator@V?$vector@_KV?$allocator@_K@std@@@std@@@2@@0@PAV10@00Urandom_access_iterator_tag@0@U_Nonscalar_ptr_iterator_tag@0@U_Range_checked_iterator_tag@0@@Z 100ed400 f i ImfTiledInputFile.obj
 0002:0008e4c0       ??$unchecked_uninitialized_copy@PAV?$vector@V?$vector@_KV?$allocator@_K@std@@@std@@V?$allocator@V?$vector@_KV?$allocator@_K@std@@@std@@@2@@std@@PAV12@V?$allocator@V?$vector@V?$vector@_KV?$allocator@_K@std@@@std@@V?$allocator@V?$vector@_KV?$allocator@_K@std@@@std@@@2@@std@@@2@@stdext@@YAPAV?$vector@V?$vector@_KV?$allocator@_K@std@@@std@@V?$allocator@V?$vector@_KV?$allocator@_K@std@@@std@@@2@@std@@PAV12@00AAV?$allocator@V?$vector@V?$vector@_KV?$allocator@_K@std@@@std@@V?$allocator@V?$vector@_KV?$allocator@_K@std@@@std@@@2@@std@@@2@@Z 100ed4c0 f i ImfTiledInputFile.obj
 0002:0008e570       ??$_Checked_base@PAUTInSliceInfo@?A0xf349abed@Imf@@@std@@YAPAUTInSliceInfo@?A0xf349abed@Imf@@AAPAU123@@Z 100ed570 f i ImfTiledInputFile.obj
 0002:0008e600       ??$_Iter_random@PAUTInSliceInfo@?A0xf349abed@Imf@@PAU123@@std@@YA?AUrandom_access_iterator_tag@0@ABQAUTInSliceInfo@?A0xf349abed@Imf@@0@Z 100ed600 f i ImfTiledInputFile.obj
 0002:0008e670       ??$_Ptr_cat@PAUTInSliceInfo@?A0xf349abed@Imf@@PAU123@@std@@YA?AU_Nonscalar_ptr_iterator_tag@0@AAPAUTInSliceInfo@?A0xf349abed@Imf@@0@Z 100ed670 f i ImfTiledInputFile.obj
 0002:0008e6e0       ??$_Copy_opt@PAUTInSliceInfo@?A0xf349abed@Imf@@PAU123@@std@@YAPAUTInSliceInfo@?A0xf349abed@Imf@@PAU123@00Urandom_access_iterator_tag@0@U_Nonscalar_ptr_iterator_tag@0@U_Range_checked_iterator_tag@0@@Z 100ed6e0 f i ImfTiledInputFile.obj
 0002:0008e7a0       ??$unchecked_uninitialized_copy@PAUTInSliceInfo@?A0xf349abed@Imf@@PAU123@V?$allocator@UTInSliceInfo@?A0xf349abed@Imf@@@std@@@stdext@@YAPAUTInSliceInfo@?A0xf349abed@Imf@@PAU123@00AAV?$allocator@UTInSliceInfo@?A0xf349abed@Imf@@@std@@@Z 100ed7a0 f i ImfTiledInputFile.obj
 0002:0008e850       ??$_Destroy_range@V?$vector@V?$vector@_KV?$allocator@_K@std@@@std@@V?$allocator@V?$vector@_KV?$allocator@_K@std@@@std@@@2@@std@@V?$allocator@V?$vector@V?$vector@_KV?$allocator@_K@std@@@std@@V?$allocator@V?$vector@_KV?$allocator@_K@std@@@std@@@2@@std@@@2@@std@@YAXPAV?$vector@V?$vector@_KV?$allocator@_K@std@@@std@@V?$allocator@V?$vector@_KV?$allocator@_K@std@@@std@@@2@@0@0AAV?$allocator@V?$vector@V?$vector@_KV?$allocator@_K@std@@@std@@V?$allocator@V?$vector@_KV?$allocator@_K@std@@@std@@@2@@std@@@0@U_Nonscalar_ptr_iterator_tag@0@@Z 100ed850 f i ImfTiledInputFile.obj
 0002:0008e8c0       ??$_Destroy_range@UTInSliceInfo@?A0xf349abed@Imf@@V?$allocator@UTInSliceInfo@?A0xf349abed@Imf@@@std@@@std@@YAXPAUTInSliceInfo@?A0xf349abed@Imf@@0AAV?$allocator@UTInSliceInfo@?A0xf349abed@Imf@@@0@U_Nonscalar_ptr_iterator_tag@0@@Z 100ed8c0 f i ImfTiledInputFile.obj
 0002:0008e930       ??$_Uninit_fill_n@PAUTInSliceInfo@?A0xf349abed@Imf@@IU123@V?$allocator@UTInSliceInfo@?A0xf349abed@Imf@@@std@@@std@@YAXPAUTInSliceInfo@?A0xf349abed@Imf@@IABU123@AAV?$allocator@UTInSliceInfo@?A0xf349abed@Imf@@@0@U_Nonscalar_ptr_iterator_tag@0@U_Range_checked_iterator_tag@0@@Z 100ed930 f i ImfTiledInputFile.obj
 0002:0008ea40       ??$_Unchecked_uninitialized_move@PAUTInSliceInfo@?A0xf349abed@Imf@@PAU123@V?$allocator@UTInSliceInfo@?A0xf349abed@Imf@@@std@@@stdext@@YAPAUTInSliceInfo@?A0xf349abed@Imf@@PAU123@00AAV?$allocator@UTInSliceInfo@?A0xf349abed@Imf@@@std@@@Z 100eda40 f i ImfTiledInputFile.obj
 0002:0008eaf0       ??$_Fill@PAUTInSliceInfo@?A0xf349abed@Imf@@U123@@std@@YAXPAUTInSliceInfo@?A0xf349abed@Imf@@0ABU123@@Z 100edaf0 f i ImfTiledInputFile.obj
 0002:0008eb80       ??$_Move_cat@PAUTInSliceInfo@?A0xf349abed@Imf@@@std@@YA?AU_Undefined_move_tag@0@ABQAUTInSliceInfo@?A0xf349abed@Imf@@@Z 100edb80 f i ImfTiledInputFile.obj
 0002:0008ebf0       ??$_Move_backward_opt@PAUTInSliceInfo@?A0xf349abed@Imf@@PAU123@Urandom_access_iterator_tag@std@@U_Undefined_move_tag@5@@std@@YAPAUTInSliceInfo@?A0xf349abed@Imf@@PAU123@00Urandom_access_iterator_tag@0@U_Undefined_move_tag@0@U_Range_checked_iterator_tag@0@@Z 100edbf0 f i ImfTiledInputFile.obj
 0002:0008ec90       ??$_Checked_base@PAPAUTileBuffer@?A0xf349abed@Imf@@@std@@YAPAPAUTileBuffer@?A0xf349abed@Imf@@AAPAPAU123@@Z 100edc90 f i ImfTiledInputFile.obj
 0002:0008ed20       ??$_Iter_random@PAPAUTileBuffer@?A0xf349abed@Imf@@PAPAU123@@std@@YA?AUrandom_access_iterator_tag@0@ABQAPAUTileBuffer@?A0xf349abed@Imf@@0@Z 100edd20 f i ImfTiledInputFile.obj
 0002:0008ed90       ??$_Ptr_cat@PAPAUTileBuffer@?A0xf349abed@Imf@@PAPAU123@@std@@YA?AU_Scalar_ptr_iterator_tag@0@AAPAPAUTileBuffer@?A0xf349abed@Imf@@0@Z 100edd90 f i ImfTiledInputFile.obj
 0002:0008ee00       ??$_Copy_opt@PAPAUTileBuffer@?A0xf349abed@Imf@@PAPAU123@Urandom_access_iterator_tag@std@@@std@@YAPAPAUTileBuffer@?A0xf349abed@Imf@@PAPAU123@00Urandom_access_iterator_tag@0@U_Scalar_ptr_iterator_tag@0@U_Range_checked_iterator_tag@0@@Z 100ede00 f i ImfTiledInputFile.obj
 0002:0008eee0       ??$_Destroy_range@PAUTileBuffer@?A0xf349abed@Imf@@V?$allocator@PAUTileBuffer@?A0xf349abed@Imf@@@std@@@std@@YAXPAPAUTileBuffer@?A0xf349abed@Imf@@0AAV?$allocator@PAUTileBuffer@?A0xf349abed@Imf@@@0@U_Scalar_ptr_iterator_tag@0@@Z 100edee0 f i ImfTiledInputFile.obj
 0002:0008ef10       ??$_Unchecked_uninitialized_move@PAPAUTileBuffer@?A0xf349abed@Imf@@PAPAU123@V?$allocator@PAUTileBuffer@?A0xf349abed@Imf@@@std@@@stdext@@YAPAPAUTileBuffer@?A0xf349abed@Imf@@PAPAU123@00AAV?$allocator@PAUTileBuffer@?A0xf349abed@Imf@@@std@@@Z 100edf10 f i ImfTiledInputFile.obj
 0002:0008efc0       ??$_Fill@PAPAUTileBuffer@?A0xf349abed@Imf@@PAU123@@std@@YAXPAPAUTileBuffer@?A0xf349abed@Imf@@0ABQAU123@@Z 100edfc0 f i ImfTiledInputFile.obj
 0002:0008f050       ??$_Move_cat@PAPAUTileBuffer@?A0xf349abed@Imf@@@std@@YA?AU_Undefined_move_tag@0@ABQAPAUTileBuffer@?A0xf349abed@Imf@@@Z 100ee050 f i ImfTiledInputFile.obj
 0002:0008f0c0       ??$_Move_backward_opt@PAPAUTileBuffer@?A0xf349abed@Imf@@PAPAU123@Urandom_access_iterator_tag@std@@U_Undefined_move_tag@5@@std@@YAPAPAUTileBuffer@?A0xf349abed@Imf@@PAPAU123@00Urandom_access_iterator_tag@0@U_Undefined_move_tag@0@U_Range_checked_iterator_tag@0@@Z 100ee0c0 f i ImfTiledInputFile.obj
 0002:0008f160       ??$_Uninit_fill_n@PAPAUTileBuffer@?A0xf349abed@Imf@@IPAU123@V?$allocator@PAUTileBuffer@?A0xf349abed@Imf@@@std@@@std@@YAXPAPAUTileBuffer@?A0xf349abed@Imf@@IABQAU123@AAV?$allocator@PAUTileBuffer@?A0xf349abed@Imf@@@0@U_Scalar_ptr_iterator_tag@0@U_Range_checked_iterator_tag@0@@Z 100ee160 f i ImfTiledInputFile.obj
 0002:0008f1c0       ?destroy@?$allocator@V?$vector@V?$vector@_KV?$allocator@_K@std@@@std@@V?$allocator@V?$vector@_KV?$allocator@_K@std@@@std@@@2@@std@@@std@@QAEXPAV?$vector@V?$vector@_KV?$allocator@_K@std@@@std@@V?$allocator@V?$vector@_KV?$allocator@_K@std@@@std@@@2@@2@@Z 100ee1c0 f i ImfTiledInputFile.obj
 0002:0008f220       ?construct@?$allocator@UTInSliceInfo@?A0xf349abed@Imf@@@std@@QAEXPAUTInSliceInfo@?A0xf349abed@Imf@@ABU345@@Z 100ee220 f i ImfTiledInputFile.obj
 0002:0008f280       ?destroy@?$allocator@UTInSliceInfo@?A0xf349abed@Imf@@@std@@QAEXPAUTInSliceInfo@?A0xf349abed@Imf@@@Z 100ee280 f i ImfTiledInputFile.obj
 0002:0008f2e0       ??$_Checked_base@PAV?$vector@V?$vector@_KV?$allocator@_K@std@@@std@@V?$allocator@V?$vector@_KV?$allocator@_K@std@@@std@@@2@@std@@@std@@YAPAV?$vector@V?$vector@_KV?$allocator@_K@std@@@std@@V?$allocator@V?$vector@_KV?$allocator@_K@std@@@std@@@2@@0@AAPAV10@U_Unchanged_checked_iterator_base_type_tag@0@@Z 100ee2e0 f i ImfTiledInputFile.obj
 0002:0008f320       ??$_Copy_opt@PAV?$vector@V?$vector@_KV?$allocator@_K@std@@@std@@V?$allocator@V?$vector@_KV?$allocator@_K@std@@@std@@@2@@std@@PAV12@Uforward_iterator_tag@2@@std@@YAPAV?$vector@V?$vector@_KV?$allocator@_K@std@@@std@@V?$allocator@V?$vector@_KV?$allocator@_K@std@@@std@@@2@@0@PAV10@00Uforward_iterator_tag@0@U_Nonscalar_ptr_iterator_tag@0@U_Range_checked_iterator_tag@0@@Z 100ee320 f i ImfTiledInputFile.obj
 0002:0008f3c0       ??$_Uninit_copy@PAV?$vector@V?$vector@_KV?$allocator@_K@std@@@std@@V?$allocator@V?$vector@_KV?$allocator@_K@std@@@std@@@2@@std@@PAV12@V?$allocator@V?$vector@V?$vector@_KV?$allocator@_K@std@@@std@@V?$allocator@V?$vector@_KV?$allocator@_K@std@@@std@@@2@@std@@@2@@std@@YAPAV?$vector@V?$vector@_KV?$allocator@_K@std@@@std@@V?$allocator@V?$vector@_KV?$allocator@_K@std@@@std@@@2@@0@PAV10@00AAV?$allocator@V?$vector@V?$vector@_KV?$allocator@_K@std@@@std@@V?$allocator@V?$vector@_KV?$allocator@_K@std@@@std@@@2@@std@@@0@U_Nonscalar_ptr_iterator_tag@0@U_Range_checked_iterator_tag@0@@Z 100ee3c0 f i ImfTiledInputFile.obj
 0002:0008f510       ??$_Checked_base@PAUTInSliceInfo@?A0xf349abed@Imf@@@std@@YAPAUTInSliceInfo@?A0xf349abed@Imf@@AAPAU123@U_Unchanged_checked_iterator_base_type_tag@0@@Z 100ee510 f i ImfTiledInputFile.obj
 0002:0008f550       ??$_Copy_opt@PAUTInSliceInfo@?A0xf349abed@Imf@@PAU123@Uforward_iterator_tag@std@@@std@@YAPAUTInSliceInfo@?A0xf349abed@Imf@@PAU123@00Uforward_iterator_tag@0@U_Nonscalar_ptr_iterator_tag@0@U_Range_checked_iterator_tag@0@@Z 100ee550 f i ImfTiledInputFile.obj
 0002:0008f5f0       ??$_Uninit_copy@PAUTInSliceInfo@?A0xf349abed@Imf@@PAU123@V?$allocator@UTInSliceInfo@?A0xf349abed@Imf@@@std@@@std@@YAPAUTInSliceInfo@?A0xf349abed@Imf@@PAU123@00AAV?$allocator@UTInSliceInfo@?A0xf349abed@Imf@@@0@U_Nonscalar_ptr_iterator_tag@0@U_Range_checked_iterator_tag@0@@Z 100ee5f0 f i ImfTiledInputFile.obj
 0002:0008f740       ??$_Uninit_move@PAUTInSliceInfo@?A0xf349abed@Imf@@PAU123@V?$allocator@UTInSliceInfo@?A0xf349abed@Imf@@@std@@U_Undefined_move_tag@5@@std@@YAPAUTInSliceInfo@?A0xf349abed@Imf@@PAU123@00AAV?$allocator@UTInSliceInfo@?A0xf349abed@Imf@@@0@U_Undefined_move_tag@0@U_Range_checked_iterator_tag@0@@Z 100ee740 f i ImfTiledInputFile.obj
 0002:0008f7a0       ??$_Debug_range@PAUTInSliceInfo@?A0xf349abed@Imf@@@std@@YAXPAUTInSliceInfo@?A0xf349abed@Imf@@0PB_WI@Z 100ee7a0 f i ImfTiledInputFile.obj
 0002:0008f820       ??$_Copy_backward_opt@PAUTInSliceInfo@?A0xf349abed@Imf@@PAU123@@std@@YAPAUTInSliceInfo@?A0xf349abed@Imf@@PAU123@00Urandom_access_iterator_tag@0@U_Nonscalar_ptr_iterator_tag@0@U_Range_checked_iterator_tag@0@@Z 100ee820 f i ImfTiledInputFile.obj
 0002:0008f8e0       ??$_Checked_base@PAPAUTileBuffer@?A0xf349abed@Imf@@@std@@YAPAPAUTileBuffer@?A0xf349abed@Imf@@AAPAPAU123@U_Unchanged_checked_iterator_base_type_tag@0@@Z 100ee8e0 f i ImfTiledInputFile.obj
 0002:0008f920       ??$_Debug_range@PAPAUTileBuffer@?A0xf349abed@Imf@@@std@@YAXPAPAUTileBuffer@?A0xf349abed@Imf@@0PB_WI@Z 100ee920 f i ImfTiledInputFile.obj
 0002:0008f9a0       ??$_Debug_pointer@PAUTileBuffer@?A0xf349abed@Imf@@@std@@YAXPAPAUTileBuffer@?A0xf349abed@Imf@@PB_WI@Z 100ee9a0 f i ImfTiledInputFile.obj
 0002:0008fa10       ??$_Uninit_move@PAPAUTileBuffer@?A0xf349abed@Imf@@PAPAU123@V?$allocator@PAUTileBuffer@?A0xf349abed@Imf@@@std@@U_Undefined_move_tag@5@@std@@YAPAPAUTileBuffer@?A0xf349abed@Imf@@PAPAU123@00AAV?$allocator@PAUTileBuffer@?A0xf349abed@Imf@@@0@U_Undefined_move_tag@0@U_Range_checked_iterator_tag@0@@Z 100eea10 f i ImfTiledInputFile.obj
 0002:0008fa70       ??$_Copy_backward_opt@PAPAUTileBuffer@?A0xf349abed@Imf@@PAPAU123@Urandom_access_iterator_tag@std@@@std@@YAPAPAUTileBuffer@?A0xf349abed@Imf@@PAPAU123@00Urandom_access_iterator_tag@0@U_Scalar_ptr_iterator_tag@0@U_Range_checked_iterator_tag@0@@Z 100eea70 f i ImfTiledInputFile.obj
 0002:0008fb60       ??$unchecked_fill_n@PAPAUTileBuffer@?A0xf349abed@Imf@@IPAU123@@stdext@@YAXPAPAUTileBuffer@?A0xf349abed@Imf@@IABQAU123@@Z 100eeb60 f i ImfTiledInputFile.obj
 0002:0008fbf0       ??$_Destroy@V?$vector@V?$vector@_KV?$allocator@_K@std@@@std@@V?$allocator@V?$vector@_KV?$allocator@_K@std@@@std@@@2@@std@@@std@@YAXPAV?$vector@V?$vector@_KV?$allocator@_K@std@@@std@@V?$allocator@V?$vector@_KV?$allocator@_K@std@@@std@@@2@@0@@Z 100eebf0 f i ImfTiledInputFile.obj
 0002:0008fc40       ??$_Construct@UTInSliceInfo@?A0xf349abed@Imf@@U123@@std@@YAXPAUTInSliceInfo@?A0xf349abed@Imf@@ABU123@@Z 100eec40 f i ImfTiledInputFile.obj
 0002:0008fce0       ??$_Destroy@UTInSliceInfo@?A0xf349abed@Imf@@@std@@YAXPAUTInSliceInfo@?A0xf349abed@Imf@@@Z 100eece0 f i ImfTiledInputFile.obj
 0002:0008fd10       ??_G?$vector@V?$vector@_KV?$allocator@_K@std@@@std@@V?$allocator@V?$vector@_KV?$allocator@_K@std@@@std@@@2@@std@@QAEPAXI@Z 100eed10 f i ImfTiledInputFile.obj
 0002:0008fd80       ?construct@?$allocator@V?$vector@V?$vector@_KV?$allocator@_K@std@@@std@@V?$allocator@V?$vector@_KV?$allocator@_K@std@@@std@@@2@@std@@@std@@QAEXPAV?$vector@V?$vector@_KV?$allocator@_K@std@@@std@@V?$allocator@V?$vector@_KV?$allocator@_K@std@@@std@@@2@@2@ABV32@@Z 100eed80 f i ImfTiledInputFile.obj
 0002:0008fde0       ??1?$vector@V?$vector@_KV?$allocator@_K@std@@@std@@V?$allocator@V?$vector@_KV?$allocator@_K@std@@@std@@@2@@std@@QAE@XZ 100eede0 f i ImfTiledInputFile.obj
 0002:0008fe80       ??4?$vector@V?$vector@_KV?$allocator@_K@std@@@std@@V?$allocator@V?$vector@_KV?$allocator@_K@std@@@std@@@2@@std@@QAEAAV01@ABV01@@Z 100eee80 f i ImfTiledInputFile.obj
 0002:000900c0       ??1?$_Vector_val@V?$vector@_KV?$allocator@_K@std@@@std@@V?$allocator@V?$vector@_KV?$allocator@_K@std@@@std@@@2@@std@@QAE@XZ 100ef0c0 f i ImfTiledInputFile.obj
 0002:00090120       ?capacity@?$vector@V?$vector@_KV?$allocator@_K@std@@@std@@V?$allocator@V?$vector@_KV?$allocator@_K@std@@@std@@@2@@std@@QBEIXZ 100ef120 f i ImfTiledInputFile.obj
 0002:000901a0       ?size@?$vector@V?$vector@_KV?$allocator@_K@std@@@std@@V?$allocator@V?$vector@_KV?$allocator@_K@std@@@std@@@2@@std@@QBEIXZ 100ef1a0 f i ImfTiledInputFile.obj
 0002:00090220       ?clear@?$vector@V?$vector@_KV?$allocator@_K@std@@@std@@V?$allocator@V?$vector@_KV?$allocator@_K@std@@@std@@@2@@std@@QAEXXZ 100ef220 f i ImfTiledInputFile.obj
 0002:00090330       ?_Buy@?$vector@V?$vector@_KV?$allocator@_K@std@@@std@@V?$allocator@V?$vector@_KV?$allocator@_K@std@@@std@@@2@@std@@IAE_NI@Z 100ef330 f i ImfTiledInputFile.obj
 0002:00090410       ?_Destroy@?$vector@V?$vector@_KV?$allocator@_K@std@@@std@@V?$allocator@V?$vector@_KV?$allocator@_K@std@@@std@@@2@@std@@IAEXPAV?$vector@_KV?$allocator@_K@std@@@2@0@Z 100ef410 f i ImfTiledInputFile.obj
 0002:00090480       ?_Tidy@?$vector@V?$vector@_KV?$allocator@_K@std@@@std@@V?$allocator@V?$vector@_KV?$allocator@_K@std@@@std@@@2@@std@@IAEXXZ 100ef480 f i ImfTiledInputFile.obj
 0002:00090560       ?deallocate@?$allocator@V?$vector@_KV?$allocator@_K@std@@@std@@@std@@QAEXPAV?$vector@_KV?$allocator@_K@std@@@2@I@Z 100ef560 f i ImfTiledInputFile.obj
 0002:000905c0       ??1?$_Vector_iterator@V?$vector@_KV?$allocator@_K@std@@@std@@V?$allocator@V?$vector@_KV?$allocator@_K@std@@@std@@@2@@std@@QAE@XZ 100ef5c0 f i ImfTiledInputFile.obj
 0002:00090610       ??1?$_Vector_const_iterator@V?$vector@_KV?$allocator@_K@std@@@std@@V?$allocator@V?$vector@_KV?$allocator@_K@std@@@std@@@2@@std@@QAE@XZ 100ef610 f i ImfTiledInputFile.obj
 0002:00090660       ??1?$_Ranit@V?$vector@_KV?$allocator@_K@std@@@std@@HPBV12@ABV12@@std@@QAE@XZ 100ef660 f i ImfTiledInputFile.obj
 0002:000906b0       ?begin@?$vector@V?$vector@_KV?$allocator@_K@std@@@std@@V?$allocator@V?$vector@_KV?$allocator@_K@std@@@std@@@2@@std@@QAE?AV?$_Vector_iterator@V?$vector@_KV?$allocator@_K@std@@@std@@V?$allocator@V?$vector@_KV?$allocator@_K@std@@@std@@@2@@2@XZ 100ef6b0 f i ImfTiledInputFile.obj
 0002:00090740       ?end@?$vector@V?$vector@_KV?$allocator@_K@std@@@std@@V?$allocator@V?$vector@_KV?$allocator@_K@std@@@std@@@2@@std@@QAE?AV?$_Vector_iterator@V?$vector@_KV?$allocator@_K@std@@@std@@V?$allocator@V?$vector@_KV?$allocator@_K@std@@@std@@@2@@2@XZ 100ef740 f i ImfTiledInputFile.obj
 0002:000907d0       ?max_size@?$vector@V?$vector@_KV?$allocator@_K@std@@@std@@V?$allocator@V?$vector@_KV?$allocator@_K@std@@@std@@@2@@std@@QBEIXZ 100ef7d0 f i ImfTiledInputFile.obj
 0002:00090830       ?erase@?$vector@V?$vector@_KV?$allocator@_K@std@@@std@@V?$allocator@V?$vector@_KV?$allocator@_K@std@@@std@@@2@@std@@QAE?AV?$_Vector_iterator@V?$vector@_KV?$allocator@_K@std@@@std@@V?$allocator@V?$vector@_KV?$allocator@_K@std@@@std@@@2@@2@V32@0@Z 100ef830 f i ImfTiledInputFile.obj
 0002:000909f0       ?_Xlen@?$vector@V?$vector@_KV?$allocator@_K@std@@@std@@V?$allocator@V?$vector@_KV?$allocator@_K@std@@@std@@@2@@std@@KAXXZ 100ef9f0 f i ImfTiledInputFile.obj
 0002:00090ae0       ?allocate@?$allocator@V?$vector@_KV?$allocator@_K@std@@@std@@@std@@QAEPAV?$vector@_KV?$allocator@_K@std@@@2@I@Z 100efae0 f i ImfTiledInputFile.obj
 0002:00090b40       ?_Orphan_range@?$vector@V?$vector@_KV?$allocator@_K@std@@@std@@V?$allocator@V?$vector@_KV?$allocator@_K@std@@@std@@@2@@std@@IBEXPAV?$vector@_KV?$allocator@_K@std@@@2@0@Z 100efb40 f i ImfTiledInputFile.obj
 0002:00090c50       ?max_size@?$allocator@V?$vector@_KV?$allocator@_K@std@@@std@@@std@@QBEIXZ 100efc50 f i ImfTiledInputFile.obj
 0002:00090cc0       ??0?$_Vector_iterator@V?$vector@_KV?$allocator@_K@std@@@std@@V?$allocator@V?$vector@_KV?$allocator@_K@std@@@std@@@2@@std@@QAE@PAV?$vector@_KV?$allocator@_K@std@@@1@PBV_Container_base@1@@Z 100efcc0 f i ImfTiledInputFile.obj
 0002:00090d20       ??9?$_Vector_const_iterator@V?$vector@_KV?$allocator@_K@std@@@std@@V?$allocator@V?$vector@_KV?$allocator@_K@std@@@std@@@2@@std@@QBE_NABV01@@Z 100efd20 f i ImfTiledInputFile.obj
 0002:00090d90       ??M?$_Vector_const_iterator@V?$vector@_KV?$allocator@_K@std@@@std@@V?$allocator@V?$vector@_KV?$allocator@_K@std@@@std@@@2@@std@@QBE_NABV01@@Z 100efd90 f i ImfTiledInputFile.obj
 0002:00090e00       ??0?$_Vector_const_iterator@V?$vector@_KV?$allocator@_K@std@@@std@@V?$allocator@V?$vector@_KV?$allocator@_K@std@@@std@@@2@@std@@QAE@PAV?$vector@_KV?$allocator@_K@std@@@1@PBV_Container_base@1@@Z 100efe00 f i ImfTiledInputFile.obj
 0002:00090f40       ??8?$_Vector_const_iterator@V?$vector@_KV?$allocator@_K@std@@@std@@V?$allocator@V?$vector@_KV?$allocator@_K@std@@@std@@@2@@std@@QBE_NABV01@@Z 100eff40 f i ImfTiledInputFile.obj
 0002:00090fb0       ?_Compat@?$_Vector_const_iterator@V?$vector@_KV?$allocator@_K@std@@@std@@V?$allocator@V?$vector@_KV?$allocator@_K@std@@@std@@@2@@std@@QBEXABV12@@Z 100effb0 f i ImfTiledInputFile.obj
 0002:000910b0       ??0?$_Ranit@V?$vector@_KV?$allocator@_K@std@@@std@@HPBV12@ABV12@@std@@QAE@XZ 100f00b0 f i ImfTiledInputFile.obj
 0002:00091110       ??$_Debug_range@PAV?$vector@V?$vector@_KV?$allocator@_K@std@@@std@@V?$allocator@V?$vector@_KV?$allocator@_K@std@@@std@@@2@@std@@@std@@YAXPAV?$vector@V?$vector@_KV?$allocator@_K@std@@@std@@V?$allocator@V?$vector@_KV?$allocator@_K@std@@@std@@@2@@0@0PB_WI@Z 100f0110 f i ImfTiledInputFile.obj
 0002:00091190       ??$_Debug_pointer@V?$vector@V?$vector@_KV?$allocator@_K@std@@@std@@V?$allocator@V?$vector@_KV?$allocator@_K@std@@@std@@@2@@std@@@std@@YAXPAV?$vector@V?$vector@_KV?$allocator@_K@std@@@std@@V?$allocator@V?$vector@_KV?$allocator@_K@std@@@std@@@2@@0@PB_WI@Z 100f0190 f i ImfTiledInputFile.obj
 0002:00091200       ??$_Debug_pointer@UTInSliceInfo@?A0xf349abed@Imf@@@std@@YAXPAUTInSliceInfo@?A0xf349abed@Imf@@PB_WI@Z 100f0200 f i ImfTiledInputFile.obj
 0002:00091270       ??$_Iter_cat@PAUTInSliceInfo@?A0xf349abed@Imf@@@std@@YA?AUrandom_access_iterator_tag@0@ABQAUTInSliceInfo@?A0xf349abed@Imf@@@Z 100f0270 f i ImfTiledInputFile.obj
 0002:000912e0       ??$_Debug_range2@PAUTInSliceInfo@?A0xf349abed@Imf@@@std@@YAXPAUTInSliceInfo@?A0xf349abed@Imf@@0PB_WIUrandom_access_iterator_tag@0@@Z 100f02e0 f i ImfTiledInputFile.obj
 0002:00091390       ??$_Copy_backward_opt@PAUTInSliceInfo@?A0xf349abed@Imf@@PAU123@Uforward_iterator_tag@std@@@std@@YAPAUTInSliceInfo@?A0xf349abed@Imf@@PAU123@00Uforward_iterator_tag@0@U_Nonscalar_ptr_iterator_tag@0@U_Range_checked_iterator_tag@0@@Z 100f0390 f i ImfTiledInputFile.obj
 0002:00091430       ??$_Iter_cat@PAPAUTileBuffer@?A0xf349abed@Imf@@@std@@YA?AUrandom_access_iterator_tag@0@ABQAPAUTileBuffer@?A0xf349abed@Imf@@@Z 100f0430 f i ImfTiledInputFile.obj
 0002:000914a0       ??$_Debug_range2@PAPAUTileBuffer@?A0xf349abed@Imf@@@std@@YAXPAPAUTileBuffer@?A0xf349abed@Imf@@0PB_WIUrandom_access_iterator_tag@0@@Z 100f04a0 f i ImfTiledInputFile.obj
 0002:00091550       ??$unchecked_uninitialized_copy@PAPAUTileBuffer@?A0xf349abed@Imf@@PAPAU123@V?$allocator@PAUTileBuffer@?A0xf349abed@Imf@@@std@@@stdext@@YAPAPAUTileBuffer@?A0xf349abed@Imf@@PAPAU123@00AAV?$allocator@PAUTileBuffer@?A0xf349abed@Imf@@@std@@@Z 100f0550 f i ImfTiledInputFile.obj
 0002:00091600       ??$_Fill_n@PAPAUTileBuffer@?A0xf349abed@Imf@@IPAU123@@std@@YAXPAPAUTileBuffer@?A0xf349abed@Imf@@IABQAU123@Urandom_access_iterator_tag@0@U_Range_checked_iterator_tag@0@@Z 100f0600 f i ImfTiledInputFile.obj
 0002:00091690       ??$_Construct@V?$vector@V?$vector@_KV?$allocator@_K@std@@@std@@V?$allocator@V?$vector@_KV?$allocator@_K@std@@@std@@@2@@std@@V12@@std@@YAXPAV?$vector@V?$vector@_KV?$allocator@_K@std@@@std@@V?$allocator@V?$vector@_KV?$allocator@_K@std@@@std@@@2@@0@ABV10@@Z 100f0690 f i ImfTiledInputFile.obj
 0002:00091780       ??$unchecked_copy@PAV?$vector@_KV?$allocator@_K@std@@@std@@PAV12@@stdext@@YAPAV?$vector@_KV?$allocator@_K@std@@@std@@PAV12@00@Z 100f0780 f i ImfTiledInputFile.obj
 0002:00091850       ??$_Ucopy@PAV?$vector@_KV?$allocator@_K@std@@@std@@@?$vector@V?$vector@_KV?$allocator@_K@std@@@std@@V?$allocator@V?$vector@_KV?$allocator@_K@std@@@std@@@2@@std@@IAEPAV?$vector@_KV?$allocator@_K@std@@@1@PAV21@00@Z 100f0850 f i ImfTiledInputFile.obj
 0002:000918c0       ??$_Destroy_range@V?$vector@_KV?$allocator@_K@std@@@std@@V?$allocator@V?$vector@_KV?$allocator@_K@std@@@std@@@2@@std@@YAXPAV?$vector@_KV?$allocator@_K@std@@@0@0AAV?$allocator@V?$vector@_KV?$allocator@_K@std@@@std@@@0@@Z 100f08c0 f i ImfTiledInputFile.obj
 0002:00091940       ??$_Allocate@V?$vector@_KV?$allocator@_K@std@@@std@@@std@@YAPAV?$vector@_KV?$allocator@_K@std@@@0@IPAV10@@Z 100f0940 f i ImfTiledInputFile.obj
 0002:000919e0       ??0?$vector@V?$vector@_KV?$allocator@_K@std@@@std@@V?$allocator@V?$vector@_KV?$allocator@_K@std@@@std@@@2@@std@@QAE@ABV01@@Z 100f09e0 f i ImfTiledInputFile.obj
 0002:00091b70       ?begin@?$vector@V?$vector@_KV?$allocator@_K@std@@@std@@V?$allocator@V?$vector@_KV?$allocator@_K@std@@@std@@@2@@std@@QBE?AV?$_Vector_const_iterator@V?$vector@_KV?$allocator@_K@std@@@std@@V?$allocator@V?$vector@_KV?$allocator@_K@std@@@std@@@2@@2@XZ 100f0b70 f i ImfTiledInputFile.obj
 0002:00091c00       ?end@?$vector@V?$vector@_KV?$allocator@_K@std@@@std@@V?$allocator@V?$vector@_KV?$allocator@_K@std@@@std@@@2@@std@@QBE?AV?$_Vector_const_iterator@V?$vector@_KV?$allocator@_K@std@@@std@@V?$allocator@V?$vector@_KV?$allocator@_K@std@@@std@@@2@@2@XZ 100f0c00 f i ImfTiledInputFile.obj
 0002:00091c90       ??0?$_Vector_val@V?$vector@_KV?$allocator@_K@std@@@std@@V?$allocator@V?$vector@_KV?$allocator@_K@std@@@std@@@2@@std@@IAE@V?$allocator@V?$vector@_KV?$allocator@_K@std@@@std@@@1@@Z 100f0c90 f i ImfTiledInputFile.obj
 0002:00091d10       ??0?$allocator@V?$vector@_KV?$allocator@_K@std@@@std@@@std@@QAE@ABV01@@Z 100f0d10 f i ImfTiledInputFile.obj
 0002:00091d50       ??$_Iter_cat@PAV?$vector@V?$vector@_KV?$allocator@_K@std@@@std@@V?$allocator@V?$vector@_KV?$allocator@_K@std@@@std@@@2@@std@@@std@@YA?AUrandom_access_iterator_tag@0@ABQAV?$vector@V?$vector@_KV?$allocator@_K@std@@@std@@V?$allocator@V?$vector@_KV?$allocator@_K@std@@@std@@@2@@0@@Z 100f0d50 f i ImfTiledInputFile.obj
 0002:00091dc0       ??$_Debug_range2@PAV?$vector@V?$vector@_KV?$allocator@_K@std@@@std@@V?$allocator@V?$vector@_KV?$allocator@_K@std@@@std@@@2@@std@@@std@@YAXPAV?$vector@V?$vector@_KV?$allocator@_K@std@@@std@@V?$allocator@V?$vector@_KV?$allocator@_K@std@@@std@@@2@@0@0PB_WIUrandom_access_iterator_tag@0@@Z 100f0dc0 f i ImfTiledInputFile.obj
 0002:00091e70       ??$_Uninit_copy@PAPAUTileBuffer@?A0xf349abed@Imf@@PAPAU123@V?$allocator@PAUTileBuffer@?A0xf349abed@Imf@@@std@@@std@@YAPAPAUTileBuffer@?A0xf349abed@Imf@@PAPAU123@00AAV?$allocator@PAUTileBuffer@?A0xf349abed@Imf@@@0@U_Scalar_ptr_iterator_tag@0@U_Range_checked_iterator_tag@0@@Z 100f0e70 f i ImfTiledInputFile.obj
 0002:00091f40       ??$_Fill_n@PAPAUTileBuffer@?A0xf349abed@Imf@@IPAU123@@std@@YAXPAPAUTileBuffer@?A0xf349abed@Imf@@IABQAU123@U_Range_checked_iterator_tag@0@@Z 100f0f40 f i ImfTiledInputFile.obj
 0002:00091fa0       ??$_Checked_base@PAV?$vector@_KV?$allocator@_K@std@@@std@@@std@@YAPAV?$vector@_KV?$allocator@_K@std@@@0@AAPAV10@@Z 100f0fa0 f i ImfTiledInputFile.obj
 0002:00092030       ??$_Iter_random@PAV?$vector@_KV?$allocator@_K@std@@@std@@PAV12@@std@@YA?AUrandom_access_iterator_tag@0@ABQAV?$vector@_KV?$allocator@_K@std@@@0@0@Z 100f1030 f i ImfTiledInputFile.obj
 0002:000920a0       ??$_Ptr_cat@PAV?$vector@_KV?$allocator@_K@std@@@std@@PAV12@@std@@YA?AU_Nonscalar_ptr_iterator_tag@0@AAPAV?$vector@_KV?$allocator@_K@std@@@0@0@Z 100f10a0 f i ImfTiledInputFile.obj
 0002:00092110       ??$_Copy_opt@PAV?$vector@_KV?$allocator@_K@std@@@std@@PAV12@@std@@YAPAV?$vector@_KV?$allocator@_K@std@@@0@PAV10@00Urandom_access_iterator_tag@0@U_Nonscalar_ptr_iterator_tag@0@U_Range_checked_iterator_tag@0@@Z 100f1110 f i ImfTiledInputFile.obj
 0002:000921d0       ??$unchecked_uninitialized_copy@PAV?$vector@_KV?$allocator@_K@std@@@std@@PAV12@V?$allocator@V?$vector@_KV?$allocator@_K@std@@@std@@@2@@stdext@@YAPAV?$vector@_KV?$allocator@_K@std@@@std@@PAV12@00AAV?$allocator@V?$vector@_KV?$allocator@_K@std@@@std@@@2@@Z 100f11d0 f i ImfTiledInputFile.obj
 0002:00092280       ??$_Destroy_range@V?$vector@_KV?$allocator@_K@std@@@std@@V?$allocator@V?$vector@_KV?$allocator@_K@std@@@std@@@2@@std@@YAXPAV?$vector@_KV?$allocator@_K@std@@@0@0AAV?$allocator@V?$vector@_KV?$allocator@_K@std@@@std@@@0@U_Nonscalar_ptr_iterator_tag@0@@Z 100f1280 f i ImfTiledInputFile.obj
 0002:000922f0       ??$_Ucopy@V?$_Vector_const_iterator@V?$vector@_KV?$allocator@_K@std@@@std@@V?$allocator@V?$vector@_KV?$allocator@_K@std@@@std@@@2@@std@@@?$vector@V?$vector@_KV?$allocator@_K@std@@@std@@V?$allocator@V?$vector@_KV?$allocator@_K@std@@@std@@@2@@std@@IAEPAV?$vector@_KV?$allocator@_K@std@@@1@V?$_Vector_const_iterator@V?$vector@_KV?$allocator@_K@std@@@std@@V?$allocator@V?$vector@_KV?$allocator@_K@std@@@std@@@2@@1@0PAV21@@Z 100f12f0 f i ImfTiledInputFile.obj
 0002:00092430       ??0?$_Vector_const_iterator@V?$vector@_KV?$allocator@_K@std@@@std@@V?$allocator@V?$vector@_KV?$allocator@_K@std@@@std@@@2@@std@@QAE@ABV01@@Z 100f1430 f i ImfTiledInputFile.obj
 0002:000924a0       ??0?$_Ranit@V?$vector@_KV?$allocator@_K@std@@@std@@HPBV12@ABV12@@std@@QAE@ABU01@@Z 100f14a0 f i ImfTiledInputFile.obj
 0002:00092500       ?destroy@?$allocator@V?$vector@_KV?$allocator@_K@std@@@std@@@std@@QAEXPAV?$vector@_KV?$allocator@_K@std@@@2@@Z 100f1500 f i ImfTiledInputFile.obj
 0002:00092560       ??$_Checked_base@PAV?$vector@_KV?$allocator@_K@std@@@std@@@std@@YAPAV?$vector@_KV?$allocator@_K@std@@@0@AAPAV10@U_Unchanged_checked_iterator_base_type_tag@0@@Z 100f1560 f i ImfTiledInputFile.obj
 0002:000925a0       ??$_Copy_opt@PAV?$vector@_KV?$allocator@_K@std@@@std@@PAV12@Uforward_iterator_tag@2@@std@@YAPAV?$vector@_KV?$allocator@_K@std@@@0@PAV10@00Uforward_iterator_tag@0@U_Nonscalar_ptr_iterator_tag@0@U_Range_checked_iterator_tag@0@@Z 100f15a0 f i ImfTiledInputFile.obj
 0002:00092640       ??$_Uninit_copy@PAV?$vector@_KV?$allocator@_K@std@@@std@@PAV12@V?$allocator@V?$vector@_KV?$allocator@_K@std@@@std@@@2@@std@@YAPAV?$vector@_KV?$allocator@_K@std@@@0@PAV10@00AAV?$allocator@V?$vector@_KV?$allocator@_K@std@@@std@@@0@U_Nonscalar_ptr_iterator_tag@0@U_Range_checked_iterator_tag@0@@Z 100f1640 f i ImfTiledInputFile.obj
 0002:00092790       ??$unchecked_uninitialized_copy@V?$_Vector_const_iterator@V?$vector@_KV?$allocator@_K@std@@@std@@V?$allocator@V?$vector@_KV?$allocator@_K@std@@@std@@@2@@std@@PAV?$vector@_KV?$allocator@_K@std@@@2@V?$allocator@V?$vector@_KV?$allocator@_K@std@@@std@@@2@@stdext@@YAPAV?$vector@_KV?$allocator@_K@std@@@std@@V?$_Vector_const_iterator@V?$vector@_KV?$allocator@_K@std@@@std@@V?$allocator@V?$vector@_KV?$allocator@_K@std@@@std@@@2@@2@0PAV12@AAV?$allocator@V?$vector@_KV?$allocator@_K@std@@@std@@@2@@Z 100f1790 f i ImfTiledInputFile.obj
 0002:00092900       ??$_Destroy@V?$vector@_KV?$allocator@_K@std@@@std@@@std@@YAXPAV?$vector@_KV?$allocator@_K@std@@@0@@Z 100f1900 f i ImfTiledInputFile.obj
 0002:00092950       ??_G?$vector@_KV?$allocator@_K@std@@@std@@QAEPAXI@Z 100f1950 f i ImfTiledInputFile.obj
 0002:000929c0       ?construct@?$allocator@V?$vector@_KV?$allocator@_K@std@@@std@@@std@@QAEXPAV?$vector@_KV?$allocator@_K@std@@@2@ABV32@@Z 100f19c0 f i ImfTiledInputFile.obj
 0002:00092a20       ??4?$vector@_KV?$allocator@_K@std@@@std@@QAEAAV01@ABV01@@Z 100f1a20 f i ImfTiledInputFile.obj
 0002:00092c50       ?clear@?$vector@_KV?$allocator@_K@std@@@std@@QAEXXZ 100f1c50 f i ImfTiledInputFile.obj
 0002:00092d60       ??$_Debug_range@PAV?$vector@_KV?$allocator@_K@std@@@std@@@std@@YAXPAV?$vector@_KV?$allocator@_K@std@@@0@0PB_WI@Z 100f1d60 f i ImfTiledInputFile.obj
 0002:00092de0       ??$_Debug_pointer@V?$vector@_KV?$allocator@_K@std@@@std@@@std@@YAXPAV?$vector@_KV?$allocator@_K@std@@@0@PB_WI@Z 100f1de0 f i ImfTiledInputFile.obj
 0002:00092e50       ??$_Checked_base@V?$_Vector_const_iterator@V?$vector@_KV?$allocator@_K@std@@@std@@V?$allocator@V?$vector@_KV?$allocator@_K@std@@@std@@@2@@std@@@std@@YA?AV?$_Vector_const_iterator@V?$vector@_KV?$allocator@_K@std@@@std@@V?$allocator@V?$vector@_KV?$allocator@_K@std@@@std@@@2@@0@AAV10@@Z 100f1e50 f i ImfTiledInputFile.obj
 0002:00092f10       ??$_Ptr_cat@V?$_Vector_const_iterator@V?$vector@_KV?$allocator@_K@std@@@std@@V?$allocator@V?$vector@_KV?$allocator@_K@std@@@std@@@2@@std@@PAV?$vector@_KV?$allocator@_K@std@@@2@@std@@YA?AU_Nonscalar_ptr_iterator_tag@0@AAV?$_Vector_const_iterator@V?$vector@_KV?$allocator@_K@std@@@std@@V?$allocator@V?$vector@_KV?$allocator@_K@std@@@std@@@2@@0@AAPAV?$vector@_KV?$allocator@_K@std@@@0@@Z 100f1f10 f i ImfTiledInputFile.obj
 0002:00092f80       ??$_Uninit_copy@V?$_Vector_const_iterator@V?$vector@_KV?$allocator@_K@std@@@std@@V?$allocator@V?$vector@_KV?$allocator@_K@std@@@std@@@2@@std@@PAV?$vector@_KV?$allocator@_K@std@@@2@V?$allocator@V?$vector@_KV?$allocator@_K@std@@@std@@@2@@std@@YAPAV?$vector@_KV?$allocator@_K@std@@@0@V?$_Vector_const_iterator@V?$vector@_KV?$allocator@_K@std@@@std@@V?$allocator@V?$vector@_KV?$allocator@_K@std@@@std@@@2@@0@0PAV10@AAV?$allocator@V?$vector@_KV?$allocator@_K@std@@@std@@@0@U_Nonscalar_ptr_iterator_tag@0@U_Range_checked_iterator_tag@0@@Z 100f1f80 f i ImfTiledInputFile.obj
 0002:00093180       ??$_Construct@V?$vector@_KV?$allocator@_K@std@@@std@@V12@@std@@YAXPAV?$vector@_KV?$allocator@_K@std@@@0@ABV10@@Z 100f2180 f i ImfTiledInputFile.obj
 0002:00093270       ??$_Ucopy@PA_K@?$vector@_KV?$allocator@_K@std@@@std@@IAEPA_KPA_K00@Z 100f2270 f i ImfTiledInputFile.obj
 0002:000932e0       ??0?$vector@_KV?$allocator@_K@std@@@std@@QAE@ABV01@@Z 100f22e0 f i ImfTiledInputFile.obj
 0002:00093470       ??D?$_Vector_const_iterator@V?$vector@_KV?$allocator@_K@std@@@std@@V?$allocator@V?$vector@_KV?$allocator@_K@std@@@std@@@2@@std@@QBEABV?$vector@_KV?$allocator@_K@std@@@1@XZ 100f2470 f i ImfTiledInputFile.obj
 0002:00093580       ??E?$_Vector_const_iterator@V?$vector@_KV?$allocator@_K@std@@@std@@V?$allocator@V?$vector@_KV?$allocator@_K@std@@@std@@@2@@std@@QAEAAV01@XZ 100f2580 f i ImfTiledInputFile.obj
 0002:000936d0       ?begin@?$vector@_KV?$allocator@_K@std@@@std@@QBE?AV?$_Vector_const_iterator@_KV?$allocator@_K@std@@@2@XZ 100f26d0 f i ImfTiledInputFile.obj
 0002:00093760       ?end@?$vector@_KV?$allocator@_K@std@@@std@@QBE?AV?$_Vector_const_iterator@_KV?$allocator@_K@std@@@2@XZ 100f2760 f i ImfTiledInputFile.obj
 0002:000937f0       ??$_Iter_cat@PAV?$vector@_KV?$allocator@_K@std@@@std@@@std@@YA?AUrandom_access_iterator_tag@0@ABQAV?$vector@_KV?$allocator@_K@std@@@0@@Z 100f27f0 f i ImfTiledInputFile.obj
 0002:00093860       ??$_Debug_range2@PAV?$vector@_KV?$allocator@_K@std@@@std@@@std@@YAXPAV?$vector@_KV?$allocator@_K@std@@@0@0PB_WIUrandom_access_iterator_tag@0@@Z 100f2860 f i ImfTiledInputFile.obj
 0002:00093910       ??$_Checked_base@V?$_Vector_const_iterator@V?$vector@_KV?$allocator@_K@std@@@std@@V?$allocator@V?$vector@_KV?$allocator@_K@std@@@std@@@2@@std@@@std@@YA?AV?$_Vector_const_iterator@V?$vector@_KV?$allocator@_K@std@@@std@@V?$allocator@V?$vector@_KV?$allocator@_K@std@@@std@@@2@@0@AAV10@U_Unchanged_checked_iterator_base_type_tag@0@@Z 100f2910 f i ImfTiledInputFile.obj
 0002:00093980       ??$_Debug_range@V?$_Vector_const_iterator@V?$vector@_KV?$allocator@_K@std@@@std@@V?$allocator@V?$vector@_KV?$allocator@_K@std@@@std@@@2@@std@@@std@@YAXV?$_Vector_const_iterator@V?$vector@_KV?$allocator@_K@std@@@std@@V?$allocator@V?$vector@_KV?$allocator@_K@std@@@std@@@2@@0@0PB_WI@Z 100f2980 f i ImfTiledInputFile.obj
 0002:00093ab0       ??$_Ucopy@V?$_Vector_const_iterator@_KV?$allocator@_K@std@@@std@@@?$vector@_KV?$allocator@_K@std@@@std@@IAEPA_KV?$_Vector_const_iterator@_KV?$allocator@_K@std@@@1@0PA_K@Z 100f2ab0 f i ImfTiledInputFile.obj
 0002:00093bf0       ??$_Iter_cat@V?$_Vector_const_iterator@V?$vector@_KV?$allocator@_K@std@@@std@@V?$allocator@V?$vector@_KV?$allocator@_K@std@@@std@@@2@@std@@@std@@YA?AUrandom_access_iterator_tag@0@ABV?$_Vector_const_iterator@V?$vector@_KV?$allocator@_K@std@@@std@@V?$allocator@V?$vector@_KV?$allocator@_K@std@@@std@@@2@@0@@Z 100f2bf0 f i ImfTiledInputFile.obj
 0002:00093c60       ??$_Debug_range2@V?$_Vector_const_iterator@V?$vector@_KV?$allocator@_K@std@@@std@@V?$allocator@V?$vector@_KV?$allocator@_K@std@@@std@@@2@@std@@@std@@YAXV?$_Vector_const_iterator@V?$vector@_KV?$allocator@_K@std@@@std@@V?$allocator@V?$vector@_KV?$allocator@_K@std@@@std@@@2@@0@0PB_WIUrandom_access_iterator_tag@0@@Z 100f2c60 f i ImfTiledInputFile.obj
 0002:00093d90       ??$unchecked_uninitialized_copy@V?$_Vector_const_iterator@_KV?$allocator@_K@std@@@std@@PA_KV?$allocator@_K@2@@stdext@@YAPA_KV?$_Vector_const_iterator@_KV?$allocator@_K@std@@@std@@0PA_KAAV?$allocator@_K@2@@Z 100f2d90 f i ImfTiledInputFile.obj
 0002:00093f00       ??$_Debug_pointer@V?$_Vector_const_iterator@V?$vector@_KV?$allocator@_K@std@@@std@@V?$allocator@V?$vector@_KV?$allocator@_K@std@@@std@@@2@@std@@@std@@YAXAAV?$_Vector_const_iterator@V?$vector@_KV?$allocator@_K@std@@@std@@V?$allocator@V?$vector@_KV?$allocator@_K@std@@@std@@@2@@0@PB_WI@Z 100f2f00 f i ImfTiledInputFile.obj
 0002:00093f30       ??$_Checked_base@V?$_Vector_const_iterator@_KV?$allocator@_K@std@@@std@@@std@@YA?AV?$_Vector_const_iterator@_KV?$allocator@_K@std@@@0@AAV10@@Z 100f2f30 f i ImfTiledInputFile.obj
 0002:00093ff0       ??$_Ptr_cat@V?$_Vector_const_iterator@_KV?$allocator@_K@std@@@std@@PA_K@std@@YA?AU_Scalar_ptr_iterator_tag@0@AAV?$_Vector_const_iterator@_KV?$allocator@_K@std@@@0@AAPA_K@Z 100f2ff0 f i ImfTiledInputFile.obj
 0002:00094060       ??$_Uninit_copy@V?$_Vector_const_iterator@_KV?$allocator@_K@std@@@std@@PA_KV?$allocator@_K@2@@std@@YAPA_KV?$_Vector_const_iterator@_KV?$allocator@_K@std@@@0@0PA_KAAV?$allocator@_K@0@U_Scalar_ptr_iterator_tag@0@U_Range_checked_iterator_tag@0@@Z 100f3060 f i ImfTiledInputFile.obj
 0002:00094200       ??D?$_Vector_const_iterator@_KV?$allocator@_K@std@@@std@@QBEAB_KXZ 100f3200 f i ImfTiledInputFile.obj
 0002:00094310       ??G?$_Vector_const_iterator@_KV?$allocator@_K@std@@@std@@QBEHABV01@@Z 100f3310 f i ImfTiledInputFile.obj
 0002:00094380       ??$_Checked_base@V?$_Vector_const_iterator@_KV?$allocator@_K@std@@@std@@@std@@YA?AV?$_Vector_const_iterator@_KV?$allocator@_K@std@@@0@AAV10@U_Unchanged_checked_iterator_base_type_tag@0@@Z 100f3380 f i ImfTiledInputFile.obj
 0002:000943f0       ??$_Debug_range@V?$_Vector_const_iterator@_KV?$allocator@_K@std@@@std@@@std@@YAXV?$_Vector_const_iterator@_KV?$allocator@_K@std@@@0@0PB_WI@Z 100f33f0 f i ImfTiledInputFile.obj
 0002:00094520       ??$_Iter_cat@V?$_Vector_const_iterator@_KV?$allocator@_K@std@@@std@@@std@@YA?AUrandom_access_iterator_tag@0@ABV?$_Vector_const_iterator@_KV?$allocator@_K@std@@@0@@Z 100f3520 f i ImfTiledInputFile.obj
 0002:00094590       ??$_Debug_range2@V?$_Vector_const_iterator@_KV?$allocator@_K@std@@@std@@@std@@YAXV?$_Vector_const_iterator@_KV?$allocator@_K@std@@@0@0PB_WIUrandom_access_iterator_tag@0@@Z 100f3590 f i ImfTiledInputFile.obj
 0002:000946c0       ??$_Debug_pointer@V?$_Vector_const_iterator@_KV?$allocator@_K@std@@@std@@@std@@YAXAAV?$_Vector_const_iterator@_KV?$allocator@_K@std@@@0@PB_WI@Z 100f36c0 f i ImfTiledInputFile.obj
 0002:000946f0       ?levelSize@Imf@@YAHHHHW4LevelRoundingMode@1@@Z 100f36f0 f   ImfTiledMisc.obj
 0002:00094810       ?dataWindowForLevel@Imf@@YA?AV?$Box@V?$Vec2@H@Imath@@@Imath@@ABVTileDescription@1@HHHHHH@Z 100f3810 f   ImfTiledMisc.obj
 0002:00094940       ?dataWindowForTile@Imf@@YA?AV?$Box@V?$Vec2@H@Imath@@@Imath@@ABVTileDescription@1@HHHHHHHH@Z 100f3940 f   ImfTiledMisc.obj
 0002:00094b20       ?calculateBytesPerPixel@Imf@@YAIABVHeader@1@@Z 100f3b20 f   ImfTiledMisc.obj
 0002:00094cb0       ?floorLog2@?A0x2fdeef6b@Imf@@YAHH@Z 100f3cb0 f   ImfTiledMisc.obj
 0002:00094d10       ?ceilLog2@?A0x2fdeef6b@Imf@@YAHH@Z 100f3d10 f   ImfTiledMisc.obj
 0002:00094d90       ?roundLog2@?A0x2fdeef6b@Imf@@YAHHW4LevelRoundingMode@2@@Z 100f3d90 f   ImfTiledMisc.obj
 0002:00094e10       ?calculateNumXLevels@?A0x2fdeef6b@Imf@@YAHABVTileDescription@2@HHHH@Z 100f3e10 f   ImfTiledMisc.obj
 0002:00094f90       ?calculateNumYLevels@?A0x2fdeef6b@Imf@@YAHABVTileDescription@2@HHHH@Z 100f3f90 f   ImfTiledMisc.obj
 0002:00095110       ?calculateNumTiles@?A0x2fdeef6b@Imf@@YAXPAHHHHHW4LevelRoundingMode@2@@Z 100f4110 f   ImfTiledMisc.obj
 0002:000951b0       ?precalculateTileInfo@Imf@@YAXABVTileDescription@1@HHHHAAPAH1AAH2@Z 100f41b0 f   ImfTiledMisc.obj
 0002:00095320       ??A?$Vec2@H@Imath@@QAEAAHH@Z 100f4320 f i ImfTiledMisc.obj
 0002:00095370       ??H?$Vec2@H@Imath@@QBE?AV01@ABV01@@Z 100f4370 f i ImfTiledMisc.obj
 0002:000953f0       ??0TOutSliceInfo@?A0xc559f438@Imf@@QAE@W4PixelType@2@PBDII_NHH@Z 100f43f0 f   ImfTiledOutputFile.obj
 0002:00095480       ??0TileBuffer@?A0xc559f438@Imf@@QAE@PAVCompressor@2@@Z 100f4480 f   ImfTiledOutputFile.obj
 0002:000955b0       ??0TileCoord@?A0xc559f438@Imf@@QAE@HHHH@Z 100f45b0 f i ImfTiledOutputFile.obj
 0002:00095620       ??1TileBuffer@?A0xc559f438@Imf@@QAE@XZ 100f4620 f   ImfTiledOutputFile.obj
 0002:00095750       ??0Data@TiledOutputFile@Imf@@QAE@_NH@Z 100f4750 f   ImfTiledOutputFile.obj
 0002:000959a0       ??_GData@TiledOutputFile@Imf@@UAEPAXI@Z 100f49a0 f i ImfTiledOutputFile.obj
 0002:000959a0       ??_EData@TiledOutputFile@Imf@@UAEPAXI@Z 100f49a0 f i ImfTiledOutputFile.obj
 0002:00095a10       ??1?$map@UTileCoord@?A0xc559f438@Imf@@PAUBufferedTile@23@U?$less@UTileCoord@?A0xc559f438@Imf@@@std@@V?$allocator@U?$pair@$$CBUTileCoord@?A0xc559f438@Imf@@PAUBufferedTile@23@@std@@@6@@std@@QAE@XZ 100f4a10 f i ImfTiledOutputFile.obj
 0002:00095a60       ??1Data@TiledOutputFile@Imf@@UAE@XZ 100f4a60 f   ImfTiledOutputFile.obj
 0002:00095e10       ??1iterator@?$_Tree@V?$_Tmap_traits@UTileCoord@?A0xc559f438@Imf@@PAUBufferedTile@23@U?$less@UTileCoord@?A0xc559f438@Imf@@@std@@V?$allocator@U?$pair@$$CBUTileCoord@?A0xc559f438@Imf@@PAUBufferedTile@23@@std@@@6@$0A@@std@@@std@@QAE@XZ 100f4e10 f i ImfTiledOutputFile.obj
 0002:00095e60       ??_GBufferedTile@?A0xc559f438@Imf@@QAEPAXI@Z 100f4e60 f i ImfTiledOutputFile.obj
 0002:00095ed0       ??1BufferedTile@?A0xc559f438@Imf@@QAE@XZ 100f4ed0 f i ImfTiledOutputFile.obj
 0002:00095f40       ??_GTileBuffer@?A0xc559f438@Imf@@QAEPAXI@Z 100f4f40 f i ImfTiledOutputFile.obj
 0002:00095fb0       ??1const_iterator@?$_Tree@V?$_Tmap_traits@UTileCoord@?A0xc559f438@Imf@@PAUBufferedTile@23@U?$less@UTileCoord@?A0xc559f438@Imf@@@std@@V?$allocator@U?$pair@$$CBUTileCoord@?A0xc559f438@Imf@@PAUBufferedTile@23@@std@@@6@$0A@@std@@@std@@QAE@XZ 100f4fb0 f i ImfTiledOutputFile.obj
 0002:00096000       ??1?$_Bidit@U?$pair@$$CBUTileCoord@?A0xc559f438@Imf@@PAUBufferedTile@23@@std@@HPBU12@ABU12@@std@@QAE@XZ 100f5000 f i ImfTiledOutputFile.obj
 0002:00096050       ?nextTileCoord@Data@TiledOutputFile@Imf@@QAE?AUTileCoord@?A0xc559f438@3@ABU453@@Z 100f5050 f   ImfTiledOutputFile.obj
 0002:000962f0       ?writeTileData@?A0xc559f438@Imf@@YAXPAUData@TiledOutputFile@2@HHHHQBDH@Z 100f52f0 f   ImfTiledOutputFile.obj
 0002:000964d0       ?bufferedTileWrite@?A0xc559f438@Imf@@YAXPAUData@TiledOutputFile@2@HHHHQBDH@Z 100f54d0 f   ImfTiledOutputFile.obj
 0002:00096e10       ??8TileCoord@?A0xc559f438@Imf@@QBE_NABU012@@Z 100f5e10 f i ImfTiledOutputFile.obj
 0002:00096eb0       ??0BufferedTile@?A0xc559f438@Imf@@QAE@PBDH@Z 100f5eb0 f i ImfTiledOutputFile.obj
 0002:00096f60       ??0iterator@?$_Tree@V?$_Tmap_traits@UTileCoord@?A0xc559f438@Imf@@PAUBufferedTile@23@U?$less@UTileCoord@?A0xc559f438@Imf@@@std@@V?$allocator@U?$pair@$$CBUTileCoord@?A0xc559f438@Imf@@PAUBufferedTile@23@@std@@@6@$0A@@std@@@std@@QAE@ABV012@@Z 100f5f60 f i ImfTiledOutputFile.obj
 0002:00096fc0       ??4iterator@?$_Tree@V?$_Tmap_traits@UTileCoord@?A0xc559f438@Imf@@PAUBufferedTile@23@U?$less@UTileCoord@?A0xc559f438@Imf@@@std@@V?$allocator@U?$pair@$$CBUTileCoord@?A0xc559f438@Imf@@PAUBufferedTile@23@@std@@@6@$0A@@std@@@std@@QAEAAV012@ABV012@@Z 100f5fc0 f i ImfTiledOutputFile.obj
 0002:00097020       ??0const_iterator@?$_Tree@V?$_Tmap_traits@UTileCoord@?A0xc559f438@Imf@@PAUBufferedTile@23@U?$less@UTileCoord@?A0xc559f438@Imf@@@std@@V?$allocator@U?$pair@$$CBUTileCoord@?A0xc559f438@Imf@@PAUBufferedTile@23@@std@@@6@$0A@@std@@@std@@QAE@ABV012@@Z 100f6020 f i ImfTiledOutputFile.obj
 0002:00097090       ??4const_iterator@?$_Tree@V?$_Tmap_traits@UTileCoord@?A0xc559f438@Imf@@PAUBufferedTile@23@U?$less@UTileCoord@?A0xc559f438@Imf@@@std@@V?$allocator@U?$pair@$$CBUTileCoord@?A0xc559f438@Imf@@PAUBufferedTile@23@@std@@@6@$0A@@std@@@std@@QAEAAV012@ABV012@@Z 100f6090 f i ImfTiledOutputFile.obj
 0002:00097100       ??0?$_Bidit@U?$pair@$$CBUTileCoord@?A0xc559f438@Imf@@PAUBufferedTile@23@@std@@HPBU12@ABU12@@std@@QAE@ABU01@@Z 100f6100 f i ImfTiledOutputFile.obj
 0002:00097160       ??4?$_Bidit@U?$pair@$$CBUTileCoord@?A0xc559f438@Imf@@PAUBufferedTile@23@@std@@HPBU12@ABU12@@std@@QAEAAU01@ABU01@@Z 100f6160 f i ImfTiledOutputFile.obj
 0002:000971c0       ?convertToXdr@?A0xc559f438@Imf@@YAXPAUData@TiledOutputFile@2@AAV?$Array@D@2@HH@Z 100f61c0 f   ImfTiledOutputFile.obj
 0002:00097300       ??0TileBufferTask@?A0xc559f438@Imf@@QAE@PAVTaskGroup@IlmThread@@PAUData@TiledOutputFile@2@HHHHH@Z 100f6300 f   ImfTiledOutputFile.obj
 0002:00097430       ?wait@TileBuffer@?A0xc559f438@Imf@@QAEXXZ 100f6430 f i ImfTiledOutputFile.obj
 0002:00097490       ?getTileBuffer@Data@TiledOutputFile@Imf@@QAEPAUTileBuffer@?A0xc559f438@3@H@Z 100f6490 f i ImfTiledOutputFile.obj
 0002:00097510       ??_ETileBufferTask@?A0xc559f438@Imf@@UAEPAXI@Z 100f6510 f i ImfTiledOutputFile.obj
 0002:00097510       ??_GTileBufferTask@?A0xc559f438@Imf@@UAEPAXI@Z 100f6510 f i ImfTiledOutputFile.obj
 0002:00097580       ??1TileBufferTask@?A0xc559f438@Imf@@UAE@XZ 100f6580 f   ImfTiledOutputFile.obj
 0002:00097630       ?post@TileBuffer@?A0xc559f438@Imf@@QAEXXZ 100f6630 f i ImfTiledOutputFile.obj
 0002:00097690       ?execute@TileBufferTask@?A0xc559f438@Imf@@UAEXXZ 100f6690 f   ImfTiledOutputFile.obj
 0002:00097c30       ??0TiledOutputFile@Imf@@QAE@QBDABVHeader@1@H@Z 100f6c30 f   ImfTiledOutputFile.obj
 0002:00097fd0       ??_GTiledOutputFile@Imf@@UAEPAXI@Z 100f6fd0 f i ImfTiledOutputFile.obj
 0002:00097fd0       ??_ETiledOutputFile@Imf@@UAEPAXI@Z 100f6fd0 f i ImfTiledOutputFile.obj
 0002:00098040       ??0TiledOutputFile@Imf@@QAE@AAVOStream@1@ABVHeader@1@H@Z 100f7040 f   ImfTiledOutputFile.obj
 0002:00098360       ?initialize@TiledOutputFile@Imf@@AAEXABVHeader@2@@Z 100f7360 f   ImfTiledOutputFile.obj
 0002:00098920       ??1TiledOutputFile@Imf@@UAE@XZ 100f7920 f   ImfTiledOutputFile.obj
 0002:00098ae0       ?fileName@TiledOutputFile@Imf@@QBEPBDXZ 100f7ae0 f   ImfTiledOutputFile.obj
 0002:00098b40       ?header@TiledOutputFile@Imf@@QBEABVHeader@2@XZ 100f7b40 f   ImfTiledOutputFile.obj
 0002:00098b80       ?setFrameBuffer@TiledOutputFile@Imf@@QAEXABVFrameBuffer@2@@Z 100f7b80 f   ImfTiledOutputFile.obj
 0002:00099310       ?frameBuffer@TiledOutputFile@Imf@@QBEABVFrameBuffer@2@XZ 100f8310 f   ImfTiledOutputFile.obj
 0002:000993d0       ?writeTiles@TiledOutputFile@Imf@@QAEXHHHHHH@Z 100f83d0 f   ImfTiledOutputFile.obj
 0002:00099ce0       ?writeTiles@TiledOutputFile@Imf@@QAEXHHHHH@Z 100f8ce0 f   ImfTiledOutputFile.obj
 0002:00099d50       ?writeTile@TiledOutputFile@Imf@@QAEXHHHH@Z 100f8d50 f   ImfTiledOutputFile.obj
 0002:00099dc0       ?writeTile@TiledOutputFile@Imf@@QAEXHHH@Z 100f8dc0 f   ImfTiledOutputFile.obj
 0002:00099e30       ?copyPixels@TiledOutputFile@Imf@@QAEXAAVTiledInputFile@2@@Z 100f8e30 f   ImfTiledOutputFile.obj
 0002:0009ab90       ??8TileDescription@Imf@@QBE_NABV01@@Z 100f9b90 f i ImfTiledOutputFile.obj
 0002:0009ac30       ?copyPixels@TiledOutputFile@Imf@@QAEXAAVInputFile@2@@Z 100f9c30 f   ImfTiledOutputFile.obj
 0002:0009ac90       ?tileXSize@TiledOutputFile@Imf@@QBEIXZ 100f9c90 f   ImfTiledOutputFile.obj
 0002:0009acd0       ?tileYSize@TiledOutputFile@Imf@@QBEIXZ 100f9cd0 f   ImfTiledOutputFile.obj
 0002:0009ad10       ?levelMode@TiledOutputFile@Imf@@QBE?AW4LevelMode@2@XZ 100f9d10 f   ImfTiledOutputFile.obj
 0002:0009ad50       ?levelRoundingMode@TiledOutputFile@Imf@@QBE?AW4LevelRoundingMode@2@XZ 100f9d50 f   ImfTiledOutputFile.obj
 0002:0009ad90       ?numLevels@TiledOutputFile@Imf@@QBEHXZ 100f9d90 f   ImfTiledOutputFile.obj
 0002:0009af50       ?numXLevels@TiledOutputFile@Imf@@QBEHXZ 100f9f50 f   ImfTiledOutputFile.obj
 0002:0009afa0       ?numYLevels@TiledOutputFile@Imf@@QBEHXZ 100f9fa0 f   ImfTiledOutputFile.obj
 0002:0009aff0       ?isValidLevel@TiledOutputFile@Imf@@QBE_NHH@Z 100f9ff0 f   ImfTiledOutputFile.obj
 0002:0009b0a0       ?levelWidth@TiledOutputFile@Imf@@QBEHH@Z 100fa0a0 f   ImfTiledOutputFile.obj
 0002:0009b2f0       ?levelHeight@TiledOutputFile@Imf@@QBEHH@Z 100fa2f0 f   ImfTiledOutputFile.obj
 0002:0009b540       ?numXTiles@TiledOutputFile@Imf@@QBEHH@Z 100fa540 f   ImfTiledOutputFile.obj
 0002:0009b720       ?numYTiles@TiledOutputFile@Imf@@QBEHH@Z 100fa720 f   ImfTiledOutputFile.obj
 0002:0009b900       ?dataWindowForLevel@TiledOutputFile@Imf@@QBE?AV?$Box@V?$Vec2@H@Imath@@@Imath@@H@Z 100fa900 f   ImfTiledOutputFile.obj
 0002:0009b970       ?dataWindowForLevel@TiledOutputFile@Imf@@QBE?AV?$Box@V?$Vec2@H@Imath@@@Imath@@HH@Z 100fa970 f   ImfTiledOutputFile.obj
 0002:0009bbe0       ?dataWindowForTile@TiledOutputFile@Imf@@QBE?AV?$Box@V?$Vec2@H@Imath@@@Imath@@HHH@Z 100fabe0 f   ImfTiledOutputFile.obj
 0002:0009bc50       ?dataWindowForTile@TiledOutputFile@Imf@@QBE?AV?$Box@V?$Vec2@H@Imath@@@Imath@@HHHH@Z 100fac50 f   ImfTiledOutputFile.obj
 0002:0009bf20       ?isValidTile@TiledOutputFile@Imf@@ABE_NHHHH@Z 100faf20 f   ImfTiledOutputFile.obj
 0002:0009c000       ?updatePreviewImage@TiledOutputFile@Imf@@QAEXQBUPreviewRgba@2@@Z 100fb000 f   ImfTiledOutputFile.obj
 0002:0009c550       ?breakTile@TiledOutputFile@Imf@@QAEXHHHHHHD@Z 100fb550 f   ImfTiledOutputFile.obj
 0002:0009c900       ??0?$vector@UTOutSliceInfo@?A0xc559f438@Imf@@V?$allocator@UTOutSliceInfo@?A0xc559f438@Imf@@@std@@@std@@QAE@XZ 100fb900 f i ImfTiledOutputFile.obj
 0002:0009c9c0       ??1?$vector@UTOutSliceInfo@?A0xc559f438@Imf@@V?$allocator@UTOutSliceInfo@?A0xc559f438@Imf@@@std@@@std@@QAE@XZ 100fb9c0 f i ImfTiledOutputFile.obj
 0002:0009ca60       ??4?$vector@UTOutSliceInfo@?A0xc559f438@Imf@@V?$allocator@UTOutSliceInfo@?A0xc559f438@Imf@@@std@@@std@@QAEAAV01@ABV01@@Z 100fba60 f i ImfTiledOutputFile.obj
 0002:0009cca0       ?size@?$vector@UTOutSliceInfo@?A0xc559f438@Imf@@V?$allocator@UTOutSliceInfo@?A0xc559f438@Imf@@@std@@@std@@QBEIXZ 100fbca0 f i ImfTiledOutputFile.obj
 0002:0009cd20       ??A?$vector@UTOutSliceInfo@?A0xc559f438@Imf@@V?$allocator@UTOutSliceInfo@?A0xc559f438@Imf@@@std@@@std@@QAEAAUTOutSliceInfo@?A0xc559f438@Imf@@I@Z 100fbd20 f i ImfTiledOutputFile.obj
 0002:0009cea0       ?push_back@?$vector@UTOutSliceInfo@?A0xc559f438@Imf@@V?$allocator@UTOutSliceInfo@?A0xc559f438@Imf@@@std@@@std@@QAEXABUTOutSliceInfo@?A0xc559f438@Imf@@@Z 100fbea0 f i ImfTiledOutputFile.obj
 0002:0009cf90       ??0?$vector@PAUTileBuffer@?A0xc559f438@Imf@@V?$allocator@PAUTileBuffer@?A0xc559f438@Imf@@@std@@@std@@QAE@XZ 100fbf90 f i ImfTiledOutputFile.obj
 0002:0009d050       ??1?$vector@PAUTileBuffer@?A0xc559f438@Imf@@V?$allocator@PAUTileBuffer@?A0xc559f438@Imf@@@std@@@std@@QAE@XZ 100fc050 f i ImfTiledOutputFile.obj
 0002:0009d0f0       ?resize@?$vector@PAUTileBuffer@?A0xc559f438@Imf@@V?$allocator@PAUTileBuffer@?A0xc559f438@Imf@@@std@@@std@@QAEXI@Z 100fc0f0 f i ImfTiledOutputFile.obj
 0002:0009d150       ?size@?$vector@PAUTileBuffer@?A0xc559f438@Imf@@V?$allocator@PAUTileBuffer@?A0xc559f438@Imf@@@std@@@std@@QBEIXZ 100fc150 f i ImfTiledOutputFile.obj
 0002:0009d1c0       ??A?$vector@PAUTileBuffer@?A0xc559f438@Imf@@V?$allocator@PAUTileBuffer@?A0xc559f438@Imf@@@std@@@std@@QAEAAPAUTileBuffer@?A0xc559f438@Imf@@I@Z 100fc1c0 f i ImfTiledOutputFile.obj
 0002:0009d340       ??0?$map@UTileCoord@?A0xc559f438@Imf@@PAUBufferedTile@23@U?$less@UTileCoord@?A0xc559f438@Imf@@@std@@V?$allocator@U?$pair@$$CBUTileCoord@?A0xc559f438@Imf@@PAUBufferedTile@23@@std@@@6@@std@@QAE@XZ 100fc340 f i ImfTiledOutputFile.obj
 0002:0009d3b0       ??A?$map@UTileCoord@?A0xc559f438@Imf@@PAUBufferedTile@23@U?$less@UTileCoord@?A0xc559f438@Imf@@@std@@V?$allocator@U?$pair@$$CBUTileCoord@?A0xc559f438@Imf@@PAUBufferedTile@23@@std@@@6@@std@@QAEAAPAUBufferedTile@?A0xc559f438@Imf@@ABUTileCoord@34@@Z 100fc3b0 f i ImfTiledOutputFile.obj
 0002:0009d650       ??1?$_Tree@V?$_Tmap_traits@UTileCoord@?A0xc559f438@Imf@@PAUBufferedTile@23@U?$less@UTileCoord@?A0xc559f438@Imf@@@std@@V?$allocator@U?$pair@$$CBUTileCoord@?A0xc559f438@Imf@@PAUBufferedTile@23@@std@@@6@$0A@@std@@@std@@QAE@XZ 100fc650 f i ImfTiledOutputFile.obj
 0002:0009d6f0       ?begin@?$_Tree@V?$_Tmap_traits@UTileCoord@?A0xc559f438@Imf@@PAUBufferedTile@23@U?$less@UTileCoord@?A0xc559f438@Imf@@@std@@V?$allocator@U?$pair@$$CBUTileCoord@?A0xc559f438@Imf@@PAUBufferedTile@23@@std@@@6@$0A@@std@@@std@@QAE?AViterator@12@XZ 100fc6f0 f i ImfTiledOutputFile.obj
 0002:0009d780       ?end@?$_Tree@V?$_Tmap_traits@UTileCoord@?A0xc559f438@Imf@@PAUBufferedTile@23@U?$less@UTileCoord@?A0xc559f438@Imf@@@std@@V?$allocator@U?$pair@$$CBUTileCoord@?A0xc559f438@Imf@@PAUBufferedTile@23@@std@@@6@$0A@@std@@@std@@QAE?AViterator@12@XZ 100fc780 f i ImfTiledOutputFile.obj
 0002:0009d810       ?erase@?$_Tree@V?$_Tmap_traits@UTileCoord@?A0xc559f438@Imf@@PAUBufferedTile@23@U?$less@UTileCoord@?A0xc559f438@Imf@@@std@@V?$allocator@U?$pair@$$CBUTileCoord@?A0xc559f438@Imf@@PAUBufferedTile@23@@std@@@6@$0A@@std@@@std@@QAE?AViterator@12@V312@@Z 100fc810 f i ImfTiledOutputFile.obj
 0002:0009e250       ?find@?$_Tree@V?$_Tmap_traits@UTileCoord@?A0xc559f438@Imf@@PAUBufferedTile@23@U?$less@UTileCoord@?A0xc559f438@Imf@@@std@@V?$allocator@U?$pair@$$CBUTileCoord@?A0xc559f438@Imf@@PAUBufferedTile@23@@std@@@6@$0A@@std@@@std@@QAE?AViterator@12@ABUTileCoord@?A0xc559f438@Imf@@@Z 100fd250 f i ImfTiledOutputFile.obj
 0002:0009e4d0       ??Citerator@?$_Tree@V?$_Tmap_traits@UTileCoord@?A0xc559f438@Imf@@PAUBufferedTile@23@U?$less@UTileCoord@?A0xc559f438@Imf@@@std@@V?$allocator@U?$pair@$$CBUTileCoord@?A0xc559f438@Imf@@PAUBufferedTile@23@@std@@@6@$0A@@std@@@std@@QBEPAU?$pair@$$CBUTileCoord@?A0xc559f438@Imf@@PAUBufferedTile@23@@2@XZ 100fd4d0 f i ImfTiledOutputFile.obj
 0002:0009e520       ??Eiterator@?$_Tree@V?$_Tmap_traits@UTileCoord@?A0xc559f438@Imf@@PAUBufferedTile@23@U?$less@UTileCoord@?A0xc559f438@Imf@@@std@@V?$allocator@U?$pair@$$CBUTileCoord@?A0xc559f438@Imf@@PAUBufferedTile@23@@std@@@6@$0A@@std@@@std@@QAEAAV012@XZ 100fd520 f i ImfTiledOutputFile.obj
 0002:0009e580       ??9const_iterator@?$_Tree@V?$_Tmap_traits@UTileCoord@?A0xc559f438@Imf@@PAUBufferedTile@23@U?$less@UTileCoord@?A0xc559f438@Imf@@@std@@V?$allocator@U?$pair@$$CBUTileCoord@?A0xc559f438@Imf@@PAUBufferedTile@23@@std@@@6@$0A@@std@@@std@@QBE_NABV012@@Z 100fd580 f i ImfTiledOutputFile.obj
 0002:0009e5f0       ??1?$_Vector_val@UTOutSliceInfo@?A0xc559f438@Imf@@V?$allocator@UTOutSliceInfo@?A0xc559f438@Imf@@@std@@@std@@QAE@XZ 100fd5f0 f i ImfTiledOutputFile.obj
 0002:0009e650       ??1?$_Vector_iterator@UTOutSliceInfo@?A0xc559f438@Imf@@V?$allocator@UTOutSliceInfo@?A0xc559f438@Imf@@@std@@@std@@QAE@XZ 100fd650 f i ImfTiledOutputFile.obj
 0002:0009e6a0       ??1?$_Vector_val@PAUTileBuffer@?A0xc559f438@Imf@@V?$allocator@PAUTileBuffer@?A0xc559f438@Imf@@@std@@@std@@QAE@XZ 100fd6a0 f i ImfTiledOutputFile.obj
 0002:0009e700       ??1?$_Tree_val@V?$_Tmap_traits@UTileCoord@?A0xc559f438@Imf@@PAUBufferedTile@23@U?$less@UTileCoord@?A0xc559f438@Imf@@@std@@V?$allocator@U?$pair@$$CBUTileCoord@?A0xc559f438@Imf@@PAUBufferedTile@23@@std@@@6@$0A@@std@@@std@@QAE@XZ 100fd700 f i ImfTiledOutputFile.obj
 0002:0009e750       ??1?$_Vector_const_iterator@UTOutSliceInfo@?A0xc559f438@Imf@@V?$allocator@UTOutSliceInfo@?A0xc559f438@Imf@@@std@@@std@@QAE@XZ 100fd750 f i ImfTiledOutputFile.obj
 0002:0009e7a0       ??1?$_Tree_ptr@V?$_Tmap_traits@UTileCoord@?A0xc559f438@Imf@@PAUBufferedTile@23@U?$less@UTileCoord@?A0xc559f438@Imf@@@std@@V?$allocator@U?$pair@$$CBUTileCoord@?A0xc559f438@Imf@@PAUBufferedTile@23@@std@@@6@$0A@@std@@@std@@QAE@XZ 100fd7a0 f i ImfTiledOutputFile.obj
 0002:0009e7f0       ??1?$_Ranit@UTOutSliceInfo@?A0xc559f438@Imf@@HPBU123@ABU123@@std@@QAE@XZ 100fd7f0 f i ImfTiledOutputFile.obj
 0002:0009e840       ??1?$_Tree_nod@V?$_Tmap_traits@UTileCoord@?A0xc559f438@Imf@@PAUBufferedTile@23@U?$less@UTileCoord@?A0xc559f438@Imf@@@std@@V?$allocator@U?$pair@$$CBUTileCoord@?A0xc559f438@Imf@@PAUBufferedTile@23@@std@@@6@$0A@@std@@@std@@QAE@XZ 100fd840 f i ImfTiledOutputFile.obj
 0002:0009e890       ??1?$_Tmap_traits@UTileCoord@?A0xc559f438@Imf@@PAUBufferedTile@23@U?$less@UTileCoord@?A0xc559f438@Imf@@@std@@V?$allocator@U?$pair@$$CBUTileCoord@?A0xc559f438@Imf@@PAUBufferedTile@23@@std@@@6@$0A@@std@@QAE@XZ 100fd890 f i ImfTiledOutputFile.obj
 0002:0009e8f0       ?capacity@?$vector@UTOutSliceInfo@?A0xc559f438@Imf@@V?$allocator@UTOutSliceInfo@?A0xc559f438@Imf@@@std@@@std@@QBEIXZ 100fd8f0 f i ImfTiledOutputFile.obj
 0002:0009e970       ?end@?$vector@UTOutSliceInfo@?A0xc559f438@Imf@@V?$allocator@UTOutSliceInfo@?A0xc559f438@Imf@@@std@@@std@@QAE?AV?$_Vector_iterator@UTOutSliceInfo@?A0xc559f438@Imf@@V?$allocator@UTOutSliceInfo@?A0xc559f438@Imf@@@std@@@2@XZ 100fd970 f i ImfTiledOutputFile.obj
 0002:0009ea00       ?insert@?$vector@UTOutSliceInfo@?A0xc559f438@Imf@@V?$allocator@UTOutSliceInfo@?A0xc559f438@Imf@@@std@@@std@@QAE?AV?$_Vector_iterator@UTOutSliceInfo@?A0xc559f438@Imf@@V?$allocator@UTOutSliceInfo@?A0xc559f438@Imf@@@std@@@2@V32@ABUTOutSliceInfo@?A0xc559f438@Imf@@@Z 100fda00 f i ImfTiledOutputFile.obj
 0002:0009ec00       ?clear@?$vector@UTOutSliceInfo@?A0xc559f438@Imf@@V?$allocator@UTOutSliceInfo@?A0xc559f438@Imf@@@std@@@std@@QAEXXZ 100fdc00 f i ImfTiledOutputFile.obj
 0002:0009ed10       ?_Buy@?$vector@UTOutSliceInfo@?A0xc559f438@Imf@@V?$allocator@UTOutSliceInfo@?A0xc559f438@Imf@@@std@@@std@@IAE_NI@Z 100fdd10 f i ImfTiledOutputFile.obj
 0002:0009edf0       ?_Destroy@?$vector@UTOutSliceInfo@?A0xc559f438@Imf@@V?$allocator@UTOutSliceInfo@?A0xc559f438@Imf@@@std@@@std@@IAEXPAUTOutSliceInfo@?A0xc559f438@Imf@@0@Z 100fddf0 f i ImfTiledOutputFile.obj
 0002:0009ee60       ?_Tidy@?$vector@UTOutSliceInfo@?A0xc559f438@Imf@@V?$allocator@UTOutSliceInfo@?A0xc559f438@Imf@@@std@@@std@@IAEXXZ 100fde60 f i ImfTiledOutputFile.obj
 0002:0009ef40       ?_Ufill@?$vector@UTOutSliceInfo@?A0xc559f438@Imf@@V?$allocator@UTOutSliceInfo@?A0xc559f438@Imf@@@std@@@std@@IAEPAUTOutSliceInfo@?A0xc559f438@Imf@@PAU345@IABU345@@Z 100fdf40 f i ImfTiledOutputFile.obj
 0002:0009efc0       ?_Orphan_range@?$vector@UTOutSliceInfo@?A0xc559f438@Imf@@V?$allocator@UTOutSliceInfo@?A0xc559f438@Imf@@@std@@@std@@IBEXPAUTOutSliceInfo@?A0xc559f438@Imf@@0@Z 100fdfc0 f i ImfTiledOutputFile.obj
 0002:0009f0d0       ??0?$_Vector_val@UTOutSliceInfo@?A0xc559f438@Imf@@V?$allocator@UTOutSliceInfo@?A0xc559f438@Imf@@@std@@@std@@IAE@V?$allocator@UTOutSliceInfo@?A0xc559f438@Imf@@@1@@Z 100fe0d0 f i ImfTiledOutputFile.obj
 0002:0009f150       ??0?$allocator@UTOutSliceInfo@?A0xc559f438@Imf@@@std@@QAE@XZ 100fe150 f i ImfTiledOutputFile.obj
 0002:0009f190       ?deallocate@?$allocator@UTOutSliceInfo@?A0xc559f438@Imf@@@std@@QAEXPAUTOutSliceInfo@?A0xc559f438@Imf@@I@Z 100fe190 f i ImfTiledOutputFile.obj
 0002:0009f1f0       ?resize@?$vector@PAUTileBuffer@?A0xc559f438@Imf@@V?$allocator@PAUTileBuffer@?A0xc559f438@Imf@@@std@@@std@@QAEXIPAUTileBuffer@?A0xc559f438@Imf@@@Z 100fe1f0 f i ImfTiledOutputFile.obj
 0002:0009f3b0       ?_Buy@?$vector@PAUTileBuffer@?A0xc559f438@Imf@@V?$allocator@PAUTileBuffer@?A0xc559f438@Imf@@@std@@@std@@IAE_NI@Z 100fe3b0 f i ImfTiledOutputFile.obj
 0002:0009f490       ?_Tidy@?$vector@PAUTileBuffer@?A0xc559f438@Imf@@V?$allocator@PAUTileBuffer@?A0xc559f438@Imf@@@std@@@std@@IAEXXZ 100fe490 f i ImfTiledOutputFile.obj
 0002:0009f570       ??0?$_Vector_val@PAUTileBuffer@?A0xc559f438@Imf@@V?$allocator@PAUTileBuffer@?A0xc559f438@Imf@@@std@@@std@@IAE@V?$allocator@PAUTileBuffer@?A0xc559f438@Imf@@@1@@Z 100fe570 f i ImfTiledOutputFile.obj
 0002:0009f5f0       ??0?$allocator@PAUTileBuffer@?A0xc559f438@Imf@@@std@@QAE@XZ 100fe5f0 f i ImfTiledOutputFile.obj
 0002:0009f630       ?_Color@?$_Tree@V?$_Tmap_traits@UTileCoord@?A0xc559f438@Imf@@PAUBufferedTile@23@U?$less@UTileCoord@?A0xc559f438@Imf@@@std@@V?$allocator@U?$pair@$$CBUTileCoord@?A0xc559f438@Imf@@PAUBufferedTile@23@@std@@@6@$0A@@std@@@std@@KAAADPAU_Node@?$_Tree_nod@V?$_Tmap_traits@UTileCoord@?A0xc559f438@Imf@@PAUBufferedTile@23@U?$less@UTileCoord@?A0xc559f438@Imf@@@std@@V?$allocator@U?$pair@$$CBUTileCoord@?A0xc559f438@Imf@@PAUBufferedTile@23@@std@@@6@$0A@@std@@@2@@Z 100fe630 f i ImfTiledOutputFile.obj
 0002:0009f670       ?_Isnil@?$_Tree@V?$_Tmap_traits@UTileCoord@?A0xc559f438@Imf@@PAUBufferedTile@23@U?$less@UTileCoord@?A0xc559f438@Imf@@@std@@V?$allocator@U?$pair@$$CBUTileCoord@?A0xc559f438@Imf@@PAUBufferedTile@23@@std@@@6@$0A@@std@@@std@@KAAADPAU_Node@?$_Tree_nod@V?$_Tmap_traits@UTileCoord@?A0xc559f438@Imf@@PAUBufferedTile@23@U?$less@UTileCoord@?A0xc559f438@Imf@@@std@@V?$allocator@U?$pair@$$CBUTileCoord@?A0xc559f438@Imf@@PAUBufferedTile@23@@std@@@6@$0A@@std@@@2@@Z 100fe670 f i ImfTiledOutputFile.obj
 0002:0009f6b0       ?_Key@?$_Tree@V?$_Tmap_traits@UTileCoord@?A0xc559f438@Imf@@PAUBufferedTile@23@U?$less@UTileCoord@?A0xc559f438@Imf@@@std@@V?$allocator@U?$pair@$$CBUTileCoord@?A0xc559f438@Imf@@PAUBufferedTile@23@@std@@@6@$0A@@std@@@std@@KAABUTileCoord@?A0xc559f438@Imf@@PAU_Node@?$_Tree_nod@V?$_Tmap_traits@UTileCoord@?A0xc559f438@Imf@@PAUBufferedTile@23@U?$less@UTileCoord@?A0xc559f438@Imf@@@std@@V?$allocator@U?$pair@$$CBUTileCoord@?A0xc559f438@Imf@@PAUBufferedTile@23@@std@@@6@$0A@@std@@@2@@Z 100fe6b0 f i ImfTiledOutputFile.obj
 0002:0009f710       ?_Left@?$_Tree@V?$_Tmap_traits@UTileCoord@?A0xc559f438@Imf@@PAUBufferedTile@23@U?$less@UTileCoord@?A0xc559f438@Imf@@@std@@V?$allocator@U?$pair@$$CBUTileCoord@?A0xc559f438@Imf@@PAUBufferedTile@23@@std@@@6@$0A@@std@@@std@@KAAAPAU_Node@?$_Tree_nod@V?$_Tmap_traits@UTileCoord@?A0xc559f438@Imf@@PAUBufferedTile@23@U?$less@UTileCoord@?A0xc559f438@Imf@@@std@@V?$allocator@U?$pair@$$CBUTileCoord@?A0xc559f438@Imf@@PAUBufferedTile@23@@std@@@6@$0A@@std@@@2@PAU342@@Z 100fe710 f i ImfTiledOutputFile.obj
 0002:0009f750       ?_Parent@?$_Tree@V?$_Tmap_traits@UTileCoord@?A0xc559f438@Imf@@PAUBufferedTile@23@U?$less@UTileCoord@?A0xc559f438@Imf@@@std@@V?$allocator@U?$pair@$$CBUTileCoord@?A0xc559f438@Imf@@PAUBufferedTile@23@@std@@@6@$0A@@std@@@std@@KAAAPAU_Node@?$_Tree_nod@V?$_Tmap_traits@UTileCoord@?A0xc559f438@Imf@@PAUBufferedTile@23@U?$less@UTileCoord@?A0xc559f438@Imf@@@std@@V?$allocator@U?$pair@$$CBUTileCoord@?A0xc559f438@Imf@@PAUBufferedTile@23@@std@@@6@$0A@@std@@@2@PAU342@@Z 100fe750 f i ImfTiledOutputFile.obj
 0002:0009f790       ?_Right@?$_Tree@V?$_Tmap_traits@UTileCoord@?A0xc559f438@Imf@@PAUBufferedTile@23@U?$less@UTileCoord@?A0xc559f438@Imf@@@std@@V?$allocator@U?$pair@$$CBUTileCoord@?A0xc559f438@Imf@@PAUBufferedTile@23@@std@@@6@$0A@@std@@@std@@KAAAPAU_Node@?$_Tree_nod@V?$_Tmap_traits@UTileCoord@?A0xc559f438@Imf@@PAUBufferedTile@23@U?$less@UTileCoord@?A0xc559f438@Imf@@@std@@V?$allocator@U?$pair@$$CBUTileCoord@?A0xc559f438@Imf@@PAUBufferedTile@23@@std@@@6@$0A@@std@@@2@PAU342@@Z 100fe790 f i ImfTiledOutputFile.obj
 0002:0009f7d0       ??0?$_Tree@V?$_Tmap_traits@UTileCoord@?A0xc559f438@Imf@@PAUBufferedTile@23@U?$less@UTileCoord@?A0xc559f438@Imf@@@std@@V?$allocator@U?$pair@$$CBUTileCoord@?A0xc559f438@Imf@@PAUBufferedTile@23@@std@@@6@$0A@@std@@@std@@QAE@ABU?$less@UTileCoord@?A0xc559f438@Imf@@@1@ABV?$allocator@U?$pair@$$CBUTileCoord@?A0xc559f438@Imf@@PAUBufferedTile@23@@std@@@1@@Z 100fe7d0 f i ImfTiledOutputFile.obj
 0002:0009f890       ?insert@?$_Tree@V?$_Tmap_traits@UTileCoord@?A0xc559f438@Imf@@PAUBufferedTile@23@U?$less@UTileCoord@?A0xc559f438@Imf@@@std@@V?$allocator@U?$pair@$$CBUTileCoord@?A0xc559f438@Imf@@PAUBufferedTile@23@@std@@@6@$0A@@std@@@std@@QAE?AViterator@12@V312@ABU?$pair@$$CBUTileCoord@?A0xc559f438@Imf@@PAUBufferedTile@23@@2@@Z 100fe890 f i ImfTiledOutputFile.obj
 0002:000a0760       ?lower_bound@?$_Tree@V?$_Tmap_traits@UTileCoord@?A0xc559f438@Imf@@PAUBufferedTile@23@U?$less@UTileCoord@?A0xc559f438@Imf@@@std@@V?$allocator@U?$pair@$$CBUTileCoord@?A0xc559f438@Imf@@PAUBufferedTile@23@@std@@@6@$0A@@std@@@std@@QAE?AViterator@12@ABUTileCoord@?A0xc559f438@Imf@@@Z 100ff760 f i ImfTiledOutputFile.obj
 0002:000a07f0       ?_Lmost@?$_Tree@V?$_Tmap_traits@UTileCoord@?A0xc559f438@Imf@@PAUBufferedTile@23@U?$less@UTileCoord@?A0xc559f438@Imf@@@std@@V?$allocator@U?$pair@$$CBUTileCoord@?A0xc559f438@Imf@@PAUBufferedTile@23@@std@@@6@$0A@@std@@@std@@IBEAAPAU_Node@?$_Tree_nod@V?$_Tmap_traits@UTileCoord@?A0xc559f438@Imf@@PAUBufferedTile@23@U?$less@UTileCoord@?A0xc559f438@Imf@@@std@@V?$allocator@U?$pair@$$CBUTileCoord@?A0xc559f438@Imf@@PAUBufferedTile@23@@std@@@6@$0A@@std@@@2@XZ 100ff7f0 f i ImfTiledOutputFile.obj
 0002:000a0850       ?_Lrotate@?$_Tree@V?$_Tmap_traits@UTileCoord@?A0xc559f438@Imf@@PAUBufferedTile@23@U?$less@UTileCoord@?A0xc559f438@Imf@@@std@@V?$allocator@U?$pair@$$CBUTileCoord@?A0xc559f438@Imf@@PAUBufferedTile@23@@std@@@6@$0A@@std@@@std@@IAEXPAU_Node@?$_Tree_nod@V?$_Tmap_traits@UTileCoord@?A0xc559f438@Imf@@PAUBufferedTile@23@U?$less@UTileCoord@?A0xc559f438@Imf@@@std@@V?$allocator@U?$pair@$$CBUTileCoord@?A0xc559f438@Imf@@PAUBufferedTile@23@@std@@@6@$0A@@std@@@2@@Z 100ff850 f i ImfTiledOutputFile.obj
 0002:000a0a00       ?_Max@?$_Tree@V?$_Tmap_traits@UTileCoord@?A0xc559f438@Imf@@PAUBufferedTile@23@U?$less@UTileCoord@?A0xc559f438@Imf@@@std@@V?$allocator@U?$pair@$$CBUTileCoord@?A0xc559f438@Imf@@PAUBufferedTile@23@@std@@@6@$0A@@std@@@std@@KAPAU_Node@?$_Tree_nod@V?$_Tmap_traits@UTileCoord@?A0xc559f438@Imf@@PAUBufferedTile@23@U?$less@UTileCoord@?A0xc559f438@Imf@@@std@@V?$allocator@U?$pair@$$CBUTileCoord@?A0xc559f438@Imf@@PAUBufferedTile@23@@std@@@6@$0A@@std@@@2@PAU342@@Z 100ffa00 f i ImfTiledOutputFile.obj
 0002:000a0a80       ?_Min@?$_Tree@V?$_Tmap_traits@UTileCoord@?A0xc559f438@Imf@@PAUBufferedTile@23@U?$less@UTileCoord@?A0xc559f438@Imf@@@std@@V?$allocator@U?$pair@$$CBUTileCoord@?A0xc559f438@Imf@@PAUBufferedTile@23@@std@@@6@$0A@@std@@@std@@KAPAU_Node@?$_Tree_nod@V?$_Tmap_traits@UTileCoord@?A0xc559f438@Imf@@PAUBufferedTile@23@U?$less@UTileCoord@?A0xc559f438@Imf@@@std@@V?$allocator@U?$pair@$$CBUTileCoord@?A0xc559f438@Imf@@PAUBufferedTile@23@@std@@@6@$0A@@std@@@2@PAU342@@Z 100ffa80 f i ImfTiledOutputFile.obj
 0002:000a0b00       ?_Rmost@?$_Tree@V?$_Tmap_traits@UTileCoord@?A0xc559f438@Imf@@PAUBufferedTile@23@U?$less@UTileCoord@?A0xc559f438@Imf@@@std@@V?$allocator@U?$pair@$$CBUTileCoord@?A0xc559f438@Imf@@PAUBufferedTile@23@@std@@@6@$0A@@std@@@std@@IBEAAPAU_Node@?$_Tree_nod@V?$_Tmap_traits@UTileCoord@?A0xc559f438@Imf@@PAUBufferedTile@23@U?$less@UTileCoord@?A0xc559f438@Imf@@@std@@V?$allocator@U?$pair@$$CBUTileCoord@?A0xc559f438@Imf@@PAUBufferedTile@23@@std@@@6@$0A@@std@@@2@XZ 100ffb00 f i ImfTiledOutputFile.obj
 0002:000a0b60       ?_Root@?$_Tree@V?$_Tmap_traits@UTileCoord@?A0xc559f438@Imf@@PAUBufferedTile@23@U?$less@UTileCoord@?A0xc559f438@Imf@@@std@@V?$allocator@U?$pair@$$CBUTileCoord@?A0xc559f438@Imf@@PAUBufferedTile@23@@std@@@6@$0A@@std@@@std@@IBEAAPAU_Node@?$_Tree_nod@V?$_Tmap_traits@UTileCoord@?A0xc559f438@Imf@@PAUBufferedTile@23@U?$less@UTileCoord@?A0xc559f438@Imf@@@std@@V?$allocator@U?$pair@$$CBUTileCoord@?A0xc559f438@Imf@@PAUBufferedTile@23@@std@@@6@$0A@@std@@@2@XZ 100ffb60 f i ImfTiledOutputFile.obj
 0002:000a0bc0       ?_Rrotate@?$_Tree@V?$_Tmap_traits@UTileCoord@?A0xc559f438@Imf@@PAUBufferedTile@23@U?$less@UTileCoord@?A0xc559f438@Imf@@@std@@V?$allocator@U?$pair@$$CBUTileCoord@?A0xc559f438@Imf@@PAUBufferedTile@23@@std@@@6@$0A@@std@@@std@@IAEXPAU_Node@?$_Tree_nod@V?$_Tmap_traits@UTileCoord@?A0xc559f438@Imf@@PAUBufferedTile@23@U?$less@UTileCoord@?A0xc559f438@Imf@@@std@@V?$allocator@U?$pair@$$CBUTileCoord@?A0xc559f438@Imf@@PAUBufferedTile@23@@std@@@6@$0A@@std@@@2@@Z 100ffbc0 f i ImfTiledOutputFile.obj
 0002:000a0d70       ?_Orphan_ptr@?$_Tree@V?$_Tmap_traits@UTileCoord@?A0xc559f438@Imf@@PAUBufferedTile@23@U?$less@UTileCoord@?A0xc559f438@Imf@@@std@@V?$allocator@U?$pair@$$CBUTileCoord@?A0xc559f438@Imf@@PAUBufferedTile@23@@std@@@6@$0A@@std@@@std@@IBEXAAV12@PAU_Node@?$_Tree_nod@V?$_Tmap_traits@UTileCoord@?A0xc559f438@Imf@@PAUBufferedTile@23@U?$less@UTileCoord@?A0xc559f438@Imf@@@std@@V?$allocator@U?$pair@$$CBUTileCoord@?A0xc559f438@Imf@@PAUBufferedTile@23@@std@@@6@$0A@@std@@@2@@Z 100ffd70 f i ImfTiledOutputFile.obj
 0002:000a0e90       ?_Tidy@?$_Tree@V?$_Tmap_traits@UTileCoord@?A0xc559f438@Imf@@PAUBufferedTile@23@U?$less@UTileCoord@?A0xc559f438@Imf@@@std@@V?$allocator@U?$pair@$$CBUTileCoord@?A0xc559f438@Imf@@PAUBufferedTile@23@@std@@@6@$0A@@std@@@std@@IAEXXZ 100ffe90 f i ImfTiledOutputFile.obj
 0002:000a1030       ??0?$allocator@U?$pair@$$CBUTileCoord@?A0xc559f438@Imf@@PAUBufferedTile@23@@std@@@std@@QAE@XZ 10100030 f i ImfTiledOutputFile.obj
 0002:000a1070       ??R?$less@UTileCoord@?A0xc559f438@Imf@@@std@@QBE_NABUTileCoord@?A0xc559f438@Imf@@0@Z 10100070 f i ImfTiledOutputFile.obj
 0002:000a10d0       ??MTileCoord@?A0xc559f438@Imf@@QBE_NABU012@@Z 101000d0 f i ImfTiledOutputFile.obj
 0002:000a11c0       ?deallocate@?$allocator@U_Node@?$_Tree_nod@V?$_Tmap_traits@UTileCoord@?A0xc559f438@Imf@@PAUBufferedTile@23@U?$less@UTileCoord@?A0xc559f438@Imf@@@std@@V?$allocator@U?$pair@$$CBUTileCoord@?A0xc559f438@Imf@@PAUBufferedTile@23@@std@@@6@$0A@@std@@@std@@@std@@QAEXPAU_Node@?$_Tree_nod@V?$_Tmap_traits@UTileCoord@?A0xc559f438@Imf@@PAUBufferedTile@23@U?$less@UTileCoord@?A0xc559f438@Imf@@@std@@V?$allocator@U?$pair@$$CBUTileCoord@?A0xc559f438@Imf@@PAUBufferedTile@23@@std@@@6@$0A@@std@@@2@I@Z 101001c0 f i ImfTiledOutputFile.obj
 0002:000a1220       ?destroy@?$allocator@U_Node@?$_Tree_nod@V?$_Tmap_traits@UTileCoord@?A0xc559f438@Imf@@PAUBufferedTile@23@U?$less@UTileCoord@?A0xc559f438@Imf@@@std@@V?$allocator@U?$pair@$$CBUTileCoord@?A0xc559f438@Imf@@PAUBufferedTile@23@@std@@@6@$0A@@std@@@std@@@std@@QAEXPAU_Node@?$_Tree_nod@V?$_Tmap_traits@UTileCoord@?A0xc559f438@Imf@@PAUBufferedTile@23@U?$less@UTileCoord@?A0xc559f438@Imf@@@std@@V?$allocator@U?$pair@$$CBUTileCoord@?A0xc559f438@Imf@@PAUBufferedTile@23@@std@@@6@$0A@@std@@@2@@Z 10100220 f i ImfTiledOutputFile.obj
 0002:000a1280       ??0iterator@?$_Tree@V?$_Tmap_traits@UTileCoord@?A0xc559f438@Imf@@PAUBufferedTile@23@U?$less@UTileCoord@?A0xc559f438@Imf@@@std@@V?$allocator@U?$pair@$$CBUTileCoord@?A0xc559f438@Imf@@PAUBufferedTile@23@@std@@@6@$0A@@std@@@std@@QAE@PAU_Node@?$_Tree_nod@V?$_Tmap_traits@UTileCoord@?A0xc559f438@Imf@@PAUBufferedTile@23@U?$less@UTileCoord@?A0xc559f438@Imf@@@std@@V?$allocator@U?$pair@$$CBUTileCoord@?A0xc559f438@Imf@@PAUBufferedTile@23@@std@@@6@$0A@@std@@@2@PBV12@@Z 10100280 f i ImfTiledOutputFile.obj
 0002:000a12e0       ??Diterator@?$_Tree@V?$_Tmap_traits@UTileCoord@?A0xc559f438@Imf@@PAUBufferedTile@23@U?$less@UTileCoord@?A0xc559f438@Imf@@@std@@V?$allocator@U?$pair@$$CBUTileCoord@?A0xc559f438@Imf@@PAUBufferedTile@23@@std@@@6@$0A@@std@@@std@@QBEAAU?$pair@$$CBUTileCoord@?A0xc559f438@Imf@@PAUBufferedTile@23@@2@XZ 101002e0 f i ImfTiledOutputFile.obj
 0002:000a1330       ??Econst_iterator@?$_Tree@V?$_Tmap_traits@UTileCoord@?A0xc559f438@Imf@@PAUBufferedTile@23@U?$less@UTileCoord@?A0xc559f438@Imf@@@std@@V?$allocator@U?$pair@$$CBUTileCoord@?A0xc559f438@Imf@@PAUBufferedTile@23@@std@@@6@$0A@@std@@@std@@QAEAAV012@XZ 10100330 f i ImfTiledOutputFile.obj
 0002:000a1390       ??8const_iterator@?$_Tree@V?$_Tmap_traits@UTileCoord@?A0xc559f438@Imf@@PAUBufferedTile@23@U?$less@UTileCoord@?A0xc559f438@Imf@@@std@@V?$allocator@U?$pair@$$CBUTileCoord@?A0xc559f438@Imf@@PAUBufferedTile@23@@std@@@6@$0A@@std@@@std@@QBE_NABV012@@Z 10100390 f i ImfTiledOutputFile.obj
 0002:000a14a0       ?_Mynode@const_iterator@?$_Tree@V?$_Tmap_traits@UTileCoord@?A0xc559f438@Imf@@PAUBufferedTile@23@U?$less@UTileCoord@?A0xc559f438@Imf@@@std@@V?$allocator@U?$pair@$$CBUTileCoord@?A0xc559f438@Imf@@PAUBufferedTile@23@@std@@@6@$0A@@std@@@std@@QBEPAU_Node@?$_Tree_nod@V?$_Tmap_traits@UTileCoord@?A0xc559f438@Imf@@PAUBufferedTile@23@U?$less@UTileCoord@?A0xc559f438@Imf@@@std@@V?$allocator@U?$pair@$$CBUTileCoord@?A0xc559f438@Imf@@PAUBufferedTile@23@@std@@@6@$0A@@std@@@3@XZ 101004a0 f i ImfTiledOutputFile.obj
 0002:000a14e0       ??0?$pair@$$CBUTileCoord@?A0xc559f438@Imf@@PAUBufferedTile@23@@std@@QAE@ABUTileCoord@?A0xc559f438@Imf@@ABQAUBufferedTile@34@@Z 101004e0 f i ImfTiledOutputFile.obj
 0002:000a1550       ??0?$_Vector_iterator@UTOutSliceInfo@?A0xc559f438@Imf@@V?$allocator@UTOutSliceInfo@?A0xc559f438@Imf@@@std@@@std@@QAE@ABV01@@Z 10100550 f i ImfTiledOutputFile.obj
 0002:000a15b0       ??1?$_Vector_iterator@PAUTileBuffer@?A0xc559f438@Imf@@V?$allocator@PAUTileBuffer@?A0xc559f438@Imf@@@std@@@std@@QAE@XZ 101005b0 f i ImfTiledOutputFile.obj
 0002:000a1600       ??1?$pair@Viterator@?$_Tree@V?$_Tmap_traits@UTileCoord@?A0xc559f438@Imf@@PAUBufferedTile@23@U?$less@UTileCoord@?A0xc559f438@Imf@@@std@@V?$allocator@U?$pair@$$CBUTileCoord@?A0xc559f438@Imf@@PAUBufferedTile@23@@std@@@6@$0A@@std@@@std@@_N@std@@QAE@XZ 10100600 f i ImfTiledOutputFile.obj
 0002:000a1650       ??0?$_Vector_const_iterator@UTOutSliceInfo@?A0xc559f438@Imf@@V?$allocator@UTOutSliceInfo@?A0xc559f438@Imf@@@std@@@std@@QAE@ABV01@@Z 10100650 f i ImfTiledOutputFile.obj
 0002:000a16c0       ??1?$_Vector_const_iterator@PAUTileBuffer@?A0xc559f438@Imf@@V?$allocator@PAUTileBuffer@?A0xc559f438@Imf@@@std@@@std@@QAE@XZ 101006c0 f i ImfTiledOutputFile.obj
 0002:000a1710       ??0?$_Ranit@UTOutSliceInfo@?A0xc559f438@Imf@@HPBU123@ABU123@@std@@QAE@ABU01@@Z 10100710 f i ImfTiledOutputFile.obj
 0002:000a1770       ??1?$_Ranit@PAUTileBuffer@?A0xc559f438@Imf@@HPBQAU123@ABQAU123@@std@@QAE@XZ 10100770 f i ImfTiledOutputFile.obj
 0002:000a17c0       ?begin@?$vector@UTOutSliceInfo@?A0xc559f438@Imf@@V?$allocator@UTOutSliceInfo@?A0xc559f438@Imf@@@std@@@std@@QAE?AV?$_Vector_iterator@UTOutSliceInfo@?A0xc559f438@Imf@@V?$allocator@UTOutSliceInfo@?A0xc559f438@Imf@@@std@@@2@XZ 101007c0 f i ImfTiledOutputFile.obj
 0002:000a1850       ?max_size@?$vector@UTOutSliceInfo@?A0xc559f438@Imf@@V?$allocator@UTOutSliceInfo@?A0xc559f438@Imf@@@std@@@std@@QBEIXZ 10100850 f i ImfTiledOutputFile.obj
 0002:000a18b0       ?erase@?$vector@UTOutSliceInfo@?A0xc559f438@Imf@@V?$allocator@UTOutSliceInfo@?A0xc559f438@Imf@@@std@@@std@@QAE?AV?$_Vector_iterator@UTOutSliceInfo@?A0xc559f438@Imf@@V?$allocator@UTOutSliceInfo@?A0xc559f438@Imf@@@std@@@2@V32@0@Z 101008b0 f i ImfTiledOutputFile.obj
 0002:000a1a70       ?_Insert_n@?$vector@UTOutSliceInfo@?A0xc559f438@Imf@@V?$allocator@UTOutSliceInfo@?A0xc559f438@Imf@@@std@@@std@@IAEXV?$_Vector_iterator@UTOutSliceInfo@?A0xc559f438@Imf@@V?$allocator@UTOutSliceInfo@?A0xc559f438@Imf@@@std@@@2@IABUTOutSliceInfo@?A0xc559f438@Imf@@@Z 10100a70 f i ImfTiledOutputFile.obj
 0002:000a1fc0       ?_Xlen@?$vector@UTOutSliceInfo@?A0xc559f438@Imf@@V?$allocator@UTOutSliceInfo@?A0xc559f438@Imf@@@std@@@std@@KAXXZ 10100fc0 f i ImfTiledOutputFile.obj
 0002:000a20b0       ??0?$allocator@UTOutSliceInfo@?A0xc559f438@Imf@@@std@@QAE@ABV01@@Z 101010b0 f i ImfTiledOutputFile.obj
 0002:000a20f0       ?allocate@?$allocator@UTOutSliceInfo@?A0xc559f438@Imf@@@std@@QAEPAUTOutSliceInfo@?A0xc559f438@Imf@@I@Z 101010f0 f i ImfTiledOutputFile.obj
 0002:000a2150       ?begin@?$vector@PAUTileBuffer@?A0xc559f438@Imf@@V?$allocator@PAUTileBuffer@?A0xc559f438@Imf@@@std@@@std@@QAE?AV?$_Vector_iterator@PAUTileBuffer@?A0xc559f438@Imf@@V?$allocator@PAUTileBuffer@?A0xc559f438@Imf@@@std@@@2@XZ 10101150 f i ImfTiledOutputFile.obj
 0002:000a21e0       ?end@?$vector@PAUTileBuffer@?A0xc559f438@Imf@@V?$allocator@PAUTileBuffer@?A0xc559f438@Imf@@@std@@@std@@QAE?AV?$_Vector_iterator@PAUTileBuffer@?A0xc559f438@Imf@@V?$allocator@PAUTileBuffer@?A0xc559f438@Imf@@@std@@@2@XZ 101011e0 f i ImfTiledOutputFile.obj
 0002:000a2270       ?max_size@?$vector@PAUTileBuffer@?A0xc559f438@Imf@@V?$allocator@PAUTileBuffer@?A0xc559f438@Imf@@@std@@@std@@QBEIXZ 10101270 f i ImfTiledOutputFile.obj
 0002:000a22d0       ?erase@?$vector@PAUTileBuffer@?A0xc559f438@Imf@@V?$allocator@PAUTileBuffer@?A0xc559f438@Imf@@@std@@@std@@QAE?AV?$_Vector_iterator@PAUTileBuffer@?A0xc559f438@Imf@@V?$allocator@PAUTileBuffer@?A0xc559f438@Imf@@@std@@@2@V32@0@Z 101012d0 f i ImfTiledOutputFile.obj
 0002:000a2490       ?_Destroy@?$vector@PAUTileBuffer@?A0xc559f438@Imf@@V?$allocator@PAUTileBuffer@?A0xc559f438@Imf@@@std@@@std@@IAEXPAPAUTileBuffer@?A0xc559f438@Imf@@0@Z 10101490 f i ImfTiledOutputFile.obj
 0002:000a2500       ?_Insert_n@?$vector@PAUTileBuffer@?A0xc559f438@Imf@@V?$allocator@PAUTileBuffer@?A0xc559f438@Imf@@@std@@@std@@IAEXV?$_Vector_iterator@PAUTileBuffer@?A0xc559f438@Imf@@V?$allocator@PAUTileBuffer@?A0xc559f438@Imf@@@std@@@2@IABQAUTileBuffer@?A0xc559f438@Imf@@@Z 10101500 f i ImfTiledOutputFile.obj
 0002:000a2a30       ?_Xlen@?$vector@PAUTileBuffer@?A0xc559f438@Imf@@V?$allocator@PAUTileBuffer@?A0xc559f438@Imf@@@std@@@std@@KAXXZ 10101a30 f i ImfTiledOutputFile.obj
 0002:000a2b20       ??0?$allocator@PAUTileBuffer@?A0xc559f438@Imf@@@std@@QAE@ABV01@@Z 10101b20 f i ImfTiledOutputFile.obj
 0002:000a2b60       ?deallocate@?$allocator@PAUTileBuffer@?A0xc559f438@Imf@@@std@@QAEXPAPAUTileBuffer@?A0xc559f438@Imf@@I@Z 10101b60 f i ImfTiledOutputFile.obj
 0002:000a2bc0       ?allocate@?$allocator@PAUTileBuffer@?A0xc559f438@Imf@@@std@@QAEPAPAUTileBuffer@?A0xc559f438@Imf@@I@Z 10101bc0 f i ImfTiledOutputFile.obj
 0002:000a2c20       ?_Myval@?$_Tree@V?$_Tmap_traits@UTileCoord@?A0xc559f438@Imf@@PAUBufferedTile@23@U?$less@UTileCoord@?A0xc559f438@Imf@@@std@@V?$allocator@U?$pair@$$CBUTileCoord@?A0xc559f438@Imf@@PAUBufferedTile@23@@std@@@6@$0A@@std@@@std@@KAAAU?$pair@$$CBUTileCoord@?A0xc559f438@Imf@@PAUBufferedTile@23@@2@PAU_Node@?$_Tree_nod@V?$_Tmap_traits@UTileCoord@?A0xc559f438@Imf@@PAUBufferedTile@23@U?$less@UTileCoord@?A0xc559f438@Imf@@@std@@V?$allocator@U?$pair@$$CBUTileCoord@?A0xc559f438@Imf@@PAUBufferedTile@23@@std@@@6@$0A@@std@@@2@@Z 10101c20 f i ImfTiledOutputFile.obj
 0002:000a2c60       ?size@?$_Tree@V?$_Tmap_traits@UTileCoord@?A0xc559f438@Imf@@PAUBufferedTile@23@U?$less@UTileCoord@?A0xc559f438@Imf@@@std@@V?$allocator@U?$pair@$$CBUTileCoord@?A0xc559f438@Imf@@PAUBufferedTile@23@@std@@@6@$0A@@std@@@std@@QBEIXZ 10101c60 f i ImfTiledOutputFile.obj
 0002:000a2ca0       ?insert@?$_Tree@V?$_Tmap_traits@UTileCoord@?A0xc559f438@Imf@@PAUBufferedTile@23@U?$less@UTileCoord@?A0xc559f438@Imf@@@std@@V?$allocator@U?$pair@$$CBUTileCoord@?A0xc559f438@Imf@@PAUBufferedTile@23@@std@@@6@$0A@@std@@@std@@QAE?AU?$pair@Viterator@?$_Tree@V?$_Tmap_traits@UTileCoord@?A0xc559f438@Imf@@PAUBufferedTile@23@U?$less@UTileCoord@?A0xc559f438@Imf@@@std@@V?$allocator@U?$pair@$$CBUTileCoord@?A0xc559f438@Imf@@PAUBufferedTile@23@@std@@@6@$0A@@std@@@std@@_N@2@ABU?$pair@$$CBUTileCoord@?A0xc559f438@Imf@@PAUBufferedTile@23@@2@@Z 10101ca0 f i ImfTiledOutputFile.obj
 0002:000a3160       ?erase@?$_Tree@V?$_Tmap_traits@UTileCoord@?A0xc559f438@Imf@@PAUBufferedTile@23@U?$less@UTileCoord@?A0xc559f438@Imf@@@std@@V?$allocator@U?$pair@$$CBUTileCoord@?A0xc559f438@Imf@@PAUBufferedTile@23@@std@@@6@$0A@@std@@@std@@QAE?AViterator@12@V312@0@Z 10102160 f i ImfTiledOutputFile.obj
 0002:000a3470       ?_Init@?$_Tree@V?$_Tmap_traits@UTileCoord@?A0xc559f438@Imf@@PAUBufferedTile@23@U?$less@UTileCoord@?A0xc559f438@Imf@@@std@@V?$allocator@U?$pair@$$CBUTileCoord@?A0xc559f438@Imf@@PAUBufferedTile@23@@std@@@6@$0A@@std@@@std@@IAEXXZ 10102470 f i ImfTiledOutputFile.obj
 0002:000a3530       ?_Insert@?$_Tree@V?$_Tmap_traits@UTileCoord@?A0xc559f438@Imf@@PAUBufferedTile@23@U?$less@UTileCoord@?A0xc559f438@Imf@@@std@@V?$allocator@U?$pair@$$CBUTileCoord@?A0xc559f438@Imf@@PAUBufferedTile@23@@std@@@6@$0A@@std@@@std@@IAE?AViterator@12@_NPAU_Node@?$_Tree_nod@V?$_Tmap_traits@UTileCoord@?A0xc559f438@Imf@@PAUBufferedTile@23@U?$less@UTileCoord@?A0xc559f438@Imf@@@std@@V?$allocator@U?$pair@$$CBUTileCoord@?A0xc559f438@Imf@@PAUBufferedTile@23@@std@@@6@$0A@@std@@@2@ABU?$pair@$$CBUTileCoord@?A0xc559f438@Imf@@PAUBufferedTile@23@@2@@Z 10102530 f i ImfTiledOutputFile.obj
 0002:000a3b40       ?_Lbound@?$_Tree@V?$_Tmap_traits@UTileCoord@?A0xc559f438@Imf@@PAUBufferedTile@23@U?$less@UTileCoord@?A0xc559f438@Imf@@@std@@V?$allocator@U?$pair@$$CBUTileCoord@?A0xc559f438@Imf@@PAUBufferedTile@23@@std@@@6@$0A@@std@@@std@@IBEPAU_Node@?$_Tree_nod@V?$_Tmap_traits@UTileCoord@?A0xc559f438@Imf@@PAUBufferedTile@23@U?$less@UTileCoord@?A0xc559f438@Imf@@@std@@V?$allocator@U?$pair@$$CBUTileCoord@?A0xc559f438@Imf@@PAUBufferedTile@23@@std@@@6@$0A@@std@@@2@ABUTileCoord@?A0xc559f438@Imf@@@Z 10102b40 f i ImfTiledOutputFile.obj
 0002:000a3c40       ??0?$_Tree_val@V?$_Tmap_traits@UTileCoord@?A0xc559f438@Imf@@PAUBufferedTile@23@U?$less@UTileCoord@?A0xc559f438@Imf@@@std@@V?$allocator@U?$pair@$$CBUTileCoord@?A0xc559f438@Imf@@PAUBufferedTile@23@@std@@@6@$0A@@std@@@std@@IAE@ABU?$less@UTileCoord@?A0xc559f438@Imf@@@1@V?$allocator@U?$pair@$$CBUTileCoord@?A0xc559f438@Imf@@PAUBufferedTile@23@@std@@@1@@Z 10102c40 f i ImfTiledOutputFile.obj
 0002:000a3cd0       ?_Kfn@?$_Tmap_traits@UTileCoord@?A0xc559f438@Imf@@PAUBufferedTile@23@U?$less@UTileCoord@?A0xc559f438@Imf@@@std@@V?$allocator@U?$pair@$$CBUTileCoord@?A0xc559f438@Imf@@PAUBufferedTile@23@@std@@@6@$0A@@std@@SAABUTileCoord@?A0xc559f438@Imf@@ABU?$pair@$$CBUTileCoord@?A0xc559f438@Imf@@PAUBufferedTile@23@@2@@Z 10102cd0 f i ImfTiledOutputFile.obj
 0002:000a3d10       ??0?$allocator@U?$pair@$$CBUTileCoord@?A0xc559f438@Imf@@PAUBufferedTile@23@@std@@@std@@QAE@ABV01@@Z 10102d10 f i ImfTiledOutputFile.obj
 0002:000a3d50       ?destroy@?$allocator@PAU_Node@?$_Tree_nod@V?$_Tmap_traits@UTileCoord@?A0xc559f438@Imf@@PAUBufferedTile@23@U?$less@UTileCoord@?A0xc559f438@Imf@@@std@@V?$allocator@U?$pair@$$CBUTileCoord@?A0xc559f438@Imf@@PAUBufferedTile@23@@std@@@6@$0A@@std@@@std@@@std@@QAEXPAPAU_Node@?$_Tree_nod@V?$_Tmap_traits@UTileCoord@?A0xc559f438@Imf@@PAUBufferedTile@23@U?$less@UTileCoord@?A0xc559f438@Imf@@@std@@V?$allocator@U?$pair@$$CBUTileCoord@?A0xc559f438@Imf@@PAUBufferedTile@23@@std@@@6@$0A@@std@@@2@@Z 10102d50 f i ImfTiledOutputFile.obj
 0002:000a3db0       ??0iterator@?$_Tree@V?$_Tmap_traits@UTileCoord@?A0xc559f438@Imf@@PAUBufferedTile@23@U?$less@UTileCoord@?A0xc559f438@Imf@@@std@@V?$allocator@U?$pair@$$CBUTileCoord@?A0xc559f438@Imf@@PAUBufferedTile@23@@std@@@6@$0A@@std@@@std@@QAE@XZ 10102db0 f i ImfTiledOutputFile.obj
 0002:000a3e10       ??Fiterator@?$_Tree@V?$_Tmap_traits@UTileCoord@?A0xc559f438@Imf@@PAUBufferedTile@23@U?$less@UTileCoord@?A0xc559f438@Imf@@@std@@V?$allocator@U?$pair@$$CBUTileCoord@?A0xc559f438@Imf@@PAUBufferedTile@23@@std@@@6@$0A@@std@@@std@@QAEAAV012@XZ 10102e10 f i ImfTiledOutputFile.obj
 0002:000a3e70       ??0const_iterator@?$_Tree@V?$_Tmap_traits@UTileCoord@?A0xc559f438@Imf@@PAUBufferedTile@23@U?$less@UTileCoord@?A0xc559f438@Imf@@@std@@V?$allocator@U?$pair@$$CBUTileCoord@?A0xc559f438@Imf@@PAUBufferedTile@23@@std@@@6@$0A@@std@@@std@@QAE@PAU_Node@?$_Tree_nod@V?$_Tmap_traits@UTileCoord@?A0xc559f438@Imf@@PAUBufferedTile@23@U?$less@UTileCoord@?A0xc559f438@Imf@@@std@@V?$allocator@U?$pair@$$CBUTileCoord@?A0xc559f438@Imf@@PAUBufferedTile@23@@std@@@6@$0A@@std@@@2@PBV12@@Z 10102e70 f i ImfTiledOutputFile.obj
 0002:000a3f30       ??Dconst_iterator@?$_Tree@V?$_Tmap_traits@UTileCoord@?A0xc559f438@Imf@@PAUBufferedTile@23@U?$less@UTileCoord@?A0xc559f438@Imf@@@std@@V?$allocator@U?$pair@$$CBUTileCoord@?A0xc559f438@Imf@@PAUBufferedTile@23@@std@@@6@$0A@@std@@@std@@QBEABU?$pair@$$CBUTileCoord@?A0xc559f438@Imf@@PAUBufferedTile@23@@2@XZ 10102f30 f i ImfTiledOutputFile.obj
 0002:000a4040       ?_Inc@const_iterator@?$_Tree@V?$_Tmap_traits@UTileCoord@?A0xc559f438@Imf@@PAUBufferedTile@23@U?$less@UTileCoord@?A0xc559f438@Imf@@@std@@V?$allocator@U?$pair@$$CBUTileCoord@?A0xc559f438@Imf@@PAUBufferedTile@23@@std@@@6@$0A@@std@@@std@@QAEXXZ 10103040 f i ImfTiledOutputFile.obj
 0002:000a4200       ??0?$_Vector_iterator@UTOutSliceInfo@?A0xc559f438@Imf@@V?$allocator@UTOutSliceInfo@?A0xc559f438@Imf@@@std@@@std@@QAE@PAUTOutSliceInfo@?A0xc559f438@Imf@@PBV_Container_base@1@@Z 10103200 f i ImfTiledOutputFile.obj
 0002:000a4260       ??H?$_Vector_iterator@UTOutSliceInfo@?A0xc559f438@Imf@@V?$allocator@UTOutSliceInfo@?A0xc559f438@Imf@@@std@@@std@@QBE?AV01@H@Z 10103260 f i ImfTiledOutputFile.obj
 0002:000a4380       ??G?$_Vector_iterator@UTOutSliceInfo@?A0xc559f438@Imf@@V?$allocator@UTOutSliceInfo@?A0xc559f438@Imf@@@std@@@std@@QBEHABV?$_Vector_const_iterator@UTOutSliceInfo@?A0xc559f438@Imf@@V?$allocator@UTOutSliceInfo@?A0xc559f438@Imf@@@std@@@1@@Z 10103380 f i ImfTiledOutputFile.obj
 0002:000a43e0       ??H?$_Vector_iterator@PAUTileBuffer@?A0xc559f438@Imf@@V?$allocator@PAUTileBuffer@?A0xc559f438@Imf@@@std@@@std@@QBE?AV01@H@Z 101033e0 f i ImfTiledOutputFile.obj
 0002:000a4500       ??0?$_Bidit@U?$pair@$$CBUTileCoord@?A0xc559f438@Imf@@PAUBufferedTile@23@@std@@HPBU12@ABU12@@std@@QAE@XZ 10103500 f i ImfTiledOutputFile.obj
 0002:000a4560       ??0?$_Vector_iterator@PAUTileBuffer@?A0xc559f438@Imf@@V?$allocator@PAUTileBuffer@?A0xc559f438@Imf@@@std@@@std@@QAE@ABV01@@Z 10103560 f i ImfTiledOutputFile.obj
 0002:000a45c0       ??0?$_Vector_const_iterator@PAUTileBuffer@?A0xc559f438@Imf@@V?$allocator@PAUTileBuffer@?A0xc559f438@Imf@@@std@@@std@@QAE@ABV01@@Z 101035c0 f i ImfTiledOutputFile.obj
 0002:000a4630       ??0?$_Ranit@PAUTileBuffer@?A0xc559f438@Imf@@HPBQAU123@ABQAU123@@std@@QAE@ABU01@@Z 10103630 f i ImfTiledOutputFile.obj
 0002:000a4690       ?max_size@?$allocator@UTOutSliceInfo@?A0xc559f438@Imf@@@std@@QBEIXZ 10103690 f i ImfTiledOutputFile.obj
 0002:000a4700       ?capacity@?$vector@PAUTileBuffer@?A0xc559f438@Imf@@V?$allocator@PAUTileBuffer@?A0xc559f438@Imf@@@std@@@std@@QBEIXZ 10103700 f i ImfTiledOutputFile.obj
 0002:000a4770       ?_Ufill@?$vector@PAUTileBuffer@?A0xc559f438@Imf@@V?$allocator@PAUTileBuffer@?A0xc559f438@Imf@@@std@@@std@@IAEPAPAUTileBuffer@?A0xc559f438@Imf@@PAPAU345@IABQAU345@@Z 10103770 f i ImfTiledOutputFile.obj
 0002:000a47f0       ?_Orphan_range@?$vector@PAUTileBuffer@?A0xc559f438@Imf@@V?$allocator@PAUTileBuffer@?A0xc559f438@Imf@@@std@@@std@@IBEXPAPAUTileBuffer@?A0xc559f438@Imf@@0@Z 101037f0 f i ImfTiledOutputFile.obj
 0002:000a4900       ?max_size@?$allocator@PAUTileBuffer@?A0xc559f438@Imf@@@std@@QBEIXZ 10103900 f i ImfTiledOutputFile.obj
 0002:000a4970       ?max_size@?$_Tree@V?$_Tmap_traits@UTileCoord@?A0xc559f438@Imf@@PAUBufferedTile@23@U?$less@UTileCoord@?A0xc559f438@Imf@@@std@@V?$allocator@U?$pair@$$CBUTileCoord@?A0xc559f438@Imf@@PAUBufferedTile@23@@std@@@6@$0A@@std@@@std@@QBEIXZ 10103970 f i ImfTiledOutputFile.obj
 0002:000a49d0       ?clear@?$_Tree@V?$_Tmap_traits@UTileCoord@?A0xc559f438@Imf@@PAUBufferedTile@23@U?$less@UTileCoord@?A0xc559f438@Imf@@@std@@V?$allocator@U?$pair@$$CBUTileCoord@?A0xc559f438@Imf@@PAUBufferedTile@23@@std@@@6@$0A@@std@@@std@@QAEXXZ 101039d0 f i ImfTiledOutputFile.obj
 0002:000a4a90       ?_Buynode@?$_Tree@V?$_Tmap_traits@UTileCoord@?A0xc559f438@Imf@@PAUBufferedTile@23@U?$less@UTileCoord@?A0xc559f438@Imf@@@std@@V?$allocator@U?$pair@$$CBUTileCoord@?A0xc559f438@Imf@@PAUBufferedTile@23@@std@@@6@$0A@@std@@@std@@IAEPAU_Node@?$_Tree_nod@V?$_Tmap_traits@UTileCoord@?A0xc559f438@Imf@@PAUBufferedTile@23@U?$less@UTileCoord@?A0xc559f438@Imf@@@std@@V?$allocator@U?$pair@$$CBUTileCoord@?A0xc559f438@Imf@@PAUBufferedTile@23@@std@@@6@$0A@@std@@@2@XZ 10103a90 f i ImfTiledOutputFile.obj
 0002:000a4cc0       ?_Buynode@?$_Tree@V?$_Tmap_traits@UTileCoord@?A0xc559f438@Imf@@PAUBufferedTile@23@U?$less@UTileCoord@?A0xc559f438@Imf@@@std@@V?$allocator@U?$pair@$$CBUTileCoord@?A0xc559f438@Imf@@PAUBufferedTile@23@@std@@@6@$0A@@std@@@std@@IAEPAU_Node@?$_Tree_nod@V?$_Tmap_traits@UTileCoord@?A0xc559f438@Imf@@PAUBufferedTile@23@U?$less@UTileCoord@?A0xc559f438@Imf@@@std@@V?$allocator@U?$pair@$$CBUTileCoord@?A0xc559f438@Imf@@PAUBufferedTile@23@@std@@@6@$0A@@std@@@2@PAU342@00ABU?$pair@$$CBUTileCoord@?A0xc559f438@Imf@@PAUBufferedTile@23@@2@D@Z 10103cc0 f i ImfTiledOutputFile.obj
 0002:000a4e20       ??0?$_Tree_ptr@V?$_Tmap_traits@UTileCoord@?A0xc559f438@Imf@@PAUBufferedTile@23@U?$less@UTileCoord@?A0xc559f438@Imf@@@std@@V?$allocator@U?$pair@$$CBUTileCoord@?A0xc559f438@Imf@@PAUBufferedTile@23@@std@@@6@$0A@@std@@@std@@QAE@ABU?$less@UTileCoord@?A0xc559f438@Imf@@@1@V?$allocator@U?$pair@$$CBUTileCoord@?A0xc559f438@Imf@@PAUBufferedTile@23@@std@@@1@@Z 10103e20 f i ImfTiledOutputFile.obj
 0002:000a4eb0       ??Eiterator@?$_Tree@V?$_Tmap_traits@UTileCoord@?A0xc559f438@Imf@@PAUBufferedTile@23@U?$less@UTileCoord@?A0xc559f438@Imf@@@std@@V?$allocator@U?$pair@$$CBUTileCoord@?A0xc559f438@Imf@@PAUBufferedTile@23@@std@@@6@$0A@@std@@@std@@QAE?AV012@H@Z 10103eb0 f i ImfTiledOutputFile.obj
 0002:000a4fd0       ??0const_iterator@?$_Tree@V?$_Tmap_traits@UTileCoord@?A0xc559f438@Imf@@PAUBufferedTile@23@U?$less@UTileCoord@?A0xc559f438@Imf@@@std@@V?$allocator@U?$pair@$$CBUTileCoord@?A0xc559f438@Imf@@PAUBufferedTile@23@@std@@@6@$0A@@std@@@std@@QAE@XZ 10103fd0 f i ImfTiledOutputFile.obj
 0002:000a5030       ??Fconst_iterator@?$_Tree@V?$_Tmap_traits@UTileCoord@?A0xc559f438@Imf@@PAUBufferedTile@23@U?$less@UTileCoord@?A0xc559f438@Imf@@@std@@V?$allocator@U?$pair@$$CBUTileCoord@?A0xc559f438@Imf@@PAUBufferedTile@23@@std@@@6@$0A@@std@@@std@@QAEAAV012@XZ 10104030 f i ImfTiledOutputFile.obj
 0002:000a5090       ??Y?$_Vector_iterator@UTOutSliceInfo@?A0xc559f438@Imf@@V?$allocator@UTOutSliceInfo@?A0xc559f438@Imf@@@std@@@std@@QAEAAV01@H@Z 10104090 f i ImfTiledOutputFile.obj
 0002:000a50f0       ??0?$_Vector_const_iterator@UTOutSliceInfo@?A0xc559f438@Imf@@V?$allocator@UTOutSliceInfo@?A0xc559f438@Imf@@@std@@@std@@QAE@PAUTOutSliceInfo@?A0xc559f438@Imf@@PBV_Container_base@1@@Z 101040f0 f i ImfTiledOutputFile.obj
 0002:000a5230       ??G?$_Vector_const_iterator@UTOutSliceInfo@?A0xc559f438@Imf@@V?$allocator@UTOutSliceInfo@?A0xc559f438@Imf@@@std@@@std@@QBEHABV01@@Z 10104230 f i ImfTiledOutputFile.obj
 0002:000a52a0       ??9?$_Vector_const_iterator@UTOutSliceInfo@?A0xc559f438@Imf@@V?$allocator@UTOutSliceInfo@?A0xc559f438@Imf@@@std@@@std@@QBE_NABV01@@Z 101042a0 f i ImfTiledOutputFile.obj
 0002:000a5310       ??M?$_Vector_const_iterator@UTOutSliceInfo@?A0xc559f438@Imf@@V?$allocator@UTOutSliceInfo@?A0xc559f438@Imf@@@std@@@std@@QBE_NABV01@@Z 10104310 f i ImfTiledOutputFile.obj
 0002:000a5380       ??0?$_Vector_iterator@PAUTileBuffer@?A0xc559f438@Imf@@V?$allocator@PAUTileBuffer@?A0xc559f438@Imf@@@std@@@std@@QAE@PAPAUTileBuffer@?A0xc559f438@Imf@@PBV_Container_base@1@@Z 10104380 f i ImfTiledOutputFile.obj
 0002:000a53e0       ??Y?$_Vector_iterator@PAUTileBuffer@?A0xc559f438@Imf@@V?$allocator@PAUTileBuffer@?A0xc559f438@Imf@@@std@@@std@@QAEAAV01@H@Z 101043e0 f i ImfTiledOutputFile.obj
 0002:000a5440       ??9?$_Vector_const_iterator@PAUTileBuffer@?A0xc559f438@Imf@@V?$allocator@PAUTileBuffer@?A0xc559f438@Imf@@@std@@@std@@QBE_NABV01@@Z 10104440 f i ImfTiledOutputFile.obj
 0002:000a54b0       ??M?$_Vector_const_iterator@PAUTileBuffer@?A0xc559f438@Imf@@V?$allocator@PAUTileBuffer@?A0xc559f438@Imf@@@std@@@std@@QBE_NABV01@@Z 101044b0 f i ImfTiledOutputFile.obj
 0002:000a5520       ??0?$pair@Viterator@?$_Tree@V?$_Tmap_traits@UTileCoord@?A0xc559f438@Imf@@PAUBufferedTile@23@U?$less@UTileCoord@?A0xc559f438@Imf@@@std@@V?$allocator@U?$pair@$$CBUTileCoord@?A0xc559f438@Imf@@PAUBufferedTile@23@@std@@@6@$0A@@std@@@std@@_N@std@@QAE@ABViterator@?$_Tree@V?$_Tmap_traits@UTileCoord@?A0xc559f438@Imf@@PAUBufferedTile@23@U?$less@UTileCoord@?A0xc559f438@Imf@@@std@@V?$allocator@U?$pair@$$CBUTileCoord@?A0xc559f438@Imf@@PAUBufferedTile@23@@std@@@6@$0A@@std@@@1@AB_N@Z 10104520 f i ImfTiledOutputFile.obj
 0002:000a5590       ??0?$_Ranit@UTOutSliceInfo@?A0xc559f438@Imf@@HPBU123@ABU123@@std@@QAE@XZ 10104590 f i ImfTiledOutputFile.obj
 0002:000a55f0       ?_Erase@?$_Tree@V?$_Tmap_traits@UTileCoord@?A0xc559f438@Imf@@PAUBufferedTile@23@U?$less@UTileCoord@?A0xc559f438@Imf@@@std@@V?$allocator@U?$pair@$$CBUTileCoord@?A0xc559f438@Imf@@PAUBufferedTile@23@@std@@@6@$0A@@std@@@std@@IAEXPAU_Node@?$_Tree_nod@V?$_Tmap_traits@UTileCoord@?A0xc559f438@Imf@@PAUBufferedTile@23@U?$less@UTileCoord@?A0xc559f438@Imf@@@std@@V?$allocator@U?$pair@$$CBUTileCoord@?A0xc559f438@Imf@@PAUBufferedTile@23@@std@@@6@$0A@@std@@@2@@Z 101045f0 f i ImfTiledOutputFile.obj
 0002:000a56c0       ??0?$_Tree_nod@V?$_Tmap_traits@UTileCoord@?A0xc559f438@Imf@@PAUBufferedTile@23@U?$less@UTileCoord@?A0xc559f438@Imf@@@std@@V?$allocator@U?$pair@$$CBUTileCoord@?A0xc559f438@Imf@@PAUBufferedTile@23@@std@@@6@$0A@@std@@@std@@IAE@ABU?$less@UTileCoord@?A0xc559f438@Imf@@@1@V?$allocator@U?$pair@$$CBUTileCoord@?A0xc559f438@Imf@@PAUBufferedTile@23@@std@@@1@@Z 101046c0 f i ImfTiledOutputFile.obj
 0002:000a5730       ?max_size@?$allocator@U?$pair@$$CBUTileCoord@?A0xc559f438@Imf@@PAUBufferedTile@23@@std@@@std@@QBEIXZ 10104730 f i ImfTiledOutputFile.obj
 0002:000a57a0       ?allocate@?$allocator@U_Node@?$_Tree_nod@V?$_Tmap_traits@UTileCoord@?A0xc559f438@Imf@@PAUBufferedTile@23@U?$less@UTileCoord@?A0xc559f438@Imf@@@std@@V?$allocator@U?$pair@$$CBUTileCoord@?A0xc559f438@Imf@@PAUBufferedTile@23@@std@@@6@$0A@@std@@@std@@@std@@QAEPAU_Node@?$_Tree_nod@V?$_Tmap_traits@UTileCoord@?A0xc559f438@Imf@@PAUBufferedTile@23@U?$less@UTileCoord@?A0xc559f438@Imf@@@std@@V?$allocator@U?$pair@$$CBUTileCoord@?A0xc559f438@Imf@@PAUBufferedTile@23@@std@@@6@$0A@@std@@@2@I@Z 101047a0 f i ImfTiledOutputFile.obj
 0002:000a5800       ?construct@?$allocator@PAU_Node@?$_Tree_nod@V?$_Tmap_traits@UTileCoord@?A0xc559f438@Imf@@PAUBufferedTile@23@U?$less@UTileCoord@?A0xc559f438@Imf@@@std@@V?$allocator@U?$pair@$$CBUTileCoord@?A0xc559f438@Imf@@PAUBufferedTile@23@@std@@@6@$0A@@std@@@std@@@std@@QAEXPAPAU_Node@?$_Tree_nod@V?$_Tmap_traits@UTileCoord@?A0xc559f438@Imf@@PAUBufferedTile@23@U?$less@UTileCoord@?A0xc559f438@Imf@@@std@@V?$allocator@U?$pair@$$CBUTileCoord@?A0xc559f438@Imf@@PAUBufferedTile@23@@std@@@6@$0A@@std@@@2@ABQAU342@@Z 10104800 f i ImfTiledOutputFile.obj
 0002:000a5860       ?_Dec@const_iterator@?$_Tree@V?$_Tmap_traits@UTileCoord@?A0xc559f438@Imf@@PAUBufferedTile@23@U?$less@UTileCoord@?A0xc559f438@Imf@@@std@@V?$allocator@U?$pair@$$CBUTileCoord@?A0xc559f438@Imf@@PAUBufferedTile@23@@std@@@6@$0A@@std@@@std@@QAEXXZ 10104860 f i ImfTiledOutputFile.obj
 0002:000a5bb0       ??Y?$_Vector_const_iterator@UTOutSliceInfo@?A0xc559f438@Imf@@V?$allocator@UTOutSliceInfo@?A0xc559f438@Imf@@@std@@@std@@QAEAAV01@H@Z 10104bb0 f i ImfTiledOutputFile.obj
 0002:000a5d30       ??8?$_Vector_const_iterator@UTOutSliceInfo@?A0xc559f438@Imf@@V?$allocator@UTOutSliceInfo@?A0xc559f438@Imf@@@std@@@std@@QBE_NABV01@@Z 10104d30 f i ImfTiledOutputFile.obj
 0002:000a5da0       ?_Compat@?$_Vector_const_iterator@UTOutSliceInfo@?A0xc559f438@Imf@@V?$allocator@UTOutSliceInfo@?A0xc559f438@Imf@@@std@@@std@@QBEXABV12@@Z 10104da0 f i ImfTiledOutputFile.obj
 0002:000a5ea0       ??0?$_Vector_const_iterator@PAUTileBuffer@?A0xc559f438@Imf@@V?$allocator@PAUTileBuffer@?A0xc559f438@Imf@@@std@@@std@@QAE@PAPAUTileBuffer@?A0xc559f438@Imf@@PBV_Container_base@1@@Z 10104ea0 f i ImfTiledOutputFile.obj
 0002:000a5fe0       ??Y?$_Vector_const_iterator@PAUTileBuffer@?A0xc559f438@Imf@@V?$allocator@PAUTileBuffer@?A0xc559f438@Imf@@@std@@@std@@QAEAAV01@H@Z 10104fe0 f i ImfTiledOutputFile.obj
 0002:000a6160       ??8?$_Vector_const_iterator@PAUTileBuffer@?A0xc559f438@Imf@@V?$allocator@PAUTileBuffer@?A0xc559f438@Imf@@@std@@@std@@QBE_NABV01@@Z 10105160 f i ImfTiledOutputFile.obj
 0002:000a61d0       ?_Compat@?$_Vector_const_iterator@PAUTileBuffer@?A0xc559f438@Imf@@V?$allocator@PAUTileBuffer@?A0xc559f438@Imf@@@std@@@std@@QBEXABV12@@Z 101051d0 f i ImfTiledOutputFile.obj
 0002:000a62d0       ??0_Node@?$_Tree_nod@V?$_Tmap_traits@UTileCoord@?A0xc559f438@Imf@@PAUBufferedTile@23@U?$less@UTileCoord@?A0xc559f438@Imf@@@std@@V?$allocator@U?$pair@$$CBUTileCoord@?A0xc559f438@Imf@@PAUBufferedTile@23@@std@@@6@$0A@@std@@@std@@QAE@PAU012@00ABU?$pair@$$CBUTileCoord@?A0xc559f438@Imf@@PAUBufferedTile@23@@2@D@Z 101052d0 f i ImfTiledOutputFile.obj
 0002:000a6370       ??0?$_Ranit@PAUTileBuffer@?A0xc559f438@Imf@@HPBQAU123@ABQAU123@@std@@QAE@XZ 10105370 f i ImfTiledOutputFile.obj
 0002:000a63d0       ??0?$_Tmap_traits@UTileCoord@?A0xc559f438@Imf@@PAUBufferedTile@23@U?$less@UTileCoord@?A0xc559f438@Imf@@@std@@V?$allocator@U?$pair@$$CBUTileCoord@?A0xc559f438@Imf@@PAUBufferedTile@23@@std@@@6@$0A@@std@@QAE@U?$less@UTileCoord@?A0xc559f438@Imf@@@1@@Z 101053d0 f i ImfTiledOutputFile.obj
 0002:000a6440       ??$unchecked_copy@PAUTOutSliceInfo@?A0xc559f438@Imf@@PAU123@@stdext@@YAPAUTOutSliceInfo@?A0xc559f438@Imf@@PAU123@00@Z 10105440 f i ImfTiledOutputFile.obj
 0002:000a6510       ??$_Ucopy@PAUTOutSliceInfo@?A0xc559f438@Imf@@@?$vector@UTOutSliceInfo@?A0xc559f438@Imf@@V?$allocator@UTOutSliceInfo@?A0xc559f438@Imf@@@std@@@std@@IAEPAUTOutSliceInfo@?A0xc559f438@Imf@@PAU234@00@Z 10105510 f i ImfTiledOutputFile.obj
 0002:000a6580       ??$_Debug_lt_pred@U?$less@UTileCoord@?A0xc559f438@Imf@@@std@@UTileCoord@?A0xc559f438@Imf@@U345@@std@@YA_NU?$less@UTileCoord@?A0xc559f438@Imf@@@0@ABUTileCoord@?A0xc559f438@Imf@@1PB_WI@Z 10105580 f i ImfTiledOutputFile.obj
 0002:000a6630       ??$_Destroy_range@UTOutSliceInfo@?A0xc559f438@Imf@@V?$allocator@UTOutSliceInfo@?A0xc559f438@Imf@@@std@@@std@@YAXPAUTOutSliceInfo@?A0xc559f438@Imf@@0AAV?$allocator@UTOutSliceInfo@?A0xc559f438@Imf@@@0@@Z 10105630 f i ImfTiledOutputFile.obj
 0002:000a66b0       ??$unchecked_uninitialized_fill_n@PAUTOutSliceInfo@?A0xc559f438@Imf@@IU123@V?$allocator@UTOutSliceInfo@?A0xc559f438@Imf@@@std@@@stdext@@YAXPAUTOutSliceInfo@?A0xc559f438@Imf@@IABU123@AAV?$allocator@UTOutSliceInfo@?A0xc559f438@Imf@@@std@@@Z 101056b0 f i ImfTiledOutputFile.obj
 0002:000a6750       ??$_Destroy@U_Node@?$_Tree_nod@V?$_Tmap_traits@UTileCoord@?A0xc559f438@Imf@@PAUBufferedTile@23@U?$less@UTileCoord@?A0xc559f438@Imf@@@std@@V?$allocator@U?$pair@$$CBUTileCoord@?A0xc559f438@Imf@@PAUBufferedTile@23@@std@@@6@$0A@@std@@@std@@@std@@YAXPAU_Node@?$_Tree_nod@V?$_Tmap_traits@UTileCoord@?A0xc559f438@Imf@@PAUBufferedTile@23@U?$less@UTileCoord@?A0xc559f438@Imf@@@std@@V?$allocator@U?$pair@$$CBUTileCoord@?A0xc559f438@Imf@@PAUBufferedTile@23@@std@@@6@$0A@@std@@@0@@Z 10105750 f i ImfTiledOutputFile.obj
 0002:000a6780       ??$_Umove@PAUTOutSliceInfo@?A0xc559f438@Imf@@@?$vector@UTOutSliceInfo@?A0xc559f438@Imf@@V?$allocator@UTOutSliceInfo@?A0xc559f438@Imf@@@std@@@std@@IAEPAUTOutSliceInfo@?A0xc559f438@Imf@@PAU234@00@Z 10105780 f i ImfTiledOutputFile.obj
 0002:000a67f0       ??$fill@PAUTOutSliceInfo@?A0xc559f438@Imf@@U123@@std@@YAXPAUTOutSliceInfo@?A0xc559f438@Imf@@0ABU123@@Z 101057f0 f i ImfTiledOutputFile.obj
 0002:000a6860       ??$_Unchecked_move_backward@PAUTOutSliceInfo@?A0xc559f438@Imf@@PAU123@@stdext@@YAPAUTOutSliceInfo@?A0xc559f438@Imf@@PAU123@00@Z 10105860 f i ImfTiledOutputFile.obj
 0002:000a6920       ??$_Allocate@UTOutSliceInfo@?A0xc559f438@Imf@@@std@@YAPAUTOutSliceInfo@?A0xc559f438@Imf@@IPAU123@@Z 10105920 f i ImfTiledOutputFile.obj
 0002:000a69c0       ??$unchecked_copy@PAPAUTileBuffer@?A0xc559f438@Imf@@PAPAU123@@stdext@@YAPAPAUTileBuffer@?A0xc559f438@Imf@@PAPAU123@00@Z 101059c0 f i ImfTiledOutputFile.obj
 0002:000a6a90       ??$_Destroy_range@PAUTileBuffer@?A0xc559f438@Imf@@V?$allocator@PAUTileBuffer@?A0xc559f438@Imf@@@std@@@std@@YAXPAPAUTileBuffer@?A0xc559f438@Imf@@0AAV?$allocator@PAUTileBuffer@?A0xc559f438@Imf@@@0@@Z 10105a90 f i ImfTiledOutputFile.obj
 0002:000a6b10       ??$_Umove@PAPAUTileBuffer@?A0xc559f438@Imf@@@?$vector@PAUTileBuffer@?A0xc559f438@Imf@@V?$allocator@PAUTileBuffer@?A0xc559f438@Imf@@@std@@@std@@IAEPAPAUTileBuffer@?A0xc559f438@Imf@@PAPAU234@00@Z 10105b10 f i ImfTiledOutputFile.obj
 0002:000a6b80       ??$fill@PAPAUTileBuffer@?A0xc559f438@Imf@@PAU123@@std@@YAXPAPAUTileBuffer@?A0xc559f438@Imf@@0ABQAU123@@Z 10105b80 f i ImfTiledOutputFile.obj
 0002:000a6bf0       ??$_Unchecked_move_backward@PAPAUTileBuffer@?A0xc559f438@Imf@@PAPAU123@@stdext@@YAPAPAUTileBuffer@?A0xc559f438@Imf@@PAPAU123@00@Z 10105bf0 f i ImfTiledOutputFile.obj
 0002:000a6cb0       ??$_Allocate@PAUTileBuffer@?A0xc559f438@Imf@@@std@@YAPAPAUTileBuffer@?A0xc559f438@Imf@@IPAPAU123@@Z 10105cb0 f i ImfTiledOutputFile.obj
 0002:000a6d50       ??$_Destroy@PAU_Node@?$_Tree_nod@V?$_Tmap_traits@UTileCoord@?A0xc559f438@Imf@@PAUBufferedTile@23@U?$less@UTileCoord@?A0xc559f438@Imf@@@std@@V?$allocator@U?$pair@$$CBUTileCoord@?A0xc559f438@Imf@@PAUBufferedTile@23@@std@@@6@$0A@@std@@@std@@@std@@YAXPAPAU_Node@?$_Tree_nod@V?$_Tmap_traits@UTileCoord@?A0xc559f438@Imf@@PAUBufferedTile@23@U?$less@UTileCoord@?A0xc559f438@Imf@@@std@@V?$allocator@U?$pair@$$CBUTileCoord@?A0xc559f438@Imf@@PAUBufferedTile@23@@std@@@6@$0A@@std@@@0@@Z 10105d50 f i ImfTiledOutputFile.obj
