LIBRARY	IlmThread_dll
EXPORTS
	??0Mutex@IlmThread@@QAE@XZ
	??1Mutex@IlmThread@@UAE@XZ
	?lock@Mutex@IlmThread@@ABEXXZ
	?unlock@Mutex@IlmThread@@ABEXXZ
	??0WorkerThread@?A0x6db1a767@IlmThread@@QAE@PAUData@ThreadPool@2@@Z
	?run@WorkerThread@?A0x6db1a767@IlmThread@@UAEXXZ
	??0Data@TaskGroup@IlmThread@@QAE@XZ
	??1Data@TaskGroup@IlmThread@@QAE@XZ
	?addTask@Data@TaskGroup@IlmThread@@QAEXXZ
	?removeTask@Data@TaskGroup@IlmThread@@QAEXXZ
	??0Data@ThreadPool@IlmThread@@QAE@XZ
	??1Data@ThreadPool@IlmThread@@QAE@XZ
	?finish@Data@ThreadPool@IlmThread@@QAEXXZ
	?stopped@Data@ThreadPool@IlmThread@@QBE_NXZ
	?stop@Data@ThreadPool@IlmThread@@QAEXXZ
	??0Task@IlmThread@@QAE@PAVTaskGroup@1@@Z
	??1Task@IlmThread@@UAE@XZ
	?group@Task@IlmThread@@QAEPAVTaskGroup@2@XZ
	??0TaskGroup@IlmThread@@QAE@XZ
	??1TaskGroup@IlmThread@@QAE@XZ
	??0ThreadPool@IlmThread@@QAE@I@Z
	??1ThreadPool@IlmThread@@UAE@XZ
	?numThreads@ThreadPool@IlmThread@@QBEHXZ
	?setNumThreads@ThreadPool@IlmThread@@QAEXH@Z
	?addTask@ThreadPool@IlmThread@@QAEXPAVTask@2@@Z
	?globalThreadPool@ThreadPool@IlmThread@@SAAAV12@XZ
	?addGlobalTask@ThreadPool@IlmThread@@SAXPAVTask@2@@Z
	??1Lock@IlmThread@@QAE@XZ
	??1ArgExc@Iex@@UAE@XZ
	??0ArgExc@Iex@@QAE@ABV01@@Z
	??0?$list@PAVTask@IlmThread@@V?$allocator@PAVTask@IlmThread@@@std@@@std@@QAE@XZ
	??1?$list@PAVTask@IlmThread@@V?$allocator@PAVTask@IlmThread@@@std@@@std@@QAE@XZ
	?front@?$list@PAVTask@IlmThread@@V?$allocator@PAVTask@IlmThread@@@std@@@std@@QAEAAPAVTask@IlmThread@@XZ
	?pop_front@?$list@PAVTask@IlmThread@@V?$allocator@PAVTask@IlmThread@@@std@@@std@@QAEXXZ
	?clear@?$list@PAVTask@IlmThread@@V?$allocator@PAVTask@IlmThread@@@std@@@std@@QAEXXZ
	??0?$list@PAVWorkerThread@?A0x6db1a767@IlmThread@@V?$allocator@PAVWorkerThread@?A0x6db1a767@IlmThread@@@std@@@std@@QAE@XZ
	??1?$list@PAVWorkerThread@?A0x6db1a767@IlmThread@@V?$allocator@PAVWorkerThread@?A0x6db1a767@IlmThread@@@std@@@std@@QAE@XZ
	?clear@?$list@PAVWorkerThread@?A0x6db1a767@IlmThread@@V?$allocator@PAVWorkerThread@?A0x6db1a767@IlmThread@@@std@@@std@@QAEXXZ
	??D?$_Iterator@$00@?$list@PAVWorkerThread@?A0x6db1a767@IlmThread@@V?$allocator@PAVWorkerThread@?A0x6db1a767@IlmThread@@@std@@@std@@QBEAAPAVWorkerThread@?A0x6db1a767@IlmThread@@XZ
	?_Insert@?$list@PAVTask@IlmThread@@V?$allocator@PAVTask@IlmThread@@@std@@@std@@QAEXV?$_Iterator@$00@12@ABQAVTask@IlmThread@@@Z
	?erase@?$list@PAVTask@IlmThread@@V?$allocator@PAVTask@IlmThread@@@std@@@std@@QAE?AV?$_Iterator@$00@12@V312@@Z
	?_Buynode@?$list@PAVTask@IlmThread@@V?$allocator@PAVTask@IlmThread@@@std@@@std@@IAEPAU_Node@?$_List_nod@PAVTask@IlmThread@@V?$allocator@PAVTask@IlmThread@@@std@@@2@XZ
	?_Insert@?$list@PAVWorkerThread@?A0x6db1a767@IlmThread@@V?$allocator@PAVWorkerThread@?A0x6db1a767@IlmThread@@@std@@@std@@QAEXV?$_Iterator@$00@12@ABQAVWorkerThread@?A0x6db1a767@IlmThread@@@Z
	?_Buynode@?$list@PAVWorkerThread@?A0x6db1a767@IlmThread@@V?$allocator@PAVWorkerThread@?A0x6db1a767@IlmThread@@@std@@@std@@IAEPAU_Node@?$_List_nod@PAVWorkerThread@?A0x6db1a767@IlmThread@@V?$allocator@PAVWorkerThread@?A0x6db1a767@IlmThread@@@std@@@2@XZ
	??E?$_Const_iterator@$00@?$list@PAVWorkerThread@?A0x6db1a767@IlmThread@@V?$allocator@PAVWorkerThread@?A0x6db1a767@IlmThread@@@std@@@std@@QAEAAV012@XZ
	?_Buynode@?$list@PAVTask@IlmThread@@V?$allocator@PAVTask@IlmThread@@@std@@@std@@IAEPAU_Node@?$_List_nod@PAVTask@IlmThread@@V?$allocator@PAVTask@IlmThread@@@std@@@2@PAU342@0ABQAVTask@IlmThread@@@Z
	?_Incsize@?$list@PAVTask@IlmThread@@V?$allocator@PAVTask@IlmThread@@@std@@@std@@IAEXI@Z
	?what@logic_error@std@@UBEPBDXZ
	??1length_error@std@@UAE@XZ
	??0logic_error@std@@QAE@ABV01@@Z
	?allocate@?$allocator@U_Node@?$_List_nod@PAVTask@IlmThread@@V?$allocator@PAVTask@IlmThread@@@std@@@std@@@std@@QAEPAU_Node@?$_List_nod@PAVTask@IlmThread@@V?$allocator@PAVTask@IlmThread@@@std@@@2@I@Z
	?_Buynode@?$list@PAVWorkerThread@?A0x6db1a767@IlmThread@@V?$allocator@PAVWorkerThread@?A0x6db1a767@IlmThread@@@std@@@std@@IAEPAU_Node@?$_List_nod@PAVWorkerThread@?A0x6db1a767@IlmThread@@V?$allocator@PAVWorkerThread@?A0x6db1a767@IlmThread@@@std@@@2@PAU342@0ABQAVWorkerThread@?A0x6db1a767@IlmThread@@@Z
	?_Incsize@?$list@PAVWorkerThread@?A0x6db1a767@IlmThread@@V?$allocator@PAVWorkerThread@?A0x6db1a767@IlmThread@@@std@@@std@@IAEXI@Z
	?allocate@?$allocator@U_Node@?$_List_nod@PAVWorkerThread@?A0x6db1a767@IlmThread@@V?$allocator@PAVWorkerThread@?A0x6db1a767@IlmThread@@@std@@@std@@@std@@QAEPAU_Node@?$_List_nod@PAVWorkerThread@?A0x6db1a767@IlmThread@@V?$allocator@PAVWorkerThread@?A0x6db1a767@IlmThread@@@std@@@2@I@Z
	??0length_error@std@@QAE@ABV01@@Z
	??E?$_Const_iterator@$00@?$list@PAVTask@IlmThread@@V?$allocator@PAVTask@IlmThread@@@std@@@std@@QAEAAV012@XZ
	??$_Allocate@U_Node@?$_List_nod@PAVTask@IlmThread@@V?$allocator@PAVTask@IlmThread@@@std@@@std@@@std@@YAPAU_Node@?$_List_nod@PAVTask@IlmThread@@V?$allocator@PAVTask@IlmThread@@@std@@@0@IPAU120@@Z
	??1bad_alloc@std@@UAE@XZ
	??$_Allocate@U_Node@?$_List_nod@PAVWorkerThread@?A0x6db1a767@IlmThread@@V?$allocator@PAVWorkerThread@?A0x6db1a767@IlmThread@@@std@@@std@@@std@@YAPAU_Node@?$_List_nod@PAVWorkerThread@?A0x6db1a767@IlmThread@@V?$allocator@PAVWorkerThread@?A0x6db1a767@IlmThread@@@std@@@0@IPAU120@@Z
	??0bad_alloc@std@@QAE@ABV01@@Z
	??0LogicExc@Iex@@QAE@AAV?$basic_stringstream@DU?$char_traits@D@std@@V?$allocator@D@2@@std@@@Z
	??1LogicExc@Iex@@UAE@XZ
	?errorString@?A0x80da50f8@IlmThread@@YA?AV?$basic_string@DU?$char_traits@D@std@@V?$allocator@D@2@@std@@XZ
	??1Semaphore@IlmThread@@UAE@XZ
	??0Semaphore@IlmThread@@QAE@I@Z
	?wait@Semaphore@IlmThread@@QAEXXZ
	?post@Semaphore@IlmThread@@QAEXXZ
	?value@Semaphore@IlmThread@@QBEHXZ
	??Bsentry@?$basic_ostream@DU?$char_traits@D@std@@@std@@QBE_NXZ
	??0_Sentry_base@?$basic_ostream@DU?$char_traits@D@std@@@std@@QAE@AAV12@@Z
	??1_Sentry_base@?$basic_ostream@DU?$char_traits@D@std@@@std@@QAE@XZ
	??0sentry@?$basic_ostream@DU?$char_traits@D@std@@@std@@QAE@AAV12@@Z
	??1sentry@?$basic_ostream@DU?$char_traits@D@std@@@std@@QAE@XZ
	??$?6U?$char_traits@D@std@@@std@@YAAAV?$basic_ostream@DU?$char_traits@D@std@@@0@AAV10@PBD@Z
	??0LogicExc@Iex@@QAE@ABV01@@Z
	?supportsThreads@IlmThread@@YA_NXZ
	?threadLoop@?A0xe2ae61f0@IlmThread@@YGIPAX@Z
	??0Thread@IlmThread@@QAE@XZ
	??1Thread@IlmThread@@UAE@XZ
	?start@Thread@IlmThread@@QAEXXZ
	?collate@?$_Locbase@H@std@@2HB
	?ctype@?$_Locbase@H@std@@2HB
	?monetary@?$_Locbase@H@std@@2HB
	?numeric@?$_Locbase@H@std@@2HB
	?time@?$_Locbase@H@std@@2HB
	?messages@?$_Locbase@H@std@@2HB
	?all@?$_Locbase@H@std@@2HB
	?none@?$_Locbase@H@std@@2HB
	?skipws@?$_Iosb@H@std@@2W4_Fmtflags@12@B
	?unitbuf@?$_Iosb@H@std@@2W4_Fmtflags@12@B
	?uppercase@?$_Iosb@H@std@@2W4_Fmtflags@12@B
	?showbase@?$_Iosb@H@std@@2W4_Fmtflags@12@B
	?showpoint@?$_Iosb@H@std@@2W4_Fmtflags@12@B
	?showpos@?$_Iosb@H@std@@2W4_Fmtflags@12@B
	?left@?$_Iosb@H@std@@2W4_Fmtflags@12@B
	?right@?$_Iosb@H@std@@2W4_Fmtflags@12@B
	?internal@?$_Iosb@H@std@@2W4_Fmtflags@12@B
	?dec@?$_Iosb@H@std@@2W4_Fmtflags@12@B
	?oct@?$_Iosb@H@std@@2W4_Fmtflags@12@B
	?hex@?$_Iosb@H@std@@2W4_Fmtflags@12@B
	?scientific@?$_Iosb@H@std@@2W4_Fmtflags@12@B
	?fixed@?$_Iosb@H@std@@2W4_Fmtflags@12@B
	?boolalpha@?$_Iosb@H@std@@2W4_Fmtflags@12@B
	?_Stdio@?$_Iosb@H@std@@2W4_Fmtflags@12@B
	?adjustfield@?$_Iosb@H@std@@2W4_Fmtflags@12@B
	?basefield@?$_Iosb@H@std@@2W4_Fmtflags@12@B
	?floatfield@?$_Iosb@H@std@@2W4_Fmtflags@12@B
	?goodbit@?$_Iosb@H@std@@2W4_Iostate@12@B
	?eofbit@?$_Iosb@H@std@@2W4_Iostate@12@B
	?failbit@?$_Iosb@H@std@@2W4_Iostate@12@B
	?badbit@?$_Iosb@H@std@@2W4_Iostate@12@B
	?_Hardfail@?$_Iosb@H@std@@2W4_Iostate@12@B
	?in@?$_Iosb@H@std@@2W4_Openmode@12@B
	?out@?$_Iosb@H@std@@2W4_Openmode@12@B
	?ate@?$_Iosb@H@std@@2W4_Openmode@12@B
	?app@?$_Iosb@H@std@@2W4_Openmode@12@B
	?trunc@?$_Iosb@H@std@@2W4_Openmode@12@B
	?_Nocreate@?$_Iosb@H@std@@2W4_Openmode@12@B
	?_Noreplace@?$_Iosb@H@std@@2W4_Openmode@12@B
	?binary@?$_Iosb@H@std@@2W4_Openmode@12@B
	?beg@?$_Iosb@H@std@@2W4_Seekdir@12@B
	?cur@?$_Iosb@H@std@@2W4_Seekdir@12@B
	?end@?$_Iosb@H@std@@2W4_Seekdir@12@B
	?gThreadPool@IlmThread@@3VThreadPool@1@A
