LIBRARY	Imath_dll_d
EXPORTS
	?hsv2rgb_d@Imath@@YA?AV?$Vec3@N@1@ABV21@@Z
	?hsv2rgb_d@Imath@@YA?AV?$Color4@N@1@ABV21@@Z
	?rgb2hsv_d@Imath@@YA?AV?$Vec3@N@1@ABV21@@Z
	?rgb2hsv_d@Imath@@YA?AV?$Color4@N@1@ABV21@@Z
	?floor@?$Math@N@Imath@@SANN@Z
	??0?$Vec3@N@Imath@@QAE@NNN@Z
	??0?$Color4@N@Imath@@QAE@NNNN@Z
	?succf@Imath@@YAMM@Z
	?predf@Imath@@YAMM@Z
	?succd@Imath@@YANN@Z
	?predd@Imath@@YANN@Z
	??0?$Matrix33@M@Imath@@QAE@MMMMMMMMM@Z
	??0?$Matrix33@N@Imath@@QAE@NNNNNNNNN@Z
	??0?$Matrix44@M@Imath@@QAE@MMMMMMMMMMMMMMMM@Z
	??0?$Matrix44@N@Imath@@QAE@NNNNNNNNNNNNNNNN@Z
	?length@?$Vec2@F@Imath@@QBEFXZ
	?sqrt@?$Math@M@Imath@@SAMM@Z
	sqrtf
	?normalize@?$Vec2@F@Imath@@QAEABV12@XZ
	?normalizeExc@?$Vec2@F@Imath@@QAEABV12@XZ
	??0NullVecExc@Imath@@QAE@PBD@Z
	??0MathExc@Iex@@QAE@PBD@Z
	??1MathExc@Iex@@UAE@XZ
	??1NullVecExc@Imath@@UAE@XZ
	?normalizeNonNull@?$Vec2@F@Imath@@QAEABV12@XZ
	?normalized@?$Vec2@F@Imath@@QBE?AV12@XZ
	?normalizedExc@?$Vec2@F@Imath@@QBE?AV12@XZ
	?normalizedNonNull@?$Vec2@F@Imath@@QBE?AV12@XZ
	?length@?$Vec2@H@Imath@@QBEHXZ
	?normalize@?$Vec2@H@Imath@@QAEABV12@XZ
	?normalizeExc@?$Vec2@H@Imath@@QAEABV12@XZ
	?normalizeNonNull@?$Vec2@H@Imath@@QAEABV12@XZ
	?normalized@?$Vec2@H@Imath@@QBE?AV12@XZ
	?normalizedExc@?$Vec2@H@Imath@@QBE?AV12@XZ
	?normalizedNonNull@?$Vec2@H@Imath@@QBE?AV12@XZ
	?length@?$Vec3@F@Imath@@QBEFXZ
	?normalize@?$Vec3@F@Imath@@QAEABV12@XZ
	?normalizeExc@?$Vec3@F@Imath@@QAEABV12@XZ
	?normalizeNonNull@?$Vec3@F@Imath@@QAEABV12@XZ
	?normalized@?$Vec3@F@Imath@@QBE?AV12@XZ
	?normalizedExc@?$Vec3@F@Imath@@QBE?AV12@XZ
	?normalizedNonNull@?$Vec3@F@Imath@@QBE?AV12@XZ
	?length@?$Vec3@H@Imath@@QBEHXZ
	?normalize@?$Vec3@H@Imath@@QAEABV12@XZ
	?normalizeExc@?$Vec3@H@Imath@@QAEABV12@XZ
	?normalizeNonNull@?$Vec3@H@Imath@@QAEABV12@XZ
	?normalized@?$Vec3@H@Imath@@QBE?AV12@XZ
	?normalizedExc@?$Vec3@H@Imath@@QBE?AV12@XZ
	?normalizedNonNull@?$Vec3@H@Imath@@QBE?AV12@XZ
	??0NullVecExc@Imath@@QAE@ABV01@@Z
	??0MathExc@Iex@@QAE@ABV01@@Z
	??0?$Vec2@F@Imath@@QAE@ABV01@@Z
	?dot@?$Vec2@F@Imath@@QBEFABV12@@Z
	??0?$Vec2@H@Imath@@QAE@ABV01@@Z
	?dot@?$Vec2@H@Imath@@QBEHABV12@@Z
	??0?$Vec3@F@Imath@@QAE@ABV01@@Z
	?dot@?$Vec3@F@Imath@@QBEFABV12@@Z
	??0?$Vec3@H@Imath@@QAE@ABV01@@Z
	?dot@?$Vec3@H@Imath@@QBEHABV12@@Z
	??$normalizeOrThrow@F@?A0xcd77a4ad@Imath@@YA_NAAV?$Vec3@F@1@@Z
	??0IntVecNormalizeExc@Imath@@QAE@PBD@Z
	??1IntVecNormalizeExc@Imath@@UAE@XZ
	??$normalizeOrThrow@F@?A0xcd77a4ad@Imath@@YA_NAAV?$Vec2@F@1@@Z
	??$normalizeOrThrow@H@?A0xcd77a4ad@Imath@@YA_NAAV?$Vec3@H@1@@Z
	??$normalizeOrThrow@H@?A0xcd77a4ad@Imath@@YA_NAAV?$Vec2@H@1@@Z
	??0IntVecNormalizeExc@Imath@@QAE@ABV01@@Z
	??A?$Vec2@F@Imath@@QAEAAFH@Z
	??A?$Vec2@H@Imath@@QAEAAHH@Z
	??A?$Vec3@F@Imath@@QAEAAFH@Z
	??A?$Vec3@H@Imath@@QAEAAHH@Z
	?collate@?$_Locbase@H@std@@2HB
	?ctype@?$_Locbase@H@std@@2HB
	?monetary@?$_Locbase@H@std@@2HB
	?numeric@?$_Locbase@H@std@@2HB
	?time@?$_Locbase@H@std@@2HB
	?messages@?$_Locbase@H@std@@2HB
	?all@?$_Locbase@H@std@@2HB
	?none@?$_Locbase@H@std@@2HB
	?skipws@?$_Iosb@H@std@@2W4_Fmtflags@12@B
	?unitbuf@?$_Iosb@H@std@@2W4_Fmtflags@12@B
	?uppercase@?$_Iosb@H@std@@2W4_Fmtflags@12@B
	?showbase@?$_Iosb@H@std@@2W4_Fmtflags@12@B
	?showpoint@?$_Iosb@H@std@@2W4_Fmtflags@12@B
	?showpos@?$_Iosb@H@std@@2W4_Fmtflags@12@B
	?left@?$_Iosb@H@std@@2W4_Fmtflags@12@B
	?right@?$_Iosb@H@std@@2W4_Fmtflags@12@B
	?internal@?$_Iosb@H@std@@2W4_Fmtflags@12@B
	?dec@?$_Iosb@H@std@@2W4_Fmtflags@12@B
	?oct@?$_Iosb@H@std@@2W4_Fmtflags@12@B
	?hex@?$_Iosb@H@std@@2W4_Fmtflags@12@B
	?scientific@?$_Iosb@H@std@@2W4_Fmtflags@12@B
	?fixed@?$_Iosb@H@std@@2W4_Fmtflags@12@B
	?boolalpha@?$_Iosb@H@std@@2W4_Fmtflags@12@B
	?_Stdio@?$_Iosb@H@std@@2W4_Fmtflags@12@B
	?adjustfield@?$_Iosb@H@std@@2W4_Fmtflags@12@B
	?basefield@?$_Iosb@H@std@@2W4_Fmtflags@12@B
	?floatfield@?$_Iosb@H@std@@2W4_Fmtflags@12@B
	?goodbit@?$_Iosb@H@std@@2W4_Iostate@12@B
	?eofbit@?$_Iosb@H@std@@2W4_Iostate@12@B
	?failbit@?$_Iosb@H@std@@2W4_Iostate@12@B
	?badbit@?$_Iosb@H@std@@2W4_Iostate@12@B
	?_Hardfail@?$_Iosb@H@std@@2W4_Iostate@12@B
	?in@?$_Iosb@H@std@@2W4_Openmode@12@B
	?out@?$_Iosb@H@std@@2W4_Openmode@12@B
	?ate@?$_Iosb@H@std@@2W4_Openmode@12@B
	?app@?$_Iosb@H@std@@2W4_Openmode@12@B
	?trunc@?$_Iosb@H@std@@2W4_Openmode@12@B
	?_Nocreate@?$_Iosb@H@std@@2W4_Openmode@12@B
	?_Noreplace@?$_Iosb@H@std@@2W4_Openmode@12@B
	?binary@?$_Iosb@H@std@@2W4_Openmode@12@B
	?beg@?$_Iosb@H@std@@2W4_Seekdir@12@B
	?cur@?$_Iosb@H@std@@2W4_Seekdir@12@B
	?end@?$_Iosb@H@std@@2W4_Seekdir@12@B
	?identity33d@Imath@@3V?$Matrix33@N@1@A
	?identity44d@Imath@@3V?$Matrix44@N@1@A
	?identity44f@Imath@@3V?$Matrix44@M@1@A
	?identity33f@Imath@@3V?$Matrix33@M@1@A
