LIBRARY	Imath_dll
EXPORTS
	?hsv2rgb_d@Imath@@YA?AV?$Vec3@N@1@ABV21@@Z
	?hsv2rgb_d@Imath@@YA?AV?$Color4@N@1@ABV21@@Z
	?rgb2hsv_d@Imath@@YA?AV?$Vec3@N@1@ABV21@@Z
	?rgb2hsv_d@Imath@@YA?AV?$Color4@N@1@ABV21@@Z
	?succf@Imath@@YAMM@Z
	?predf@Imath@@YAMM@Z
	?succd@Imath@@YANN@Z
	?predd@Imath@@YANN@Z
	?length@?$Vec2@F@Imath@@QBEFXZ
	?normalize@?$Vec2@F@Imath@@QAEABV12@XZ
	?normalizeExc@?$Vec2@F@Imath@@QAEABV12@XZ
	?normalizeNonNull@?$Vec2@F@Imath@@QAEABV12@XZ
	?normalized@?$Vec2@F@Imath@@QBE?AV12@XZ
	?normalizedExc@?$Vec2@F@Imath@@QBE?AV12@XZ
	?normalizedNonNull@?$Vec2@F@Imath@@QBE?AV12@XZ
	?length@?$Vec2@H@Imath@@QBEHXZ
	?normalize@?$Vec2@H@Imath@@QAEABV12@XZ
	?normalizeExc@?$Vec2@H@Imath@@QAEABV12@XZ
	?normalizeNonNull@?$Vec2@H@Imath@@QAEABV12@XZ
	?normalized@?$Vec2@H@Imath@@QBE?AV12@XZ
	?normalizedExc@?$Vec2@H@Imath@@QBE?AV12@XZ
	?normalizedNonNull@?$Vec2@H@Imath@@QBE?AV12@XZ
	?length@?$Vec3@F@Imath@@QBEFXZ
	?normalize@?$Vec3@F@Imath@@QAEABV12@XZ
	?normalizeExc@?$Vec3@F@Imath@@QAEABV12@XZ
	?normalizeNonNull@?$Vec3@F@Imath@@QAEABV12@XZ
	?normalized@?$Vec3@F@Imath@@QBE?AV12@XZ
	?normalizedExc@?$Vec3@F@Imath@@QBE?AV12@XZ
	?normalizedNonNull@?$Vec3@F@Imath@@QBE?AV12@XZ
	?length@?$Vec3@H@Imath@@QBEHXZ
	?normalize@?$Vec3@H@Imath@@QAEABV12@XZ
	?normalizeExc@?$Vec3@H@Imath@@QAEABV12@XZ
	?normalizeNonNull@?$Vec3@H@Imath@@QAEABV12@XZ
	?normalized@?$Vec3@H@Imath@@QBE?AV12@XZ
	?normalizedExc@?$Vec3@H@Imath@@QBE?AV12@XZ
	?normalizedNonNull@?$Vec3@H@Imath@@QBE?AV12@XZ
	??1IntVecNormalizeExc@Imath@@UAE@XZ
	??1NullVecExc@Imath@@UAE@XZ
	??0NullVecExc@Imath@@QAE@ABV01@@Z
	??0MathExc@Iex@@QAE@ABV01@@Z
	??$normalizeOrThrow@F@?A0xcd77a4ad@Imath@@YA_NAAV?$Vec3@F@1@@Z
	??$normalizeOrThrow@F@?A0xcd77a4ad@Imath@@YA_NAAV?$Vec2@F@1@@Z
	??$normalizeOrThrow@H@?A0xcd77a4ad@Imath@@YA_NAAV?$Vec3@H@1@@Z
	??$normalizeOrThrow@H@?A0xcd77a4ad@Imath@@YA_NAAV?$Vec2@H@1@@Z
	??0IntVecNormalizeExc@Imath@@QAE@ABV01@@Z
	?identity33d@Imath@@3V?$Matrix33@N@1@A
	?identity44d@Imath@@3V?$Matrix44@N@1@A
	?identity44f@Imath@@3V?$Matrix44@M@1@A
	?identity33f@Imath@@3V?$Matrix33@M@1@A
