LIBRARY	Iex_dll_d
EXPORTS
	?setStackTracer@Iex@@YAXP6A?AV?$basic_string@DU?$char_traits@D@std@@V?$allocator@D@2@@std@@XZ@Z
	?stackTracer@Iex@@YAP6A?AV?$basic_string@DU?$char_traits@D@std@@V?$allocator@D@2@@std@@XZXZ
	??0BaseExc@Iex@@QAE@PBD@Z
	??0BaseExc@Iex@@QAE@ABV?$basic_string@DU?$char_traits@D@std@@V?$allocator@D@2@@std@@@Z
	??0BaseExc@Iex@@QAE@AAV?$basic_stringstream@DU?$char_traits@D@std@@V?$allocator@D@2@@std@@@Z
	??0BaseExc@Iex@@QAE@ABV01@@Z
	??1BaseExc@Iex@@UAE@XZ
	?what@BaseExc@Iex@@UBEPBDXZ
	?assign@BaseExc@Iex@@QAEAAV12@AAV?$basic_stringstream@DU?$char_traits@D@std@@V?$allocator@D@2@@std@@@Z
	?append@BaseExc@Iex@@QAEAAV12@AAV?$basic_stringstream@DU?$char_traits@D@std@@V?$allocator@D@2@@std@@@Z
	?throwErrnoExc@Iex@@YAXABV?$basic_string@DU?$char_traits@D@std@@V?$allocator@D@2@@std@@H@Z
	??0ErrnoExc@Iex@@QAE@ABV?$basic_string@DU?$char_traits@D@std@@V?$allocator@D@2@@std@@@Z
	??1ErrnoExc@Iex@@UAE@XZ
	??0EpermExc@Iex@@QAE@ABV?$basic_string@DU?$char_traits@D@std@@V?$allocator@D@2@@std@@@Z
	??1EpermExc@Iex@@UAE@XZ
	??0EnoentExc@Iex@@QAE@ABV?$basic_string@DU?$char_traits@D@std@@V?$allocator@D@2@@std@@@Z
	??1EnoentExc@Iex@@UAE@XZ
	??0EsrchExc@Iex@@QAE@ABV?$basic_string@DU?$char_traits@D@std@@V?$allocator@D@2@@std@@@Z
	??1EsrchExc@Iex@@UAE@XZ
	??0EintrExc@Iex@@QAE@ABV?$basic_string@DU?$char_traits@D@std@@V?$allocator@D@2@@std@@@Z
	??1EintrExc@Iex@@UAE@XZ
	??0EioExc@Iex@@QAE@ABV?$basic_string@DU?$char_traits@D@std@@V?$allocator@D@2@@std@@@Z
	??1EioExc@Iex@@UAE@XZ
	??0EnxioExc@Iex@@QAE@ABV?$basic_string@DU?$char_traits@D@std@@V?$allocator@D@2@@std@@@Z
	??1EnxioExc@Iex@@UAE@XZ
	??0E2bigExc@Iex@@QAE@ABV?$basic_string@DU?$char_traits@D@std@@V?$allocator@D@2@@std@@@Z
	??1E2bigExc@Iex@@UAE@XZ
	??0EnoexecExc@Iex@@QAE@ABV?$basic_string@DU?$char_traits@D@std@@V?$allocator@D@2@@std@@@Z
	??1EnoexecExc@Iex@@UAE@XZ
	??0EbadfExc@Iex@@QAE@ABV?$basic_string@DU?$char_traits@D@std@@V?$allocator@D@2@@std@@@Z
	??1EbadfExc@Iex@@UAE@XZ
	??0EchildExc@Iex@@QAE@ABV?$basic_string@DU?$char_traits@D@std@@V?$allocator@D@2@@std@@@Z
	??1EchildExc@Iex@@UAE@XZ
	??0EagainExc@Iex@@QAE@ABV?$basic_string@DU?$char_traits@D@std@@V?$allocator@D@2@@std@@@Z
	??1EagainExc@Iex@@UAE@XZ
	??0EnomemExc@Iex@@QAE@ABV?$basic_string@DU?$char_traits@D@std@@V?$allocator@D@2@@std@@@Z
	??1EnomemExc@Iex@@UAE@XZ
	??0EaccesExc@Iex@@QAE@ABV?$basic_string@DU?$char_traits@D@std@@V?$allocator@D@2@@std@@@Z
	??1EaccesExc@Iex@@UAE@XZ
	??0EfaultExc@Iex@@QAE@ABV?$basic_string@DU?$char_traits@D@std@@V?$allocator@D@2@@std@@@Z
	??1EfaultExc@Iex@@UAE@XZ
	??0EbusyExc@Iex@@QAE@ABV?$basic_string@DU?$char_traits@D@std@@V?$allocator@D@2@@std@@@Z
	??1EbusyExc@Iex@@UAE@XZ
	??0EexistExc@Iex@@QAE@ABV?$basic_string@DU?$char_traits@D@std@@V?$allocator@D@2@@std@@@Z
	??1EexistExc@Iex@@UAE@XZ
	??0ExdevExc@Iex@@QAE@ABV?$basic_string@DU?$char_traits@D@std@@V?$allocator@D@2@@std@@@Z
	??1ExdevExc@Iex@@UAE@XZ
	??0EnodevExc@Iex@@QAE@ABV?$basic_string@DU?$char_traits@D@std@@V?$allocator@D@2@@std@@@Z
	??1EnodevExc@Iex@@UAE@XZ
	??0EnotdirExc@Iex@@QAE@ABV?$basic_string@DU?$char_traits@D@std@@V?$allocator@D@2@@std@@@Z
	??1EnotdirExc@Iex@@UAE@XZ
	??0EisdirExc@Iex@@QAE@ABV?$basic_string@DU?$char_traits@D@std@@V?$allocator@D@2@@std@@@Z
	??1EisdirExc@Iex@@UAE@XZ
	??0EinvalExc@Iex@@QAE@ABV?$basic_string@DU?$char_traits@D@std@@V?$allocator@D@2@@std@@@Z
	??1EinvalExc@Iex@@UAE@XZ
	??0EnfileExc@Iex@@QAE@ABV?$basic_string@DU?$char_traits@D@std@@V?$allocator@D@2@@std@@@Z
	??1EnfileExc@Iex@@UAE@XZ
	??0EmfileExc@Iex@@QAE@ABV?$basic_string@DU?$char_traits@D@std@@V?$allocator@D@2@@std@@@Z
	??1EmfileExc@Iex@@UAE@XZ
	??0EnottyExc@Iex@@QAE@ABV?$basic_string@DU?$char_traits@D@std@@V?$allocator@D@2@@std@@@Z
	??1EnottyExc@Iex@@UAE@XZ
	??0EfbigExc@Iex@@QAE@ABV?$basic_string@DU?$char_traits@D@std@@V?$allocator@D@2@@std@@@Z
	??1EfbigExc@Iex@@UAE@XZ
	??0EnospcExc@Iex@@QAE@ABV?$basic_string@DU?$char_traits@D@std@@V?$allocator@D@2@@std@@@Z
	??1EnospcExc@Iex@@UAE@XZ
	??0EspipeExc@Iex@@QAE@ABV?$basic_string@DU?$char_traits@D@std@@V?$allocator@D@2@@std@@@Z
	??1EspipeExc@Iex@@UAE@XZ
	??0ErofsExc@Iex@@QAE@ABV?$basic_string@DU?$char_traits@D@std@@V?$allocator@D@2@@std@@@Z
	??1ErofsExc@Iex@@UAE@XZ
	??0EmlinkExc@Iex@@QAE@ABV?$basic_string@DU?$char_traits@D@std@@V?$allocator@D@2@@std@@@Z
	??1EmlinkExc@Iex@@UAE@XZ
	??0EpipeExc@Iex@@QAE@ABV?$basic_string@DU?$char_traits@D@std@@V?$allocator@D@2@@std@@@Z
	??1EpipeExc@Iex@@UAE@XZ
	??0EdomExc@Iex@@QAE@ABV?$basic_string@DU?$char_traits@D@std@@V?$allocator@D@2@@std@@@Z
	??1EdomExc@Iex@@UAE@XZ
	??0ErangeExc@Iex@@QAE@ABV?$basic_string@DU?$char_traits@D@std@@V?$allocator@D@2@@std@@@Z
	??1ErangeExc@Iex@@UAE@XZ
	??0EdeadlkExc@Iex@@QAE@ABV?$basic_string@DU?$char_traits@D@std@@V?$allocator@D@2@@std@@@Z
	??1EdeadlkExc@Iex@@UAE@XZ
	??0EnolckExc@Iex@@QAE@ABV?$basic_string@DU?$char_traits@D@std@@V?$allocator@D@2@@std@@@Z
	??1EnolckExc@Iex@@UAE@XZ
	??0EnametoolongExc@Iex@@QAE@ABV?$basic_string@DU?$char_traits@D@std@@V?$allocator@D@2@@std@@@Z
	??1EnametoolongExc@Iex@@UAE@XZ
	??0EilseqExc@Iex@@QAE@ABV?$basic_string@DU?$char_traits@D@std@@V?$allocator@D@2@@std@@@Z
	??1EilseqExc@Iex@@UAE@XZ
	??0EnosysExc@Iex@@QAE@ABV?$basic_string@DU?$char_traits@D@std@@V?$allocator@D@2@@std@@@Z
	??1EnosysExc@Iex@@UAE@XZ
	??0EnotemptyExc@Iex@@QAE@ABV?$basic_string@DU?$char_traits@D@std@@V?$allocator@D@2@@std@@@Z
	??1EnotemptyExc@Iex@@UAE@XZ
	??0EpermExc@Iex@@QAE@ABV01@@Z
	??0ErrnoExc@Iex@@QAE@ABV01@@Z
	??0EnoentExc@Iex@@QAE@ABV01@@Z
	??0EsrchExc@Iex@@QAE@ABV01@@Z
	??0EintrExc@Iex@@QAE@ABV01@@Z
	??0EioExc@Iex@@QAE@ABV01@@Z
	??0EnxioExc@Iex@@QAE@ABV01@@Z
	??0E2bigExc@Iex@@QAE@ABV01@@Z
	??0EnoexecExc@Iex@@QAE@ABV01@@Z
	??0EbadfExc@Iex@@QAE@ABV01@@Z
	??0EchildExc@Iex@@QAE@ABV01@@Z
	??0EagainExc@Iex@@QAE@ABV01@@Z
	??0EnomemExc@Iex@@QAE@ABV01@@Z
	??0EaccesExc@Iex@@QAE@ABV01@@Z
	??0EfaultExc@Iex@@QAE@ABV01@@Z
	??0EbusyExc@Iex@@QAE@ABV01@@Z
	??0EexistExc@Iex@@QAE@ABV01@@Z
	??0ExdevExc@Iex@@QAE@ABV01@@Z
	??0EnodevExc@Iex@@QAE@ABV01@@Z
	??0EnotdirExc@Iex@@QAE@ABV01@@Z
	??0EisdirExc@Iex@@QAE@ABV01@@Z
	??0EinvalExc@Iex@@QAE@ABV01@@Z
	??0EnfileExc@Iex@@QAE@ABV01@@Z
	??0EmfileExc@Iex@@QAE@ABV01@@Z
	??0EnottyExc@Iex@@QAE@ABV01@@Z
	??0EfbigExc@Iex@@QAE@ABV01@@Z
	??0EnospcExc@Iex@@QAE@ABV01@@Z
	??0EspipeExc@Iex@@QAE@ABV01@@Z
	??0ErofsExc@Iex@@QAE@ABV01@@Z
	??0EmlinkExc@Iex@@QAE@ABV01@@Z
	??0EpipeExc@Iex@@QAE@ABV01@@Z
	??0EdomExc@Iex@@QAE@ABV01@@Z
	??0ErangeExc@Iex@@QAE@ABV01@@Z
	??0EdeadlkExc@Iex@@QAE@ABV01@@Z
	??0EnolckExc@Iex@@QAE@ABV01@@Z
	??0EnametoolongExc@Iex@@QAE@ABV01@@Z
	??0EilseqExc@Iex@@QAE@ABV01@@Z
	??0EnosysExc@Iex@@QAE@ABV01@@Z
	??0EnotemptyExc@Iex@@QAE@ABV01@@Z
	?throwErrnoExc@Iex@@YAXABV?$basic_string@DU?$char_traits@D@std@@V?$allocator@D@2@@std@@@Z
	?collate@?$_Locbase@H@std@@2HB
	?ctype@?$_Locbase@H@std@@2HB
	?monetary@?$_Locbase@H@std@@2HB
	?numeric@?$_Locbase@H@std@@2HB
	?time@?$_Locbase@H@std@@2HB
	?messages@?$_Locbase@H@std@@2HB
	?all@?$_Locbase@H@std@@2HB
	?none@?$_Locbase@H@std@@2HB
	?skipws@?$_Iosb@H@std@@2W4_Fmtflags@12@B
	?unitbuf@?$_Iosb@H@std@@2W4_Fmtflags@12@B
	?uppercase@?$_Iosb@H@std@@2W4_Fmtflags@12@B
	?showbase@?$_Iosb@H@std@@2W4_Fmtflags@12@B
	?showpoint@?$_Iosb@H@std@@2W4_Fmtflags@12@B
	?showpos@?$_Iosb@H@std@@2W4_Fmtflags@12@B
	?left@?$_Iosb@H@std@@2W4_Fmtflags@12@B
	?right@?$_Iosb@H@std@@2W4_Fmtflags@12@B
	?internal@?$_Iosb@H@std@@2W4_Fmtflags@12@B
	?dec@?$_Iosb@H@std@@2W4_Fmtflags@12@B
	?oct@?$_Iosb@H@std@@2W4_Fmtflags@12@B
	?hex@?$_Iosb@H@std@@2W4_Fmtflags@12@B
	?scientific@?$_Iosb@H@std@@2W4_Fmtflags@12@B
	?fixed@?$_Iosb@H@std@@2W4_Fmtflags@12@B
	?boolalpha@?$_Iosb@H@std@@2W4_Fmtflags@12@B
	?_Stdio@?$_Iosb@H@std@@2W4_Fmtflags@12@B
	?adjustfield@?$_Iosb@H@std@@2W4_Fmtflags@12@B
	?basefield@?$_Iosb@H@std@@2W4_Fmtflags@12@B
	?floatfield@?$_Iosb@H@std@@2W4_Fmtflags@12@B
	?goodbit@?$_Iosb@H@std@@2W4_Iostate@12@B
	?eofbit@?$_Iosb@H@std@@2W4_Iostate@12@B
	?failbit@?$_Iosb@H@std@@2W4_Iostate@12@B
	?badbit@?$_Iosb@H@std@@2W4_Iostate@12@B
	?_Hardfail@?$_Iosb@H@std@@2W4_Iostate@12@B
	?in@?$_Iosb@H@std@@2W4_Openmode@12@B
	?out@?$_Iosb@H@std@@2W4_Openmode@12@B
	?ate@?$_Iosb@H@std@@2W4_Openmode@12@B
	?app@?$_Iosb@H@std@@2W4_Openmode@12@B
	?trunc@?$_Iosb@H@std@@2W4_Openmode@12@B
	?_Nocreate@?$_Iosb@H@std@@2W4_Openmode@12@B
	?_Noreplace@?$_Iosb@H@std@@2W4_Openmode@12@B
	?binary@?$_Iosb@H@std@@2W4_Openmode@12@B
	?beg@?$_Iosb@H@std@@2W4_Seekdir@12@B
	?cur@?$_Iosb@H@std@@2W4_Seekdir@12@B
	?end@?$_Iosb@H@std@@2W4_Seekdir@12@B
	?currentStackTracer@?A0x883d44e9@Iex@@3P6A?AV?$basic_string@DU?$char_traits@D@std@@V?$allocator@D@2@@std@@XZA
