LIBRARY	IlmImf_dll
EXPORTS
	??0Attribute@Imf@@QAE@XZ
	??1Attribute@Imf@@UAE@XZ
	?typeMap@?A0xa1908c12@Imf@@YAAAVLockedTypeMap@12@XZ
	?knownType@Attribute@Imf@@SA_NQBD@Z
	?registerAttributeType@Attribute@Imf@@KAXQBDP6APAV12@XZ@Z
	?unRegisterAttributeType@Attribute@Imf@@KAXQBD@Z
	?newAttribute@Attribute@Imf@@SAPAV12@QBD@Z
	??1Lock@IlmThread@@QAE@XZ
	??1?$map@PBDP6APAVAttribute@Imf@@XZUNameCompare@?A0xa1908c12@2@V?$allocator@U?$pair@QBDP6APAVAttribute@Imf@@XZ@std@@@std@@@std@@QAE@XZ
	??1ArgExc@Iex@@UAE@XZ
	??0ArgExc@Iex@@QAE@ABV01@@Z
	?insert@?$_Tree@V?$_Tmap_traits@PBDP6APAVAttribute@Imf@@XZUNameCompare@?A0xa1908c12@2@V?$allocator@U?$pair@QBDP6APAVAttribute@Imf@@XZ@std@@@std@@$0A@@std@@@std@@QAE?AU?$pair@Viterator@?$_Tree@V?$_Tmap_traits@PBDP6APAVAttribute@Imf@@XZUNameCompare@?A0xa1908c12@2@V?$allocator@U?$pair@QBDP6APAVAttribute@Imf@@XZ@std@@@std@@$0A@@std@@@std@@_N@2@ABU?$pair@QBDP6APAVAttribute@Imf@@XZ@2@@Z
	?erase@?$_Tree@V?$_Tmap_traits@PBDP6APAVAttribute@Imf@@XZUNameCompare@?A0xa1908c12@2@V?$allocator@U?$pair@QBDP6APAVAttribute@Imf@@XZ@std@@@std@@$0A@@std@@@std@@QAEIABQBD@Z
	?find@?$_Tree@V?$_Tmap_traits@PBDP6APAVAttribute@Imf@@XZUNameCompare@?A0xa1908c12@2@V?$allocator@U?$pair@QBDP6APAVAttribute@Imf@@XZ@std@@@std@@$0A@@std@@@std@@QAE?AViterator@12@ABQBD@Z
	??0?$_Tree@V?$_Tmap_traits@PBDP6APAVAttribute@Imf@@XZUNameCompare@?A0xa1908c12@2@V?$allocator@U?$pair@QBDP6APAVAttribute@Imf@@XZ@std@@@std@@$0A@@std@@@std@@QAE@ABUNameCompare@?A0xa1908c12@Imf@@ABV?$allocator@U?$pair@QBDP6APAVAttribute@Imf@@XZ@std@@@1@@Z
	?erase@?$_Tree@V?$_Tmap_traits@PBDP6APAVAttribute@Imf@@XZUNameCompare@?A0xa1908c12@2@V?$allocator@U?$pair@QBDP6APAVAttribute@Imf@@XZ@std@@@std@@$0A@@std@@@std@@QAE?AViterator@12@V312@0@Z
	?equal_range@?$_Tree@V?$_Tmap_traits@PBDP6APAVAttribute@Imf@@XZUNameCompare@?A0xa1908c12@2@V?$allocator@U?$pair@QBDP6APAVAttribute@Imf@@XZ@std@@@std@@$0A@@std@@@std@@QAE?AU?$pair@Viterator@?$_Tree@V?$_Tmap_traits@PBDP6APAVAttribute@Imf@@XZUNameCompare@?A0xa1908c12@2@V?$allocator@U?$pair@QBDP6APAVAttribute@Imf@@XZ@std@@@std@@$0A@@std@@@std@@V123@@2@ABQBD@Z
	?_Insert@?$_Tree@V?$_Tmap_traits@PBDP6APAVAttribute@Imf@@XZUNameCompare@?A0xa1908c12@2@V?$allocator@U?$pair@QBDP6APAVAttribute@Imf@@XZ@std@@@std@@$0A@@std@@@std@@IAE?AViterator@12@_NPAU_Node@?$_Tree_nod@V?$_Tmap_traits@PBDP6APAVAttribute@Imf@@XZUNameCompare@?A0xa1908c12@2@V?$allocator@U?$pair@QBDP6APAVAttribute@Imf@@XZ@std@@@std@@$0A@@std@@@2@ABU?$pair@QBDP6APAVAttribute@Imf@@XZ@2@@Z
	??0logic_error@std@@QAE@ABV?$basic_string@DU?$char_traits@D@std@@V?$allocator@D@2@@1@@Z
	?what@logic_error@std@@UBEPBDXZ
	??1length_error@std@@UAE@XZ
	??0logic_error@std@@QAE@ABV01@@Z
	?_Tidy@?$_Tree@V?$_Tmap_traits@PBDP6APAVAttribute@Imf@@XZUNameCompare@?A0xa1908c12@2@V?$allocator@U?$pair@QBDP6APAVAttribute@Imf@@XZ@std@@@std@@$0A@@std@@@std@@IAEXXZ
	??0length_error@std@@QAE@ABV01@@Z
	?erase@?$_Tree@V?$_Tmap_traits@PBDP6APAVAttribute@Imf@@XZUNameCompare@?A0xa1908c12@2@V?$allocator@U?$pair@QBDP6APAVAttribute@Imf@@XZ@std@@@std@@$0A@@std@@@std@@QAE?AViterator@12@V312@@Z
	?clear@?$_Tree@V?$_Tmap_traits@PBDP6APAVAttribute@Imf@@XZUNameCompare@?A0xa1908c12@2@V?$allocator@U?$pair@QBDP6APAVAttribute@Imf@@XZ@std@@@std@@$0A@@std@@@std@@QAEXXZ
	?_Init@?$_Tree@V?$_Tmap_traits@PBDP6APAVAttribute@Imf@@XZUNameCompare@?A0xa1908c12@2@V?$allocator@U?$pair@QBDP6APAVAttribute@Imf@@XZ@std@@@std@@$0A@@std@@@std@@IAEXXZ
	?_Lbound@?$_Tree@V?$_Tmap_traits@PBDP6APAVAttribute@Imf@@XZUNameCompare@?A0xa1908c12@2@V?$allocator@U?$pair@QBDP6APAVAttribute@Imf@@XZ@std@@@std@@$0A@@std@@@std@@IBEPAU_Node@?$_Tree_nod@V?$_Tmap_traits@PBDP6APAVAttribute@Imf@@XZUNameCompare@?A0xa1908c12@2@V?$allocator@U?$pair@QBDP6APAVAttribute@Imf@@XZ@std@@@std@@$0A@@std@@@2@ABQBD@Z
	?_Lrotate@?$_Tree@V?$_Tmap_traits@PBDP6APAVAttribute@Imf@@XZUNameCompare@?A0xa1908c12@2@V?$allocator@U?$pair@QBDP6APAVAttribute@Imf@@XZ@std@@@std@@$0A@@std@@@std@@IAEXPAU_Node@?$_Tree_nod@V?$_Tmap_traits@PBDP6APAVAttribute@Imf@@XZUNameCompare@?A0xa1908c12@2@V?$allocator@U?$pair@QBDP6APAVAttribute@Imf@@XZ@std@@@std@@$0A@@std@@@2@@Z
	?_Rrotate@?$_Tree@V?$_Tmap_traits@PBDP6APAVAttribute@Imf@@XZUNameCompare@?A0xa1908c12@2@V?$allocator@U?$pair@QBDP6APAVAttribute@Imf@@XZ@std@@@std@@$0A@@std@@@std@@IAEXPAU_Node@?$_Tree_nod@V?$_Tmap_traits@PBDP6APAVAttribute@Imf@@XZUNameCompare@?A0xa1908c12@2@V?$allocator@U?$pair@QBDP6APAVAttribute@Imf@@XZ@std@@@std@@$0A@@std@@@2@@Z
	?_Buynode@?$_Tree@V?$_Tmap_traits@PBDP6APAVAttribute@Imf@@XZUNameCompare@?A0xa1908c12@2@V?$allocator@U?$pair@QBDP6APAVAttribute@Imf@@XZ@std@@@std@@$0A@@std@@@std@@IAEPAU_Node@?$_Tree_nod@V?$_Tmap_traits@PBDP6APAVAttribute@Imf@@XZUNameCompare@?A0xa1908c12@2@V?$allocator@U?$pair@QBDP6APAVAttribute@Imf@@XZ@std@@@std@@$0A@@std@@@2@PAU342@00ABU?$pair@QBDP6APAVAttribute@Imf@@XZ@2@D@Z
	??0const_iterator@?$_Tree@V?$_Tmap_traits@PBDP6APAVAttribute@Imf@@XZUNameCompare@?A0xa1908c12@2@V?$allocator@U?$pair@QBDP6APAVAttribute@Imf@@XZ@std@@@std@@$0A@@std@@@std@@QAE@PAU_Node@?$_Tree_nod@V?$_Tmap_traits@PBDP6APAVAttribute@Imf@@XZUNameCompare@?A0xa1908c12@2@V?$allocator@U?$pair@QBDP6APAVAttribute@Imf@@XZ@std@@@std@@$0A@@std@@@2@PBV12@@Z
	?_Erase@?$_Tree@V?$_Tmap_traits@PBDP6APAVAttribute@Imf@@XZUNameCompare@?A0xa1908c12@2@V?$allocator@U?$pair@QBDP6APAVAttribute@Imf@@XZ@std@@@std@@$0A@@std@@@std@@IAEXPAU_Node@?$_Tree_nod@V?$_Tmap_traits@PBDP6APAVAttribute@Imf@@XZUNameCompare@?A0xa1908c12@2@V?$allocator@U?$pair@QBDP6APAVAttribute@Imf@@XZ@std@@@std@@$0A@@std@@@2@@Z
	?_Ubound@?$_Tree@V?$_Tmap_traits@PBDP6APAVAttribute@Imf@@XZUNameCompare@?A0xa1908c12@2@V?$allocator@U?$pair@QBDP6APAVAttribute@Imf@@XZ@std@@@std@@$0A@@std@@@std@@IBEPAU_Node@?$_Tree_nod@V?$_Tmap_traits@PBDP6APAVAttribute@Imf@@XZUNameCompare@?A0xa1908c12@2@V?$allocator@U?$pair@QBDP6APAVAttribute@Imf@@XZ@std@@@std@@$0A@@std@@@2@ABQBD@Z
	?_Buynode@?$_Tree@V?$_Tmap_traits@PBDP6APAVAttribute@Imf@@XZUNameCompare@?A0xa1908c12@2@V?$allocator@U?$pair@QBDP6APAVAttribute@Imf@@XZ@std@@@std@@$0A@@std@@@std@@IAEPAU_Node@?$_Tree_nod@V?$_Tmap_traits@PBDP6APAVAttribute@Imf@@XZUNameCompare@?A0xa1908c12@2@V?$allocator@U?$pair@QBDP6APAVAttribute@Imf@@XZ@std@@@std@@$0A@@std@@@2@XZ
	?allocate@?$allocator@U_Node@?$_Tree_nod@V?$_Tmap_traits@PBDP6APAVAttribute@Imf@@XZUNameCompare@?A0xa1908c12@2@V?$allocator@U?$pair@QBDP6APAVAttribute@Imf@@XZ@std@@@std@@$0A@@std@@@std@@@std@@QAEPAU_Node@?$_Tree_nod@V?$_Tmap_traits@PBDP6APAVAttribute@Imf@@XZUNameCompare@?A0xa1908c12@2@V?$allocator@U?$pair@QBDP6APAVAttribute@Imf@@XZ@std@@@std@@$0A@@std@@@2@I@Z
	?_Dec@const_iterator@?$_Tree@V?$_Tmap_traits@PBDP6APAVAttribute@Imf@@XZUNameCompare@?A0xa1908c12@2@V?$allocator@U?$pair@QBDP6APAVAttribute@Imf@@XZ@std@@@std@@$0A@@std@@@std@@QAEXXZ
	?_Inc@const_iterator@?$_Tree@V?$_Tmap_traits@PBDP6APAVAttribute@Imf@@XZUNameCompare@?A0xa1908c12@2@V?$allocator@U?$pair@QBDP6APAVAttribute@Imf@@XZ@std@@@std@@$0A@@std@@@std@@QAEXXZ
	??0?$TypedAttribute@M@Imf@@QAE@ABV01@@Z
	??0?$TypedAttribute@M@Imf@@QAE@ABM@Z
	??0?$TypedAttribute@M@Imf@@QAE@XZ
	??1?$TypedAttribute@M@Imf@@UAE@XZ
	?value@?$TypedAttribute@M@Imf@@QBEABMXZ
	?value@?$TypedAttribute@M@Imf@@QAEAAMXZ
	?typeName@?$TypedAttribute@M@Imf@@UBEPBDXZ
	?makeNewAttribute@?$TypedAttribute@M@Imf@@SAPAVAttribute@2@XZ
	?copy@?$TypedAttribute@M@Imf@@UBEPAVAttribute@2@XZ
	?writeValueTo@?$TypedAttribute@M@Imf@@UBEXAAVOStream@2@H@Z
	?readValueFrom@?$TypedAttribute@M@Imf@@UAEXAAVIStream@2@HH@Z
	?copyValueFrom@?$TypedAttribute@M@Imf@@UAEXABVAttribute@2@@Z
	?cast@?$TypedAttribute@M@Imf@@SAABV12@ABVAttribute@2@@Z
	?cast@?$TypedAttribute@M@Imf@@SAAAV12@AAVAttribute@2@@Z
	?cast@?$TypedAttribute@M@Imf@@SAPBV12@PBVAttribute@2@@Z
	??1TypeExc@Iex@@UAE@XZ
	?cast@?$TypedAttribute@M@Imf@@SAPAV12@PAVAttribute@2@@Z
	?registerAttributeType@?$TypedAttribute@M@Imf@@SAXXZ
	?unRegisterAttributeType@?$TypedAttribute@M@Imf@@SAXXZ
	??0?$TypedAttribute@N@Imf@@QAE@ABV01@@Z
	??0?$TypedAttribute@N@Imf@@QAE@ABN@Z
	??0?$TypedAttribute@N@Imf@@QAE@XZ
	??1?$TypedAttribute@N@Imf@@UAE@XZ
	?value@?$TypedAttribute@N@Imf@@QBEABNXZ
	?value@?$TypedAttribute@N@Imf@@QAEAANXZ
	?typeName@?$TypedAttribute@N@Imf@@UBEPBDXZ
	?makeNewAttribute@?$TypedAttribute@N@Imf@@SAPAVAttribute@2@XZ
	?copy@?$TypedAttribute@N@Imf@@UBEPAVAttribute@2@XZ
	?writeValueTo@?$TypedAttribute@N@Imf@@UBEXAAVOStream@2@H@Z
	?readValueFrom@?$TypedAttribute@N@Imf@@UAEXAAVIStream@2@HH@Z
	?copyValueFrom@?$TypedAttribute@N@Imf@@UAEXABVAttribute@2@@Z
	?cast@?$TypedAttribute@N@Imf@@SAABV12@ABVAttribute@2@@Z
	?cast@?$TypedAttribute@N@Imf@@SAAAV12@AAVAttribute@2@@Z
	?cast@?$TypedAttribute@N@Imf@@SAPBV12@PBVAttribute@2@@Z
	?cast@?$TypedAttribute@N@Imf@@SAPAV12@PAVAttribute@2@@Z
	?registerAttributeType@?$TypedAttribute@N@Imf@@SAXXZ
	?unRegisterAttributeType@?$TypedAttribute@N@Imf@@SAXXZ
	??$?6U?$char_traits@D@std@@@std@@YAAAV?$basic_ostream@DU?$char_traits@D@std@@@0@AAV10@PBD@Z
	??0sentry@?$basic_ostream@DU?$char_traits@D@std@@@std@@QAE@AAV12@@Z
	??1sentry@?$basic_ostream@DU?$char_traits@D@std@@@std@@QAE@XZ
	??0_Sentry_base@?$basic_ostream@DU?$char_traits@D@std@@@std@@QAE@AAV12@@Z
	??1_Sentry_base@?$basic_ostream@DU?$char_traits@D@std@@@std@@QAE@XZ
	??$_Allocate@U_Node@?$_Tree_nod@V?$_Tmap_traits@PBDP6APAVAttribute@Imf@@XZUNameCompare@?A0xa1908c12@2@V?$allocator@U?$pair@QBDP6APAVAttribute@Imf@@XZ@std@@@std@@$0A@@std@@@std@@@std@@YAPAU_Node@?$_Tree_nod@V?$_Tmap_traits@PBDP6APAVAttribute@Imf@@XZUNameCompare@?A0xa1908c12@2@V?$allocator@U?$pair@QBDP6APAVAttribute@Imf@@XZ@std@@@std@@$0A@@std@@@0@IPAU120@@Z
	??1bad_alloc@std@@UAE@XZ
	??0TypeExc@Iex@@QAE@ABV01@@Z
	??0bad_alloc@std@@QAE@ABV01@@Z
	??$write@UStreamIO@Imf@@VOStream@2@@Xdr@Imf@@YAXAAVOStream@1@N@Z
	??$write@UStreamIO@Imf@@VOStream@2@@Xdr@Imf@@YAXAAVOStream@1@M@Z
	??$read@UStreamIO@Imf@@VIStream@2@@Xdr@Imf@@YAXAAVIStream@1@AAN@Z
	??$read@UStreamIO@Imf@@VIStream@2@@Xdr@Imf@@YAXAAVIStream@1@AAM@Z
	?staticTypeName@?$TypedAttribute@V?$Box@V?$Vec2@H@Imath@@@Imath@@@Imf@@SAPBDXZ
	?writeValueTo@?$TypedAttribute@V?$Box@V?$Vec2@H@Imath@@@Imath@@@Imf@@UBEXAAVOStream@2@H@Z
	?readValueFrom@?$TypedAttribute@V?$Box@V?$Vec2@H@Imath@@@Imath@@@Imf@@UAEXAAVIStream@2@HH@Z
	?staticTypeName@?$TypedAttribute@V?$Box@V?$Vec2@M@Imath@@@Imath@@@Imf@@SAPBDXZ
	?writeValueTo@?$TypedAttribute@V?$Box@V?$Vec2@M@Imath@@@Imath@@@Imf@@UBEXAAVOStream@2@H@Z
	?readValueFrom@?$TypedAttribute@V?$Box@V?$Vec2@M@Imath@@@Imath@@@Imf@@UAEXAAVIStream@2@HH@Z
	??$write@UStreamIO@Imf@@VOStream@2@@Xdr@Imf@@YAXAAVOStream@1@H@Z
	??$read@UStreamIO@Imf@@VIStream@2@@Xdr@Imf@@YAXAAVIStream@1@AAH@Z
	??0Channel@Imf@@QAE@W4PixelType@1@HH@Z
	??8Channel@Imf@@QBE_NABU01@@Z
	?insert@ChannelList@Imf@@QAEXQBDABUChannel@2@@Z
	??AChannelList@Imf@@QAEAAUChannel@1@QBD@Z
	??AChannelList@Imf@@QBEABUChannel@1@QBD@Z
	?findChannel@ChannelList@Imf@@QAEPAUChannel@2@QBD@Z
	?findChannel@ChannelList@Imf@@QBEPBUChannel@2@QBD@Z
	?begin@ChannelList@Imf@@QAE?AVIterator@12@XZ
	?begin@ChannelList@Imf@@QBE?AVConstIterator@12@XZ
	?end@ChannelList@Imf@@QAE?AVIterator@12@XZ
	?end@ChannelList@Imf@@QBE?AVConstIterator@12@XZ
	?find@ChannelList@Imf@@QAE?AVIterator@12@QBD@Z
	?find@ChannelList@Imf@@QBE?AVConstIterator@12@QBD@Z
	?layers@ChannelList@Imf@@QBEXAAV?$set@V?$basic_string@DU?$char_traits@D@std@@V?$allocator@D@2@@std@@U?$less@V?$basic_string@DU?$char_traits@D@std@@V?$allocator@D@2@@std@@@2@V?$allocator@V?$basic_string@DU?$char_traits@D@std@@V?$allocator@D@2@@std@@@2@@std@@@Z
	?channelsInLayer@ChannelList@Imf@@QAEXABV?$basic_string@DU?$char_traits@D@std@@V?$allocator@D@2@@std@@AAVIterator@12@1@Z
	?channelsInLayer@ChannelList@Imf@@QBEXABV?$basic_string@DU?$char_traits@D@std@@V?$allocator@D@2@@std@@AAVConstIterator@12@1@Z
	?channelsWithPrefix@ChannelList@Imf@@QAEXQBDAAVIterator@12@1@Z
	?channelsWithPrefix@ChannelList@Imf@@QBEXQBDAAVConstIterator@12@1@Z
	??8ChannelList@Imf@@QBE_NABV01@@Z
	?channel@ConstIterator@ChannelList@Imf@@QBEABUChannel@3@XZ
	??A?$map@VName@Imf@@UChannel@2@U?$less@VName@Imf@@@std@@V?$allocator@U?$pair@$$CBVName@Imf@@UChannel@2@@std@@@5@@std@@QAEAAUChannel@Imf@@ABVName@3@@Z
	?find@?$_Tree@V?$_Tmap_traits@VName@Imf@@UChannel@2@U?$less@VName@Imf@@@std@@V?$allocator@U?$pair@$$CBVName@Imf@@UChannel@2@@std@@@5@$0A@@std@@@std@@QAE?AViterator@12@ABVName@Imf@@@Z
	?find@?$_Tree@V?$_Tmap_traits@VName@Imf@@UChannel@2@U?$less@VName@Imf@@@std@@V?$allocator@U?$pair@$$CBVName@Imf@@UChannel@2@@std@@@5@$0A@@std@@@std@@QBE?AVconst_iterator@12@ABVName@Imf@@@Z
	?insert@?$_Tree@V?$_Tset_traits@V?$basic_string@DU?$char_traits@D@std@@V?$allocator@D@2@@std@@U?$less@V?$basic_string@DU?$char_traits@D@std@@V?$allocator@D@2@@std@@@2@V?$allocator@V?$basic_string@DU?$char_traits@D@std@@V?$allocator@D@2@@std@@@2@$0A@@std@@@std@@QAE?AU?$pair@Viterator@?$_Tree@V?$_Tset_traits@V?$basic_string@DU?$char_traits@D@std@@V?$allocator@D@2@@std@@U?$less@V?$basic_string@DU?$char_traits@D@std@@V?$allocator@D@2@@std@@@2@V?$allocator@V?$basic_string@DU?$char_traits@D@std@@V?$allocator@D@2@@std@@@2@$0A@@std@@@std@@_N@2@ABV?$basic_string@DU?$char_traits@D@std@@V?$allocator@D@2@@2@@Z
	?clear@?$_Tree@V?$_Tset_traits@V?$basic_string@DU?$char_traits@D@std@@V?$allocator@D@2@@std@@U?$less@V?$basic_string@DU?$char_traits@D@std@@V?$allocator@D@2@@std@@@2@V?$allocator@V?$basic_string@DU?$char_traits@D@std@@V?$allocator@D@2@@std@@@2@$0A@@std@@@std@@QAEXXZ
	?insert@?$_Tree@V?$_Tmap_traits@VName@Imf@@UChannel@2@U?$less@VName@Imf@@@std@@V?$allocator@U?$pair@$$CBVName@Imf@@UChannel@2@@std@@@5@$0A@@std@@@std@@QAE?AViterator@12@V312@ABU?$pair@$$CBVName@Imf@@UChannel@2@@2@@Z
	??8const_iterator@?$_Tree@V?$_Tmap_traits@VName@Imf@@UChannel@2@U?$less@VName@Imf@@@std@@V?$allocator@U?$pair@$$CBVName@Imf@@UChannel@2@@std@@@5@$0A@@std@@@std@@QBE_NABV012@@Z
	?_Lbound@?$_Tree@V?$_Tmap_traits@VName@Imf@@UChannel@2@U?$less@VName@Imf@@@std@@V?$allocator@U?$pair@$$CBVName@Imf@@UChannel@2@@std@@@5@$0A@@std@@@std@@IBEPAU_Node@?$_Tree_nod@V?$_Tmap_traits@VName@Imf@@UChannel@2@U?$less@VName@Imf@@@std@@V?$allocator@U?$pair@$$CBVName@Imf@@UChannel@2@@std@@@5@$0A@@std@@@2@ABVName@Imf@@@Z
	??0const_iterator@?$_Tree@V?$_Tmap_traits@VName@Imf@@UChannel@2@U?$less@VName@Imf@@@std@@V?$allocator@U?$pair@$$CBVName@Imf@@UChannel@2@@std@@@5@$0A@@std@@@std@@QAE@PAU_Node@?$_Tree_nod@V?$_Tmap_traits@VName@Imf@@UChannel@2@U?$less@VName@Imf@@@std@@V?$allocator@U?$pair@$$CBVName@Imf@@UChannel@2@@std@@@5@$0A@@std@@@2@PBV12@@Z
	??Dconst_iterator@?$_Tree@V?$_Tmap_traits@VName@Imf@@UChannel@2@U?$less@VName@Imf@@@std@@V?$allocator@U?$pair@$$CBVName@Imf@@UChannel@2@@std@@@5@$0A@@std@@@std@@QBEABU?$pair@$$CBVName@Imf@@UChannel@2@@2@XZ
	?_Inc@const_iterator@?$_Tree@V?$_Tmap_traits@VName@Imf@@UChannel@2@U?$less@VName@Imf@@@std@@V?$allocator@U?$pair@$$CBVName@Imf@@UChannel@2@@std@@@5@$0A@@std@@@std@@QAEXXZ
	?_Erase@?$_Tree@V?$_Tset_traits@V?$basic_string@DU?$char_traits@D@std@@V?$allocator@D@2@@std@@U?$less@V?$basic_string@DU?$char_traits@D@std@@V?$allocator@D@2@@std@@@2@V?$allocator@V?$basic_string@DU?$char_traits@D@std@@V?$allocator@D@2@@std@@@2@$0A@@std@@@std@@IAEXPAU_Node@?$_Tree_nod@V?$_Tset_traits@V?$basic_string@DU?$char_traits@D@std@@V?$allocator@D@2@@std@@U?$less@V?$basic_string@DU?$char_traits@D@std@@V?$allocator@D@2@@std@@@2@V?$allocator@V?$basic_string@DU?$char_traits@D@std@@V?$allocator@D@2@@std@@@2@$0A@@std@@@2@@Z
	?_Insert@?$_Tree@V?$_Tset_traits@V?$basic_string@DU?$char_traits@D@std@@V?$allocator@D@2@@std@@U?$less@V?$basic_string@DU?$char_traits@D@std@@V?$allocator@D@2@@std@@@2@V?$allocator@V?$basic_string@DU?$char_traits@D@std@@V?$allocator@D@2@@std@@@2@$0A@@std@@@std@@IAE?AViterator@12@_NPAU_Node@?$_Tree_nod@V?$_Tset_traits@V?$basic_string@DU?$char_traits@D@std@@V?$allocator@D@2@@std@@U?$less@V?$basic_string@DU?$char_traits@D@std@@V?$allocator@D@2@@std@@@2@V?$allocator@V?$basic_string@DU?$char_traits@D@std@@V?$allocator@D@2@@std@@@2@$0A@@std@@@2@ABV?$basic_string@DU?$char_traits@D@std@@V?$allocator@D@2@@2@@Z
	?insert@?$_Tree@V?$_Tmap_traits@VName@Imf@@UChannel@2@U?$less@VName@Imf@@@std@@V?$allocator@U?$pair@$$CBVName@Imf@@UChannel@2@@std@@@5@$0A@@std@@@std@@QAE?AU?$pair@Viterator@?$_Tree@V?$_Tmap_traits@VName@Imf@@UChannel@2@U?$less@VName@Imf@@@std@@V?$allocator@U?$pair@$$CBVName@Imf@@UChannel@2@@std@@@5@$0A@@std@@@std@@_N@2@ABU?$pair@$$CBVName@Imf@@UChannel@2@@2@@Z
	?_Insert@?$_Tree@V?$_Tmap_traits@VName@Imf@@UChannel@2@U?$less@VName@Imf@@@std@@V?$allocator@U?$pair@$$CBVName@Imf@@UChannel@2@@std@@@5@$0A@@std@@@std@@IAE?AViterator@12@_NPAU_Node@?$_Tree_nod@V?$_Tmap_traits@VName@Imf@@UChannel@2@U?$less@VName@Imf@@@std@@V?$allocator@U?$pair@$$CBVName@Imf@@UChannel@2@@std@@@5@$0A@@std@@@2@ABU?$pair@$$CBVName@Imf@@UChannel@2@@2@@Z
	?_Lrotate@?$_Tree@V?$_Tset_traits@V?$basic_string@DU?$char_traits@D@std@@V?$allocator@D@2@@std@@U?$less@V?$basic_string@DU?$char_traits@D@std@@V?$allocator@D@2@@std@@@2@V?$allocator@V?$basic_string@DU?$char_traits@D@std@@V?$allocator@D@2@@std@@@2@$0A@@std@@@std@@IAEXPAU_Node@?$_Tree_nod@V?$_Tset_traits@V?$basic_string@DU?$char_traits@D@std@@V?$allocator@D@2@@std@@U?$less@V?$basic_string@DU?$char_traits@D@std@@V?$allocator@D@2@@std@@@2@V?$allocator@V?$basic_string@DU?$char_traits@D@std@@V?$allocator@D@2@@std@@@2@$0A@@std@@@2@@Z
	?_Rrotate@?$_Tree@V?$_Tset_traits@V?$basic_string@DU?$char_traits@D@std@@V?$allocator@D@2@@std@@U?$less@V?$basic_string@DU?$char_traits@D@std@@V?$allocator@D@2@@std@@@2@V?$allocator@V?$basic_string@DU?$char_traits@D@std@@V?$allocator@D@2@@std@@@2@$0A@@std@@@std@@IAEXPAU_Node@?$_Tree_nod@V?$_Tset_traits@V?$basic_string@DU?$char_traits@D@std@@V?$allocator@D@2@@std@@U?$less@V?$basic_string@DU?$char_traits@D@std@@V?$allocator@D@2@@std@@@2@V?$allocator@V?$basic_string@DU?$char_traits@D@std@@V?$allocator@D@2@@std@@@2@$0A@@std@@@2@@Z
	?_Buynode@?$_Tree@V?$_Tset_traits@V?$basic_string@DU?$char_traits@D@std@@V?$allocator@D@2@@std@@U?$less@V?$basic_string@DU?$char_traits@D@std@@V?$allocator@D@2@@std@@@2@V?$allocator@V?$basic_string@DU?$char_traits@D@std@@V?$allocator@D@2@@std@@@2@$0A@@std@@@std@@IAEPAU_Node@?$_Tree_nod@V?$_Tset_traits@V?$basic_string@DU?$char_traits@D@std@@V?$allocator@D@2@@std@@U?$less@V?$basic_string@DU?$char_traits@D@std@@V?$allocator@D@2@@std@@@2@V?$allocator@V?$basic_string@DU?$char_traits@D@std@@V?$allocator@D@2@@std@@@2@$0A@@std@@@2@PAU342@00ABV?$basic_string@DU?$char_traits@D@std@@V?$allocator@D@2@@2@D@Z
	??3@YAXPAX0@Z
	??0const_iterator@?$_Tree@V?$_Tset_traits@V?$basic_string@DU?$char_traits@D@std@@V?$allocator@D@2@@std@@U?$less@V?$basic_string@DU?$char_traits@D@std@@V?$allocator@D@2@@std@@@2@V?$allocator@V?$basic_string@DU?$char_traits@D@std@@V?$allocator@D@2@@std@@@2@$0A@@std@@@std@@QAE@PAU_Node@?$_Tree_nod@V?$_Tset_traits@V?$basic_string@DU?$char_traits@D@std@@V?$allocator@D@2@@std@@U?$less@V?$basic_string@DU?$char_traits@D@std@@V?$allocator@D@2@@std@@@2@V?$allocator@V?$basic_string@DU?$char_traits@D@std@@V?$allocator@D@2@@std@@@2@$0A@@std@@@2@PBV12@@Z
	?_Lrotate@?$_Tree@V?$_Tmap_traits@VName@Imf@@UChannel@2@U?$less@VName@Imf@@@std@@V?$allocator@U?$pair@$$CBVName@Imf@@UChannel@2@@std@@@5@$0A@@std@@@std@@IAEXPAU_Node@?$_Tree_nod@V?$_Tmap_traits@VName@Imf@@UChannel@2@U?$less@VName@Imf@@@std@@V?$allocator@U?$pair@$$CBVName@Imf@@UChannel@2@@std@@@5@$0A@@std@@@2@@Z
	?_Rrotate@?$_Tree@V?$_Tmap_traits@VName@Imf@@UChannel@2@U?$less@VName@Imf@@@std@@V?$allocator@U?$pair@$$CBVName@Imf@@UChannel@2@@std@@@5@$0A@@std@@@std@@IAEXPAU_Node@?$_Tree_nod@V?$_Tmap_traits@VName@Imf@@UChannel@2@U?$less@VName@Imf@@@std@@V?$allocator@U?$pair@$$CBVName@Imf@@UChannel@2@@std@@@5@$0A@@std@@@2@@Z
	?_Buynode@?$_Tree@V?$_Tmap_traits@VName@Imf@@UChannel@2@U?$less@VName@Imf@@@std@@V?$allocator@U?$pair@$$CBVName@Imf@@UChannel@2@@std@@@5@$0A@@std@@@std@@IAEPAU_Node@?$_Tree_nod@V?$_Tmap_traits@VName@Imf@@UChannel@2@U?$less@VName@Imf@@@std@@V?$allocator@U?$pair@$$CBVName@Imf@@UChannel@2@@std@@@5@$0A@@std@@@2@PAU342@00ABU?$pair@$$CBVName@Imf@@UChannel@2@@2@D@Z
	?_Dec@const_iterator@?$_Tree@V?$_Tset_traits@V?$basic_string@DU?$char_traits@D@std@@V?$allocator@D@2@@std@@U?$less@V?$basic_string@DU?$char_traits@D@std@@V?$allocator@D@2@@std@@@2@V?$allocator@V?$basic_string@DU?$char_traits@D@std@@V?$allocator@D@2@@std@@@2@$0A@@std@@@std@@QAEXXZ
	?_Dec@const_iterator@?$_Tree@V?$_Tmap_traits@VName@Imf@@UChannel@2@U?$less@VName@Imf@@@std@@V?$allocator@U?$pair@$$CBVName@Imf@@UChannel@2@@std@@@5@$0A@@std@@@std@@QAEXXZ
	??$_Allocate@U_Node@?$_Tree_nod@V?$_Tset_traits@V?$basic_string@DU?$char_traits@D@std@@V?$allocator@D@2@@std@@U?$less@V?$basic_string@DU?$char_traits@D@std@@V?$allocator@D@2@@std@@@2@V?$allocator@V?$basic_string@DU?$char_traits@D@std@@V?$allocator@D@2@@std@@@2@$0A@@std@@@std@@@std@@YAPAU_Node@?$_Tree_nod@V?$_Tset_traits@V?$basic_string@DU?$char_traits@D@std@@V?$allocator@D@2@@std@@U?$less@V?$basic_string@DU?$char_traits@D@std@@V?$allocator@D@2@@std@@@2@V?$allocator@V?$basic_string@DU?$char_traits@D@std@@V?$allocator@D@2@@std@@@2@$0A@@std@@@0@IPAU120@@Z
	??$_Allocate@U_Node@?$_Tree_nod@V?$_Tmap_traits@VName@Imf@@UChannel@2@U?$less@VName@Imf@@@std@@V?$allocator@U?$pair@$$CBVName@Imf@@UChannel@2@@std@@@5@$0A@@std@@@std@@@std@@YAPAU_Node@?$_Tree_nod@V?$_Tmap_traits@VName@Imf@@UChannel@2@U?$less@VName@Imf@@@std@@V?$allocator@U?$pair@$$CBVName@Imf@@UChannel@2@@std@@@5@$0A@@std@@@0@IPAU120@@Z
	?staticTypeName@?$TypedAttribute@VChannelList@Imf@@@Imf@@SAPBDXZ
	?writeValueTo@?$TypedAttribute@VChannelList@Imf@@@Imf@@UBEXAAVOStream@2@H@Z
	?readValueFrom@?$TypedAttribute@VChannelList@Imf@@@Imf@@UAEXAAVIStream@2@HH@Z
	?name@ConstIterator@ChannelList@Imf@@QBEPBDXZ
	??$write@UStreamIO@Imf@@VOStream@2@@Xdr@Imf@@YAXAAVOStream@1@QBD@Z
	??$pad@UStreamIO@Imf@@VOStream@2@@Xdr@Imf@@YAXAAVOStream@1@H@Z
	??$read@UStreamIO@Imf@@VIStream@2@@Xdr@Imf@@YAXAAVIStream@1@HQAD@Z
	??$skip@UStreamIO@Imf@@VIStream@2@@Xdr@Imf@@YAXAAVIStream@1@H@Z
	??0Chromaticities@Imf@@QAE@ABV?$Vec2@M@Imath@@000@Z
	?RGBtoXYZ@Imf@@YA?AV?$Matrix44@M@Imath@@UChromaticities@1@M@Z
	?XYZtoRGB@Imf@@YA?AV?$Matrix44@M@Imath@@UChromaticities@1@M@Z
	??0Chromaticities@Imf@@QAE@ABU01@@Z
	??0?$Matrix44@M@Imath@@QAE@ABV01@@Z
	??0?$Matrix44@M@Imath@@QAE@XZ
	?inverse@?$Matrix44@M@Imath@@QBE?AV12@_N@Z
	??1SingMatrixExc@Imath@@UAE@XZ
	??0SingMatrixExc@Imath@@QAE@ABV01@@Z
	??0MathExc@Iex@@QAE@ABV01@@Z
	?gjInverse@?$Matrix44@M@Imath@@QBE?AV12@_N@Z
	??0MathExc@Iex@@QAE@PBD@Z
	?staticTypeName@?$TypedAttribute@UChromaticities@Imf@@@Imf@@SAPBDXZ
	?writeValueTo@?$TypedAttribute@UChromaticities@Imf@@@Imf@@UBEXAAVOStream@2@H@Z
	?readValueFrom@?$TypedAttribute@UChromaticities@Imf@@@Imf@@UAEXAAVIStream@2@HH@Z
	?staticTypeName@?$TypedAttribute@W4Compression@Imf@@@Imf@@SAPBDXZ
	?writeValueTo@?$TypedAttribute@W4Compression@Imf@@@Imf@@UBEXAAVOStream@2@H@Z
	?readValueFrom@?$TypedAttribute@W4Compression@Imf@@@Imf@@UAEXAAVIStream@2@HH@Z
	??0Compressor@Imf@@QAE@ABVHeader@1@@Z
	??1Compressor@Imf@@UAE@XZ
	?format@Compressor@Imf@@UBE?AW4Format@12@XZ
	?compressTile@Compressor@Imf@@UAEHPBDHV?$Box@V?$Vec2@H@Imath@@@Imath@@AAPBD@Z
	?uncompressTile@Compressor@Imf@@UAEHPBDHV?$Box@V?$Vec2@H@Imath@@@Imath@@AAPBD@Z
	?isValidCompression@Imf@@YA_NW4Compression@1@@Z
	?newCompressor@Imf@@YAPAVCompressor@1@W4Compression@1@HABVHeader@1@@Z
	?newTileCompressor@Imf@@YAPAVCompressor@1@W4Compression@1@HHABVHeader@1@@Z
	??0half@@QAE@XZ
	??0half@@QAE@M@Z
	??Bhalf@@QBEMXZ
	?isNan@half@@QBE_NXZ
	?isInfinity@half@@QBE_NXZ
	?isNegative@half@@QBE_NXZ
	?posInf@half@@SA?AV1@XZ
	?negInf@half@@SA?AV1@XZ
	?isNegative@?A0xecb7bd60@Imf@@YA_NM@Z
	?isNan@?A0xecb7bd60@Imf@@YA_NM@Z
	?isInfinity@?A0xecb7bd60@Imf@@YA_NM@Z
	?isFinite@?A0xecb7bd60@Imf@@YA_NM@Z
	?halfToUint@Imf@@YAIVhalf@@@Z
	?floatToUint@Imf@@YAIM@Z
	?uintToHalf@Imf@@YA?AVhalf@@I@Z
	?floatToHalf@Imf@@YA?AVhalf@@M@Z
	?setErrorMessage@?A0x04758b90@@YAXABVexception@std@@@Z
	ImfFloatToHalf
	ImfFloatToHalfArray
	ImfHalfToFloat
	ImfHalfToFloatArray
	ImfNewHeader
	ImfDeleteHeader
	ImfCopyHeader
	ImfHeaderSetDisplayWindow
	ImfHeaderDisplayWindow
	ImfHeaderSetDataWindow
	ImfHeaderDataWindow
	ImfHeaderSetPixelAspectRatio
	ImfHeaderPixelAspectRatio
	ImfHeaderSetScreenWindowCenter
	ImfHeaderScreenWindowCenter
	ImfHeaderSetScreenWindowWidth
	ImfHeaderScreenWindowWidth
	ImfHeaderSetLineOrder
	ImfHeaderLineOrder
	ImfHeaderSetCompression
	ImfHeaderCompression
	ImfHeaderSetIntAttribute
	ImfHeaderIntAttribute
	ImfHeaderSetFloatAttribute
	ImfHeaderSetDoubleAttribute
	ImfHeaderFloatAttribute
	ImfHeaderDoubleAttribute
	ImfHeaderSetStringAttribute
	ImfHeaderStringAttribute
	ImfHeaderSetBox2iAttribute
	ImfHeaderBox2iAttribute
	ImfHeaderSetBox2fAttribute
	ImfHeaderBox2fAttribute
	ImfHeaderSetV2iAttribute
	ImfHeaderV2iAttribute
	ImfHeaderSetV2fAttribute
	ImfHeaderV2fAttribute
	ImfHeaderSetV3iAttribute
	ImfHeaderV3iAttribute
	ImfHeaderSetV3fAttribute
	ImfHeaderV3fAttribute
	ImfHeaderSetM33fAttribute
	ImfHeaderM33fAttribute
	ImfHeaderSetM44fAttribute
	ImfHeaderM44fAttribute
	ImfOpenOutputFile
	ImfCloseOutputFile
	ImfOutputSetFrameBuffer
	ImfOutputWritePixels
	ImfOutputCurrentScanLine
	ImfOutputHeader
	ImfOutputChannels
	ImfOpenTiledOutputFile
	ImfCloseTiledOutputFile
	ImfTiledOutputSetFrameBuffer
	ImfTiledOutputWriteTile
	ImfTiledOutputWriteTiles
	ImfTiledOutputHeader
	ImfTiledOutputChannels
	ImfTiledOutputTileXSize
	ImfTiledOutputTileYSize
	ImfTiledOutputLevelMode
	ImfTiledOutputLevelRoundingMode
	ImfOpenInputFile
	ImfCloseInputFile
	ImfInputSetFrameBuffer
	ImfInputReadPixels
	ImfInputHeader
	ImfInputChannels
	ImfInputFileName
	ImfOpenTiledInputFile
	ImfCloseTiledInputFile
	ImfTiledInputSetFrameBuffer
	ImfTiledInputReadTile
	ImfTiledInputReadTiles
	ImfTiledInputHeader
	ImfTiledInputChannels
	ImfTiledInputFileName
	ImfTiledInputTileXSize
	ImfTiledInputTileYSize
	ImfTiledInputLevelMode
	ImfTiledInputLevelRoundingMode
	ImfNewRound12logLut
	ImfNewRoundNBitLut
	ImfDeleteLut
	ImfApplyLut
	ImfErrorMessage
	??0?$TypedAttribute@H@Imf@@QAE@ABH@Z
	??1?$TypedAttribute@H@Imf@@UAE@XZ
	?typeName@?$TypedAttribute@H@Imf@@UBEPBDXZ
	?copy@?$TypedAttribute@H@Imf@@UBEPAVAttribute@2@XZ
	?writeValueTo@?$TypedAttribute@H@Imf@@UBEXAAVOStream@2@H@Z
	?readValueFrom@?$TypedAttribute@H@Imf@@UAEXAAVIStream@2@HH@Z
	?copyValueFrom@?$TypedAttribute@H@Imf@@UAEXABVAttribute@2@@Z
	??0?$TypedAttribute@V?$basic_string@DU?$char_traits@D@std@@V?$allocator@D@2@@std@@@Imf@@QAE@ABV?$basic_string@DU?$char_traits@D@std@@V?$allocator@D@2@@std@@@Z
	??1?$TypedAttribute@V?$basic_string@DU?$char_traits@D@std@@V?$allocator@D@2@@std@@@Imf@@UAE@XZ
	?typeName@?$TypedAttribute@V?$basic_string@DU?$char_traits@D@std@@V?$allocator@D@2@@std@@@Imf@@UBEPBDXZ
	?copy@?$TypedAttribute@V?$basic_string@DU?$char_traits@D@std@@V?$allocator@D@2@@std@@@Imf@@UBEPAVAttribute@2@XZ
	?copyValueFrom@?$TypedAttribute@V?$basic_string@DU?$char_traits@D@std@@V?$allocator@D@2@@std@@@Imf@@UAEXABVAttribute@2@@Z
	??0?$TypedAttribute@V?$Box@V?$Vec2@H@Imath@@@Imath@@@Imf@@QAE@ABV?$Box@V?$Vec2@H@Imath@@@Imath@@@Z
	??1?$TypedAttribute@V?$Box@V?$Vec2@H@Imath@@@Imath@@@Imf@@UAE@XZ
	?typeName@?$TypedAttribute@V?$Box@V?$Vec2@H@Imath@@@Imath@@@Imf@@UBEPBDXZ
	?copy@?$TypedAttribute@V?$Box@V?$Vec2@H@Imath@@@Imath@@@Imf@@UBEPAVAttribute@2@XZ
	?copyValueFrom@?$TypedAttribute@V?$Box@V?$Vec2@H@Imath@@@Imath@@@Imf@@UAEXABVAttribute@2@@Z
	??0?$TypedAttribute@V?$Box@V?$Vec2@M@Imath@@@Imath@@@Imf@@QAE@ABV?$Box@V?$Vec2@M@Imath@@@Imath@@@Z
	??1?$TypedAttribute@V?$Box@V?$Vec2@M@Imath@@@Imath@@@Imf@@UAE@XZ
	?typeName@?$TypedAttribute@V?$Box@V?$Vec2@M@Imath@@@Imath@@@Imf@@UBEPBDXZ
	?copy@?$TypedAttribute@V?$Box@V?$Vec2@M@Imath@@@Imath@@@Imf@@UBEPAVAttribute@2@XZ
	?copyValueFrom@?$TypedAttribute@V?$Box@V?$Vec2@M@Imath@@@Imath@@@Imf@@UAEXABVAttribute@2@@Z
	??0?$TypedAttribute@V?$Vec2@H@Imath@@@Imf@@QAE@ABV?$Vec2@H@Imath@@@Z
	??1?$TypedAttribute@V?$Vec2@H@Imath@@@Imf@@UAE@XZ
	?typeName@?$TypedAttribute@V?$Vec2@H@Imath@@@Imf@@UBEPBDXZ
	?copy@?$TypedAttribute@V?$Vec2@H@Imath@@@Imf@@UBEPAVAttribute@2@XZ
	?copyValueFrom@?$TypedAttribute@V?$Vec2@H@Imath@@@Imf@@UAEXABVAttribute@2@@Z
	??0?$TypedAttribute@V?$Vec2@M@Imath@@@Imf@@QAE@ABV?$Vec2@M@Imath@@@Z
	??1?$TypedAttribute@V?$Vec2@M@Imath@@@Imf@@UAE@XZ
	?typeName@?$TypedAttribute@V?$Vec2@M@Imath@@@Imf@@UBEPBDXZ
	?copy@?$TypedAttribute@V?$Vec2@M@Imath@@@Imf@@UBEPAVAttribute@2@XZ
	?copyValueFrom@?$TypedAttribute@V?$Vec2@M@Imath@@@Imf@@UAEXABVAttribute@2@@Z
	??0?$TypedAttribute@V?$Vec3@H@Imath@@@Imf@@QAE@ABV?$Vec3@H@Imath@@@Z
	??1?$TypedAttribute@V?$Vec3@H@Imath@@@Imf@@UAE@XZ
	?typeName@?$TypedAttribute@V?$Vec3@H@Imath@@@Imf@@UBEPBDXZ
	?copy@?$TypedAttribute@V?$Vec3@H@Imath@@@Imf@@UBEPAVAttribute@2@XZ
	?copyValueFrom@?$TypedAttribute@V?$Vec3@H@Imath@@@Imf@@UAEXABVAttribute@2@@Z
	??0?$TypedAttribute@V?$Vec3@M@Imath@@@Imf@@QAE@ABV?$Vec3@M@Imath@@@Z
	??1?$TypedAttribute@V?$Vec3@M@Imath@@@Imf@@UAE@XZ
	?typeName@?$TypedAttribute@V?$Vec3@M@Imath@@@Imf@@UBEPBDXZ
	?copy@?$TypedAttribute@V?$Vec3@M@Imath@@@Imf@@UBEPAVAttribute@2@XZ
	?copyValueFrom@?$TypedAttribute@V?$Vec3@M@Imath@@@Imf@@UAEXABVAttribute@2@@Z
	??0?$Matrix33@M@Imath@@QAE@QAY02$$CBM@Z
	??4?$Matrix33@M@Imath@@QAEABV01@ABV01@@Z
	??0?$Matrix44@M@Imath@@QAE@QAY03$$CBM@Z
	??4?$Matrix44@M@Imath@@QAEABV01@ABV01@@Z
	??0?$TypedAttribute@V?$Matrix33@M@Imath@@@Imf@@QAE@ABV?$Matrix33@M@Imath@@@Z
	??1?$TypedAttribute@V?$Matrix33@M@Imath@@@Imf@@UAE@XZ
	?typeName@?$TypedAttribute@V?$Matrix33@M@Imath@@@Imf@@UBEPBDXZ
	?copy@?$TypedAttribute@V?$Matrix33@M@Imath@@@Imf@@UBEPAVAttribute@2@XZ
	?copyValueFrom@?$TypedAttribute@V?$Matrix33@M@Imath@@@Imf@@UAEXABVAttribute@2@@Z
	??0?$TypedAttribute@V?$Matrix44@M@Imath@@@Imf@@QAE@ABV?$Matrix44@M@Imath@@@Z
	??1?$TypedAttribute@V?$Matrix44@M@Imath@@@Imf@@UAE@XZ
	?typeName@?$TypedAttribute@V?$Matrix44@M@Imath@@@Imf@@UBEPBDXZ
	?copy@?$TypedAttribute@V?$Matrix44@M@Imath@@@Imf@@UBEPAVAttribute@2@XZ
	?copyValueFrom@?$TypedAttribute@V?$Matrix44@M@Imath@@@Imf@@UAEXABVAttribute@2@@Z
	??$typedAttribute@V?$TypedAttribute@H@Imf@@@Header@Imf@@QBEABV?$TypedAttribute@H@1@QBD@Z
	??$typedAttribute@V?$TypedAttribute@H@Imf@@@Header@Imf@@QAEAAV?$TypedAttribute@H@1@QBD@Z
	??$typedAttribute@V?$TypedAttribute@M@Imf@@@Header@Imf@@QBEABV?$TypedAttribute@M@1@QBD@Z
	??$typedAttribute@V?$TypedAttribute@M@Imf@@@Header@Imf@@QAEAAV?$TypedAttribute@M@1@QBD@Z
	??$typedAttribute@V?$TypedAttribute@N@Imf@@@Header@Imf@@QBEABV?$TypedAttribute@N@1@QBD@Z
	??$typedAttribute@V?$TypedAttribute@N@Imf@@@Header@Imf@@QAEAAV?$TypedAttribute@N@1@QBD@Z
	??$typedAttribute@V?$TypedAttribute@V?$basic_string@DU?$char_traits@D@std@@V?$allocator@D@2@@std@@@Imf@@@Header@Imf@@QBEABV?$TypedAttribute@V?$basic_string@DU?$char_traits@D@std@@V?$allocator@D@2@@std@@@1@QBD@Z
	??$typedAttribute@V?$TypedAttribute@V?$basic_string@DU?$char_traits@D@std@@V?$allocator@D@2@@std@@@Imf@@@Header@Imf@@QAEAAV?$TypedAttribute@V?$basic_string@DU?$char_traits@D@std@@V?$allocator@D@2@@std@@@1@QBD@Z
	??$typedAttribute@V?$TypedAttribute@V?$Box@V?$Vec2@H@Imath@@@Imath@@@Imf@@@Header@Imf@@QBEABV?$TypedAttribute@V?$Box@V?$Vec2@H@Imath@@@Imath@@@1@QBD@Z
	??$typedAttribute@V?$TypedAttribute@V?$Box@V?$Vec2@H@Imath@@@Imath@@@Imf@@@Header@Imf@@QAEAAV?$TypedAttribute@V?$Box@V?$Vec2@H@Imath@@@Imath@@@1@QBD@Z
	??$typedAttribute@V?$TypedAttribute@V?$Box@V?$Vec2@M@Imath@@@Imath@@@Imf@@@Header@Imf@@QBEABV?$TypedAttribute@V?$Box@V?$Vec2@M@Imath@@@Imath@@@1@QBD@Z
	??$typedAttribute@V?$TypedAttribute@V?$Box@V?$Vec2@M@Imath@@@Imath@@@Imf@@@Header@Imf@@QAEAAV?$TypedAttribute@V?$Box@V?$Vec2@M@Imath@@@Imath@@@1@QBD@Z
	??$typedAttribute@V?$TypedAttribute@V?$Vec2@H@Imath@@@Imf@@@Header@Imf@@QBEABV?$TypedAttribute@V?$Vec2@H@Imath@@@1@QBD@Z
	??$typedAttribute@V?$TypedAttribute@V?$Vec2@H@Imath@@@Imf@@@Header@Imf@@QAEAAV?$TypedAttribute@V?$Vec2@H@Imath@@@1@QBD@Z
	??$typedAttribute@V?$TypedAttribute@V?$Vec2@M@Imath@@@Imf@@@Header@Imf@@QBEABV?$TypedAttribute@V?$Vec2@M@Imath@@@1@QBD@Z
	??$typedAttribute@V?$TypedAttribute@V?$Vec2@M@Imath@@@Imf@@@Header@Imf@@QAEAAV?$TypedAttribute@V?$Vec2@M@Imath@@@1@QBD@Z
	??$typedAttribute@V?$TypedAttribute@V?$Vec3@H@Imath@@@Imf@@@Header@Imf@@QBEABV?$TypedAttribute@V?$Vec3@H@Imath@@@1@QBD@Z
	??$typedAttribute@V?$TypedAttribute@V?$Vec3@H@Imath@@@Imf@@@Header@Imf@@QAEAAV?$TypedAttribute@V?$Vec3@H@Imath@@@1@QBD@Z
	??$typedAttribute@V?$TypedAttribute@V?$Vec3@M@Imath@@@Imf@@@Header@Imf@@QBEABV?$TypedAttribute@V?$Vec3@M@Imath@@@1@QBD@Z
	??$typedAttribute@V?$TypedAttribute@V?$Vec3@M@Imath@@@Imf@@@Header@Imf@@QAEAAV?$TypedAttribute@V?$Vec3@M@Imath@@@1@QBD@Z
	??$typedAttribute@V?$TypedAttribute@V?$Matrix33@M@Imath@@@Imf@@@Header@Imf@@QBEABV?$TypedAttribute@V?$Matrix33@M@Imath@@@1@QBD@Z
	??$typedAttribute@V?$TypedAttribute@V?$Matrix33@M@Imath@@@Imf@@@Header@Imf@@QAEAAV?$TypedAttribute@V?$Matrix33@M@Imath@@@1@QBD@Z
	??$typedAttribute@V?$TypedAttribute@V?$Matrix44@M@Imath@@@Imf@@@Header@Imf@@QBEABV?$TypedAttribute@V?$Matrix44@M@Imath@@@1@QBD@Z
	??$typedAttribute@V?$TypedAttribute@V?$Matrix44@M@Imath@@@Imf@@@Header@Imf@@QAEAAV?$TypedAttribute@V?$Matrix44@M@Imath@@@1@QBD@Z
	??$?0P6A?AVhalf@@V0@@Z@RgbaLut@Imf@@QAE@P6A?AVhalf@@V2@@ZW4RgbaChannels@1@@Z
	??$?0UroundNBit@Imf@@@RgbaLut@Imf@@QAE@UroundNBit@1@W4RgbaChannels@1@@Z
	??0?$TypedAttribute@H@Imf@@QAE@XZ
	??0?$TypedAttribute@V?$basic_string@DU?$char_traits@D@std@@V?$allocator@D@2@@std@@@Imf@@QAE@XZ
	??0?$TypedAttribute@V?$Box@V?$Vec2@H@Imath@@@Imath@@@Imf@@QAE@XZ
	??0?$TypedAttribute@V?$Box@V?$Vec2@M@Imath@@@Imath@@@Imf@@QAE@XZ
	??0?$TypedAttribute@V?$Vec2@H@Imath@@@Imf@@QAE@XZ
	??0?$TypedAttribute@V?$Vec2@M@Imath@@@Imf@@QAE@XZ
	??0?$TypedAttribute@V?$Vec3@H@Imath@@@Imf@@QAE@XZ
	??0?$TypedAttribute@V?$Vec3@M@Imath@@@Imf@@QAE@XZ
	??0?$Matrix33@M@Imath@@QAE@ABV01@@Z
	??0?$TypedAttribute@V?$Matrix33@M@Imath@@@Imf@@QAE@XZ
	??0?$TypedAttribute@V?$Matrix44@M@Imath@@@Imf@@QAE@XZ
	??$?0P6A?AVhalf@@V0@@Z@?$halfFunction@Vhalf@@@@QAE@P6A?AVhalf@@V1@@Z000000@Z
	??$?0UroundNBit@Imf@@@?$halfFunction@Vhalf@@@@QAE@UroundNBit@Imf@@Vhalf@@11111@Z
	?round@half@@QBE?AV1@I@Z
	?cast@?$TypedAttribute@H@Imf@@SAPBV12@PBVAttribute@2@@Z
	?cast@?$TypedAttribute@V?$basic_string@DU?$char_traits@D@std@@V?$allocator@D@2@@std@@@Imf@@SAPBV12@PBVAttribute@2@@Z
	?cast@?$TypedAttribute@V?$Box@V?$Vec2@H@Imath@@@Imath@@@Imf@@SAPBV12@PBVAttribute@2@@Z
	?cast@?$TypedAttribute@V?$Box@V?$Vec2@M@Imath@@@Imath@@@Imf@@SAPBV12@PBVAttribute@2@@Z
	?cast@?$TypedAttribute@V?$Vec2@H@Imath@@@Imf@@SAPBV12@PBVAttribute@2@@Z
	?cast@?$TypedAttribute@V?$Vec2@M@Imath@@@Imf@@SAPBV12@PBVAttribute@2@@Z
	?cast@?$TypedAttribute@V?$Vec3@H@Imath@@@Imf@@SAPBV12@PBVAttribute@2@@Z
	?cast@?$TypedAttribute@V?$Vec3@M@Imath@@@Imf@@SAPBV12@PBVAttribute@2@@Z
	?cast@?$TypedAttribute@V?$Matrix33@M@Imath@@@Imf@@SAPBV12@PBVAttribute@2@@Z
	?cast@?$TypedAttribute@V?$Matrix44@M@Imath@@@Imf@@SAPBV12@PBVAttribute@2@@Z
	?staticTypeName@?$TypedAttribute@N@Imf@@SAPBDXZ
	?min@?$limits@H@Imath@@SAHXZ
	?max@?$limits@H@Imath@@SAHXZ
	fabsf
	acosf
	asinf
	atan2f
	cosf
	sinf
	sqrtf
	?abs@@YAMM@Z
	?acos@@YAMM@Z
	?asin@@YAMM@Z
	?atan2@@YAMMM@Z
	?cos@@YAMM@Z
	?sin@@YAMM@Z
	?sqrt@@YAMM@Z
	?sqrt@?$Math@M@Imath@@SAMM@Z
	??0?$Vec2@H@Imath@@QAE@ABV01@@Z
	??0?$Vec2@M@Imath@@QAE@ABV01@@Z
	??0?$Vec2@M@Imath@@QAE@MM@Z
	??0?$Vec2@M@Imath@@QAE@XZ
	??4?$Vec2@M@Imath@@QAEABV01@ABV01@@Z
	??0?$Vec3@M@Imath@@QAE@ABV01@@Z
	??0?$Vec3@M@Imath@@QAE@MMM@Z
	??$sign@M@Imath@@YAHM@Z
	??$min@H@std@@YAABHABH0@Z
	??0?$Vec2@H@Imath@@QAE@XZ
	?dot@?$Vec3@M@Imath@@QBEMABV12@@Z
	?baseTypeMin@?$Vec2@H@Imath@@SAHXZ
	?baseTypeMax@?$Vec2@H@Imath@@SAHXZ
	??0?$Vec2@H@Imath@@QAE@H@Z
	??4?$Vec2@H@Imath@@QAEABV01@ABV01@@Z
	?latLong@LatLongMap@Imf@@YA?AV?$Vec2@M@Imath@@ABV?$Box@V?$Vec2@H@Imath@@@4@ABV34@@Z
	?pixelPosition@LatLongMap@Imf@@YA?AV?$Vec2@M@Imath@@ABV?$Box@V?$Vec2@H@Imath@@@4@ABV34@@Z
	?direction@LatLongMap@Imf@@YA?AV?$Vec3@M@Imath@@ABV?$Box@V?$Vec2@H@Imath@@@4@ABV?$Vec2@M@4@@Z
	?sizeOfFace@CubeMap@Imf@@YAHABV?$Box@V?$Vec2@H@Imath@@@Imath@@@Z
	?faceAndPixelPosition@CubeMap@Imf@@YAXABV?$Vec3@M@Imath@@ABV?$Box@V?$Vec2@H@Imath@@@4@AAW4CubeMapFace@2@AAV?$Vec2@M@4@@Z
	?direction@CubeMap@Imf@@YA?AV?$Vec3@M@Imath@@W4CubeMapFace@2@ABV?$Box@V?$Vec2@H@Imath@@@4@ABV?$Vec2@M@4@@Z
	?latLong@LatLongMap@Imf@@YA?AV?$Vec2@M@Imath@@ABV?$Vec3@M@4@@Z
	?pixelPosition@LatLongMap@Imf@@YA?AV?$Vec2@M@Imath@@ABV?$Box@V?$Vec2@H@Imath@@@4@ABV?$Vec3@M@4@@Z
	?dataWindowForFace@CubeMap@Imf@@YA?AV?$Box@V?$Vec2@H@Imath@@@Imath@@W4CubeMapFace@2@ABV34@@Z
	?pixelPosition@CubeMap@Imf@@YA?AV?$Vec2@M@Imath@@W4CubeMapFace@2@ABV?$Box@V?$Vec2@H@Imath@@@4@V34@@Z
	??0?$Box@V?$Vec2@H@Imath@@@Imath@@QAE@ABV01@@Z
	?length@?$Vec3@M@Imath@@QBEMXZ
	?makeEmpty@?$Box@V?$Vec2@H@Imath@@@Imath@@QAEXXZ
	??0?$Box@V?$Vec2@H@Imath@@@Imath@@QAE@XZ
	??0TypeExc@Iex@@QAE@PBD@Z
	?writeChars@StreamIO@Imf@@SAXAAVOStream@2@QBDH@Z
	?readChars@StreamIO@Imf@@SA_NAAVIStream@2@QADH@Z
	?staticTypeName@?$TypedAttribute@W4Envmap@Imf@@@Imf@@SAPBDXZ
	?writeValueTo@?$TypedAttribute@W4Envmap@Imf@@@Imf@@UBEXAAVOStream@2@H@Z
	?readValueFrom@?$TypedAttribute@W4Envmap@Imf@@@Imf@@UAEXAAVIStream@2@HH@Z
	??$writeUnsignedChars@UStreamIO@Imf@@VOStream@2@@Xdr@Imf@@YAXAAVOStream@1@QBEH@Z
	??$readUnsignedChars@UStreamIO@Imf@@VIStream@2@@Xdr@Imf@@YAXAAVIStream@1@QAEH@Z
	??$write@UStreamIO@Imf@@VOStream@2@@Xdr@Imf@@YAXAAVOStream@1@E@Z
	??$read@UStreamIO@Imf@@VIStream@2@@Xdr@Imf@@YAXAAVIStream@1@AAE@Z
	?staticTypeName@?$TypedAttribute@M@Imf@@SAPBDXZ
	??0Slice@Imf@@QAE@W4PixelType@1@PADIIHHN_N2@Z
	?insert@FrameBuffer@Imf@@QAEXQBDABUSlice@2@@Z
	??AFrameBuffer@Imf@@QAEAAUSlice@1@QBD@Z
	??AFrameBuffer@Imf@@QBEABUSlice@1@QBD@Z
	?findSlice@FrameBuffer@Imf@@QAEPAUSlice@2@QBD@Z
	?findSlice@FrameBuffer@Imf@@QBEPBUSlice@2@QBD@Z
	?begin@FrameBuffer@Imf@@QAE?AVIterator@12@XZ
	?begin@FrameBuffer@Imf@@QBE?AVConstIterator@12@XZ
	?end@FrameBuffer@Imf@@QAE?AVIterator@12@XZ
	?end@FrameBuffer@Imf@@QBE?AVConstIterator@12@XZ
	?find@FrameBuffer@Imf@@QAE?AVIterator@12@QBD@Z
	?find@FrameBuffer@Imf@@QBE?AVConstIterator@12@QBD@Z
	??A?$map@VName@Imf@@USlice@2@U?$less@VName@Imf@@@std@@V?$allocator@U?$pair@$$CBVName@Imf@@USlice@2@@std@@@5@@std@@QAEAAUSlice@Imf@@ABVName@3@@Z
	?find@?$_Tree@V?$_Tmap_traits@VName@Imf@@USlice@2@U?$less@VName@Imf@@@std@@V?$allocator@U?$pair@$$CBVName@Imf@@USlice@2@@std@@@5@$0A@@std@@@std@@QAE?AViterator@12@ABVName@Imf@@@Z
	?find@?$_Tree@V?$_Tmap_traits@VName@Imf@@USlice@2@U?$less@VName@Imf@@@std@@V?$allocator@U?$pair@$$CBVName@Imf@@USlice@2@@std@@@5@$0A@@std@@@std@@QBE?AVconst_iterator@12@ABVName@Imf@@@Z
	?insert@?$_Tree@V?$_Tmap_traits@VName@Imf@@USlice@2@U?$less@VName@Imf@@@std@@V?$allocator@U?$pair@$$CBVName@Imf@@USlice@2@@std@@@5@$0A@@std@@@std@@QAE?AViterator@12@V312@ABU?$pair@$$CBVName@Imf@@USlice@2@@2@@Z
	??8const_iterator@?$_Tree@V?$_Tmap_traits@VName@Imf@@USlice@2@U?$less@VName@Imf@@@std@@V?$allocator@U?$pair@$$CBVName@Imf@@USlice@2@@std@@@5@$0A@@std@@@std@@QBE_NABV012@@Z
	??0const_iterator@?$_Tree@V?$_Tmap_traits@VName@Imf@@USlice@2@U?$less@VName@Imf@@@std@@V?$allocator@U?$pair@$$CBVName@Imf@@USlice@2@@std@@@5@$0A@@std@@@std@@QAE@PAU_Node@?$_Tree_nod@V?$_Tmap_traits@VName@Imf@@USlice@2@U?$less@VName@Imf@@@std@@V?$allocator@U?$pair@$$CBVName@Imf@@USlice@2@@std@@@5@$0A@@std@@@2@PBV12@@Z
	?_Inc@const_iterator@?$_Tree@V?$_Tmap_traits@VName@Imf@@USlice@2@U?$less@VName@Imf@@@std@@V?$allocator@U?$pair@$$CBVName@Imf@@USlice@2@@std@@@5@$0A@@std@@@std@@QAEXXZ
	?insert@?$_Tree@V?$_Tmap_traits@VName@Imf@@USlice@2@U?$less@VName@Imf@@@std@@V?$allocator@U?$pair@$$CBVName@Imf@@USlice@2@@std@@@5@$0A@@std@@@std@@QAE?AU?$pair@Viterator@?$_Tree@V?$_Tmap_traits@VName@Imf@@USlice@2@U?$less@VName@Imf@@@std@@V?$allocator@U?$pair@$$CBVName@Imf@@USlice@2@@std@@@5@$0A@@std@@@std@@_N@2@ABU?$pair@$$CBVName@Imf@@USlice@2@@2@@Z
	?_Insert@?$_Tree@V?$_Tmap_traits@VName@Imf@@USlice@2@U?$less@VName@Imf@@@std@@V?$allocator@U?$pair@$$CBVName@Imf@@USlice@2@@std@@@5@$0A@@std@@@std@@IAE?AViterator@12@_NPAU_Node@?$_Tree_nod@V?$_Tmap_traits@VName@Imf@@USlice@2@U?$less@VName@Imf@@@std@@V?$allocator@U?$pair@$$CBVName@Imf@@USlice@2@@std@@@5@$0A@@std@@@2@ABU?$pair@$$CBVName@Imf@@USlice@2@@2@@Z
	?_Lbound@?$_Tree@V?$_Tmap_traits@VName@Imf@@USlice@2@U?$less@VName@Imf@@@std@@V?$allocator@U?$pair@$$CBVName@Imf@@USlice@2@@std@@@5@$0A@@std@@@std@@IBEPAU_Node@?$_Tree_nod@V?$_Tmap_traits@VName@Imf@@USlice@2@U?$less@VName@Imf@@@std@@V?$allocator@U?$pair@$$CBVName@Imf@@USlice@2@@std@@@5@$0A@@std@@@2@ABVName@Imf@@@Z
	?_Lrotate@?$_Tree@V?$_Tmap_traits@VName@Imf@@USlice@2@U?$less@VName@Imf@@@std@@V?$allocator@U?$pair@$$CBVName@Imf@@USlice@2@@std@@@5@$0A@@std@@@std@@IAEXPAU_Node@?$_Tree_nod@V?$_Tmap_traits@VName@Imf@@USlice@2@U?$less@VName@Imf@@@std@@V?$allocator@U?$pair@$$CBVName@Imf@@USlice@2@@std@@@5@$0A@@std@@@2@@Z
	?_Rrotate@?$_Tree@V?$_Tmap_traits@VName@Imf@@USlice@2@U?$less@VName@Imf@@@std@@V?$allocator@U?$pair@$$CBVName@Imf@@USlice@2@@std@@@5@$0A@@std@@@std@@IAEXPAU_Node@?$_Tree_nod@V?$_Tmap_traits@VName@Imf@@USlice@2@U?$less@VName@Imf@@@std@@V?$allocator@U?$pair@$$CBVName@Imf@@USlice@2@@std@@@5@$0A@@std@@@2@@Z
	?_Buynode@?$_Tree@V?$_Tmap_traits@VName@Imf@@USlice@2@U?$less@VName@Imf@@@std@@V?$allocator@U?$pair@$$CBVName@Imf@@USlice@2@@std@@@5@$0A@@std@@@std@@IAEPAU_Node@?$_Tree_nod@V?$_Tmap_traits@VName@Imf@@USlice@2@U?$less@VName@Imf@@@std@@V?$allocator@U?$pair@$$CBVName@Imf@@USlice@2@@std@@@5@$0A@@std@@@2@PAU342@00ABU?$pair@$$CBVName@Imf@@USlice@2@@2@D@Z
	?_Dec@const_iterator@?$_Tree@V?$_Tmap_traits@VName@Imf@@USlice@2@U?$less@VName@Imf@@@std@@V?$allocator@U?$pair@$$CBVName@Imf@@USlice@2@@std@@@5@$0A@@std@@@std@@QAEXXZ
	??$_Allocate@U_Node@?$_Tree_nod@V?$_Tmap_traits@VName@Imf@@USlice@2@U?$less@VName@Imf@@@std@@V?$allocator@U?$pair@$$CBVName@Imf@@USlice@2@@std@@@5@$0A@@std@@@std@@@std@@YAPAU_Node@?$_Tree_nod@V?$_Tmap_traits@VName@Imf@@USlice@2@U?$less@VName@Imf@@@std@@V?$allocator@U?$pair@$$CBVName@Imf@@USlice@2@@std@@@5@$0A@@std@@@0@IPAU120@@Z
	?initialize@?A0x54d39354@Imf@@YAXAAVHeader@2@ABV?$Box@V?$Vec2@H@Imath@@@Imath@@1MABV?$Vec2@M@5@MW4LineOrder@2@W4Compression@2@@Z
	??0Header@Imf@@QAE@HHMABV?$Vec2@M@Imath@@MW4LineOrder@1@W4Compression@1@@Z
	??0Header@Imf@@QAE@HHABV?$Box@V?$Vec2@H@Imath@@@Imath@@MABV?$Vec2@M@3@MW4LineOrder@1@W4Compression@1@@Z
	??0Header@Imf@@QAE@ABV?$Box@V?$Vec2@H@Imath@@@Imath@@0MABV?$Vec2@M@3@MW4LineOrder@1@W4Compression@1@@Z
	??0Header@Imf@@QAE@ABV01@@Z
	??1Header@Imf@@QAE@XZ
	??4Header@Imf@@QAEAAV01@ABV01@@Z
	?insert@Header@Imf@@QAEXQBDABVAttribute@2@@Z
	??AHeader@Imf@@QAEAAVAttribute@1@QBD@Z
	??AHeader@Imf@@QBEABVAttribute@1@QBD@Z
	?begin@Header@Imf@@QAE?AVIterator@12@XZ
	?begin@Header@Imf@@QBE?AVConstIterator@12@XZ
	?end@Header@Imf@@QAE?AVIterator@12@XZ
	?end@Header@Imf@@QBE?AVConstIterator@12@XZ
	?find@Header@Imf@@QAE?AVIterator@12@QBD@Z
	?find@Header@Imf@@QBE?AVConstIterator@12@QBD@Z
	?displayWindow@Header@Imf@@QAEAAV?$Box@V?$Vec2@H@Imath@@@Imath@@XZ
	?displayWindow@Header@Imf@@QBEABV?$Box@V?$Vec2@H@Imath@@@Imath@@XZ
	?dataWindow@Header@Imf@@QAEAAV?$Box@V?$Vec2@H@Imath@@@Imath@@XZ
	?dataWindow@Header@Imf@@QBEABV?$Box@V?$Vec2@H@Imath@@@Imath@@XZ
	?pixelAspectRatio@Header@Imf@@QAEAAMXZ
	?pixelAspectRatio@Header@Imf@@QBEABMXZ
	?screenWindowCenter@Header@Imf@@QAEAAV?$Vec2@M@Imath@@XZ
	?screenWindowCenter@Header@Imf@@QBEABV?$Vec2@M@Imath@@XZ
	?screenWindowWidth@Header@Imf@@QAEAAMXZ
	?screenWindowWidth@Header@Imf@@QBEABMXZ
	?channels@Header@Imf@@QAEAAVChannelList@2@XZ
	?channels@Header@Imf@@QBEABVChannelList@2@XZ
	?lineOrder@Header@Imf@@QAEAAW4LineOrder@2@XZ
	?lineOrder@Header@Imf@@QBEABW4LineOrder@2@XZ
	?compression@Header@Imf@@QAEAAW4Compression@2@XZ
	?compression@Header@Imf@@QBEABW4Compression@2@XZ
	?setTileDescription@Header@Imf@@QAEXABVTileDescription@2@@Z
	?hasTileDescription@Header@Imf@@QBE_NXZ
	?tileDescription@Header@Imf@@QAEAAVTileDescription@2@XZ
	?tileDescription@Header@Imf@@QBEABVTileDescription@2@XZ
	?setPreviewImage@Header@Imf@@QAEXABVPreviewImage@2@@Z
	?previewImage@Header@Imf@@QAEAAVPreviewImage@2@XZ
	?previewImage@Header@Imf@@QBEABVPreviewImage@2@XZ
	?hasPreviewImage@Header@Imf@@QBE_NXZ
	?sanityCheck@Header@Imf@@QBEX_N@Z
	?writeTo@Header@Imf@@QBE_KAAVOStream@2@_N@Z
	?readFrom@Header@Imf@@QAEXAAVIStream@2@AAH@Z
	?staticInitialize@Imf@@YAXXZ
	??1?$map@VName@Imf@@PAVAttribute@2@U?$less@VName@Imf@@@std@@V?$allocator@U?$pair@$$CBVName@Imf@@PAVAttribute@2@@std@@@5@@std@@QAE@XZ
	?attribute@ConstIterator@Header@Imf@@QBEABVAttribute@3@XZ
	?str@StdOSStream@Imf@@QBE?AV?$basic_string@DU?$char_traits@D@std@@V?$allocator@D@2@@std@@XZ
	??1StdOSStream@Imf@@UAE@XZ
	??1InputExc@Iex@@UAE@XZ
	??0InputExc@Iex@@QAE@ABV01@@Z
	??0?$map@VName@Imf@@PAVAttribute@2@U?$less@VName@Imf@@@std@@V?$allocator@U?$pair@$$CBVName@Imf@@PAVAttribute@2@@std@@@5@@std@@QAE@XZ
	??A?$map@VName@Imf@@PAVAttribute@2@U?$less@VName@Imf@@@std@@V?$allocator@U?$pair@$$CBVName@Imf@@PAVAttribute@2@@std@@@5@@std@@QAEAAPAVAttribute@Imf@@ABVName@3@@Z
	?erase@?$_Tree@V?$_Tmap_traits@VName@Imf@@PAVAttribute@2@U?$less@VName@Imf@@@std@@V?$allocator@U?$pair@$$CBVName@Imf@@PAVAttribute@2@@std@@@5@$0A@@std@@@std@@QAE?AViterator@12@V312@0@Z
	?find@?$_Tree@V?$_Tmap_traits@VName@Imf@@PAVAttribute@2@U?$less@VName@Imf@@@std@@V?$allocator@U?$pair@$$CBVName@Imf@@PAVAttribute@2@@std@@@5@$0A@@std@@@std@@QAE?AViterator@12@ABVName@Imf@@@Z
	?find@?$_Tree@V?$_Tmap_traits@VName@Imf@@PAVAttribute@2@U?$less@VName@Imf@@@std@@V?$allocator@U?$pair@$$CBVName@Imf@@PAVAttribute@2@@std@@@5@$0A@@std@@@std@@QBE?AVconst_iterator@12@ABVName@Imf@@@Z
	?insert@?$_Tree@V?$_Tmap_traits@VName@Imf@@PAVAttribute@2@U?$less@VName@Imf@@@std@@V?$allocator@U?$pair@$$CBVName@Imf@@PAVAttribute@2@@std@@@5@$0A@@std@@@std@@QAE?AViterator@12@V312@ABU?$pair@$$CBVName@Imf@@PAVAttribute@2@@2@@Z
	??8const_iterator@?$_Tree@V?$_Tmap_traits@VName@Imf@@PAVAttribute@2@U?$less@VName@Imf@@@std@@V?$allocator@U?$pair@$$CBVName@Imf@@PAVAttribute@2@@std@@@5@$0A@@std@@@std@@QBE_NABV012@@Z
	?erase@?$_Tree@V?$_Tmap_traits@VName@Imf@@PAVAttribute@2@U?$less@VName@Imf@@@std@@V?$allocator@U?$pair@$$CBVName@Imf@@PAVAttribute@2@@std@@@5@$0A@@std@@@std@@QAE?AViterator@12@V312@@Z
	?clear@?$_Tree@V?$_Tmap_traits@VName@Imf@@PAVAttribute@2@U?$less@VName@Imf@@@std@@V?$allocator@U?$pair@$$CBVName@Imf@@PAVAttribute@2@@std@@@5@$0A@@std@@@std@@QAEXXZ
	?_Tidy@?$_Tree@V?$_Tmap_traits@VName@Imf@@PAVAttribute@2@U?$less@VName@Imf@@@std@@V?$allocator@U?$pair@$$CBVName@Imf@@PAVAttribute@2@@std@@@5@$0A@@std@@@std@@IAEXXZ
	??0const_iterator@?$_Tree@V?$_Tmap_traits@VName@Imf@@PAVAttribute@2@U?$less@VName@Imf@@@std@@V?$allocator@U?$pair@$$CBVName@Imf@@PAVAttribute@2@@std@@@5@$0A@@std@@@std@@QAE@PAU_Node@?$_Tree_nod@V?$_Tmap_traits@VName@Imf@@PAVAttribute@2@U?$less@VName@Imf@@@std@@V?$allocator@U?$pair@$$CBVName@Imf@@PAVAttribute@2@@std@@@5@$0A@@std@@@2@PBV12@@Z
	??Dconst_iterator@?$_Tree@V?$_Tmap_traits@VName@Imf@@PAVAttribute@2@U?$less@VName@Imf@@@std@@V?$allocator@U?$pair@$$CBVName@Imf@@PAVAttribute@2@@std@@@5@$0A@@std@@@std@@QBEABU?$pair@$$CBVName@Imf@@PAVAttribute@2@@2@XZ
	?_Inc@const_iterator@?$_Tree@V?$_Tmap_traits@VName@Imf@@PAVAttribute@2@U?$less@VName@Imf@@@std@@V?$allocator@U?$pair@$$CBVName@Imf@@PAVAttribute@2@@std@@@5@$0A@@std@@@std@@QAEXXZ
	?insert@?$_Tree@V?$_Tmap_traits@VName@Imf@@PAVAttribute@2@U?$less@VName@Imf@@@std@@V?$allocator@U?$pair@$$CBVName@Imf@@PAVAttribute@2@@std@@@5@$0A@@std@@@std@@QAE?AU?$pair@Viterator@?$_Tree@V?$_Tmap_traits@VName@Imf@@PAVAttribute@2@U?$less@VName@Imf@@@std@@V?$allocator@U?$pair@$$CBVName@Imf@@PAVAttribute@2@@std@@@5@$0A@@std@@@std@@_N@2@ABU?$pair@$$CBVName@Imf@@PAVAttribute@2@@2@@Z
	?_Erase@?$_Tree@V?$_Tmap_traits@VName@Imf@@PAVAttribute@2@U?$less@VName@Imf@@@std@@V?$allocator@U?$pair@$$CBVName@Imf@@PAVAttribute@2@@std@@@5@$0A@@std@@@std@@IAEXPAU_Node@?$_Tree_nod@V?$_Tmap_traits@VName@Imf@@PAVAttribute@2@U?$less@VName@Imf@@@std@@V?$allocator@U?$pair@$$CBVName@Imf@@PAVAttribute@2@@std@@@5@$0A@@std@@@2@@Z
	?_Init@?$_Tree@V?$_Tmap_traits@VName@Imf@@PAVAttribute@2@U?$less@VName@Imf@@@std@@V?$allocator@U?$pair@$$CBVName@Imf@@PAVAttribute@2@@std@@@5@$0A@@std@@@std@@IAEXXZ
	?_Insert@?$_Tree@V?$_Tmap_traits@VName@Imf@@PAVAttribute@2@U?$less@VName@Imf@@@std@@V?$allocator@U?$pair@$$CBVName@Imf@@PAVAttribute@2@@std@@@5@$0A@@std@@@std@@IAE?AViterator@12@_NPAU_Node@?$_Tree_nod@V?$_Tmap_traits@VName@Imf@@PAVAttribute@2@U?$less@VName@Imf@@@std@@V?$allocator@U?$pair@$$CBVName@Imf@@PAVAttribute@2@@std@@@5@$0A@@std@@@2@ABU?$pair@$$CBVName@Imf@@PAVAttribute@2@@2@@Z
	?_Lbound@?$_Tree@V?$_Tmap_traits@VName@Imf@@PAVAttribute@2@U?$less@VName@Imf@@@std@@V?$allocator@U?$pair@$$CBVName@Imf@@PAVAttribute@2@@std@@@5@$0A@@std@@@std@@IBEPAU_Node@?$_Tree_nod@V?$_Tmap_traits@VName@Imf@@PAVAttribute@2@U?$less@VName@Imf@@@std@@V?$allocator@U?$pair@$$CBVName@Imf@@PAVAttribute@2@@std@@@5@$0A@@std@@@2@ABVName@Imf@@@Z
	?_Lrotate@?$_Tree@V?$_Tmap_traits@VName@Imf@@PAVAttribute@2@U?$less@VName@Imf@@@std@@V?$allocator@U?$pair@$$CBVName@Imf@@PAVAttribute@2@@std@@@5@$0A@@std@@@std@@IAEXPAU_Node@?$_Tree_nod@V?$_Tmap_traits@VName@Imf@@PAVAttribute@2@U?$less@VName@Imf@@@std@@V?$allocator@U?$pair@$$CBVName@Imf@@PAVAttribute@2@@std@@@5@$0A@@std@@@2@@Z
	?_Rrotate@?$_Tree@V?$_Tmap_traits@VName@Imf@@PAVAttribute@2@U?$less@VName@Imf@@@std@@V?$allocator@U?$pair@$$CBVName@Imf@@PAVAttribute@2@@std@@@5@$0A@@std@@@std@@IAEXPAU_Node@?$_Tree_nod@V?$_Tmap_traits@VName@Imf@@PAVAttribute@2@U?$less@VName@Imf@@@std@@V?$allocator@U?$pair@$$CBVName@Imf@@PAVAttribute@2@@std@@@5@$0A@@std@@@2@@Z
	?_Buynode@?$_Tree@V?$_Tmap_traits@VName@Imf@@PAVAttribute@2@U?$less@VName@Imf@@@std@@V?$allocator@U?$pair@$$CBVName@Imf@@PAVAttribute@2@@std@@@5@$0A@@std@@@std@@IAEPAU_Node@?$_Tree_nod@V?$_Tmap_traits@VName@Imf@@PAVAttribute@2@U?$less@VName@Imf@@@std@@V?$allocator@U?$pair@$$CBVName@Imf@@PAVAttribute@2@@std@@@5@$0A@@std@@@2@XZ
	?_Buynode@?$_Tree@V?$_Tmap_traits@VName@Imf@@PAVAttribute@2@U?$less@VName@Imf@@@std@@V?$allocator@U?$pair@$$CBVName@Imf@@PAVAttribute@2@@std@@@5@$0A@@std@@@std@@IAEPAU_Node@?$_Tree_nod@V?$_Tmap_traits@VName@Imf@@PAVAttribute@2@U?$less@VName@Imf@@@std@@V?$allocator@U?$pair@$$CBVName@Imf@@PAVAttribute@2@@std@@@5@$0A@@std@@@2@PAU342@00ABU?$pair@$$CBVName@Imf@@PAVAttribute@2@@2@D@Z
	?allocate@?$allocator@U_Node@?$_Tree_nod@V?$_Tmap_traits@VName@Imf@@PAVAttribute@2@U?$less@VName@Imf@@@std@@V?$allocator@U?$pair@$$CBVName@Imf@@PAVAttribute@2@@std@@@5@$0A@@std@@@std@@@std@@QAEPAU_Node@?$_Tree_nod@V?$_Tmap_traits@VName@Imf@@PAVAttribute@2@U?$less@VName@Imf@@@std@@V?$allocator@U?$pair@$$CBVName@Imf@@PAVAttribute@2@@std@@@5@$0A@@std@@@2@I@Z
	?_Dec@const_iterator@?$_Tree@V?$_Tmap_traits@VName@Imf@@PAVAttribute@2@U?$less@VName@Imf@@@std@@V?$allocator@U?$pair@$$CBVName@Imf@@PAVAttribute@2@@std@@@5@$0A@@std@@@std@@QAEXXZ
	??0?$TypedAttribute@VChannelList@Imf@@@Imf@@QAE@XZ
	??1?$TypedAttribute@VChannelList@Imf@@@Imf@@UAE@XZ
	?typeName@?$TypedAttribute@VChannelList@Imf@@@Imf@@UBEPBDXZ
	?copy@?$TypedAttribute@VChannelList@Imf@@@Imf@@UBEPAVAttribute@2@XZ
	?copyValueFrom@?$TypedAttribute@VChannelList@Imf@@@Imf@@UAEXABVAttribute@2@@Z
	??0?$TypedAttribute@W4Compression@Imf@@@Imf@@QAE@ABW4Compression@1@@Z
	??1?$TypedAttribute@W4Compression@Imf@@@Imf@@UAE@XZ
	?typeName@?$TypedAttribute@W4Compression@Imf@@@Imf@@UBEPBDXZ
	?copy@?$TypedAttribute@W4Compression@Imf@@@Imf@@UBEPAVAttribute@2@XZ
	?copyValueFrom@?$TypedAttribute@W4Compression@Imf@@@Imf@@UAEXABVAttribute@2@@Z
	??0?$TypedAttribute@W4LineOrder@Imf@@@Imf@@QAE@ABW4LineOrder@1@@Z
	??1?$TypedAttribute@W4LineOrder@Imf@@@Imf@@UAE@XZ
	?typeName@?$TypedAttribute@W4LineOrder@Imf@@@Imf@@UBEPBDXZ
	?copy@?$TypedAttribute@W4LineOrder@Imf@@@Imf@@UBEPAVAttribute@2@XZ
	?copyValueFrom@?$TypedAttribute@W4LineOrder@Imf@@@Imf@@UAEXABVAttribute@2@@Z
	??0?$TypedAttribute@VPreviewImage@Imf@@@Imf@@QAE@ABVPreviewImage@1@@Z
	??1?$TypedAttribute@VPreviewImage@Imf@@@Imf@@UAE@XZ
	?typeName@?$TypedAttribute@VPreviewImage@Imf@@@Imf@@UBEPBDXZ
	?copy@?$TypedAttribute@VPreviewImage@Imf@@@Imf@@UBEPAVAttribute@2@XZ
	?copyValueFrom@?$TypedAttribute@VPreviewImage@Imf@@@Imf@@UAEXABVAttribute@2@@Z
	??0?$TypedAttribute@VTileDescription@Imf@@@Imf@@QAE@ABVTileDescription@1@@Z
	??1?$TypedAttribute@VTileDescription@Imf@@@Imf@@UAE@XZ
	?typeName@?$TypedAttribute@VTileDescription@Imf@@@Imf@@UBEPBDXZ
	?copy@?$TypedAttribute@VTileDescription@Imf@@@Imf@@UBEPAVAttribute@2@XZ
	?copyValueFrom@?$TypedAttribute@VTileDescription@Imf@@@Imf@@UAEXABVAttribute@2@@Z
	??$findTypedAttribute@V?$TypedAttribute@VTileDescription@Imf@@@Imf@@@Header@Imf@@QBEPBV?$TypedAttribute@VTileDescription@Imf@@@1@QBD@Z
	??$typedAttribute@V?$TypedAttribute@VTileDescription@Imf@@@Imf@@@Header@Imf@@QBEABV?$TypedAttribute@VTileDescription@Imf@@@1@QBD@Z
	??$typedAttribute@V?$TypedAttribute@VTileDescription@Imf@@@Imf@@@Header@Imf@@QAEAAV?$TypedAttribute@VTileDescription@Imf@@@1@QBD@Z
	??$typedAttribute@V?$TypedAttribute@VPreviewImage@Imf@@@Imf@@@Header@Imf@@QBEABV?$TypedAttribute@VPreviewImage@Imf@@@1@QBD@Z
	??$typedAttribute@V?$TypedAttribute@VPreviewImage@Imf@@@Imf@@@Header@Imf@@QAEAAV?$TypedAttribute@VPreviewImage@Imf@@@1@QBD@Z
	??$findTypedAttribute@V?$TypedAttribute@VPreviewImage@Imf@@@Imf@@@Header@Imf@@QBEPBV?$TypedAttribute@VPreviewImage@Imf@@@1@QBD@Z
	??$_Allocate@U_Node@?$_Tree_nod@V?$_Tmap_traits@VName@Imf@@PAVAttribute@2@U?$less@VName@Imf@@@std@@V?$allocator@U?$pair@$$CBVName@Imf@@PAVAttribute@2@@std@@@5@$0A@@std@@@std@@@std@@YAPAU_Node@?$_Tree_nod@V?$_Tmap_traits@VName@Imf@@PAVAttribute@2@U?$less@VName@Imf@@@std@@V?$allocator@U?$pair@$$CBVName@Imf@@PAVAttribute@2@@std@@@5@$0A@@std@@@0@IPAU120@@Z
	??4?$_Tree@V?$_Tmap_traits@VName@Imf@@UChannel@2@U?$less@VName@Imf@@@std@@V?$allocator@U?$pair@$$CBVName@Imf@@UChannel@2@@std@@@5@$0A@@std@@@std@@QAEAAV01@ABV01@@Z
	?erase@?$_Tree@V?$_Tmap_traits@VName@Imf@@UChannel@2@U?$less@VName@Imf@@@std@@V?$allocator@U?$pair@$$CBVName@Imf@@UChannel@2@@std@@@5@$0A@@std@@@std@@QAE?AViterator@12@V312@0@Z
	?_Copy@?$_Tree@V?$_Tmap_traits@VName@Imf@@UChannel@2@U?$less@VName@Imf@@@std@@V?$allocator@U?$pair@$$CBVName@Imf@@UChannel@2@@std@@@5@$0A@@std@@@std@@IAEXABV12@@Z
	?_Tidy@?$_Tree@V?$_Tmap_traits@VName@Imf@@UChannel@2@U?$less@VName@Imf@@@std@@V?$allocator@U?$pair@$$CBVName@Imf@@UChannel@2@@std@@@5@$0A@@std@@@std@@IAEXXZ
	?erase@?$_Tree@V?$_Tmap_traits@VName@Imf@@UChannel@2@U?$less@VName@Imf@@@std@@V?$allocator@U?$pair@$$CBVName@Imf@@UChannel@2@@std@@@5@$0A@@std@@@std@@QAE?AViterator@12@V312@@Z
	?clear@?$_Tree@V?$_Tmap_traits@VName@Imf@@UChannel@2@U?$less@VName@Imf@@@std@@V?$allocator@U?$pair@$$CBVName@Imf@@UChannel@2@@std@@@5@$0A@@std@@@std@@QAEXXZ
	?_Copy@?$_Tree@V?$_Tmap_traits@VName@Imf@@UChannel@2@U?$less@VName@Imf@@@std@@V?$allocator@U?$pair@$$CBVName@Imf@@UChannel@2@@std@@@5@$0A@@std@@@std@@IAEPAU_Node@?$_Tree_nod@V?$_Tmap_traits@VName@Imf@@UChannel@2@U?$less@VName@Imf@@@std@@V?$allocator@U?$pair@$$CBVName@Imf@@UChannel@2@@std@@@5@$0A@@std@@@2@PAU342@0@Z
	?_Init@?$_Tree@V?$_Tmap_traits@VName@Imf@@UChannel@2@U?$less@VName@Imf@@@std@@V?$allocator@U?$pair@$$CBVName@Imf@@UChannel@2@@std@@@5@$0A@@std@@@std@@IAEXXZ
	?_Erase@?$_Tree@V?$_Tmap_traits@VName@Imf@@UChannel@2@U?$less@VName@Imf@@@std@@V?$allocator@U?$pair@$$CBVName@Imf@@UChannel@2@@std@@@5@$0A@@std@@@std@@IAEXPAU_Node@?$_Tree_nod@V?$_Tmap_traits@VName@Imf@@UChannel@2@U?$less@VName@Imf@@@std@@V?$allocator@U?$pair@$$CBVName@Imf@@UChannel@2@@std@@@5@$0A@@std@@@2@@Z
	?_Buynode@?$_Tree@V?$_Tmap_traits@VName@Imf@@UChannel@2@U?$less@VName@Imf@@@std@@V?$allocator@U?$pair@$$CBVName@Imf@@UChannel@2@@std@@@5@$0A@@std@@@std@@IAEPAU_Node@?$_Tree_nod@V?$_Tmap_traits@VName@Imf@@UChannel@2@U?$less@VName@Imf@@@std@@V?$allocator@U?$pair@$$CBVName@Imf@@UChannel@2@@std@@@5@$0A@@std@@@2@XZ
	?allocate@?$allocator@U_Node@?$_Tree_nod@V?$_Tmap_traits@VName@Imf@@UChannel@2@U?$less@VName@Imf@@@std@@V?$allocator@U?$pair@$$CBVName@Imf@@UChannel@2@@std@@@5@$0A@@std@@@std@@@std@@QAEPAU_Node@?$_Tree_nod@V?$_Tmap_traits@VName@Imf@@UChannel@2@U?$less@VName@Imf@@@std@@V?$allocator@U?$pair@$$CBVName@Imf@@UChannel@2@@std@@@5@$0A@@std@@@2@I@Z
	?makeNewAttribute@?$TypedAttribute@V?$Box@V?$Vec2@H@Imath@@@Imath@@@Imf@@SAPAVAttribute@2@XZ
	?makeNewAttribute@?$TypedAttribute@V?$Box@V?$Vec2@M@Imath@@@Imath@@@Imf@@SAPAVAttribute@2@XZ
	?makeNewAttribute@?$TypedAttribute@VChannelList@Imf@@@Imf@@SAPAVAttribute@2@XZ
	?makeNewAttribute@?$TypedAttribute@UChromaticities@Imf@@@Imf@@SAPAVAttribute@2@XZ
	??0?$TypedAttribute@UChromaticities@Imf@@@Imf@@QAE@XZ
	?typeName@?$TypedAttribute@UChromaticities@Imf@@@Imf@@UBEPBDXZ
	?copy@?$TypedAttribute@UChromaticities@Imf@@@Imf@@UBEPAVAttribute@2@XZ
	?copyValueFrom@?$TypedAttribute@UChromaticities@Imf@@@Imf@@UAEXABVAttribute@2@@Z
	??1?$TypedAttribute@UChromaticities@Imf@@@Imf@@UAE@XZ
	??4Chromaticities@Imf@@QAEAAU01@ABU01@@Z
	??0?$TypedAttribute@W4Compression@Imf@@@Imf@@QAE@XZ
	?makeNewAttribute@?$TypedAttribute@W4Compression@Imf@@@Imf@@SAPAVAttribute@2@XZ
	?makeNewAttribute@?$TypedAttribute@W4Envmap@Imf@@@Imf@@SAPAVAttribute@2@XZ
	??0?$TypedAttribute@W4Envmap@Imf@@@Imf@@QAE@XZ
	?typeName@?$TypedAttribute@W4Envmap@Imf@@@Imf@@UBEPBDXZ
	?copy@?$TypedAttribute@W4Envmap@Imf@@@Imf@@UBEPAVAttribute@2@XZ
	?copyValueFrom@?$TypedAttribute@W4Envmap@Imf@@@Imf@@UAEXABVAttribute@2@@Z
	??1?$TypedAttribute@W4Envmap@Imf@@@Imf@@UAE@XZ
	?makeNewAttribute@?$TypedAttribute@H@Imf@@SAPAVAttribute@2@XZ
	?makeNewAttribute@?$TypedAttribute@VKeyCode@Imf@@@Imf@@SAPAVAttribute@2@XZ
	??0?$TypedAttribute@VKeyCode@Imf@@@Imf@@QAE@XZ
	?typeName@?$TypedAttribute@VKeyCode@Imf@@@Imf@@UBEPBDXZ
	?copy@?$TypedAttribute@VKeyCode@Imf@@@Imf@@UBEPAVAttribute@2@XZ
	?copyValueFrom@?$TypedAttribute@VKeyCode@Imf@@@Imf@@UAEXABVAttribute@2@@Z
	??1?$TypedAttribute@VKeyCode@Imf@@@Imf@@UAE@XZ
	??0?$TypedAttribute@W4LineOrder@Imf@@@Imf@@QAE@XZ
	?makeNewAttribute@?$TypedAttribute@W4LineOrder@Imf@@@Imf@@SAPAVAttribute@2@XZ
	?makeNewAttribute@?$TypedAttribute@V?$Matrix33@M@Imath@@@Imf@@SAPAVAttribute@2@XZ
	?makeNewAttribute@?$TypedAttribute@V?$Matrix44@M@Imath@@@Imf@@SAPAVAttribute@2@XZ
	??0?$TypedAttribute@VPreviewImage@Imf@@@Imf@@QAE@XZ
	?makeNewAttribute@?$TypedAttribute@VPreviewImage@Imf@@@Imf@@SAPAVAttribute@2@XZ
	?makeNewAttribute@?$TypedAttribute@V?$basic_string@DU?$char_traits@D@std@@V?$allocator@D@2@@std@@@Imf@@SAPAVAttribute@2@XZ
	??0?$TypedAttribute@VTileDescription@Imf@@@Imf@@QAE@XZ
	?makeNewAttribute@?$TypedAttribute@VTileDescription@Imf@@@Imf@@SAPAVAttribute@2@XZ
	?makeNewAttribute@?$TypedAttribute@VTimeCode@Imf@@@Imf@@SAPAVAttribute@2@XZ
	??0?$TypedAttribute@VTimeCode@Imf@@@Imf@@QAE@XZ
	?typeName@?$TypedAttribute@VTimeCode@Imf@@@Imf@@UBEPBDXZ
	?copy@?$TypedAttribute@VTimeCode@Imf@@@Imf@@UBEPAVAttribute@2@XZ
	?copyValueFrom@?$TypedAttribute@VTimeCode@Imf@@@Imf@@UAEXABVAttribute@2@@Z
	??1?$TypedAttribute@VTimeCode@Imf@@@Imf@@UAE@XZ
	?makeNewAttribute@?$TypedAttribute@V?$Vec2@H@Imath@@@Imf@@SAPAVAttribute@2@XZ
	?makeNewAttribute@?$TypedAttribute@V?$Vec2@M@Imath@@@Imf@@SAPAVAttribute@2@XZ
	?makeNewAttribute@?$TypedAttribute@V?$Vec3@H@Imath@@@Imf@@SAPAVAttribute@2@XZ
	?makeNewAttribute@?$TypedAttribute@V?$Vec3@M@Imath@@@Imf@@SAPAVAttribute@2@XZ
	?cast@?$TypedAttribute@VChannelList@Imf@@@Imf@@SAPBV12@PBVAttribute@2@@Z
	?cast@?$TypedAttribute@UChromaticities@Imf@@@Imf@@SAPBV12@PBVAttribute@2@@Z
	?cast@?$TypedAttribute@W4Compression@Imf@@@Imf@@SAPBV12@PBVAttribute@2@@Z
	?cast@?$TypedAttribute@W4Envmap@Imf@@@Imf@@SAPBV12@PBVAttribute@2@@Z
	?cast@?$TypedAttribute@VKeyCode@Imf@@@Imf@@SAPBV12@PBVAttribute@2@@Z
	?cast@?$TypedAttribute@W4LineOrder@Imf@@@Imf@@SAPBV12@PBVAttribute@2@@Z
	?cast@?$TypedAttribute@VPreviewImage@Imf@@@Imf@@SAPBV12@PBVAttribute@2@@Z
	?cast@?$TypedAttribute@VTileDescription@Imf@@@Imf@@SAPBV12@PBVAttribute@2@@Z
	?cast@?$TypedAttribute@VTimeCode@Imf@@@Imf@@SAPBV12@PBVAttribute@2@@Z
	?invalidNBits@?A0x15928e88@Imf@@YAXXZ
	?tooMuchData@?A0x15928e88@Imf@@YAXXZ
	?notEnoughData@?A0x15928e88@Imf@@YAXXZ
	?invalidCode@?A0x15928e88@Imf@@YAXXZ
	?invalidTableSize@?A0x15928e88@Imf@@YAXXZ
	?unexpectedEndOfTable@?A0x15928e88@Imf@@YAXXZ
	?tableTooLong@?A0x15928e88@Imf@@YAXXZ
	?invalidTableEntry@?A0x15928e88@Imf@@YAXXZ
	?hufCanonicalCodeTable@?A0x15928e88@Imf@@YAXQA_K@Z
	?hufBuildEncTable@?A0x15928e88@Imf@@YAXPA_KPAH1@Z
	?hufPackEncTable@?A0x15928e88@Imf@@YAXPB_KHHPAPAD@Z
	?hufUnpackEncTable@?A0x15928e88@Imf@@YAXPAPBDHHHPA_K@Z
	?hufBuildDecTable@?A0x15928e88@Imf@@YAXPB_KHHPAUHufDec@12@@Z
	?hufFreeDecTable@?A0x15928e88@Imf@@YAXPAUHufDec@12@@Z
	?hufEncode@?A0x15928e88@Imf@@YAHPB_KPBGHHPAD@Z
	?hufDecode@?A0x15928e88@Imf@@YAXPB_KPBUHufDec@12@PBDHHHPAG@Z
	?countFrequencies@?A0x15928e88@Imf@@YAXQA_KQBGH@Z
	?writeUInt@?A0x15928e88@Imf@@YAXQADI@Z
	?readUInt@?A0x15928e88@Imf@@YAIQBD@Z
	?hufCompress@Imf@@YAHQBGHQAD@Z
	?hufUncompress@Imf@@YAXQBDHQAGH@Z
	?sendCode@?A0x15928e88@Imf@@YAX_KH0AA_KAAHAAPAD@Z
	??1?$AutoArray@H$0BAAAB@@Imf@@QAE@XZ
	??1?$AutoArray@PA_K$0BAAAB@@Imf@@QAE@XZ
	??1?$AutoArray@_K$0BAAAB@@Imf@@QAE@XZ
	??1?$AutoArray@UHufDec@?A0x15928e88@Imf@@$0EAAA@@Imf@@QAE@XZ
	??$_Make_heap@PAPA_KHPA_KUFHeapCompare@?A0x15928e88@Imf@@@std@@YAXPAPA_K0UFHeapCompare@?A0x15928e88@Imf@@PAH0@Z
	??$_Adjust_heap@PAPA_KHPA_KUFHeapCompare@?A0x15928e88@Imf@@@std@@YAXPAPA_KHHPA_KUFHeapCompare@?A0x15928e88@Imf@@@Z
	??$_Pop_heap@PAPA_KHPA_KUFHeapCompare@?A0x15928e88@Imf@@@std@@YAXPAPA_K00PA_KUFHeapCompare@?A0x15928e88@Imf@@PAH@Z
	??$_Push_heap@PAPA_KHPA_KUFHeapCompare@?A0x15928e88@Imf@@@std@@YAXPAPA_KHHPA_KUFHeapCompare@?A0x15928e88@Imf@@@Z
	??0Data@InputFile@Imf@@QAE@_NH@Z
	??1Data@InputFile@Imf@@UAE@XZ
	?deleteCachedBuffer@Data@InputFile@Imf@@QAEXXZ
	?bufferedReadPixels@?A0xc635d1bd@Imf@@YAXPAUData@InputFile@2@HH@Z
	??0InputFile@Imf@@QAE@QBDH@Z
	??0InputFile@Imf@@QAE@AAVIStream@1@H@Z
	?initialize@InputFile@Imf@@AAEXXZ
	??1InputFile@Imf@@UAE@XZ
	?fileName@InputFile@Imf@@QBEPBDXZ
	?header@InputFile@Imf@@QBEABVHeader@2@XZ
	?version@InputFile@Imf@@QBEHXZ
	?setFrameBuffer@InputFile@Imf@@QAEXABVFrameBuffer@2@@Z
	?frameBuffer@InputFile@Imf@@QBEABVFrameBuffer@2@XZ
	?isComplete@InputFile@Imf@@QBE_NXZ
	?readPixels@InputFile@Imf@@QAEXHH@Z
	?readPixels@InputFile@Imf@@QAEXH@Z
	?rawPixelData@InputFile@Imf@@QAEXHAAPBDAAH@Z
	?rawTileData@InputFile@Imf@@QAEXAAH000AAPBD0@Z
	?tFile@InputFile@Imf@@AAEPAVTiledInputFile@2@XZ
	??1FrameBuffer@Imf@@QAE@XZ
	?slice@Iterator@FrameBuffer@Imf@@QBEAAUSlice@3@XZ
	?name@ConstIterator@FrameBuffer@Imf@@QBEPBDXZ
	?slice@ConstIterator@FrameBuffer@Imf@@QBEABUSlice@3@XZ
	?divp@Imath@@YAHHH@Z
	??0?$map@VName@Imf@@USlice@2@U?$less@VName@Imf@@@std@@V?$allocator@U?$pair@$$CBVName@Imf@@USlice@2@@std@@@5@@std@@QAE@XZ
	??4?$_Tree@V?$_Tmap_traits@VName@Imf@@USlice@2@U?$less@VName@Imf@@@std@@V?$allocator@U?$pair@$$CBVName@Imf@@USlice@2@@std@@@5@$0A@@std@@@std@@QAEAAV01@ABV01@@Z
	?erase@?$_Tree@V?$_Tmap_traits@VName@Imf@@USlice@2@U?$less@VName@Imf@@@std@@V?$allocator@U?$pair@$$CBVName@Imf@@USlice@2@@std@@@5@$0A@@std@@@std@@QAE?AViterator@12@V312@0@Z
	?_Copy@?$_Tree@V?$_Tmap_traits@VName@Imf@@USlice@2@U?$less@VName@Imf@@@std@@V?$allocator@U?$pair@$$CBVName@Imf@@USlice@2@@std@@@5@$0A@@std@@@std@@IAEXABV12@@Z
	?_Tidy@?$_Tree@V?$_Tmap_traits@VName@Imf@@USlice@2@U?$less@VName@Imf@@@std@@V?$allocator@U?$pair@$$CBVName@Imf@@USlice@2@@std@@@5@$0A@@std@@@std@@IAEXXZ
	??Dconst_iterator@?$_Tree@V?$_Tmap_traits@VName@Imf@@USlice@2@U?$less@VName@Imf@@@std@@V?$allocator@U?$pair@$$CBVName@Imf@@USlice@2@@std@@@5@$0A@@std@@@std@@QBEABU?$pair@$$CBVName@Imf@@USlice@2@@2@XZ
	?erase@?$_Tree@V?$_Tmap_traits@VName@Imf@@USlice@2@U?$less@VName@Imf@@@std@@V?$allocator@U?$pair@$$CBVName@Imf@@USlice@2@@std@@@5@$0A@@std@@@std@@QAE?AViterator@12@V312@@Z
	?clear@?$_Tree@V?$_Tmap_traits@VName@Imf@@USlice@2@U?$less@VName@Imf@@@std@@V?$allocator@U?$pair@$$CBVName@Imf@@USlice@2@@std@@@5@$0A@@std@@@std@@QAEXXZ
	?_Copy@?$_Tree@V?$_Tmap_traits@VName@Imf@@USlice@2@U?$less@VName@Imf@@@std@@V?$allocator@U?$pair@$$CBVName@Imf@@USlice@2@@std@@@5@$0A@@std@@@std@@IAEPAU_Node@?$_Tree_nod@V?$_Tmap_traits@VName@Imf@@USlice@2@U?$less@VName@Imf@@@std@@V?$allocator@U?$pair@$$CBVName@Imf@@USlice@2@@std@@@5@$0A@@std@@@2@PAU342@0@Z
	?_Init@?$_Tree@V?$_Tmap_traits@VName@Imf@@USlice@2@U?$less@VName@Imf@@@std@@V?$allocator@U?$pair@$$CBVName@Imf@@USlice@2@@std@@@5@$0A@@std@@@std@@IAEXXZ
	?_Erase@?$_Tree@V?$_Tmap_traits@VName@Imf@@USlice@2@U?$less@VName@Imf@@@std@@V?$allocator@U?$pair@$$CBVName@Imf@@USlice@2@@std@@@5@$0A@@std@@@std@@IAEXPAU_Node@?$_Tree_nod@V?$_Tmap_traits@VName@Imf@@USlice@2@U?$less@VName@Imf@@@std@@V?$allocator@U?$pair@$$CBVName@Imf@@USlice@2@@std@@@5@$0A@@std@@@2@@Z
	?_Buynode@?$_Tree@V?$_Tmap_traits@VName@Imf@@USlice@2@U?$less@VName@Imf@@@std@@V?$allocator@U?$pair@$$CBVName@Imf@@USlice@2@@std@@@5@$0A@@std@@@std@@IAEPAU_Node@?$_Tree_nod@V?$_Tmap_traits@VName@Imf@@USlice@2@U?$less@VName@Imf@@@std@@V?$allocator@U?$pair@$$CBVName@Imf@@USlice@2@@std@@@5@$0A@@std@@@2@XZ
	?allocate@?$allocator@U_Node@?$_Tree_nod@V?$_Tmap_traits@VName@Imf@@USlice@2@U?$less@VName@Imf@@@std@@V?$allocator@U?$pair@$$CBVName@Imf@@USlice@2@@std@@@5@$0A@@std@@@std@@@std@@QAEPAU_Node@?$_Tree_nod@V?$_Tmap_traits@VName@Imf@@USlice@2@U?$less@VName@Imf@@@std@@V?$allocator@U?$pair@$$CBVName@Imf@@USlice@2@@std@@@5@$0A@@std@@@2@I@Z
	?staticTypeName@?$TypedAttribute@H@Imf@@SAPBDXZ
	??0IStream@Imf@@IAE@QBD@Z
	??1IStream@Imf@@UAE@XZ
	?isMemoryMapped@IStream@Imf@@UBE_NXZ
	?readMemoryMapped@IStream@Imf@@UAEPADH@Z
	?clear@IStream@Imf@@UAEXXZ
	?fileName@IStream@Imf@@QBEPBDXZ
	??0OStream@Imf@@IAE@QBD@Z
	??1OStream@Imf@@UAE@XZ
	?fileName@OStream@Imf@@QBEPBDXZ
	??0ArgExc@Iex@@QAE@PBD@Z
	??0KeyCode@Imf@@QAE@ABV01@@Z
	??4KeyCode@Imf@@QAEAAV01@ABV01@@Z
	?filmMfcCode@KeyCode@Imf@@QBEHXZ
	?setFilmMfcCode@KeyCode@Imf@@QAEXH@Z
	?filmType@KeyCode@Imf@@QBEHXZ
	?setFilmType@KeyCode@Imf@@QAEXH@Z
	?prefix@KeyCode@Imf@@QBEHXZ
	?setPrefix@KeyCode@Imf@@QAEXH@Z
	?count@KeyCode@Imf@@QBEHXZ
	?setCount@KeyCode@Imf@@QAEXH@Z
	?perfOffset@KeyCode@Imf@@QBEHXZ
	?setPerfOffset@KeyCode@Imf@@QAEXH@Z
	?perfsPerFrame@KeyCode@Imf@@QBEHXZ
	?setPerfsPerFrame@KeyCode@Imf@@QAEXH@Z
	?perfsPerCount@KeyCode@Imf@@QBEHXZ
	?setPerfsPerCount@KeyCode@Imf@@QAEXH@Z
	??0KeyCode@Imf@@QAE@HHHHHHH@Z
	?staticTypeName@?$TypedAttribute@VKeyCode@Imf@@@Imf@@SAPBDXZ
	?writeValueTo@?$TypedAttribute@VKeyCode@Imf@@@Imf@@UBEXAAVOStream@2@H@Z
	?readValueFrom@?$TypedAttribute@VKeyCode@Imf@@@Imf@@UAEXAAVIStream@2@HH@Z
	??$writeSignedChars@UStreamIO@Imf@@VOStream@2@@Xdr@Imf@@YAXAAVOStream@1@QBCH@Z
	??$readSignedChars@UStreamIO@Imf@@VIStream@2@@Xdr@Imf@@YAXAAVIStream@1@QACH@Z
	?staticTypeName@?$TypedAttribute@W4LineOrder@Imf@@@Imf@@SAPBDXZ
	?writeValueTo@?$TypedAttribute@W4LineOrder@Imf@@@Imf@@UBEXAAVOStream@2@H@Z
	?readValueFrom@?$TypedAttribute@W4LineOrder@Imf@@@Imf@@UAEXAAVIStream@2@HH@Z
	?apply@HalfLut@Imf@@QBEXPAVhalf@@HH@Z
	?apply@HalfLut@Imf@@QBEXABUSlice@2@ABV?$Box@V?$Vec2@H@Imath@@@Imath@@@Z
	?apply@RgbaLut@Imf@@QBEXPAURgba@2@HH@Z
	?apply@RgbaLut@Imf@@QBEXPAURgba@2@HHABV?$Box@V?$Vec2@H@Imath@@@Imath@@@Z
	?round12log@Imf@@YA?AVhalf@@V2@@Z
	?staticTypeName@?$TypedAttribute@V?$Matrix33@M@Imath@@@Imf@@SAPBDXZ
	?writeValueTo@?$TypedAttribute@V?$Matrix33@M@Imath@@@Imf@@UBEXAAVOStream@2@H@Z
	?readValueFrom@?$TypedAttribute@V?$Matrix33@M@Imath@@@Imf@@UAEXAAVIStream@2@HH@Z
	?staticTypeName@?$TypedAttribute@V?$Matrix44@M@Imath@@@Imf@@SAPBDXZ
	?writeValueTo@?$TypedAttribute@V?$Matrix44@M@Imath@@@Imf@@UBEXAAVOStream@2@H@Z
	?readValueFrom@?$TypedAttribute@V?$Matrix44@M@Imath@@@Imf@@UAEXAAVIStream@2@HH@Z
	?pixelTypeSize@Imf@@YAHW4PixelType@1@@Z
	?bytesPerLineTable@Imf@@YAIABVHeader@1@AAV?$vector@IV?$allocator@I@std@@@std@@@Z
	?offsetInLineBufferTable@Imf@@YAXABV?$vector@IV?$allocator@I@std@@@std@@HAAV23@@Z
	?lineBufferMinY@Imf@@YAHHHH@Z
	?lineBufferMaxY@Imf@@YAHHHH@Z
	?defaultFormat@Imf@@YA?AW4Format@Compressor@1@PAV31@@Z
	?numLinesInBuffer@Imf@@YAHPAVCompressor@1@@Z
	?copyIntoFrameBuffer@Imf@@YAXAAPBDPAD1I_NNW4Format@Compressor@1@W4PixelType@1@4@Z
	?skipChannel@Imf@@YAXAAPBDW4PixelType@1@I@Z
	?convertInPlace@Imf@@YAXAAPADAAPBDW4PixelType@1@I@Z
	?copyFromFrameBuffer@Imf@@YAXAAPADAAPBDPBDIW4Format@Compressor@1@W4PixelType@1@@Z
	?fillChannelWithZeroes@Imf@@YAXAAPADW4Format@Compressor@1@W4PixelType@1@I@Z
	?resize@?$vector@IV?$allocator@I@std@@@std@@QAEXII@Z
	?erase@?$vector@IV?$allocator@I@std@@@std@@QAE?AV?$_Vector_iterator@IV?$allocator@I@std@@@2@V32@0@Z
	?_Insert_n@?$vector@IV?$allocator@I@std@@@std@@IAEXV?$_Vector_iterator@IV?$allocator@I@std@@@2@IABI@Z
	?_Ufill@?$vector@IV?$allocator@I@std@@@std@@IAEPAIPAIIABI@Z
	?_Xlen@?$vector@IV?$allocator@I@std@@@std@@KAXXZ
	??Y?$_Vector_const_iterator@IV?$allocator@I@std@@@std@@QAEAAV01@H@Z
	??$read@UCharPtrIO@Imf@@PBD@Xdr@Imf@@YAXAAPBDAAVhalf@@@Z
	??$read@UCharPtrIO@Imf@@PBD@Xdr@Imf@@YAXAAPBDAAM@Z
	??$read@UCharPtrIO@Imf@@PBD@Xdr@Imf@@YAXAAPBDAAI@Z
	??$skip@UCharPtrIO@Imf@@PBD@Xdr@Imf@@YAXAAPBDH@Z
	??$write@UCharPtrIO@Imf@@PAD@Xdr@Imf@@YAXAAPADVhalf@@@Z
	??$write@UCharPtrIO@Imf@@PAD@Xdr@Imf@@YAXAAPADM@Z
	??$write@UCharPtrIO@Imf@@PAD@Xdr@Imf@@YAXAAPADI@Z
	??$unchecked_copy@PAIPAI@stdext@@YAPAIPAI00@Z
	??$_Unchecked_move_backward@PAIPAI@stdext@@YAPAIPAI00@Z
	??$_Allocate@I@std@@YAPAIIPAI@Z
	??$_Unchecked_uninitialized_move@PAIPAIV?$allocator@I@std@@@stdext@@YAPAIPAI00AAV?$allocator@I@std@@@Z
	??$unchecked_fill_n@PAIII@stdext@@YAXPAIIABI@Z
	??$unchecked_uninitialized_copy@PAIPAIV?$allocator@I@std@@@stdext@@YAPAIPAI00AAV?$allocator@I@std@@@Z
	??0OpaqueAttribute@Imf@@QAE@QBD@Z
	??0OpaqueAttribute@Imf@@QAE@ABV01@@Z
	??1OpaqueAttribute@Imf@@UAE@XZ
	?typeName@OpaqueAttribute@Imf@@UBEPBDXZ
	?copy@OpaqueAttribute@Imf@@UBEPAVAttribute@2@XZ
	?writeValueTo@OpaqueAttribute@Imf@@UBEXAAVOStream@2@H@Z
	?readValueFrom@OpaqueAttribute@Imf@@UAEXAAVIStream@2@HH@Z
	?copyValueFrom@OpaqueAttribute@Imf@@UAEXABVAttribute@2@@Z
	??1?$Array@D@Imf@@QAE@XZ
	??0OutSliceInfo@?A0xae07d9b6@Imf@@QAE@W4PixelType@2@PBDIIHH_N@Z
	??0LineBuffer@?A0xae07d9b6@Imf@@QAE@PAVCompressor@2@@Z
	??1LineBuffer@?A0xae07d9b6@Imf@@QAE@XZ
	??0Data@OutputFile@Imf@@QAE@_NH@Z
	??1Data@OutputFile@Imf@@UAE@XZ
	?writeLineOffsets@?A0xae07d9b6@Imf@@YA_KAAVOStream@2@ABV?$vector@_KV?$allocator@_K@std@@@std@@@Z
	?writePixelData@?A0xae07d9b6@Imf@@YAXPAUData@OutputFile@2@HQBDH@Z
	?convertToXdr@?A0xae07d9b6@Imf@@YAXPAUData@OutputFile@2@AAV?$Array@D@2@HHH@Z
	??0LineBufferTask@?A0xae07d9b6@Imf@@QAE@PAVTaskGroup@IlmThread@@PAUData@OutputFile@2@HHH@Z
	??1LineBufferTask@?A0xae07d9b6@Imf@@UAE@XZ
	?execute@LineBufferTask@?A0xae07d9b6@Imf@@UAEXXZ
	??0OutputFile@Imf@@QAE@QBDABVHeader@1@H@Z
	??0OutputFile@Imf@@QAE@AAVOStream@1@ABVHeader@1@H@Z
	?initialize@OutputFile@Imf@@AAEXABVHeader@2@@Z
	??1OutputFile@Imf@@UAE@XZ
	?fileName@OutputFile@Imf@@QBEPBDXZ
	?header@OutputFile@Imf@@QBEABVHeader@2@XZ
	?setFrameBuffer@OutputFile@Imf@@QAEXABVFrameBuffer@2@@Z
	?frameBuffer@OutputFile@Imf@@QBEABVFrameBuffer@2@XZ
	?writePixels@OutputFile@Imf@@QAEXH@Z
	?currentScanLine@OutputFile@Imf@@QBEHXZ
	?copyPixels@OutputFile@Imf@@QAEXAAVInputFile@2@@Z
	?updatePreviewImage@OutputFile@Imf@@QAEXQBUPreviewRgba@2@@Z
	?breakScanLine@OutputFile@Imf@@QAEXHHHD@Z
	?getLineBuffer@Data@OutputFile@Imf@@QAEPAULineBuffer@?A0xae07d9b6@3@H@Z
	??1IoExc@Iex@@UAE@XZ
	??0IoExc@Iex@@QAE@ABV01@@Z
	??1LogicExc@Iex@@UAE@XZ
	??0LogicExc@Iex@@QAE@ABV01@@Z
	??1?$vector@_KV?$allocator@_K@std@@@std@@QAE@XZ
	??1?$vector@IV?$allocator@I@std@@@std@@QAE@XZ
	??1?$vector@UOutSliceInfo@?A0xae07d9b6@Imf@@V?$allocator@UOutSliceInfo@?A0xae07d9b6@Imf@@@std@@@std@@QAE@XZ
	??4?$vector@UOutSliceInfo@?A0xae07d9b6@Imf@@V?$allocator@UOutSliceInfo@?A0xae07d9b6@Imf@@@std@@@std@@QAEAAV01@ABV01@@Z
	?push_back@?$vector@UOutSliceInfo@?A0xae07d9b6@Imf@@V?$allocator@UOutSliceInfo@?A0xae07d9b6@Imf@@@std@@@std@@QAEXABUOutSliceInfo@?A0xae07d9b6@Imf@@@Z
	??1?$vector@PAULineBuffer@?A0xae07d9b6@Imf@@V?$allocator@PAULineBuffer@?A0xae07d9b6@Imf@@@std@@@std@@QAE@XZ
	?resize@?$vector@_KV?$allocator@_K@std@@@std@@QAEXI_K@Z
	?_Buy@?$vector@_KV?$allocator@_K@std@@@std@@IAE_NI@Z
	?_Tidy@?$vector@_KV?$allocator@_K@std@@@std@@IAEXXZ
	?_Buy@?$vector@IV?$allocator@I@std@@@std@@IAE_NI@Z
	?_Tidy@?$vector@IV?$allocator@I@std@@@std@@IAEXXZ
	?insert@?$vector@UOutSliceInfo@?A0xae07d9b6@Imf@@V?$allocator@UOutSliceInfo@?A0xae07d9b6@Imf@@@std@@@std@@QAE?AV?$_Vector_iterator@UOutSliceInfo@?A0xae07d9b6@Imf@@V?$allocator@UOutSliceInfo@?A0xae07d9b6@Imf@@@std@@@2@V32@ABUOutSliceInfo@?A0xae07d9b6@Imf@@@Z
	?clear@?$vector@UOutSliceInfo@?A0xae07d9b6@Imf@@V?$allocator@UOutSliceInfo@?A0xae07d9b6@Imf@@@std@@@std@@QAEXXZ
	?_Buy@?$vector@UOutSliceInfo@?A0xae07d9b6@Imf@@V?$allocator@UOutSliceInfo@?A0xae07d9b6@Imf@@@std@@@std@@IAE_NI@Z
	?_Tidy@?$vector@UOutSliceInfo@?A0xae07d9b6@Imf@@V?$allocator@UOutSliceInfo@?A0xae07d9b6@Imf@@@std@@@std@@IAEXXZ
	?resize@?$vector@PAULineBuffer@?A0xae07d9b6@Imf@@V?$allocator@PAULineBuffer@?A0xae07d9b6@Imf@@@std@@@std@@QAEXIPAULineBuffer@?A0xae07d9b6@Imf@@@Z
	?_Buy@?$vector@PAULineBuffer@?A0xae07d9b6@Imf@@V?$allocator@PAULineBuffer@?A0xae07d9b6@Imf@@@std@@@std@@IAE_NI@Z
	?_Tidy@?$vector@PAULineBuffer@?A0xae07d9b6@Imf@@V?$allocator@PAULineBuffer@?A0xae07d9b6@Imf@@@std@@@std@@IAEXXZ
	?erase@?$vector@_KV?$allocator@_K@std@@@std@@QAE?AV?$_Vector_iterator@_KV?$allocator@_K@std@@@2@V32@0@Z
	?_Insert_n@?$vector@_KV?$allocator@_K@std@@@std@@IAEXV?$_Vector_iterator@_KV?$allocator@_K@std@@@2@IAB_K@Z
	?_Xlen@?$vector@_KV?$allocator@_K@std@@@std@@KAXXZ
	?erase@?$vector@UOutSliceInfo@?A0xae07d9b6@Imf@@V?$allocator@UOutSliceInfo@?A0xae07d9b6@Imf@@@std@@@std@@QAE?AV?$_Vector_iterator@UOutSliceInfo@?A0xae07d9b6@Imf@@V?$allocator@UOutSliceInfo@?A0xae07d9b6@Imf@@@std@@@2@V32@0@Z
	?_Insert_n@?$vector@UOutSliceInfo@?A0xae07d9b6@Imf@@V?$allocator@UOutSliceInfo@?A0xae07d9b6@Imf@@@std@@@std@@IAEXV?$_Vector_iterator@UOutSliceInfo@?A0xae07d9b6@Imf@@V?$allocator@UOutSliceInfo@?A0xae07d9b6@Imf@@@std@@@2@IABUOutSliceInfo@?A0xae07d9b6@Imf@@@Z
	?_Xlen@?$vector@UOutSliceInfo@?A0xae07d9b6@Imf@@V?$allocator@UOutSliceInfo@?A0xae07d9b6@Imf@@@std@@@std@@KAXXZ
	?erase@?$vector@PAULineBuffer@?A0xae07d9b6@Imf@@V?$allocator@PAULineBuffer@?A0xae07d9b6@Imf@@@std@@@std@@QAE?AV?$_Vector_iterator@PAULineBuffer@?A0xae07d9b6@Imf@@V?$allocator@PAULineBuffer@?A0xae07d9b6@Imf@@@std@@@2@V32@0@Z
	?_Insert_n@?$vector@PAULineBuffer@?A0xae07d9b6@Imf@@V?$allocator@PAULineBuffer@?A0xae07d9b6@Imf@@@std@@@std@@IAEXV?$_Vector_iterator@PAULineBuffer@?A0xae07d9b6@Imf@@V?$allocator@PAULineBuffer@?A0xae07d9b6@Imf@@@std@@@2@IABQAULineBuffer@?A0xae07d9b6@Imf@@@Z
	?_Xlen@?$vector@PAULineBuffer@?A0xae07d9b6@Imf@@V?$allocator@PAULineBuffer@?A0xae07d9b6@Imf@@@std@@@std@@KAXXZ
	?_Ufill@?$vector@_KV?$allocator@_K@std@@@std@@IAEPA_KPA_KIAB_K@Z
	?_Ufill@?$vector@PAULineBuffer@?A0xae07d9b6@Imf@@V?$allocator@PAULineBuffer@?A0xae07d9b6@Imf@@@std@@@std@@IAEPAPAULineBuffer@?A0xae07d9b6@Imf@@PAPAU345@IABQAU345@@Z
	??Y?$_Vector_const_iterator@UOutSliceInfo@?A0xae07d9b6@Imf@@V?$allocator@UOutSliceInfo@?A0xae07d9b6@Imf@@@std@@@std@@QAEAAV01@H@Z
	??Y?$_Vector_const_iterator@_KV?$allocator@_K@std@@@std@@QAEAAV01@H@Z
	??Y?$_Vector_const_iterator@PAULineBuffer@?A0xae07d9b6@Imf@@V?$allocator@PAULineBuffer@?A0xae07d9b6@Imf@@@std@@@std@@QAEAAV01@H@Z
	??8?$Box@V?$Vec2@H@Imath@@@Imath@@QBE_NABV01@@Z
	??$write@UStreamIO@Imf@@VOStream@2@@Xdr@Imf@@YAXAAVOStream@1@_K@Z
	??$unchecked_copy@PAUOutSliceInfo@?A0xae07d9b6@Imf@@PAU123@@stdext@@YAPAUOutSliceInfo@?A0xae07d9b6@Imf@@PAU123@00@Z
	??$unchecked_copy@PA_KPA_K@stdext@@YAPA_KPA_K00@Z
	??$_Unchecked_move_backward@PA_KPA_K@stdext@@YAPA_KPA_K00@Z
	??$_Allocate@_K@std@@YAPA_KIPA_K@Z
	??$_Unchecked_move_backward@PAUOutSliceInfo@?A0xae07d9b6@Imf@@PAU123@@stdext@@YAPAUOutSliceInfo@?A0xae07d9b6@Imf@@PAU123@00@Z
	??$_Allocate@UOutSliceInfo@?A0xae07d9b6@Imf@@@std@@YAPAUOutSliceInfo@?A0xae07d9b6@Imf@@IPAU123@@Z
	??$unchecked_copy@PAPAULineBuffer@?A0xae07d9b6@Imf@@PAPAU123@@stdext@@YAPAPAULineBuffer@?A0xae07d9b6@Imf@@PAPAU123@00@Z
	??$_Unchecked_move_backward@PAPAULineBuffer@?A0xae07d9b6@Imf@@PAPAU123@@stdext@@YAPAPAULineBuffer@?A0xae07d9b6@Imf@@PAPAU123@00@Z
	??$_Allocate@PAULineBuffer@?A0xae07d9b6@Imf@@@std@@YAPAPAULineBuffer@?A0xae07d9b6@Imf@@IPAPAU123@@Z
	??$_Copy_opt@PAUOutSliceInfo@?A0xae07d9b6@Imf@@PAU123@@std@@YAPAUOutSliceInfo@?A0xae07d9b6@Imf@@PAU123@00Urandom_access_iterator_tag@0@U_Nonscalar_ptr_iterator_tag@0@U_Range_checked_iterator_tag@0@@Z
	??$unchecked_uninitialized_copy@PAUOutSliceInfo@?A0xae07d9b6@Imf@@PAU123@V?$allocator@UOutSliceInfo@?A0xae07d9b6@Imf@@@std@@@stdext@@YAPAUOutSliceInfo@?A0xae07d9b6@Imf@@PAU123@00AAV?$allocator@UOutSliceInfo@?A0xae07d9b6@Imf@@@std@@@Z
	??$_Uninit_fill_n@PAUOutSliceInfo@?A0xae07d9b6@Imf@@IU123@V?$allocator@UOutSliceInfo@?A0xae07d9b6@Imf@@@std@@@std@@YAXPAUOutSliceInfo@?A0xae07d9b6@Imf@@IABU123@AAV?$allocator@UOutSliceInfo@?A0xae07d9b6@Imf@@@0@U_Nonscalar_ptr_iterator_tag@0@U_Range_checked_iterator_tag@0@@Z
	??$_Unchecked_uninitialized_move@PA_KPA_KV?$allocator@_K@std@@@stdext@@YAPA_KPA_K00AAV?$allocator@_K@std@@@Z
	??$_Unchecked_uninitialized_move@PAUOutSliceInfo@?A0xae07d9b6@Imf@@PAU123@V?$allocator@UOutSliceInfo@?A0xae07d9b6@Imf@@@std@@@stdext@@YAPAUOutSliceInfo@?A0xae07d9b6@Imf@@PAU123@00AAV?$allocator@UOutSliceInfo@?A0xae07d9b6@Imf@@@std@@@Z
	??$_Move_backward_opt@PAUOutSliceInfo@?A0xae07d9b6@Imf@@PAU123@Urandom_access_iterator_tag@std@@U_Undefined_move_tag@5@@std@@YAPAUOutSliceInfo@?A0xae07d9b6@Imf@@PAU123@00Urandom_access_iterator_tag@0@U_Undefined_move_tag@0@U_Range_checked_iterator_tag@0@@Z
	??$_Unchecked_uninitialized_move@PAPAULineBuffer@?A0xae07d9b6@Imf@@PAPAU123@V?$allocator@PAULineBuffer@?A0xae07d9b6@Imf@@@std@@@stdext@@YAPAPAULineBuffer@?A0xae07d9b6@Imf@@PAPAU123@00AAV?$allocator@PAULineBuffer@?A0xae07d9b6@Imf@@@std@@@Z
	??$_Uninit_copy@PAUOutSliceInfo@?A0xae07d9b6@Imf@@PAU123@V?$allocator@UOutSliceInfo@?A0xae07d9b6@Imf@@@std@@@std@@YAPAUOutSliceInfo@?A0xae07d9b6@Imf@@PAU123@00AAV?$allocator@UOutSliceInfo@?A0xae07d9b6@Imf@@@0@U_Nonscalar_ptr_iterator_tag@0@U_Range_checked_iterator_tag@0@@Z
	??$unchecked_fill_n@PA_KI_K@stdext@@YAXPA_KIAB_K@Z
	??$unchecked_fill_n@PAPAULineBuffer@?A0xae07d9b6@Imf@@IPAU123@@stdext@@YAXPAPAULineBuffer@?A0xae07d9b6@Imf@@IABQAU123@@Z
	??$unchecked_uninitialized_copy@PA_KPA_KV?$allocator@_K@std@@@stdext@@YAPA_KPA_K00AAV?$allocator@_K@std@@@Z
	??$unchecked_uninitialized_copy@PAPAULineBuffer@?A0xae07d9b6@Imf@@PAPAU123@V?$allocator@PAULineBuffer@?A0xae07d9b6@Imf@@@std@@@stdext@@YAPAPAULineBuffer@?A0xae07d9b6@Imf@@PAPAU123@00AAV?$allocator@PAULineBuffer@?A0xae07d9b6@Imf@@@std@@@Z
	?bitmapFromData@?A0x7b5a27d6@Imf@@YAXQBGHQAEAAG2@Z
	?forwardLutFromBitmap@?A0x7b5a27d6@Imf@@YAGQBEQAG@Z
	?reverseLutFromBitmap@?A0x7b5a27d6@Imf@@YAGQBEQAG@Z
	?applyLut@?A0x7b5a27d6@Imf@@YAXQBGQAGH@Z
	?numSamples@?A0x7b5a27d6@Imf@@YAHHHH@Z
	??0PizCompressor@Imf@@QAE@ABVHeader@1@HH@Z
	??1PizCompressor@Imf@@UAE@XZ
	?numScanLines@PizCompressor@Imf@@UBEHXZ
	?format@PizCompressor@Imf@@UBE?AW4Format@Compressor@2@XZ
	?compress@PizCompressor@Imf@@UAEHPBDHHAAPBD@Z
	?compressTile@PizCompressor@Imf@@UAEHPBDHV?$Box@V?$Vec2@H@Imath@@@Imath@@AAPBD@Z
	?uncompress@PizCompressor@Imf@@UAEHPBDHHAAPBD@Z
	?uncompressTile@PizCompressor@Imf@@UAEHPBDHV?$Box@V?$Vec2@H@Imath@@@Imath@@AAPBD@Z
	?compress@PizCompressor@Imf@@AAEHPBDHV?$Box@V?$Vec2@H@Imath@@@Imath@@AAPBD@Z
	?uncompress@PizCompressor@Imf@@AAEHPBDHV?$Box@V?$Vec2@H@Imath@@@Imath@@AAPBD@Z
	??1?$AutoArray@E$0CAAA@@Imf@@QAE@XZ
	??1?$AutoArray@G$0BAAAA@@Imf@@QAE@XZ
	??$read@UCharPtrIO@Imf@@PBD@Xdr@Imf@@YAXAAPBDAAH@Z
	??$read@UCharPtrIO@Imf@@PBD@Xdr@Imf@@YAXAAPBDAAG@Z
	??$write@UCharPtrIO@Imf@@PAD@Xdr@Imf@@YAXAAPADH@Z
	??$write@UCharPtrIO@Imf@@PAD@Xdr@Imf@@YAXAAPADG@Z
	??0PreviewRgba@Imf@@QAE@EEEE@Z
	??1PreviewImage@Imf@@QAE@XZ
	??0PreviewImage@Imf@@QAE@IIQBUPreviewRgba@1@@Z
	??0PreviewImage@Imf@@QAE@ABV01@@Z
	??4PreviewImage@Imf@@QAEAAV01@ABV01@@Z
	?width@PreviewImage@Imf@@QBEIXZ
	?height@PreviewImage@Imf@@QBEIXZ
	?pixels@PreviewImage@Imf@@QAEPAUPreviewRgba@2@XZ
	?pixels@PreviewImage@Imf@@QBEPBUPreviewRgba@2@XZ
	?staticTypeName@?$TypedAttribute@VPreviewImage@Imf@@@Imf@@SAPBDXZ
	?writeValueTo@?$TypedAttribute@VPreviewImage@Imf@@@Imf@@UBEXAAVOStream@2@H@Z
	?readValueFrom@?$TypedAttribute@VPreviewImage@Imf@@@Imf@@UAEXAAVIStream@2@HH@Z
	??$write@UStreamIO@Imf@@VOStream@2@@Xdr@Imf@@YAXAAVOStream@1@I@Z
	?numSamples@?A0xdde4bc13@Imf@@YAHHHH@Z
	?notEnoughData@?A0xdde4bc13@Imf@@YAXXZ
	?tooMuchData@?A0xdde4bc13@Imf@@YAXXZ
	??0Pxr24Compressor@Imf@@QAE@ABVHeader@1@HH@Z
	??1Pxr24Compressor@Imf@@UAE@XZ
	?numScanLines@Pxr24Compressor@Imf@@UBEHXZ
	?format@Pxr24Compressor@Imf@@UBE?AW4Format@Compressor@2@XZ
	?compress@Pxr24Compressor@Imf@@UAEHPBDHHAAPBD@Z
	?compressTile@Pxr24Compressor@Imf@@UAEHPBDHV?$Box@V?$Vec2@H@Imath@@@Imath@@AAPBD@Z
	?uncompress@Pxr24Compressor@Imf@@UAEHPBDHHAAPBD@Z
	?uncompressTile@Pxr24Compressor@Imf@@UAEHPBDHV?$Box@V?$Vec2@H@Imath@@@Imath@@AAPBD@Z
	?compress@Pxr24Compressor@Imf@@AAEHPBDHV?$Box@V?$Vec2@H@Imath@@@Imath@@AAPBD@Z
	?uncompress@Pxr24Compressor@Imf@@AAEHPBDHV?$Box@V?$Vec2@H@Imath@@@Imath@@AAPBD@Z
	?floatToFloat24@?A0xdde4bc13@Imf@@YAIM@Z
	?insertChannels@?A0x09a9f3d3@Imf@@YAXAAVHeader@2@W4RgbaChannels@2@@Z
	?rgbaChannels@?A0x09a9f3d3@Imf@@YA?AW4RgbaChannels@2@ABVChannelList@2@@Z
	?ywFromHeader@?A0x09a9f3d3@Imf@@YA?AV?$Vec3@M@Imath@@ABVHeader@2@@Z
	??0ToYca@RgbaOutputFile@Imf@@QAE@AAVOutputFile@2@W4RgbaChannels@2@@Z
	??1ToYca@RgbaOutputFile@Imf@@UAE@XZ
	?setYCRounding@ToYca@RgbaOutputFile@Imf@@QAEXII@Z
	?setFrameBuffer@ToYca@RgbaOutputFile@Imf@@QAEXPBURgba@3@II@Z
	?writePixels@ToYca@RgbaOutputFile@Imf@@QAEXH@Z
	?currentScanLine@ToYca@RgbaOutputFile@Imf@@QBEHXZ
	?padTmpBuf@ToYca@RgbaOutputFile@Imf@@AAEXXZ
	?rotateBuffers@ToYca@RgbaOutputFile@Imf@@AAEXXZ
	?duplicateLastBuffer@ToYca@RgbaOutputFile@Imf@@AAEXXZ
	?duplicateSecondToLastBuffer@ToYca@RgbaOutputFile@Imf@@AAEXXZ
	?decimateChromaVertAndWriteScanLine@ToYca@RgbaOutputFile@Imf@@AAEXXZ
	??0RgbaOutputFile@Imf@@QAE@QBDABVHeader@1@W4RgbaChannels@1@H@Z
	??0RgbaOutputFile@Imf@@QAE@AAVOStream@1@ABVHeader@1@W4RgbaChannels@1@H@Z
	??0RgbaOutputFile@Imf@@QAE@QBDABV?$Box@V?$Vec2@H@Imath@@@Imath@@1W4RgbaChannels@1@MV?$Vec2@M@3@MW4LineOrder@1@W4Compression@1@H@Z
	??0RgbaOutputFile@Imf@@QAE@QBDHHW4RgbaChannels@1@MV?$Vec2@M@Imath@@MW4LineOrder@1@W4Compression@1@H@Z
	??1RgbaOutputFile@Imf@@UAE@XZ
	?setFrameBuffer@RgbaOutputFile@Imf@@QAEXPBURgba@2@II@Z
	?writePixels@RgbaOutputFile@Imf@@QAEXH@Z
	?currentScanLine@RgbaOutputFile@Imf@@QBEHXZ
	?header@RgbaOutputFile@Imf@@QBEABVHeader@2@XZ
	?frameBuffer@RgbaOutputFile@Imf@@QBEABVFrameBuffer@2@XZ
	?displayWindow@RgbaOutputFile@Imf@@QBEABV?$Box@V?$Vec2@H@Imath@@@Imath@@XZ
	?dataWindow@RgbaOutputFile@Imf@@QBEABV?$Box@V?$Vec2@H@Imath@@@Imath@@XZ
	?pixelAspectRatio@RgbaOutputFile@Imf@@QBEMXZ
	?screenWindowCenter@RgbaOutputFile@Imf@@QBE?BV?$Vec2@M@Imath@@XZ
	?screenWindowWidth@RgbaOutputFile@Imf@@QBEMXZ
	?lineOrder@RgbaOutputFile@Imf@@QBE?AW4LineOrder@2@XZ
	?compression@RgbaOutputFile@Imf@@QBE?AW4Compression@2@XZ
	?channels@RgbaOutputFile@Imf@@QBE?AW4RgbaChannels@2@XZ
	?updatePreviewImage@RgbaOutputFile@Imf@@QAEXQBUPreviewRgba@2@@Z
	?setYCRounding@RgbaOutputFile@Imf@@QAEXII@Z
	?breakScanLine@RgbaOutputFile@Imf@@QAEXHHHD@Z
	??0FromYca@RgbaInputFile@Imf@@QAE@AAVInputFile@2@W4RgbaChannels@2@@Z
	??1FromYca@RgbaInputFile@Imf@@UAE@XZ
	?setFrameBuffer@FromYca@RgbaInputFile@Imf@@QAEXPAURgba@3@II@Z
	?readPixels@FromYca@RgbaInputFile@Imf@@QAEXHH@Z
	?readPixels@FromYca@RgbaInputFile@Imf@@AAEXH@Z
	?rotateBuf1@FromYca@RgbaInputFile@Imf@@AAEXH@Z
	?rotateBuf2@FromYca@RgbaInputFile@Imf@@AAEXH@Z
	?readYCAScanLine@FromYca@RgbaInputFile@Imf@@AAEXHQAURgba@3@@Z
	?padTmpBuf@FromYca@RgbaInputFile@Imf@@AAEXXZ
	??0RgbaInputFile@Imf@@QAE@QBDH@Z
	??0RgbaInputFile@Imf@@QAE@AAVIStream@1@H@Z
	??1RgbaInputFile@Imf@@UAE@XZ
	?setFrameBuffer@RgbaInputFile@Imf@@QAEXPAURgba@2@II@Z
	?readPixels@RgbaInputFile@Imf@@QAEXHH@Z
	?readPixels@RgbaInputFile@Imf@@QAEXH@Z
	?isComplete@RgbaInputFile@Imf@@QBE_NXZ
	?header@RgbaInputFile@Imf@@QBEABVHeader@2@XZ
	?fileName@RgbaInputFile@Imf@@QBEPBDXZ
	?frameBuffer@RgbaInputFile@Imf@@QBEABVFrameBuffer@2@XZ
	?displayWindow@RgbaInputFile@Imf@@QBEABV?$Box@V?$Vec2@H@Imath@@@Imath@@XZ
	?dataWindow@RgbaInputFile@Imf@@QBEABV?$Box@V?$Vec2@H@Imath@@@Imath@@XZ
	?pixelAspectRatio@RgbaInputFile@Imf@@QBEMXZ
	?screenWindowCenter@RgbaInputFile@Imf@@QBE?BV?$Vec2@M@Imath@@XZ
	?screenWindowWidth@RgbaInputFile@Imf@@QBEMXZ
	?lineOrder@RgbaInputFile@Imf@@QBE?AW4LineOrder@2@XZ
	?compression@RgbaInputFile@Imf@@QBE?AW4Compression@2@XZ
	?channels@RgbaInputFile@Imf@@QBE?AW4RgbaChannels@2@XZ
	?version@RgbaInputFile@Imf@@QBEHXZ
	??1ChannelList@Imf@@QAE@XZ
	??0?$_Tree@V?$_Tmap_traits@VName@Imf@@UChannel@2@U?$less@VName@Imf@@@std@@V?$allocator@U?$pair@$$CBVName@Imf@@UChannel@2@@std@@@5@$0A@@std@@@std@@QAE@ABU?$less@VName@Imf@@@1@ABV?$allocator@U?$pair@$$CBVName@Imf@@UChannel@2@@std@@@1@@Z
	?computeYw@RgbaYca@Imf@@YA?AV?$Vec3@M@Imath@@ABUChromaticities@2@@Z
	?RGBAtoYCA@RgbaYca@Imf@@YAXABV?$Vec3@M@Imath@@H_NQBURgba@2@QAU52@@Z
	?decimateChromaHoriz@RgbaYca@Imf@@YAXHQBURgba@2@QAU32@@Z
	?decimateChromaVert@RgbaYca@Imf@@YAXHQBQBURgba@2@QAU32@@Z
	?roundYCA@RgbaYca@Imf@@YAXHIIQBURgba@2@QAU32@@Z
	?reconstructChromaHoriz@RgbaYca@Imf@@YAXHQBURgba@2@QAU32@@Z
	?reconstructChromaVert@RgbaYca@Imf@@YAXHQBQBURgba@2@QAU32@@Z
	?YCAtoRGBA@RgbaYca@Imf@@YAXABV?$Vec3@M@Imath@@HQBURgba@2@QAU52@@Z
	?desaturate@?A0xaaf212b6@RgbaYca@Imf@@YAXABURgba@3@MABV?$Vec3@M@Imath@@AAU43@@Z
	?fixSaturation@RgbaYca@Imf@@YAXABV?$Vec3@M@Imath@@HQBQBURgba@2@QAU52@@Z
	?saturation@?A0xaaf212b6@RgbaYca@Imf@@YAMABURgba@3@@Z
	??K?$Vec3@M@Imath@@QBE?AV01@M@Z
	?rleCompress@?A0xe2edf97d@Imf@@YAHHQBDQAC@Z
	?rleUncompress@?A0xe2edf97d@Imf@@YAHHHQBCQAD@Z
	??0RleCompressor@Imf@@QAE@ABVHeader@1@H@Z
	??1RleCompressor@Imf@@UAE@XZ
	?numScanLines@RleCompressor@Imf@@UBEHXZ
	?compress@RleCompressor@Imf@@UAEHPBDHHAAPBD@Z
	?uncompress@RleCompressor@Imf@@UAEHPBDHHAAPBD@Z
	??DName@Imf@@QBEPBDXZ
	??0bad_alloc@std@@QAE@PBD@Z
	??2@YAPAXIPAX@Z
	??0_Iterator_base@std@@QAE@XZ
	??1logic_error@std@@UAE@XZ
	??0length_error@std@@QAE@ABV?$basic_string@DU?$char_traits@D@std@@V?$allocator@D@2@@1@@Z
	??0ArgExc@Iex@@QAE@AAV?$basic_stringstream@DU?$char_traits@D@std@@V?$allocator@D@2@@std@@@Z
	??0InputExc@Iex@@QAE@PBD@Z
	??0InputExc@Iex@@QAE@AAV?$basic_stringstream@DU?$char_traits@D@std@@V?$allocator@D@2@@std@@@Z
	??0IoExc@Iex@@QAE@ABV?$basic_string@DU?$char_traits@D@std@@V?$allocator@D@2@@std@@@Z
	?modp@Imath@@YAHHH@Z
	??0Lock@IlmThread@@QAE@ABVMutex@1@_N@Z
	??0InSliceInfo@?A0xe06365b4@Imf@@QAE@W4PixelType@2@0PADIIHH_N2N@Z
	??0LineBuffer@?A0xe06365b4@Imf@@QAE@QAVCompressor@2@@Z
	??1LineBuffer@?A0xe06365b4@Imf@@QAE@XZ
	??0LineBufferTask@?A0xe06365b4@Imf@@QAE@PAVTaskGroup@IlmThread@@PAUData@ScanLineInputFile@2@PAULineBuffer@12@HH@Z
	??1LineBufferTask@?A0xe06365b4@Imf@@UAE@XZ
	?fileName@ScanLineInputFile@Imf@@QBEPBDXZ
	?header@ScanLineInputFile@Imf@@QBEABVHeader@2@XZ
	?version@ScanLineInputFile@Imf@@QBEHXZ
	?frameBuffer@ScanLineInputFile@Imf@@QBEABVFrameBuffer@2@XZ
	?isComplete@ScanLineInputFile@Imf@@QBE_NXZ
	??1ScanLineInputFile@Imf@@UAE@XZ
	?reconstructLineOffsets@?A0xe06365b4@Imf@@YAXAAVIStream@2@W4LineOrder@2@AAV?$vector@_KV?$allocator@_K@std@@@std@@@Z
	?readLineOffsets@?A0xe06365b4@Imf@@YAXAAVIStream@2@W4LineOrder@2@AAV?$vector@_KV?$allocator@_K@std@@@std@@AA_N@Z
	?readPixelData@?A0xe06365b4@Imf@@YAXPAUData@ScanLineInputFile@2@HAAPADAAH@Z
	?execute@LineBufferTask@?A0xe06365b4@Imf@@UAEXXZ
	?newLineBufferTask@?A0xe06365b4@Imf@@YAPAVLineBufferTask@12@PAVTaskGroup@IlmThread@@PAUData@ScanLineInputFile@2@HHH@Z
	?readPixels@ScanLineInputFile@Imf@@QAEXHH@Z
	?readPixels@ScanLineInputFile@Imf@@QAEXH@Z
	?rawPixelData@ScanLineInputFile@Imf@@QAEXHAAPBDAAH@Z
	??1Data@ScanLineInputFile@Imf@@UAE@XZ
	?setFrameBuffer@ScanLineInputFile@Imf@@QAEXABVFrameBuffer@2@@Z
	??0Data@ScanLineInputFile@Imf@@QAE@PAVIStream@2@H@Z
	??0ScanLineInputFile@Imf@@QAE@ABVHeader@1@PAVIStream@1@H@Z
	?wait@LineBuffer@?A0xe06365b4@Imf@@QAEXXZ
	?post@LineBuffer@?A0xe06365b4@Imf@@QAEXXZ
	?size@?$vector@_KV?$allocator@_K@std@@@std@@QBEIXZ
	??A?$vector@_KV?$allocator@_K@std@@@std@@QAEAA_KI@Z
	?size@?$vector@UInSliceInfo@?A0xe06365b4@Imf@@V?$allocator@UInSliceInfo@?A0xe06365b4@Imf@@@std@@@std@@QBEIXZ
	??A?$vector@UInSliceInfo@?A0xe06365b4@Imf@@V?$allocator@UInSliceInfo@?A0xe06365b4@Imf@@@std@@@std@@QAEAAUInSliceInfo@?A0xe06365b4@Imf@@I@Z
	?size@?$vector@PAULineBuffer@?A0xe06365b4@Imf@@V?$allocator@PAULineBuffer@?A0xe06365b4@Imf@@@std@@@std@@QBEIXZ
	??A?$vector@PAULineBuffer@?A0xe06365b4@Imf@@V?$allocator@PAULineBuffer@?A0xe06365b4@Imf@@@std@@@std@@QAEAAPAULineBuffer@?A0xe06365b4@Imf@@I@Z
	??0?$_Bidit@U?$pair@$$CBVName@Imf@@USlice@2@@std@@HPBU12@ABU12@@std@@QAE@XZ
	??0?$allocator@U?$pair@$$CBVName@Imf@@USlice@2@@std@@@std@@QAE@XZ
	??0?$allocator@_K@std@@QAE@XZ
	?size@?$vector@IV?$allocator@I@std@@@std@@QBEIXZ
	??0?$allocator@I@std@@QAE@XZ
	?capacity@?$vector@UInSliceInfo@?A0xe06365b4@Imf@@V?$allocator@UInSliceInfo@?A0xe06365b4@Imf@@@std@@@std@@QBEIXZ
	??0?$allocator@UInSliceInfo@?A0xe06365b4@Imf@@@std@@QAE@XZ
	?deallocate@?$allocator@UInSliceInfo@?A0xe06365b4@Imf@@@std@@QAEXPAUInSliceInfo@?A0xe06365b4@Imf@@I@Z
	??0?$allocator@PAULineBuffer@?A0xe06365b4@Imf@@@std@@QAE@XZ
	??Bsentry@?$basic_ostream@DU?$char_traits@D@std@@@std@@QBE_NXZ
	?_Isnil@?$_Tree@V?$_Tmap_traits@VName@Imf@@USlice@2@U?$less@VName@Imf@@@std@@V?$allocator@U?$pair@$$CBVName@Imf@@USlice@2@@std@@@5@$0A@@std@@@std@@KAAADPAU_Node@?$_Tree_nod@V?$_Tmap_traits@VName@Imf@@USlice@2@U?$less@VName@Imf@@@std@@V?$allocator@U?$pair@$$CBVName@Imf@@USlice@2@@std@@@5@$0A@@std@@@2@@Z
	?_Left@?$_Tree@V?$_Tmap_traits@VName@Imf@@USlice@2@U?$less@VName@Imf@@@std@@V?$allocator@U?$pair@$$CBVName@Imf@@USlice@2@@std@@@5@$0A@@std@@@std@@KAAAPAU_Node@?$_Tree_nod@V?$_Tmap_traits@VName@Imf@@USlice@2@U?$less@VName@Imf@@@std@@V?$allocator@U?$pair@$$CBVName@Imf@@USlice@2@@std@@@5@$0A@@std@@@2@PAU342@@Z
	?_Parent@?$_Tree@V?$_Tmap_traits@VName@Imf@@USlice@2@U?$less@VName@Imf@@@std@@V?$allocator@U?$pair@$$CBVName@Imf@@USlice@2@@std@@@5@$0A@@std@@@std@@KAAAPAU_Node@?$_Tree_nod@V?$_Tmap_traits@VName@Imf@@USlice@2@U?$less@VName@Imf@@@std@@V?$allocator@U?$pair@$$CBVName@Imf@@USlice@2@@std@@@5@$0A@@std@@@2@PAU342@@Z
	?_Right@?$_Tree@V?$_Tmap_traits@VName@Imf@@USlice@2@U?$less@VName@Imf@@@std@@V?$allocator@U?$pair@$$CBVName@Imf@@USlice@2@@std@@@5@$0A@@std@@@std@@KAAAPAU_Node@?$_Tree_nod@V?$_Tmap_traits@VName@Imf@@USlice@2@U?$less@VName@Imf@@@std@@V?$allocator@U?$pair@$$CBVName@Imf@@USlice@2@@std@@@5@$0A@@std@@@2@PAU342@@Z
	?_Myval@?$_Tree@V?$_Tmap_traits@VName@Imf@@USlice@2@U?$less@VName@Imf@@@std@@V?$allocator@U?$pair@$$CBVName@Imf@@USlice@2@@std@@@5@$0A@@std@@@std@@KAAAU?$pair@$$CBVName@Imf@@USlice@2@@2@PAU_Node@?$_Tree_nod@V?$_Tmap_traits@VName@Imf@@USlice@2@U?$less@VName@Imf@@@std@@V?$allocator@U?$pair@$$CBVName@Imf@@USlice@2@@std@@@5@$0A@@std@@@2@@Z
	?size@?$_Tree@V?$_Tmap_traits@VName@Imf@@USlice@2@U?$less@VName@Imf@@@std@@V?$allocator@U?$pair@$$CBVName@Imf@@USlice@2@@std@@@5@$0A@@std@@@std@@QBEIXZ
	?_Lmost@?$_Tree@V?$_Tmap_traits@VName@Imf@@USlice@2@U?$less@VName@Imf@@@std@@V?$allocator@U?$pair@$$CBVName@Imf@@USlice@2@@std@@@5@$0A@@std@@@std@@IBEAAPAU_Node@?$_Tree_nod@V?$_Tmap_traits@VName@Imf@@USlice@2@U?$less@VName@Imf@@@std@@V?$allocator@U?$pair@$$CBVName@Imf@@USlice@2@@std@@@5@$0A@@std@@@2@XZ
	?_Max@?$_Tree@V?$_Tmap_traits@VName@Imf@@USlice@2@U?$less@VName@Imf@@@std@@V?$allocator@U?$pair@$$CBVName@Imf@@USlice@2@@std@@@5@$0A@@std@@@std@@KAPAU_Node@?$_Tree_nod@V?$_Tmap_traits@VName@Imf@@USlice@2@U?$less@VName@Imf@@@std@@V?$allocator@U?$pair@$$CBVName@Imf@@USlice@2@@std@@@5@$0A@@std@@@2@PAU342@@Z
	?_Min@?$_Tree@V?$_Tmap_traits@VName@Imf@@USlice@2@U?$less@VName@Imf@@@std@@V?$allocator@U?$pair@$$CBVName@Imf@@USlice@2@@std@@@5@$0A@@std@@@std@@KAPAU_Node@?$_Tree_nod@V?$_Tmap_traits@VName@Imf@@USlice@2@U?$less@VName@Imf@@@std@@V?$allocator@U?$pair@$$CBVName@Imf@@USlice@2@@std@@@5@$0A@@std@@@2@PAU342@@Z
	?_Rmost@?$_Tree@V?$_Tmap_traits@VName@Imf@@USlice@2@U?$less@VName@Imf@@@std@@V?$allocator@U?$pair@$$CBVName@Imf@@USlice@2@@std@@@5@$0A@@std@@@std@@IBEAAPAU_Node@?$_Tree_nod@V?$_Tmap_traits@VName@Imf@@USlice@2@U?$less@VName@Imf@@@std@@V?$allocator@U?$pair@$$CBVName@Imf@@USlice@2@@std@@@5@$0A@@std@@@2@XZ
	?_Root@?$_Tree@V?$_Tmap_traits@VName@Imf@@USlice@2@U?$less@VName@Imf@@@std@@V?$allocator@U?$pair@$$CBVName@Imf@@USlice@2@@std@@@5@$0A@@std@@@std@@IBEAAPAU_Node@?$_Tree_nod@V?$_Tmap_traits@VName@Imf@@USlice@2@U?$less@VName@Imf@@@std@@V?$allocator@U?$pair@$$CBVName@Imf@@USlice@2@@std@@@5@$0A@@std@@@2@XZ
	??0?$allocator@U?$pair@$$CBVName@Imf@@USlice@2@@std@@@std@@QAE@ABV01@@Z
	?deallocate@?$allocator@U_Node@?$_Tree_nod@V?$_Tmap_traits@VName@Imf@@USlice@2@U?$less@VName@Imf@@@std@@V?$allocator@U?$pair@$$CBVName@Imf@@USlice@2@@std@@@5@$0A@@std@@@std@@@std@@QAEXPAU_Node@?$_Tree_nod@V?$_Tmap_traits@VName@Imf@@USlice@2@U?$less@VName@Imf@@@std@@V?$allocator@U?$pair@$$CBVName@Imf@@USlice@2@@std@@@5@$0A@@std@@@2@I@Z
	??9const_iterator@?$_Tree@V?$_Tmap_traits@VName@Imf@@USlice@2@U?$less@VName@Imf@@@std@@V?$allocator@U?$pair@$$CBVName@Imf@@USlice@2@@std@@@5@$0A@@std@@@std@@QBE_NABV012@@Z
	?_Isnil@?$_Tree@V?$_Tmap_traits@VName@Imf@@UChannel@2@U?$less@VName@Imf@@@std@@V?$allocator@U?$pair@$$CBVName@Imf@@UChannel@2@@std@@@5@$0A@@std@@@std@@KAAADPAU_Node@?$_Tree_nod@V?$_Tmap_traits@VName@Imf@@UChannel@2@U?$less@VName@Imf@@@std@@V?$allocator@U?$pair@$$CBVName@Imf@@UChannel@2@@std@@@5@$0A@@std@@@2@@Z
	?_Parent@?$_Tree@V?$_Tmap_traits@VName@Imf@@UChannel@2@U?$less@VName@Imf@@@std@@V?$allocator@U?$pair@$$CBVName@Imf@@UChannel@2@@std@@@5@$0A@@std@@@std@@KAAAPAU_Node@?$_Tree_nod@V?$_Tmap_traits@VName@Imf@@UChannel@2@U?$less@VName@Imf@@@std@@V?$allocator@U?$pair@$$CBVName@Imf@@UChannel@2@@std@@@5@$0A@@std@@@2@PAU342@@Z
	?_Right@?$_Tree@V?$_Tmap_traits@VName@Imf@@UChannel@2@U?$less@VName@Imf@@@std@@V?$allocator@U?$pair@$$CBVName@Imf@@UChannel@2@@std@@@5@$0A@@std@@@std@@KAAAPAU_Node@?$_Tree_nod@V?$_Tmap_traits@VName@Imf@@UChannel@2@U?$less@VName@Imf@@@std@@V?$allocator@U?$pair@$$CBVName@Imf@@UChannel@2@@std@@@5@$0A@@std@@@2@PAU342@@Z
	?_Myval@?$_Tree@V?$_Tmap_traits@VName@Imf@@UChannel@2@U?$less@VName@Imf@@@std@@V?$allocator@U?$pair@$$CBVName@Imf@@UChannel@2@@std@@@5@$0A@@std@@@std@@KAAAU?$pair@$$CBVName@Imf@@UChannel@2@@2@PAU_Node@?$_Tree_nod@V?$_Tmap_traits@VName@Imf@@UChannel@2@U?$less@VName@Imf@@@std@@V?$allocator@U?$pair@$$CBVName@Imf@@UChannel@2@@std@@@5@$0A@@std@@@2@@Z
	??0?$allocator@_K@std@@QAE@ABV01@@Z
	?deallocate@?$allocator@_K@std@@QAEXPA_KI@Z
	??0?$allocator@I@std@@QAE@ABV01@@Z
	?deallocate@?$allocator@I@std@@QAEXPAII@Z
	?_Xlen@?$vector@UInSliceInfo@?A0xe06365b4@Imf@@V?$allocator@UInSliceInfo@?A0xe06365b4@Imf@@@std@@@std@@KAXXZ
	??0?$allocator@UInSliceInfo@?A0xe06365b4@Imf@@@std@@QAE@ABV01@@Z
	?_Xlen@?$vector@PAULineBuffer@?A0xe06365b4@Imf@@V?$allocator@PAULineBuffer@?A0xe06365b4@Imf@@@std@@@std@@KAXXZ
	??0?$allocator@PAULineBuffer@?A0xe06365b4@Imf@@@std@@QAE@ABV01@@Z
	?deallocate@?$allocator@PAULineBuffer@?A0xe06365b4@Imf@@@std@@QAEXPAPAULineBuffer@?A0xe06365b4@Imf@@I@Z
	?_Color@?$_Tree@V?$_Tmap_traits@VName@Imf@@USlice@2@U?$less@VName@Imf@@@std@@V?$allocator@U?$pair@$$CBVName@Imf@@USlice@2@@std@@@5@$0A@@std@@@std@@KAAADPAU_Node@?$_Tree_nod@V?$_Tmap_traits@VName@Imf@@USlice@2@U?$less@VName@Imf@@@std@@V?$allocator@U?$pair@$$CBVName@Imf@@USlice@2@@std@@@5@$0A@@std@@@2@@Z
	?_Mynode@const_iterator@?$_Tree@V?$_Tmap_traits@VName@Imf@@USlice@2@U?$less@VName@Imf@@@std@@V?$allocator@U?$pair@$$CBVName@Imf@@USlice@2@@std@@@5@$0A@@std@@@std@@QBEPAU_Node@?$_Tree_nod@V?$_Tmap_traits@VName@Imf@@USlice@2@U?$less@VName@Imf@@@std@@V?$allocator@U?$pair@$$CBVName@Imf@@USlice@2@@std@@@5@$0A@@std@@@3@XZ
	?_Left@?$_Tree@V?$_Tmap_traits@VName@Imf@@UChannel@2@U?$less@VName@Imf@@@std@@V?$allocator@U?$pair@$$CBVName@Imf@@UChannel@2@@std@@@5@$0A@@std@@@std@@KAAAPAU_Node@?$_Tree_nod@V?$_Tmap_traits@VName@Imf@@UChannel@2@U?$less@VName@Imf@@@std@@V?$allocator@U?$pair@$$CBVName@Imf@@UChannel@2@@std@@@5@$0A@@std@@@2@PAU342@@Z
	?capacity@?$vector@_KV?$allocator@_K@std@@@std@@QBEIXZ
	?max_size@?$allocator@_K@std@@QBEIXZ
	?max_size@?$allocator@I@std@@QBEIXZ
	?max_size@?$allocator@UInSliceInfo@?A0xe06365b4@Imf@@@std@@QBEIXZ
	?capacity@?$vector@PAULineBuffer@?A0xe06365b4@Imf@@V?$allocator@PAULineBuffer@?A0xe06365b4@Imf@@@std@@@std@@QBEIXZ
	?max_size@?$allocator@PAULineBuffer@?A0xe06365b4@Imf@@@std@@QBEIXZ
	??G?$_Vector_const_iterator@UInSliceInfo@?A0xe06365b4@Imf@@V?$allocator@UInSliceInfo@?A0xe06365b4@Imf@@@std@@@std@@QBEHABV01@@Z
	??0?$_Ranit@UInSliceInfo@?A0xe06365b4@Imf@@HPBU123@ABU123@@std@@QAE@XZ
	??Y?$_Vector_const_iterator@UInSliceInfo@?A0xe06365b4@Imf@@V?$allocator@UInSliceInfo@?A0xe06365b4@Imf@@@std@@@std@@QAEAAV01@H@Z
	??8?$_Vector_const_iterator@UInSliceInfo@?A0xe06365b4@Imf@@V?$allocator@UInSliceInfo@?A0xe06365b4@Imf@@@std@@@std@@QBE_NABV01@@Z
	??8?$_Vector_const_iterator@_KV?$allocator@_K@std@@@std@@QBE_NABV01@@Z
	??Y?$_Vector_const_iterator@PAULineBuffer@?A0xe06365b4@Imf@@V?$allocator@PAULineBuffer@?A0xe06365b4@Imf@@@std@@@std@@QAEAAV01@H@Z
	??8?$_Vector_const_iterator@PAULineBuffer@?A0xe06365b4@Imf@@V?$allocator@PAULineBuffer@?A0xe06365b4@Imf@@@std@@@std@@QBE_NABV01@@Z
	??0_Node@?$_Tree_nod@V?$_Tmap_traits@VName@Imf@@USlice@2@U?$less@VName@Imf@@@std@@V?$allocator@U?$pair@$$CBVName@Imf@@USlice@2@@std@@@5@$0A@@std@@@std@@QAE@PAU012@00ABU?$pair@$$CBVName@Imf@@USlice@2@@2@D@Z
	??0?$_Ranit@_KHPB_KAB_K@std@@QAE@XZ
	??0?$_Ranit@PAULineBuffer@?A0xe06365b4@Imf@@HPBQAU123@ABQAU123@@std@@QAE@XZ
	??0?$_Tmap_traits@VName@Imf@@USlice@2@U?$less@VName@Imf@@@std@@V?$allocator@U?$pair@$$CBVName@Imf@@USlice@2@@std@@@5@$0A@@std@@QAE@U?$less@VName@Imf@@@1@@Z
	??$max@H@std@@YAABHABH0@Z
	??$swap@D@std@@YAXAAD0@Z
	??$_Destroy@PAU_Node@?$_Tree_nod@V?$_Tmap_traits@VName@Imf@@USlice@2@U?$less@VName@Imf@@@std@@V?$allocator@U?$pair@$$CBVName@Imf@@USlice@2@@std@@@5@$0A@@std@@@std@@@std@@YAXPAPAU_Node@?$_Tree_nod@V?$_Tmap_traits@VName@Imf@@USlice@2@U?$less@VName@Imf@@@std@@V?$allocator@U?$pair@$$CBVName@Imf@@USlice@2@@std@@@5@$0A@@std@@@0@@Z
	??$_Allocate@UInSliceInfo@?A0xe06365b4@Imf@@@std@@YAPAUInSliceInfo@?A0xe06365b4@Imf@@IPAU123@@Z
	??$_Allocate@PAULineBuffer@?A0xe06365b4@Imf@@@std@@YAPAPAULineBuffer@?A0xe06365b4@Imf@@IPAPAU123@@Z
	??$?0U?$pair@$$CBVName@Imf@@USlice@2@@std@@@?$allocator@PAU_Node@?$_Tree_nod@V?$_Tmap_traits@VName@Imf@@USlice@2@U?$less@VName@Imf@@@std@@V?$allocator@U?$pair@$$CBVName@Imf@@USlice@2@@std@@@5@$0A@@std@@@std@@@std@@QAE@ABV?$allocator@U?$pair@$$CBVName@Imf@@USlice@2@@std@@@1@@Z
	??$_Destroy@U_Node@?$_Tree_nod@V?$_Tmap_traits@VName@Imf@@USlice@2@U?$less@VName@Imf@@@std@@V?$allocator@U?$pair@$$CBVName@Imf@@USlice@2@@std@@@5@$0A@@std@@@std@@@std@@YAXPAU_Node@?$_Tree_nod@V?$_Tmap_traits@VName@Imf@@USlice@2@U?$less@VName@Imf@@@std@@V?$allocator@U?$pair@$$CBVName@Imf@@USlice@2@@std@@@5@$0A@@std@@@0@@Z
	??$?0U?$pair@$$CBVName@Imf@@USlice@2@@std@@@?$allocator@U_Node@?$_Tree_nod@V?$_Tmap_traits@VName@Imf@@USlice@2@U?$less@VName@Imf@@@std@@V?$allocator@U?$pair@$$CBVName@Imf@@USlice@2@@std@@@5@$0A@@std@@@std@@@std@@QAE@ABV?$allocator@U?$pair@$$CBVName@Imf@@USlice@2@@std@@@1@@Z
	??$_Construct@PAU_Node@?$_Tree_nod@V?$_Tmap_traits@VName@Imf@@USlice@2@U?$less@VName@Imf@@@std@@V?$allocator@U?$pair@$$CBVName@Imf@@USlice@2@@std@@@5@$0A@@std@@@std@@PAU123@@std@@YAXPAPAU_Node@?$_Tree_nod@V?$_Tmap_traits@VName@Imf@@USlice@2@U?$less@VName@Imf@@@std@@V?$allocator@U?$pair@$$CBVName@Imf@@USlice@2@@std@@@5@$0A@@std@@@0@ABQAU120@@Z
	??$_Iter_random@PAUInSliceInfo@?A0xe06365b4@Imf@@PAU123@@std@@YA?AUrandom_access_iterator_tag@0@ABQAUInSliceInfo@?A0xe06365b4@Imf@@0@Z
	??$_Ptr_cat@PAUInSliceInfo@?A0xe06365b4@Imf@@PAU123@@std@@YA?AU_Nonscalar_ptr_iterator_tag@0@AAPAUInSliceInfo@?A0xe06365b4@Imf@@0@Z
	??$_Iter_random@PA_KPA_K@std@@YA?AUrandom_access_iterator_tag@0@ABQA_K0@Z
	??$_Ptr_cat@PA_KPA_K@std@@YA?AU_Scalar_ptr_iterator_tag@0@AAPA_K0@Z
	??$_Copy_opt@PA_KPA_KUrandom_access_iterator_tag@std@@@std@@YAPA_KPA_K00Urandom_access_iterator_tag@0@U_Scalar_ptr_iterator_tag@0@U_Range_checked_iterator_tag@0@@Z
	??$_Destroy_range@_KV?$allocator@_K@std@@@std@@YAXPA_K0AAV?$allocator@_K@0@U_Scalar_ptr_iterator_tag@0@@Z
	??$_Fill@PA_K_K@std@@YAXPA_K0AB_K@Z
	??$_Move_cat@PA_K@std@@YA?AU_Undefined_move_tag@0@ABQA_K@Z
	??$_Ptr_cat@PAIPAI@std@@YA?AU_Scalar_ptr_iterator_tag@0@AAPAI0@Z
	??$_Destroy_range@IV?$allocator@I@std@@@std@@YAXPAI0AAV?$allocator@I@0@U_Scalar_ptr_iterator_tag@0@@Z
	??$_Fill@PAUInSliceInfo@?A0xe06365b4@Imf@@U123@@std@@YAXPAUInSliceInfo@?A0xe06365b4@Imf@@0ABU123@@Z
	??$_Move_cat@PAUInSliceInfo@?A0xe06365b4@Imf@@@std@@YA?AU_Undefined_move_tag@0@ABQAUInSliceInfo@?A0xe06365b4@Imf@@@Z
	??$_Iter_random@PAPAULineBuffer@?A0xe06365b4@Imf@@PAPAU123@@std@@YA?AUrandom_access_iterator_tag@0@ABQAPAULineBuffer@?A0xe06365b4@Imf@@0@Z
	??$_Ptr_cat@PAPAULineBuffer@?A0xe06365b4@Imf@@PAPAU123@@std@@YA?AU_Scalar_ptr_iterator_tag@0@AAPAPAULineBuffer@?A0xe06365b4@Imf@@0@Z
	??$_Copy_opt@PAPAULineBuffer@?A0xe06365b4@Imf@@PAPAU123@Urandom_access_iterator_tag@std@@@std@@YAPAPAULineBuffer@?A0xe06365b4@Imf@@PAPAU123@00Urandom_access_iterator_tag@0@U_Scalar_ptr_iterator_tag@0@U_Range_checked_iterator_tag@0@@Z
	??$_Destroy_range@PAULineBuffer@?A0xe06365b4@Imf@@V?$allocator@PAULineBuffer@?A0xe06365b4@Imf@@@std@@@std@@YAXPAPAULineBuffer@?A0xe06365b4@Imf@@0AAV?$allocator@PAULineBuffer@?A0xe06365b4@Imf@@@0@U_Scalar_ptr_iterator_tag@0@@Z
	??$_Fill@PAPAULineBuffer@?A0xe06365b4@Imf@@PAU123@@std@@YAXPAPAULineBuffer@?A0xe06365b4@Imf@@0ABQAU123@@Z
	??$_Move_cat@PAPAULineBuffer@?A0xe06365b4@Imf@@@std@@YA?AU_Undefined_move_tag@0@ABQAPAULineBuffer@?A0xe06365b4@Imf@@@Z
	??$_Checked_base@PAUInSliceInfo@?A0xe06365b4@Imf@@@std@@YAPAUInSliceInfo@?A0xe06365b4@Imf@@AAPAU123@U_Unchanged_checked_iterator_base_type_tag@0@@Z
	??$_Copy_opt@PAUInSliceInfo@?A0xe06365b4@Imf@@PAU123@Uforward_iterator_tag@std@@@std@@YAPAUInSliceInfo@?A0xe06365b4@Imf@@PAU123@00Uforward_iterator_tag@0@U_Nonscalar_ptr_iterator_tag@0@U_Range_checked_iterator_tag@0@@Z
	??$_Checked_base@PA_K@std@@YAPA_KAAPA_KU_Unchanged_checked_iterator_base_type_tag@0@@Z
	??$_Copy_backward_opt@PA_KPA_KUrandom_access_iterator_tag@std@@@std@@YAPA_KPA_K00Urandom_access_iterator_tag@0@U_Scalar_ptr_iterator_tag@0@U_Range_checked_iterator_tag@0@@Z
	??$_Checked_base@PAPAULineBuffer@?A0xe06365b4@Imf@@@std@@YAPAPAULineBuffer@?A0xe06365b4@Imf@@AAPAPAU123@U_Unchanged_checked_iterator_base_type_tag@0@@Z
	??$_Copy_backward_opt@PAPAULineBuffer@?A0xe06365b4@Imf@@PAPAU123@Urandom_access_iterator_tag@std@@@std@@YAPAPAULineBuffer@?A0xe06365b4@Imf@@PAPAU123@00Urandom_access_iterator_tag@0@U_Scalar_ptr_iterator_tag@0@U_Range_checked_iterator_tag@0@@Z
	??$_Construct@UInSliceInfo@?A0xe06365b4@Imf@@U123@@std@@YAXPAUInSliceInfo@?A0xe06365b4@Imf@@ABU123@@Z
	??$_Destroy@UInSliceInfo@?A0xe06365b4@Imf@@@std@@YAXPAUInSliceInfo@?A0xe06365b4@Imf@@@Z
	??$_Copy_backward_opt@PAUInSliceInfo@?A0xe06365b4@Imf@@PAU123@Uforward_iterator_tag@std@@@std@@YAPAUInSliceInfo@?A0xe06365b4@Imf@@PAU123@00Uforward_iterator_tag@0@U_Nonscalar_ptr_iterator_tag@0@U_Range_checked_iterator_tag@0@@Z
	??$_Iter_cat@PA_K@std@@YA?AUrandom_access_iterator_tag@0@ABQA_K@Z
	??$_Iter_cat@PAPAULineBuffer@?A0xe06365b4@Imf@@@std@@YA?AUrandom_access_iterator_tag@0@ABQAPAULineBuffer@?A0xe06365b4@Imf@@@Z
	??$_Uninit_copy@PA_KPA_KV?$allocator@_K@std@@@std@@YAPA_KPA_K00AAV?$allocator@_K@0@U_Scalar_ptr_iterator_tag@0@U_Range_checked_iterator_tag@0@@Z
	??$_Uninit_copy@PAPAULineBuffer@?A0xe06365b4@Imf@@PAPAU123@V?$allocator@PAULineBuffer@?A0xe06365b4@Imf@@@std@@@std@@YAPAPAULineBuffer@?A0xe06365b4@Imf@@PAPAU123@00AAV?$allocator@PAULineBuffer@?A0xe06365b4@Imf@@@0@U_Scalar_ptr_iterator_tag@0@U_Range_checked_iterator_tag@0@@Z
	??$_Fill_n@PA_KI_K@std@@YAXPA_KIAB_KU_Range_checked_iterator_tag@0@@Z
	??$_Fill_n@PAPAULineBuffer@?A0xe06365b4@Imf@@IPAU123@@std@@YAXPAPAULineBuffer@?A0xe06365b4@Imf@@IABQAU123@U_Range_checked_iterator_tag@0@@Z
	??8Imf@@YA_NABVConstIterator@FrameBuffer@0@0@Z
	??9Imf@@YA_NABVConstIterator@FrameBuffer@0@0@Z
	??8Imf@@YA_NABVConstIterator@ChannelList@0@0@Z
	??9Imf@@YA_NABVConstIterator@ChannelList@0@0@Z
	?getLineBuffer@Data@ScanLineInputFile@Imf@@QAEPAULineBuffer@?A0xe06365b4@3@H@Z
	??A?$vector@IV?$allocator@I@std@@@std@@QAEAAII@Z
	??0?$_Vector_val@_KV?$allocator@_K@std@@@std@@IAE@V?$allocator@_K@1@@Z
	??0?$_Vector_val@IV?$allocator@I@std@@@std@@IAE@V?$allocator@I@1@@Z
	??0?$_Vector_val@UInSliceInfo@?A0xe06365b4@Imf@@V?$allocator@UInSliceInfo@?A0xe06365b4@Imf@@@std@@@std@@IAE@V?$allocator@UInSliceInfo@?A0xe06365b4@Imf@@@1@@Z
	??0?$_Vector_val@PAULineBuffer@?A0xe06365b4@Imf@@V?$allocator@PAULineBuffer@?A0xe06365b4@Imf@@@std@@@std@@IAE@V?$allocator@PAULineBuffer@?A0xe06365b4@Imf@@@1@@Z
	?destroy@?$allocator@PAU_Node@?$_Tree_nod@V?$_Tmap_traits@VName@Imf@@USlice@2@U?$less@VName@Imf@@@std@@V?$allocator@U?$pair@$$CBVName@Imf@@USlice@2@@std@@@5@$0A@@std@@@std@@@std@@QAEXPAPAU_Node@?$_Tree_nod@V?$_Tmap_traits@VName@Imf@@USlice@2@U?$less@VName@Imf@@@std@@V?$allocator@U?$pair@$$CBVName@Imf@@USlice@2@@std@@@5@$0A@@std@@@2@@Z
	??0iterator@?$_Tree@V?$_Tmap_traits@VName@Imf@@USlice@2@U?$less@VName@Imf@@@std@@V?$allocator@U?$pair@$$CBVName@Imf@@USlice@2@@std@@@5@$0A@@std@@@std@@QAE@PAU_Node@?$_Tree_nod@V?$_Tmap_traits@VName@Imf@@USlice@2@U?$less@VName@Imf@@@std@@V?$allocator@U?$pair@$$CBVName@Imf@@USlice@2@@std@@@5@$0A@@std@@@2@PBV12@@Z
	?_Min@?$_Tree@V?$_Tmap_traits@VName@Imf@@UChannel@2@U?$less@VName@Imf@@@std@@V?$allocator@U?$pair@$$CBVName@Imf@@UChannel@2@@std@@@5@$0A@@std@@@std@@KAPAU_Node@?$_Tree_nod@V?$_Tmap_traits@VName@Imf@@UChannel@2@U?$less@VName@Imf@@@std@@V?$allocator@U?$pair@$$CBVName@Imf@@UChannel@2@@std@@@5@$0A@@std@@@2@PAU342@@Z
	?max_size@?$vector@_KV?$allocator@_K@std@@@std@@QBEIXZ
	?allocate@?$allocator@_K@std@@QAEPA_KI@Z
	?max_size@?$vector@IV?$allocator@I@std@@@std@@QBEIXZ
	?allocate@?$allocator@I@std@@QAEPAII@Z
	?max_size@?$vector@UInSliceInfo@?A0xe06365b4@Imf@@V?$allocator@UInSliceInfo@?A0xe06365b4@Imf@@@std@@@std@@QBEIXZ
	?allocate@?$allocator@UInSliceInfo@?A0xe06365b4@Imf@@@std@@QAEPAUInSliceInfo@?A0xe06365b4@Imf@@I@Z
	?max_size@?$vector@PAULineBuffer@?A0xe06365b4@Imf@@V?$allocator@PAULineBuffer@?A0xe06365b4@Imf@@@std@@@std@@QBEIXZ
	?allocate@?$allocator@PAULineBuffer@?A0xe06365b4@Imf@@@std@@QAEPAPAULineBuffer@?A0xe06365b4@Imf@@I@Z
	??G?$_Vector_iterator@UInSliceInfo@?A0xe06365b4@Imf@@V?$allocator@UInSliceInfo@?A0xe06365b4@Imf@@@std@@@std@@QBEHABV?$_Vector_const_iterator@UInSliceInfo@?A0xe06365b4@Imf@@V?$allocator@UInSliceInfo@?A0xe06365b4@Imf@@@std@@@1@@Z
	?destroy@?$allocator@U_Node@?$_Tree_nod@V?$_Tmap_traits@VName@Imf@@USlice@2@U?$less@VName@Imf@@@std@@V?$allocator@U?$pair@$$CBVName@Imf@@USlice@2@@std@@@5@$0A@@std@@@std@@@std@@QAEXPAU_Node@?$_Tree_nod@V?$_Tmap_traits@VName@Imf@@USlice@2@U?$less@VName@Imf@@@std@@V?$allocator@U?$pair@$$CBVName@Imf@@USlice@2@@std@@@5@$0A@@std@@@2@@Z
	??Y?$_Vector_iterator@UInSliceInfo@?A0xe06365b4@Imf@@V?$allocator@UInSliceInfo@?A0xe06365b4@Imf@@@std@@@std@@QAEAAV01@H@Z
	??9?$_Vector_const_iterator@UInSliceInfo@?A0xe06365b4@Imf@@V?$allocator@UInSliceInfo@?A0xe06365b4@Imf@@@std@@@std@@QBE_NABV01@@Z
	??Y?$_Vector_iterator@_KV?$allocator@_K@std@@@std@@QAEAAV01@H@Z
	??9?$_Vector_const_iterator@_KV?$allocator@_K@std@@@std@@QBE_NABV01@@Z
	??Y?$_Vector_iterator@PAULineBuffer@?A0xe06365b4@Imf@@V?$allocator@PAULineBuffer@?A0xe06365b4@Imf@@@std@@@std@@QAEAAV01@H@Z
	??9?$_Vector_const_iterator@PAULineBuffer@?A0xe06365b4@Imf@@V?$allocator@PAULineBuffer@?A0xe06365b4@Imf@@@std@@@std@@QBE_NABV01@@Z
	??0?$_Tree_nod@V?$_Tmap_traits@VName@Imf@@USlice@2@U?$less@VName@Imf@@@std@@V?$allocator@U?$pair@$$CBVName@Imf@@USlice@2@@std@@@5@$0A@@std@@@std@@IAE@ABU?$less@VName@Imf@@@1@V?$allocator@U?$pair@$$CBVName@Imf@@USlice@2@@std@@@1@@Z
	?construct@?$allocator@PAU_Node@?$_Tree_nod@V?$_Tmap_traits@VName@Imf@@USlice@2@U?$less@VName@Imf@@@std@@V?$allocator@U?$pair@$$CBVName@Imf@@USlice@2@@std@@@5@$0A@@std@@@std@@@std@@QAEXPAPAU_Node@?$_Tree_nod@V?$_Tmap_traits@VName@Imf@@USlice@2@U?$less@VName@Imf@@@std@@V?$allocator@U?$pair@$$CBVName@Imf@@USlice@2@@std@@@5@$0A@@std@@@2@ABQAU342@@Z
	??$read@UStreamIO@Imf@@VIStream@2@@Xdr@Imf@@YAXAAVIStream@1@AA_K@Z
	??$_Destroy_range@_KV?$allocator@_K@std@@@std@@YAXPA_K0AAV?$allocator@_K@0@@Z
	??$_Destroy_range@IV?$allocator@I@std@@@std@@YAXPAI0AAV?$allocator@I@0@@Z
	??$_Destroy_range@PAULineBuffer@?A0xe06365b4@Imf@@V?$allocator@PAULineBuffer@?A0xe06365b4@Imf@@@std@@@std@@YAXPAPAULineBuffer@?A0xe06365b4@Imf@@0AAV?$allocator@PAULineBuffer@?A0xe06365b4@Imf@@@0@@Z
	??$_Checked_base@PAUInSliceInfo@?A0xe06365b4@Imf@@@std@@YAPAUInSliceInfo@?A0xe06365b4@Imf@@AAPAU123@@Z
	??$_Copy_opt@PAUInSliceInfo@?A0xe06365b4@Imf@@PAU123@@std@@YAPAUInSliceInfo@?A0xe06365b4@Imf@@PAU123@00Urandom_access_iterator_tag@0@U_Nonscalar_ptr_iterator_tag@0@U_Range_checked_iterator_tag@0@@Z
	??$_Checked_base@PA_K@std@@YAPA_KAAPA_K@Z
	??$_Move_backward_opt@PA_KPA_KUrandom_access_iterator_tag@std@@U_Undefined_move_tag@2@@std@@YAPA_KPA_K00Urandom_access_iterator_tag@0@U_Undefined_move_tag@0@U_Range_checked_iterator_tag@0@@Z
	??$_Checked_base@PAPAULineBuffer@?A0xe06365b4@Imf@@@std@@YAPAPAULineBuffer@?A0xe06365b4@Imf@@AAPAPAU123@@Z
	??$_Move_backward_opt@PAPAULineBuffer@?A0xe06365b4@Imf@@PAPAU123@Urandom_access_iterator_tag@std@@U_Undefined_move_tag@5@@std@@YAPAPAULineBuffer@?A0xe06365b4@Imf@@PAPAU123@00Urandom_access_iterator_tag@0@U_Undefined_move_tag@0@U_Range_checked_iterator_tag@0@@Z
	?construct@?$allocator@UInSliceInfo@?A0xe06365b4@Imf@@@std@@QAEXPAUInSliceInfo@?A0xe06365b4@Imf@@ABU345@@Z
	?destroy@?$allocator@UInSliceInfo@?A0xe06365b4@Imf@@@std@@QAEXPAUInSliceInfo@?A0xe06365b4@Imf@@@Z
	??$_Uninit_copy@PAUInSliceInfo@?A0xe06365b4@Imf@@PAU123@V?$allocator@UInSliceInfo@?A0xe06365b4@Imf@@@std@@@std@@YAPAUInSliceInfo@?A0xe06365b4@Imf@@PAU123@00AAV?$allocator@UInSliceInfo@?A0xe06365b4@Imf@@@0@U_Nonscalar_ptr_iterator_tag@0@U_Range_checked_iterator_tag@0@@Z
	??$_Copy_backward_opt@PAUInSliceInfo@?A0xe06365b4@Imf@@PAU123@@std@@YAPAUInSliceInfo@?A0xe06365b4@Imf@@PAU123@00Urandom_access_iterator_tag@0@U_Nonscalar_ptr_iterator_tag@0@U_Range_checked_iterator_tag@0@@Z
	??$unchecked_uninitialized_copy@PAPAULineBuffer@?A0xe06365b4@Imf@@PAPAU123@V?$allocator@PAULineBuffer@?A0xe06365b4@Imf@@@std@@@stdext@@YAPAPAULineBuffer@?A0xe06365b4@Imf@@PAPAU123@00AAV?$allocator@PAULineBuffer@?A0xe06365b4@Imf@@@std@@@Z
	??$_Fill_n@PA_KI_K@std@@YAXPA_KIAB_KUrandom_access_iterator_tag@0@U_Range_checked_iterator_tag@0@@Z
	??$_Fill_n@PAPAULineBuffer@?A0xe06365b4@Imf@@IPAU123@@std@@YAXPAPAULineBuffer@?A0xe06365b4@Imf@@IABQAU123@Urandom_access_iterator_tag@0@U_Range_checked_iterator_tag@0@@Z
	??Cconst_iterator@?$_Tree@V?$_Tmap_traits@VName@Imf@@USlice@2@U?$less@VName@Imf@@@std@@V?$allocator@U?$pair@$$CBVName@Imf@@USlice@2@@std@@@5@$0A@@std@@@std@@QBEPBU?$pair@$$CBVName@Imf@@USlice@2@@2@XZ
	??Econst_iterator@?$_Tree@V?$_Tmap_traits@VName@Imf@@USlice@2@U?$less@VName@Imf@@@std@@V?$allocator@U?$pair@$$CBVName@Imf@@USlice@2@@std@@@5@$0A@@std@@@std@@QAEAAV012@XZ
	??Cconst_iterator@?$_Tree@V?$_Tmap_traits@VName@Imf@@UChannel@2@U?$less@VName@Imf@@@std@@V?$allocator@U?$pair@$$CBVName@Imf@@UChannel@2@@std@@@5@$0A@@std@@@std@@QBEPBU?$pair@$$CBVName@Imf@@UChannel@2@@2@XZ
	?begin@?$_Tree@V?$_Tmap_traits@VName@Imf@@USlice@2@U?$less@VName@Imf@@@std@@V?$allocator@U?$pair@$$CBVName@Imf@@USlice@2@@std@@@5@$0A@@std@@@std@@QAE?AViterator@12@XZ
	?end@?$_Tree@V?$_Tmap_traits@VName@Imf@@USlice@2@U?$less@VName@Imf@@@std@@V?$allocator@U?$pair@$$CBVName@Imf@@USlice@2@@std@@@5@$0A@@std@@@std@@QAE?AViterator@12@XZ
	?_Buy@?$vector@UInSliceInfo@?A0xe06365b4@Imf@@V?$allocator@UInSliceInfo@?A0xe06365b4@Imf@@@std@@@std@@IAE_NI@Z
	?_Buy@?$vector@PAULineBuffer@?A0xe06365b4@Imf@@V?$allocator@PAULineBuffer@?A0xe06365b4@Imf@@@std@@@std@@IAE_NI@Z
	?_Destroy@?$vector@_KV?$allocator@_K@std@@@std@@IAEXPA_K0@Z
	?_Destroy@?$vector@IV?$allocator@I@std@@@std@@IAEXPAI0@Z
	?_Destroy@?$vector@PAULineBuffer@?A0xe06365b4@Imf@@V?$allocator@PAULineBuffer@?A0xe06365b4@Imf@@@std@@@std@@IAEXPAPAULineBuffer@?A0xe06365b4@Imf@@0@Z
	??H?$_Vector_iterator@UInSliceInfo@?A0xe06365b4@Imf@@V?$allocator@UInSliceInfo@?A0xe06365b4@Imf@@@std@@@std@@QBE?AV01@H@Z
	??H?$_Vector_iterator@_KV?$allocator@_K@std@@@std@@QBE?AV01@H@Z
	??H?$_Vector_iterator@PAULineBuffer@?A0xe06365b4@Imf@@V?$allocator@PAULineBuffer@?A0xe06365b4@Imf@@@std@@@std@@QBE?AV01@H@Z
	??$unchecked_copy@PAUInSliceInfo@?A0xe06365b4@Imf@@PAU123@@stdext@@YAPAUInSliceInfo@?A0xe06365b4@Imf@@PAU123@00@Z
	??$fill@PA_K_K@std@@YAXPA_K0AB_K@Z
	??$fill@PAUInSliceInfo@?A0xe06365b4@Imf@@U123@@std@@YAXPAUInSliceInfo@?A0xe06365b4@Imf@@0ABU123@@Z
	??$unchecked_copy@PAPAULineBuffer@?A0xe06365b4@Imf@@PAPAU123@@stdext@@YAPAPAULineBuffer@?A0xe06365b4@Imf@@PAPAU123@00@Z
	??$fill@PAPAULineBuffer@?A0xe06365b4@Imf@@PAU123@@std@@YAXPAPAULineBuffer@?A0xe06365b4@Imf@@0ABQAU123@@Z
	??$_Unchecked_move_backward@PAPAULineBuffer@?A0xe06365b4@Imf@@PAPAU123@@stdext@@YAPAPAULineBuffer@?A0xe06365b4@Imf@@PAPAU123@00@Z
	??$unchecked_uninitialized_copy@PAUInSliceInfo@?A0xe06365b4@Imf@@PAU123@V?$allocator@UInSliceInfo@?A0xe06365b4@Imf@@@std@@@stdext@@YAPAUInSliceInfo@?A0xe06365b4@Imf@@PAU123@00AAV?$allocator@UInSliceInfo@?A0xe06365b4@Imf@@@std@@@Z
	??$_Destroy_range@UInSliceInfo@?A0xe06365b4@Imf@@V?$allocator@UInSliceInfo@?A0xe06365b4@Imf@@@std@@@std@@YAXPAUInSliceInfo@?A0xe06365b4@Imf@@0AAV?$allocator@UInSliceInfo@?A0xe06365b4@Imf@@@0@U_Nonscalar_ptr_iterator_tag@0@@Z
	??$_Uninit_fill_n@PAUInSliceInfo@?A0xe06365b4@Imf@@IU123@V?$allocator@UInSliceInfo@?A0xe06365b4@Imf@@@std@@@std@@YAXPAUInSliceInfo@?A0xe06365b4@Imf@@IABU123@AAV?$allocator@UInSliceInfo@?A0xe06365b4@Imf@@@0@U_Nonscalar_ptr_iterator_tag@0@U_Range_checked_iterator_tag@0@@Z
	??$_Move_backward_opt@PAUInSliceInfo@?A0xe06365b4@Imf@@PAU123@Urandom_access_iterator_tag@std@@U_Undefined_move_tag@5@@std@@YAPAUInSliceInfo@?A0xe06365b4@Imf@@PAU123@00Urandom_access_iterator_tag@0@U_Undefined_move_tag@0@U_Range_checked_iterator_tag@0@@Z
	??$_Uninit_move@PA_KPA_KV?$allocator@_K@std@@U_Undefined_move_tag@2@@std@@YAPA_KPA_K00AAV?$allocator@_K@0@U_Undefined_move_tag@0@U_Range_checked_iterator_tag@0@@Z
	??$_Uninit_move@PAUInSliceInfo@?A0xe06365b4@Imf@@PAU123@V?$allocator@UInSliceInfo@?A0xe06365b4@Imf@@@std@@U_Undefined_move_tag@5@@std@@YAPAUInSliceInfo@?A0xe06365b4@Imf@@PAU123@00AAV?$allocator@UInSliceInfo@?A0xe06365b4@Imf@@@0@U_Undefined_move_tag@0@U_Range_checked_iterator_tag@0@@Z
	??$_Uninit_move@PAPAULineBuffer@?A0xe06365b4@Imf@@PAPAU123@V?$allocator@PAULineBuffer@?A0xe06365b4@Imf@@@std@@U_Undefined_move_tag@5@@std@@YAPAPAULineBuffer@?A0xe06365b4@Imf@@PAPAU123@00AAV?$allocator@PAULineBuffer@?A0xe06365b4@Imf@@@0@U_Undefined_move_tag@0@U_Range_checked_iterator_tag@0@@Z
	??$unchecked_fill_n@PAPAULineBuffer@?A0xe06365b4@Imf@@IPAU123@@stdext@@YAXPAPAULineBuffer@?A0xe06365b4@Imf@@IABQAU123@@Z
	??EConstIterator@FrameBuffer@Imf@@QAEAAV012@XZ
	??Eiterator@?$_Tree@V?$_Tmap_traits@VName@Imf@@USlice@2@U?$less@VName@Imf@@@std@@V?$allocator@U?$pair@$$CBVName@Imf@@USlice@2@@std@@@5@$0A@@std@@@std@@QAEAAV012@XZ
	??Econst_iterator@?$_Tree@V?$_Tmap_traits@VName@Imf@@UChannel@2@U?$less@VName@Imf@@@std@@V?$allocator@U?$pair@$$CBVName@Imf@@UChannel@2@@std@@@5@$0A@@std@@@std@@QAEAAV012@XZ
	??0?$vector@_KV?$allocator@_K@std@@@std@@QAE@XZ
	??0?$vector@IV?$allocator@I@std@@@std@@QAE@XZ
	??0?$vector@UInSliceInfo@?A0xe06365b4@Imf@@V?$allocator@UInSliceInfo@?A0xe06365b4@Imf@@@std@@@std@@QAE@XZ
	??0?$vector@PAULineBuffer@?A0xe06365b4@Imf@@V?$allocator@PAULineBuffer@?A0xe06365b4@Imf@@@std@@@std@@QAE@XZ
	?end@?$vector@UInSliceInfo@?A0xe06365b4@Imf@@V?$allocator@UInSliceInfo@?A0xe06365b4@Imf@@@std@@@std@@QAE?AV?$_Vector_iterator@UInSliceInfo@?A0xe06365b4@Imf@@V?$allocator@UInSliceInfo@?A0xe06365b4@Imf@@@std@@@2@XZ
	?_Tidy@?$vector@PAULineBuffer@?A0xe06365b4@Imf@@V?$allocator@PAULineBuffer@?A0xe06365b4@Imf@@@std@@@std@@IAEXXZ
	??0?$_Tree_val@V?$_Tmap_traits@VName@Imf@@USlice@2@U?$less@VName@Imf@@@std@@V?$allocator@U?$pair@$$CBVName@Imf@@USlice@2@@std@@@5@$0A@@std@@@std@@IAE@ABU?$less@VName@Imf@@@1@V?$allocator@U?$pair@$$CBVName@Imf@@USlice@2@@std@@@1@@Z
	??Eiterator@?$_Tree@V?$_Tmap_traits@VName@Imf@@USlice@2@U?$less@VName@Imf@@@std@@V?$allocator@U?$pair@$$CBVName@Imf@@USlice@2@@std@@@5@$0A@@std@@@std@@QAE?AV012@H@Z
	?begin@?$vector@_KV?$allocator@_K@std@@@std@@QAE?AV?$_Vector_iterator@_KV?$allocator@_K@std@@@2@XZ
	?end@?$vector@_KV?$allocator@_K@std@@@std@@QAE?AV?$_Vector_iterator@_KV?$allocator@_K@std@@@2@XZ
	?begin@?$vector@UInSliceInfo@?A0xe06365b4@Imf@@V?$allocator@UInSliceInfo@?A0xe06365b4@Imf@@@std@@@std@@QAE?AV?$_Vector_iterator@UInSliceInfo@?A0xe06365b4@Imf@@V?$allocator@UInSliceInfo@?A0xe06365b4@Imf@@@std@@@2@XZ
	?begin@?$vector@PAULineBuffer@?A0xe06365b4@Imf@@V?$allocator@PAULineBuffer@?A0xe06365b4@Imf@@@std@@@std@@QAE?AV?$_Vector_iterator@PAULineBuffer@?A0xe06365b4@Imf@@V?$allocator@PAULineBuffer@?A0xe06365b4@Imf@@@std@@@2@XZ
	?end@?$vector@PAULineBuffer@?A0xe06365b4@Imf@@V?$allocator@PAULineBuffer@?A0xe06365b4@Imf@@@std@@@std@@QAE?AV?$_Vector_iterator@PAULineBuffer@?A0xe06365b4@Imf@@V?$allocator@PAULineBuffer@?A0xe06365b4@Imf@@@std@@@2@XZ
	?erase@?$vector@PAULineBuffer@?A0xe06365b4@Imf@@V?$allocator@PAULineBuffer@?A0xe06365b4@Imf@@@std@@@std@@QAE?AV?$_Vector_iterator@PAULineBuffer@?A0xe06365b4@Imf@@V?$allocator@PAULineBuffer@?A0xe06365b4@Imf@@@std@@@2@V32@0@Z
	??$_Ucopy@PAUInSliceInfo@?A0xe06365b4@Imf@@@?$vector@UInSliceInfo@?A0xe06365b4@Imf@@V?$allocator@UInSliceInfo@?A0xe06365b4@Imf@@@std@@@std@@IAEPAUInSliceInfo@?A0xe06365b4@Imf@@PAU234@00@Z
	??$_Destroy_range@UInSliceInfo@?A0xe06365b4@Imf@@V?$allocator@UInSliceInfo@?A0xe06365b4@Imf@@@std@@@std@@YAXPAUInSliceInfo@?A0xe06365b4@Imf@@0AAV?$allocator@UInSliceInfo@?A0xe06365b4@Imf@@@0@@Z
	??$unchecked_uninitialized_fill_n@PAUInSliceInfo@?A0xe06365b4@Imf@@IU123@V?$allocator@UInSliceInfo@?A0xe06365b4@Imf@@@std@@@stdext@@YAXPAUInSliceInfo@?A0xe06365b4@Imf@@IABU123@AAV?$allocator@UInSliceInfo@?A0xe06365b4@Imf@@@std@@@Z
	??$_Unchecked_move_backward@PAUInSliceInfo@?A0xe06365b4@Imf@@PAU123@@stdext@@YAPAUInSliceInfo@?A0xe06365b4@Imf@@PAU123@00@Z
	??$_Unchecked_uninitialized_move@PAUInSliceInfo@?A0xe06365b4@Imf@@PAU123@V?$allocator@UInSliceInfo@?A0xe06365b4@Imf@@@std@@@stdext@@YAPAUInSliceInfo@?A0xe06365b4@Imf@@PAU123@00AAV?$allocator@UInSliceInfo@?A0xe06365b4@Imf@@@std@@@Z
	??$_Unchecked_uninitialized_move@PAPAULineBuffer@?A0xe06365b4@Imf@@PAPAU123@V?$allocator@PAULineBuffer@?A0xe06365b4@Imf@@@std@@@stdext@@YAPAPAULineBuffer@?A0xe06365b4@Imf@@PAPAU123@00AAV?$allocator@PAULineBuffer@?A0xe06365b4@Imf@@@std@@@Z
	??$_Uninit_fill_n@PA_KI_KV?$allocator@_K@std@@@std@@YAXPA_KIAB_KAAV?$allocator@_K@0@U_Scalar_ptr_iterator_tag@0@U_Range_checked_iterator_tag@0@@Z
	??$_Uninit_fill_n@PAPAULineBuffer@?A0xe06365b4@Imf@@IPAU123@V?$allocator@PAULineBuffer@?A0xe06365b4@Imf@@@std@@@std@@YAXPAPAULineBuffer@?A0xe06365b4@Imf@@IABQAU123@AAV?$allocator@PAULineBuffer@?A0xe06365b4@Imf@@@0@U_Scalar_ptr_iterator_tag@0@U_Range_checked_iterator_tag@0@@Z
	??EConstIterator@ChannelList@Imf@@QAEAAV012@XZ
	??1?$vector@PAULineBuffer@?A0xe06365b4@Imf@@V?$allocator@PAULineBuffer@?A0xe06365b4@Imf@@@std@@@std@@QAE@XZ
	??0?$_Tree@V?$_Tmap_traits@VName@Imf@@USlice@2@U?$less@VName@Imf@@@std@@V?$allocator@U?$pair@$$CBVName@Imf@@USlice@2@@std@@@5@$0A@@std@@@std@@QAE@ABU?$less@VName@Imf@@@1@ABV?$allocator@U?$pair@$$CBVName@Imf@@USlice@2@@std@@@1@@Z
	?_Destroy@?$vector@UInSliceInfo@?A0xe06365b4@Imf@@V?$allocator@UInSliceInfo@?A0xe06365b4@Imf@@@std@@@std@@IAEXPAUInSliceInfo@?A0xe06365b4@Imf@@0@Z
	?_Tidy@?$vector@UInSliceInfo@?A0xe06365b4@Imf@@V?$allocator@UInSliceInfo@?A0xe06365b4@Imf@@@std@@@std@@IAEXXZ
	?_Ufill@?$vector@UInSliceInfo@?A0xe06365b4@Imf@@V?$allocator@UInSliceInfo@?A0xe06365b4@Imf@@@std@@@std@@IAEPAUInSliceInfo@?A0xe06365b4@Imf@@PAU345@IABU345@@Z
	?erase@?$vector@UInSliceInfo@?A0xe06365b4@Imf@@V?$allocator@UInSliceInfo@?A0xe06365b4@Imf@@@std@@@std@@QAE?AV?$_Vector_iterator@UInSliceInfo@?A0xe06365b4@Imf@@V?$allocator@UInSliceInfo@?A0xe06365b4@Imf@@@std@@@2@V32@0@Z
	??$_Umove@PA_K@?$vector@_KV?$allocator@_K@std@@@std@@IAEPA_KPA_K00@Z
	??$_Umove@PAUInSliceInfo@?A0xe06365b4@Imf@@@?$vector@UInSliceInfo@?A0xe06365b4@Imf@@V?$allocator@UInSliceInfo@?A0xe06365b4@Imf@@@std@@@std@@IAEPAUInSliceInfo@?A0xe06365b4@Imf@@PAU234@00@Z
	??$_Umove@PAPAULineBuffer@?A0xe06365b4@Imf@@@?$vector@PAULineBuffer@?A0xe06365b4@Imf@@V?$allocator@PAULineBuffer@?A0xe06365b4@Imf@@@std@@@std@@IAEPAPAULineBuffer@?A0xe06365b4@Imf@@PAPAU234@00@Z
	??$unchecked_uninitialized_fill_n@PA_KI_KV?$allocator@_K@std@@@stdext@@YAXPA_KIAB_KAAV?$allocator@_K@std@@@Z
	??$unchecked_uninitialized_fill_n@PAPAULineBuffer@?A0xe06365b4@Imf@@IPAU123@V?$allocator@PAULineBuffer@?A0xe06365b4@Imf@@@std@@@stdext@@YAXPAPAULineBuffer@?A0xe06365b4@Imf@@IABQAU123@AAV?$allocator@PAULineBuffer@?A0xe06365b4@Imf@@@std@@@Z
	??1?$_Tree@V?$_Tmap_traits@VName@Imf@@USlice@2@U?$less@VName@Imf@@@std@@V?$allocator@U?$pair@$$CBVName@Imf@@USlice@2@@std@@@5@$0A@@std@@@std@@QAE@XZ
	??1?$vector@UInSliceInfo@?A0xe06365b4@Imf@@V?$allocator@UInSliceInfo@?A0xe06365b4@Imf@@@std@@@std@@QAE@XZ
	?clear@?$vector@UInSliceInfo@?A0xe06365b4@Imf@@V?$allocator@UInSliceInfo@?A0xe06365b4@Imf@@@std@@@std@@QAEXXZ
	?_Insert_n@?$vector@UInSliceInfo@?A0xe06365b4@Imf@@V?$allocator@UInSliceInfo@?A0xe06365b4@Imf@@@std@@@std@@IAEXV?$_Vector_iterator@UInSliceInfo@?A0xe06365b4@Imf@@V?$allocator@UInSliceInfo@?A0xe06365b4@Imf@@@std@@@2@IABUInSliceInfo@?A0xe06365b4@Imf@@@Z
	?_Ufill@?$vector@PAULineBuffer@?A0xe06365b4@Imf@@V?$allocator@PAULineBuffer@?A0xe06365b4@Imf@@@std@@@std@@IAEPAPAULineBuffer@?A0xe06365b4@Imf@@PAPAU345@IABQAU345@@Z
	??1?$map@VName@Imf@@USlice@2@U?$less@VName@Imf@@@std@@V?$allocator@U?$pair@$$CBVName@Imf@@USlice@2@@std@@@5@@std@@QAE@XZ
	??4?$map@VName@Imf@@USlice@2@U?$less@VName@Imf@@@std@@V?$allocator@U?$pair@$$CBVName@Imf@@USlice@2@@std@@@5@@std@@QAEAAV01@ABV01@@Z
	??4?$vector@UInSliceInfo@?A0xe06365b4@Imf@@V?$allocator@UInSliceInfo@?A0xe06365b4@Imf@@@std@@@std@@QAEAAV01@ABV01@@Z
	?insert@?$vector@UInSliceInfo@?A0xe06365b4@Imf@@V?$allocator@UInSliceInfo@?A0xe06365b4@Imf@@@std@@@std@@QAE?AV?$_Vector_iterator@UInSliceInfo@?A0xe06365b4@Imf@@V?$allocator@UInSliceInfo@?A0xe06365b4@Imf@@@std@@@2@V32@ABUInSliceInfo@?A0xe06365b4@Imf@@@Z
	?_Insert_n@?$vector@PAULineBuffer@?A0xe06365b4@Imf@@V?$allocator@PAULineBuffer@?A0xe06365b4@Imf@@@std@@@std@@IAEXV?$_Vector_iterator@PAULineBuffer@?A0xe06365b4@Imf@@V?$allocator@PAULineBuffer@?A0xe06365b4@Imf@@@std@@@2@IABQAULineBuffer@?A0xe06365b4@Imf@@@Z
	??0FrameBuffer@Imf@@QAE@XZ
	??4FrameBuffer@Imf@@QAEAAV01@ABV01@@Z
	?push_back@?$vector@UInSliceInfo@?A0xe06365b4@Imf@@V?$allocator@UInSliceInfo@?A0xe06365b4@Imf@@@std@@@std@@QAEXABUInSliceInfo@?A0xe06365b4@Imf@@@Z
	?resize@?$vector@PAULineBuffer@?A0xe06365b4@Imf@@V?$allocator@PAULineBuffer@?A0xe06365b4@Imf@@@std@@@std@@QAEXIPAULineBuffer@?A0xe06365b4@Imf@@@Z
	?resize@?$vector@_KV?$allocator@_K@std@@@std@@QAEXI@Z
	?resize@?$vector@PAULineBuffer@?A0xe06365b4@Imf@@V?$allocator@PAULineBuffer@?A0xe06365b4@Imf@@@std@@@std@@QAEXI@Z
	?addChromaticities@Imf@@YAXAAVHeader@1@ABUChromaticities@1@@Z
	?hasChromaticities@Imf@@YA_NABVHeader@1@@Z
	?chromaticitiesAttribute@Imf@@YAABV?$TypedAttribute@UChromaticities@Imf@@@1@ABVHeader@1@@Z
	?chromaticitiesAttribute@Imf@@YAAAV?$TypedAttribute@UChromaticities@Imf@@@1@AAVHeader@1@@Z
	?chromaticities@Imf@@YAABUChromaticities@1@ABVHeader@1@@Z
	?chromaticities@Imf@@YAAAUChromaticities@1@AAVHeader@1@@Z
	?addWhiteLuminance@Imf@@YAXAAVHeader@1@ABM@Z
	?hasWhiteLuminance@Imf@@YA_NABVHeader@1@@Z
	?whiteLuminanceAttribute@Imf@@YAABV?$TypedAttribute@M@1@ABVHeader@1@@Z
	?whiteLuminanceAttribute@Imf@@YAAAV?$TypedAttribute@M@1@AAVHeader@1@@Z
	?whiteLuminance@Imf@@YAABMABVHeader@1@@Z
	?whiteLuminance@Imf@@YAAAMAAVHeader@1@@Z
	?addXDensity@Imf@@YAXAAVHeader@1@ABM@Z
	?hasXDensity@Imf@@YA_NABVHeader@1@@Z
	?xDensityAttribute@Imf@@YAABV?$TypedAttribute@M@1@ABVHeader@1@@Z
	?xDensityAttribute@Imf@@YAAAV?$TypedAttribute@M@1@AAVHeader@1@@Z
	?xDensity@Imf@@YAABMABVHeader@1@@Z
	?xDensity@Imf@@YAAAMAAVHeader@1@@Z
	?addOwner@Imf@@YAXAAVHeader@1@ABV?$basic_string@DU?$char_traits@D@std@@V?$allocator@D@2@@std@@@Z
	?hasOwner@Imf@@YA_NABVHeader@1@@Z
	?ownerAttribute@Imf@@YAABV?$TypedAttribute@V?$basic_string@DU?$char_traits@D@std@@V?$allocator@D@2@@std@@@1@ABVHeader@1@@Z
	?ownerAttribute@Imf@@YAAAV?$TypedAttribute@V?$basic_string@DU?$char_traits@D@std@@V?$allocator@D@2@@std@@@1@AAVHeader@1@@Z
	?owner@Imf@@YAABV?$basic_string@DU?$char_traits@D@std@@V?$allocator@D@2@@std@@ABVHeader@1@@Z
	?owner@Imf@@YAAAV?$basic_string@DU?$char_traits@D@std@@V?$allocator@D@2@@std@@AAVHeader@1@@Z
	?addComments@Imf@@YAXAAVHeader@1@ABV?$basic_string@DU?$char_traits@D@std@@V?$allocator@D@2@@std@@@Z
	?hasComments@Imf@@YA_NABVHeader@1@@Z
	?commentsAttribute@Imf@@YAABV?$TypedAttribute@V?$basic_string@DU?$char_traits@D@std@@V?$allocator@D@2@@std@@@1@ABVHeader@1@@Z
	?commentsAttribute@Imf@@YAAAV?$TypedAttribute@V?$basic_string@DU?$char_traits@D@std@@V?$allocator@D@2@@std@@@1@AAVHeader@1@@Z
	?comments@Imf@@YAABV?$basic_string@DU?$char_traits@D@std@@V?$allocator@D@2@@std@@ABVHeader@1@@Z
	?comments@Imf@@YAAAV?$basic_string@DU?$char_traits@D@std@@V?$allocator@D@2@@std@@AAVHeader@1@@Z
	?addCapDate@Imf@@YAXAAVHeader@1@ABV?$basic_string@DU?$char_traits@D@std@@V?$allocator@D@2@@std@@@Z
	?hasCapDate@Imf@@YA_NABVHeader@1@@Z
	?capDateAttribute@Imf@@YAABV?$TypedAttribute@V?$basic_string@DU?$char_traits@D@std@@V?$allocator@D@2@@std@@@1@ABVHeader@1@@Z
	?capDateAttribute@Imf@@YAAAV?$TypedAttribute@V?$basic_string@DU?$char_traits@D@std@@V?$allocator@D@2@@std@@@1@AAVHeader@1@@Z
	?capDate@Imf@@YAABV?$basic_string@DU?$char_traits@D@std@@V?$allocator@D@2@@std@@ABVHeader@1@@Z
	?capDate@Imf@@YAAAV?$basic_string@DU?$char_traits@D@std@@V?$allocator@D@2@@std@@AAVHeader@1@@Z
	?addutcOffset@Imf@@YAXAAVHeader@1@ABM@Z
	?hasutcOffset@Imf@@YA_NABVHeader@1@@Z
	?utcOffsetAttribute@Imf@@YAABV?$TypedAttribute@M@1@ABVHeader@1@@Z
	?utcOffsetAttribute@Imf@@YAAAV?$TypedAttribute@M@1@AAVHeader@1@@Z
	?utcOffset@Imf@@YAABMABVHeader@1@@Z
	?utcOffset@Imf@@YAAAMAAVHeader@1@@Z
	?addLongitude@Imf@@YAXAAVHeader@1@ABM@Z
	?hasLongitude@Imf@@YA_NABVHeader@1@@Z
	?longitudeAttribute@Imf@@YAABV?$TypedAttribute@M@1@ABVHeader@1@@Z
	?longitudeAttribute@Imf@@YAAAV?$TypedAttribute@M@1@AAVHeader@1@@Z
	?longitude@Imf@@YAABMABVHeader@1@@Z
	?longitude@Imf@@YAAAMAAVHeader@1@@Z
	?addLatitude@Imf@@YAXAAVHeader@1@ABM@Z
	?hasLatitude@Imf@@YA_NABVHeader@1@@Z
	?latitudeAttribute@Imf@@YAABV?$TypedAttribute@M@1@ABVHeader@1@@Z
	?latitudeAttribute@Imf@@YAAAV?$TypedAttribute@M@1@AAVHeader@1@@Z
	?latitude@Imf@@YAABMABVHeader@1@@Z
	?latitude@Imf@@YAAAMAAVHeader@1@@Z
	?addAltitude@Imf@@YAXAAVHeader@1@ABM@Z
	?hasAltitude@Imf@@YA_NABVHeader@1@@Z
	?altitudeAttribute@Imf@@YAABV?$TypedAttribute@M@1@ABVHeader@1@@Z
	?altitudeAttribute@Imf@@YAAAV?$TypedAttribute@M@1@AAVHeader@1@@Z
	?altitude@Imf@@YAABMABVHeader@1@@Z
	?altitude@Imf@@YAAAMAAVHeader@1@@Z
	?addFocus@Imf@@YAXAAVHeader@1@ABM@Z
	?hasFocus@Imf@@YA_NABVHeader@1@@Z
	?focusAttribute@Imf@@YAABV?$TypedAttribute@M@1@ABVHeader@1@@Z
	?focusAttribute@Imf@@YAAAV?$TypedAttribute@M@1@AAVHeader@1@@Z
	?focus@Imf@@YAABMABVHeader@1@@Z
	?focus@Imf@@YAAAMAAVHeader@1@@Z
	?addExpTime@Imf@@YAXAAVHeader@1@ABM@Z
	?hasExpTime@Imf@@YA_NABVHeader@1@@Z
	?expTimeAttribute@Imf@@YAABV?$TypedAttribute@M@1@ABVHeader@1@@Z
	?expTimeAttribute@Imf@@YAAAV?$TypedAttribute@M@1@AAVHeader@1@@Z
	?expTime@Imf@@YAABMABVHeader@1@@Z
	?expTime@Imf@@YAAAMAAVHeader@1@@Z
	?addAperture@Imf@@YAXAAVHeader@1@ABM@Z
	?hasAperture@Imf@@YA_NABVHeader@1@@Z
	?apertureAttribute@Imf@@YAABV?$TypedAttribute@M@1@ABVHeader@1@@Z
	?apertureAttribute@Imf@@YAAAV?$TypedAttribute@M@1@AAVHeader@1@@Z
	?aperture@Imf@@YAABMABVHeader@1@@Z
	?aperture@Imf@@YAAAMAAVHeader@1@@Z
	?addIsoSpeed@Imf@@YAXAAVHeader@1@ABM@Z
	?hasIsoSpeed@Imf@@YA_NABVHeader@1@@Z
	?isoSpeedAttribute@Imf@@YAABV?$TypedAttribute@M@1@ABVHeader@1@@Z
	?isoSpeedAttribute@Imf@@YAAAV?$TypedAttribute@M@1@AAVHeader@1@@Z
	?isoSpeed@Imf@@YAABMABVHeader@1@@Z
	?isoSpeed@Imf@@YAAAMAAVHeader@1@@Z
	?addEnvmap@Imf@@YAXAAVHeader@1@ABW4Envmap@1@@Z
	?hasEnvmap@Imf@@YA_NABVHeader@1@@Z
	?envmapAttribute@Imf@@YAABV?$TypedAttribute@W4Envmap@Imf@@@1@ABVHeader@1@@Z
	?envmapAttribute@Imf@@YAAAV?$TypedAttribute@W4Envmap@Imf@@@1@AAVHeader@1@@Z
	?envmap@Imf@@YAABW4Envmap@1@ABVHeader@1@@Z
	?envmap@Imf@@YAAAW4Envmap@1@AAVHeader@1@@Z
	?addKeyCode@Imf@@YAXAAVHeader@1@ABVKeyCode@1@@Z
	?hasKeyCode@Imf@@YA_NABVHeader@1@@Z
	?keyCodeAttribute@Imf@@YAABV?$TypedAttribute@VKeyCode@Imf@@@1@ABVHeader@1@@Z
	?keyCodeAttribute@Imf@@YAAAV?$TypedAttribute@VKeyCode@Imf@@@1@AAVHeader@1@@Z
	?keyCode@Imf@@YAABVKeyCode@1@ABVHeader@1@@Z
	?keyCode@Imf@@YAAAVKeyCode@1@AAVHeader@1@@Z
	?addTimeCode@Imf@@YAXAAVHeader@1@ABVTimeCode@1@@Z
	?hasTimeCode@Imf@@YA_NABVHeader@1@@Z
	?timeCodeAttribute@Imf@@YAABV?$TypedAttribute@VTimeCode@Imf@@@1@ABVHeader@1@@Z
	?timeCodeAttribute@Imf@@YAAAV?$TypedAttribute@VTimeCode@Imf@@@1@AAVHeader@1@@Z
	?timeCode@Imf@@YAABVTimeCode@1@ABVHeader@1@@Z
	?timeCode@Imf@@YAAAVTimeCode@1@AAVHeader@1@@Z
	?addWrapmodes@Imf@@YAXAAVHeader@1@ABV?$basic_string@DU?$char_traits@D@std@@V?$allocator@D@2@@std@@@Z
	?hasWrapmodes@Imf@@YA_NABVHeader@1@@Z
	?wrapmodesAttribute@Imf@@YAABV?$TypedAttribute@V?$basic_string@DU?$char_traits@D@std@@V?$allocator@D@2@@std@@@1@ABVHeader@1@@Z
	?wrapmodesAttribute@Imf@@YAAAV?$TypedAttribute@V?$basic_string@DU?$char_traits@D@std@@V?$allocator@D@2@@std@@@1@AAVHeader@1@@Z
	?wrapmodes@Imf@@YAABV?$basic_string@DU?$char_traits@D@std@@V?$allocator@D@2@@std@@ABVHeader@1@@Z
	?wrapmodes@Imf@@YAAAV?$basic_string@DU?$char_traits@D@std@@V?$allocator@D@2@@std@@AAVHeader@1@@Z
	??0?$TypedAttribute@UChromaticities@Imf@@@Imf@@QAE@ABUChromaticities@1@@Z
	??0?$TypedAttribute@W4Envmap@Imf@@@Imf@@QAE@ABW4Envmap@1@@Z
	??0?$TypedAttribute@VKeyCode@Imf@@@Imf@@QAE@ABVKeyCode@1@@Z
	??0?$TypedAttribute@VTimeCode@Imf@@@Imf@@QAE@ABVTimeCode@1@@Z
	??$findTypedAttribute@V?$TypedAttribute@UChromaticities@Imf@@@Imf@@@Header@Imf@@QBEPBV?$TypedAttribute@UChromaticities@Imf@@@1@QBD@Z
	??$typedAttribute@V?$TypedAttribute@UChromaticities@Imf@@@Imf@@@Header@Imf@@QBEABV?$TypedAttribute@UChromaticities@Imf@@@1@QBD@Z
	??$typedAttribute@V?$TypedAttribute@UChromaticities@Imf@@@Imf@@@Header@Imf@@QAEAAV?$TypedAttribute@UChromaticities@Imf@@@1@QBD@Z
	??$findTypedAttribute@V?$TypedAttribute@M@Imf@@@Header@Imf@@QBEPBV?$TypedAttribute@M@1@QBD@Z
	??$findTypedAttribute@V?$TypedAttribute@V?$basic_string@DU?$char_traits@D@std@@V?$allocator@D@2@@std@@@Imf@@@Header@Imf@@QBEPBV?$TypedAttribute@V?$basic_string@DU?$char_traits@D@std@@V?$allocator@D@2@@std@@@1@QBD@Z
	??$findTypedAttribute@V?$TypedAttribute@W4Envmap@Imf@@@Imf@@@Header@Imf@@QBEPBV?$TypedAttribute@W4Envmap@Imf@@@1@QBD@Z
	??$typedAttribute@V?$TypedAttribute@W4Envmap@Imf@@@Imf@@@Header@Imf@@QBEABV?$TypedAttribute@W4Envmap@Imf@@@1@QBD@Z
	??$typedAttribute@V?$TypedAttribute@W4Envmap@Imf@@@Imf@@@Header@Imf@@QAEAAV?$TypedAttribute@W4Envmap@Imf@@@1@QBD@Z
	??$findTypedAttribute@V?$TypedAttribute@VKeyCode@Imf@@@Imf@@@Header@Imf@@QBEPBV?$TypedAttribute@VKeyCode@Imf@@@1@QBD@Z
	??$typedAttribute@V?$TypedAttribute@VKeyCode@Imf@@@Imf@@@Header@Imf@@QBEABV?$TypedAttribute@VKeyCode@Imf@@@1@QBD@Z
	??$typedAttribute@V?$TypedAttribute@VKeyCode@Imf@@@Imf@@@Header@Imf@@QAEAAV?$TypedAttribute@VKeyCode@Imf@@@1@QBD@Z
	??$findTypedAttribute@V?$TypedAttribute@VTimeCode@Imf@@@Imf@@@Header@Imf@@QBEPBV?$TypedAttribute@VTimeCode@Imf@@@1@QBD@Z
	??$typedAttribute@V?$TypedAttribute@VTimeCode@Imf@@@Imf@@@Header@Imf@@QBEABV?$TypedAttribute@VTimeCode@Imf@@@1@QBD@Z
	??$typedAttribute@V?$TypedAttribute@VTimeCode@Imf@@@Imf@@@Header@Imf@@QAEAAV?$TypedAttribute@VTimeCode@Imf@@@1@QBD@Z
	??0ErrnoExc@Iex@@QAE@PBD@Z
	??1ErrnoExc@Iex@@UAE@XZ
	?clearError@?A0x3b65d326@Imf@@YAXXZ
	?checkError@?A0x3b65d326@Imf@@YA_NAAV?$basic_istream@DU?$char_traits@D@std@@@std@@@Z
	?checkError@?A0x3b65d326@Imf@@YAXAAV?$basic_ostream@DU?$char_traits@D@std@@@std@@@Z
	??0StdIFStream@Imf@@QAE@QBD@Z
	??0StdIFStream@Imf@@QAE@AAV?$basic_ifstream@DU?$char_traits@D@std@@@std@@QBD@Z
	??1StdIFStream@Imf@@UAE@XZ
	?read@StdIFStream@Imf@@UAE_NQADH@Z
	?clear@StdIFStream@Imf@@UAEXXZ
	??0StdOFStream@Imf@@QAE@QBD@Z
	??0StdOFStream@Imf@@QAE@AAV?$basic_ofstream@DU?$char_traits@D@std@@@std@@QBD@Z
	??1StdOFStream@Imf@@UAE@XZ
	?write@StdOFStream@Imf@@UAEXQBDH@Z
	??0StdOSStream@Imf@@QAE@XZ
	?write@StdOSStream@Imf@@UAEXQBDH@Z
	?tellg@StdIFStream@Imf@@UAE_KXZ
	?seekg@StdIFStream@Imf@@UAEX_K@Z
	?tellp@StdOFStream@Imf@@UAE_KXZ
	?seekp@StdOFStream@Imf@@UAEX_K@Z
	?tellp@StdOSStream@Imf@@UAE_KXZ
	?seekp@StdOSStream@Imf@@UAEX_K@Z
	??0ErrnoExc@Iex@@QAE@ABV01@@Z
	??0?$fpos@H@std@@QAE@J@Z
	??B?$fpos@H@std@@QBEJXZ
	?staticTypeName@?$TypedAttribute@V?$basic_string@DU?$char_traits@D@std@@V?$allocator@D@2@@std@@@Imf@@SAPBDXZ
	?writeValueTo@?$TypedAttribute@V?$basic_string@DU?$char_traits@D@std@@V?$allocator@D@2@@std@@@Imf@@UBEXAAVOStream@2@H@Z
	?readValueFrom@?$TypedAttribute@V?$basic_string@DU?$char_traits@D@std@@V?$allocator@D@2@@std@@@Imf@@UAEXAAVIStream@2@HH@Z
	?isTiled@Imf@@YA_NH@Z
	??$readSignedChars@UStreamIO@Imf@@VStdIFStream@2@@Xdr@Imf@@YAXAAVStdIFStream@1@QACH@Z
	??$read@UStreamIO@Imf@@VStdIFStream@2@@Xdr@Imf@@YAXAAVStdIFStream@1@AAH@Z
	?isOpenExrFile@Imf@@YA_NQBDAA_N@Z
	?isOpenExrFile@Imf@@YA_NQBD@Z
	?isTiledOpenExrFile@Imf@@YA_NQBD@Z
	?isOpenExrFile@Imf@@YA_NAAVIStream@1@AA_N@Z
	?isOpenExrFile@Imf@@YA_NAAVIStream@1@@Z
	?isTiledOpenExrFile@Imf@@YA_NAAVIStream@1@@Z
	?globalThreadCount@Imf@@YAHXZ
	?setGlobalThreadCount@Imf@@YAXH@Z
	?staticTypeName@?$TypedAttribute@VTileDescription@Imf@@@Imf@@SAPBDXZ
	?writeValueTo@?$TypedAttribute@VTileDescription@Imf@@@Imf@@UBEXAAVOStream@2@H@Z
	?readValueFrom@?$TypedAttribute@VTileDescription@Imf@@@Imf@@UAEXAAVIStream@2@HH@Z
	??$read@UStreamIO@Imf@@VIStream@2@@Xdr@Imf@@YAXAAVIStream@1@AAI@Z
	??0TileDescription@Imf@@QAE@IIW4LevelMode@1@W4LevelRoundingMode@1@@Z
	??0LogicExc@Iex@@QAE@AAV?$basic_stringstream@DU?$char_traits@D@std@@V?$allocator@D@2@@std@@@Z
	??$size@H@Xdr@Imf@@YAHXZ
	??0TInSliceInfo@?A0xf349abed@Imf@@QAE@W4PixelType@2@0PADII_N2NHH@Z
	??0TileBuffer@?A0xf349abed@Imf@@QAE@QAVCompressor@2@@Z
	??1TileBuffer@?A0xf349abed@Imf@@QAE@XZ
	??0TileBufferTask@?A0xf349abed@Imf@@QAE@PAVTaskGroup@IlmThread@@PAUData@TiledInputFile@2@PAUTileBuffer@12@@Z
	??1TileBufferTask@?A0xf349abed@Imf@@UAE@XZ
	?fileName@TiledInputFile@Imf@@QBEPBDXZ
	?header@TiledInputFile@Imf@@QBEABVHeader@2@XZ
	?version@TiledInputFile@Imf@@QBEHXZ
	?frameBuffer@TiledInputFile@Imf@@QBEABVFrameBuffer@2@XZ
	?isComplete@TiledInputFile@Imf@@QBE_NXZ
	?tileXSize@TiledInputFile@Imf@@QBEIXZ
	?tileYSize@TiledInputFile@Imf@@QBEIXZ
	?levelMode@TiledInputFile@Imf@@QBE?AW4LevelMode@2@XZ
	?levelRoundingMode@TiledInputFile@Imf@@QBE?AW4LevelRoundingMode@2@XZ
	?numXLevels@TiledInputFile@Imf@@QBEHXZ
	?numYLevels@TiledInputFile@Imf@@QBEHXZ
	?isValidLevel@TiledInputFile@Imf@@QBE_NHH@Z
	?isValidTile@TiledInputFile@Imf@@ABE_NHHHH@Z
	??1TiledInputFile@Imf@@UAE@XZ
	?readTileData@?A0xf349abed@Imf@@YAXPAUData@TiledInputFile@2@HHHHAAPADAAH@Z
	?readNextTileData@?A0xf349abed@Imf@@YAXPAUData@TiledInputFile@2@AAH111AAPAD1@Z
	?execute@TileBufferTask@?A0xf349abed@Imf@@UAEXXZ
	?newTileBufferTask@?A0xf349abed@Imf@@YAPAVTileBufferTask@12@PAVTaskGroup@IlmThread@@PAUData@TiledInputFile@2@HHHHH@Z
	?readTiles@TiledInputFile@Imf@@QAEXHHHHHH@Z
	?readTiles@TiledInputFile@Imf@@QAEXHHHHH@Z
	?readTile@TiledInputFile@Imf@@QAEXHHHH@Z
	?readTile@TiledInputFile@Imf@@QAEXHHH@Z
	?rawTileData@TiledInputFile@Imf@@QAEXAAH000AAPBD0@Z
	?numLevels@TiledInputFile@Imf@@QBEHXZ
	?levelWidth@TiledInputFile@Imf@@QBEHH@Z
	?levelHeight@TiledInputFile@Imf@@QBEHH@Z
	?numXTiles@TiledInputFile@Imf@@QBEHH@Z
	?numYTiles@TiledInputFile@Imf@@QBEHH@Z
	?dataWindowForLevel@TiledInputFile@Imf@@QBE?AV?$Box@V?$Vec2@H@Imath@@@Imath@@HH@Z
	?dataWindowForTile@TiledInputFile@Imf@@QBE?AV?$Box@V?$Vec2@H@Imath@@@Imath@@HHHH@Z
	?dataWindowForLevel@TiledInputFile@Imf@@QBE?AV?$Box@V?$Vec2@H@Imath@@@Imath@@H@Z
	?dataWindowForTile@TiledInputFile@Imf@@QBE?AV?$Box@V?$Vec2@H@Imath@@@Imath@@HHH@Z
	?setFrameBuffer@TiledInputFile@Imf@@QAEXABVFrameBuffer@2@@Z
	??1Data@TiledInputFile@Imf@@UAE@XZ
	??0Data@TiledInputFile@Imf@@QAE@_NH@Z
	?initialize@TiledInputFile@Imf@@AAEXXZ
	??0TiledInputFile@Imf@@QAE@QBDH@Z
	??0TiledInputFile@Imf@@QAE@AAVIStream@1@H@Z
	??0TiledInputFile@Imf@@AAE@ABVHeader@1@PAVIStream@1@HH@Z
	?wait@TileBuffer@?A0xf349abed@Imf@@QAEXXZ
	?post@TileBuffer@?A0xf349abed@Imf@@QAEXXZ
	?size@?$vector@UTInSliceInfo@?A0xf349abed@Imf@@V?$allocator@UTInSliceInfo@?A0xf349abed@Imf@@@std@@@std@@QBEIXZ
	??A?$vector@UTInSliceInfo@?A0xf349abed@Imf@@V?$allocator@UTInSliceInfo@?A0xf349abed@Imf@@@std@@@std@@QAEAAUTInSliceInfo@?A0xf349abed@Imf@@I@Z
	?size@?$vector@PAUTileBuffer@?A0xf349abed@Imf@@V?$allocator@PAUTileBuffer@?A0xf349abed@Imf@@@std@@@std@@QBEIXZ
	??A?$vector@PAUTileBuffer@?A0xf349abed@Imf@@V?$allocator@PAUTileBuffer@?A0xf349abed@Imf@@@std@@@std@@QAEAAPAUTileBuffer@?A0xf349abed@Imf@@I@Z
	?capacity@?$vector@V?$vector@V?$vector@_KV?$allocator@_K@std@@@std@@V?$allocator@V?$vector@_KV?$allocator@_K@std@@@std@@@2@@std@@V?$allocator@V?$vector@V?$vector@_KV?$allocator@_K@std@@@std@@V?$allocator@V?$vector@_KV?$allocator@_K@std@@@std@@@2@@std@@@2@@std@@QBEIXZ
	?size@?$vector@V?$vector@V?$vector@_KV?$allocator@_K@std@@@std@@V?$allocator@V?$vector@_KV?$allocator@_K@std@@@std@@@2@@std@@V?$allocator@V?$vector@V?$vector@_KV?$allocator@_K@std@@@std@@V?$allocator@V?$vector@_KV?$allocator@_K@std@@@std@@@2@@std@@@2@@std@@QBEIXZ
	?deallocate@?$allocator@V?$vector@V?$vector@_KV?$allocator@_K@std@@@std@@V?$allocator@V?$vector@_KV?$allocator@_K@std@@@std@@@2@@std@@@std@@QAEXPAV?$vector@V?$vector@_KV?$allocator@_K@std@@@std@@V?$allocator@V?$vector@_KV?$allocator@_K@std@@@std@@@2@@2@I@Z
	?capacity@?$vector@UTInSliceInfo@?A0xf349abed@Imf@@V?$allocator@UTInSliceInfo@?A0xf349abed@Imf@@@std@@@std@@QBEIXZ
	??0?$allocator@UTInSliceInfo@?A0xf349abed@Imf@@@std@@QAE@XZ
	?deallocate@?$allocator@UTInSliceInfo@?A0xf349abed@Imf@@@std@@QAEXPAUTInSliceInfo@?A0xf349abed@Imf@@I@Z
	??0?$allocator@PAUTileBuffer@?A0xf349abed@Imf@@@std@@QAE@XZ
	?_Xlen@?$vector@V?$vector@V?$vector@_KV?$allocator@_K@std@@@std@@V?$allocator@V?$vector@_KV?$allocator@_K@std@@@std@@@2@@std@@V?$allocator@V?$vector@V?$vector@_KV?$allocator@_K@std@@@std@@V?$allocator@V?$vector@_KV?$allocator@_K@std@@@std@@@2@@std@@@2@@std@@KAXXZ
	?_Xlen@?$vector@UTInSliceInfo@?A0xf349abed@Imf@@V?$allocator@UTInSliceInfo@?A0xf349abed@Imf@@@std@@@std@@KAXXZ
	??0?$allocator@UTInSliceInfo@?A0xf349abed@Imf@@@std@@QAE@ABV01@@Z
	?_Xlen@?$vector@PAUTileBuffer@?A0xf349abed@Imf@@V?$allocator@PAUTileBuffer@?A0xf349abed@Imf@@@std@@@std@@KAXXZ
	??0?$allocator@PAUTileBuffer@?A0xf349abed@Imf@@@std@@QAE@ABV01@@Z
	?deallocate@?$allocator@PAUTileBuffer@?A0xf349abed@Imf@@@std@@QAEXPAPAUTileBuffer@?A0xf349abed@Imf@@I@Z
	?max_size@?$allocator@V?$vector@V?$vector@_KV?$allocator@_K@std@@@std@@V?$allocator@V?$vector@_KV?$allocator@_K@std@@@std@@@2@@std@@@std@@QBEIXZ
	?max_size@?$allocator@UTInSliceInfo@?A0xf349abed@Imf@@@std@@QBEIXZ
	?capacity@?$vector@PAUTileBuffer@?A0xf349abed@Imf@@V?$allocator@PAUTileBuffer@?A0xf349abed@Imf@@@std@@@std@@QBEIXZ
	?max_size@?$allocator@PAUTileBuffer@?A0xf349abed@Imf@@@std@@QBEIXZ
	??G?$_Vector_const_iterator@UTInSliceInfo@?A0xf349abed@Imf@@V?$allocator@UTInSliceInfo@?A0xf349abed@Imf@@@std@@@std@@QBEHABV01@@Z
	??0?$_Ranit@UTInSliceInfo@?A0xf349abed@Imf@@HPBU123@ABU123@@std@@QAE@XZ
	??Y?$_Vector_const_iterator@UTInSliceInfo@?A0xf349abed@Imf@@V?$allocator@UTInSliceInfo@?A0xf349abed@Imf@@@std@@@std@@QAEAAV01@H@Z
	??8?$_Vector_const_iterator@UTInSliceInfo@?A0xf349abed@Imf@@V?$allocator@UTInSliceInfo@?A0xf349abed@Imf@@@std@@@std@@QBE_NABV01@@Z
	??8?$_Vector_const_iterator@V?$vector@V?$vector@_KV?$allocator@_K@std@@@std@@V?$allocator@V?$vector@_KV?$allocator@_K@std@@@std@@@2@@std@@V?$allocator@V?$vector@V?$vector@_KV?$allocator@_K@std@@@std@@V?$allocator@V?$vector@_KV?$allocator@_K@std@@@std@@@2@@std@@@2@@std@@QBE_NABV01@@Z
	??Y?$_Vector_const_iterator@PAUTileBuffer@?A0xf349abed@Imf@@V?$allocator@PAUTileBuffer@?A0xf349abed@Imf@@@std@@@std@@QAEAAV01@H@Z
	??8?$_Vector_const_iterator@PAUTileBuffer@?A0xf349abed@Imf@@V?$allocator@PAUTileBuffer@?A0xf349abed@Imf@@@std@@@std@@QBE_NABV01@@Z
	??0?$_Ranit@V?$vector@V?$vector@_KV?$allocator@_K@std@@@std@@V?$allocator@V?$vector@_KV?$allocator@_K@std@@@std@@@2@@std@@HPBV12@ABV12@@std@@QAE@XZ
	??0?$_Ranit@PAUTileBuffer@?A0xf349abed@Imf@@HPBQAU123@ABQAU123@@std@@QAE@XZ
	??$swap@H@std@@YAXAAH0@Z
	??$_Allocate@V?$vector@V?$vector@_KV?$allocator@_K@std@@@std@@V?$allocator@V?$vector@_KV?$allocator@_K@std@@@std@@@2@@std@@@std@@YAPAV?$vector@V?$vector@_KV?$allocator@_K@std@@@std@@V?$allocator@V?$vector@_KV?$allocator@_K@std@@@std@@@2@@0@IPAV10@@Z
	??$_Allocate@UTInSliceInfo@?A0xf349abed@Imf@@@std@@YAPAUTInSliceInfo@?A0xf349abed@Imf@@IPAU123@@Z
	??$_Allocate@PAUTileBuffer@?A0xf349abed@Imf@@@std@@YAPAPAUTileBuffer@?A0xf349abed@Imf@@IPAPAU123@@Z
	??$_Iter_random@PAV?$vector@V?$vector@_KV?$allocator@_K@std@@@std@@V?$allocator@V?$vector@_KV?$allocator@_K@std@@@std@@@2@@std@@PAV12@@std@@YA?AUrandom_access_iterator_tag@0@ABQAV?$vector@V?$vector@_KV?$allocator@_K@std@@@std@@V?$allocator@V?$vector@_KV?$allocator@_K@std@@@std@@@2@@0@0@Z
	??$_Ptr_cat@PAV?$vector@V?$vector@_KV?$allocator@_K@std@@@std@@V?$allocator@V?$vector@_KV?$allocator@_K@std@@@std@@@2@@std@@PAV12@@std@@YA?AU_Nonscalar_ptr_iterator_tag@0@AAPAV?$vector@V?$vector@_KV?$allocator@_K@std@@@std@@V?$allocator@V?$vector@_KV?$allocator@_K@std@@@std@@@2@@0@0@Z
	??$_Iter_random@PAUTInSliceInfo@?A0xf349abed@Imf@@PAU123@@std@@YA?AUrandom_access_iterator_tag@0@ABQAUTInSliceInfo@?A0xf349abed@Imf@@0@Z
	??$_Ptr_cat@PAUTInSliceInfo@?A0xf349abed@Imf@@PAU123@@std@@YA?AU_Nonscalar_ptr_iterator_tag@0@AAPAUTInSliceInfo@?A0xf349abed@Imf@@0@Z
	??$_Fill@PAUTInSliceInfo@?A0xf349abed@Imf@@U123@@std@@YAXPAUTInSliceInfo@?A0xf349abed@Imf@@0ABU123@@Z
	??$_Move_cat@PAUTInSliceInfo@?A0xf349abed@Imf@@@std@@YA?AU_Undefined_move_tag@0@ABQAUTInSliceInfo@?A0xf349abed@Imf@@@Z
	??$_Iter_random@PAPAUTileBuffer@?A0xf349abed@Imf@@PAPAU123@@std@@YA?AUrandom_access_iterator_tag@0@ABQAPAUTileBuffer@?A0xf349abed@Imf@@0@Z
	??$_Ptr_cat@PAPAUTileBuffer@?A0xf349abed@Imf@@PAPAU123@@std@@YA?AU_Scalar_ptr_iterator_tag@0@AAPAPAUTileBuffer@?A0xf349abed@Imf@@0@Z
	??$_Copy_opt@PAPAUTileBuffer@?A0xf349abed@Imf@@PAPAU123@Urandom_access_iterator_tag@std@@@std@@YAPAPAUTileBuffer@?A0xf349abed@Imf@@PAPAU123@00Urandom_access_iterator_tag@0@U_Scalar_ptr_iterator_tag@0@U_Range_checked_iterator_tag@0@@Z
	??$_Destroy_range@PAUTileBuffer@?A0xf349abed@Imf@@V?$allocator@PAUTileBuffer@?A0xf349abed@Imf@@@std@@@std@@YAXPAPAUTileBuffer@?A0xf349abed@Imf@@0AAV?$allocator@PAUTileBuffer@?A0xf349abed@Imf@@@0@U_Scalar_ptr_iterator_tag@0@@Z
	??$_Fill@PAPAUTileBuffer@?A0xf349abed@Imf@@PAU123@@std@@YAXPAPAUTileBuffer@?A0xf349abed@Imf@@0ABQAU123@@Z
	??$_Move_cat@PAPAUTileBuffer@?A0xf349abed@Imf@@@std@@YA?AU_Undefined_move_tag@0@ABQAPAUTileBuffer@?A0xf349abed@Imf@@@Z
	??$_Checked_base@PAV?$vector@V?$vector@_KV?$allocator@_K@std@@@std@@V?$allocator@V?$vector@_KV?$allocator@_K@std@@@std@@@2@@std@@@std@@YAPAV?$vector@V?$vector@_KV?$allocator@_K@std@@@std@@V?$allocator@V?$vector@_KV?$allocator@_K@std@@@std@@@2@@0@AAPAV10@U_Unchanged_checked_iterator_base_type_tag@0@@Z
	??$_Checked_base@PAUTInSliceInfo@?A0xf349abed@Imf@@@std@@YAPAUTInSliceInfo@?A0xf349abed@Imf@@AAPAU123@U_Unchanged_checked_iterator_base_type_tag@0@@Z
	??$_Copy_opt@PAUTInSliceInfo@?A0xf349abed@Imf@@PAU123@Uforward_iterator_tag@std@@@std@@YAPAUTInSliceInfo@?A0xf349abed@Imf@@PAU123@00Uforward_iterator_tag@0@U_Nonscalar_ptr_iterator_tag@0@U_Range_checked_iterator_tag@0@@Z
	??$_Checked_base@PAPAUTileBuffer@?A0xf349abed@Imf@@@std@@YAPAPAUTileBuffer@?A0xf349abed@Imf@@AAPAPAU123@U_Unchanged_checked_iterator_base_type_tag@0@@Z
	??$_Copy_backward_opt@PAPAUTileBuffer@?A0xf349abed@Imf@@PAPAU123@Urandom_access_iterator_tag@std@@@std@@YAPAPAUTileBuffer@?A0xf349abed@Imf@@PAPAU123@00Urandom_access_iterator_tag@0@U_Scalar_ptr_iterator_tag@0@U_Range_checked_iterator_tag@0@@Z
	??$_Construct@UTInSliceInfo@?A0xf349abed@Imf@@U123@@std@@YAXPAUTInSliceInfo@?A0xf349abed@Imf@@ABU123@@Z
	??$_Destroy@UTInSliceInfo@?A0xf349abed@Imf@@@std@@YAXPAUTInSliceInfo@?A0xf349abed@Imf@@@Z
	?capacity@?$vector@V?$vector@_KV?$allocator@_K@std@@@std@@V?$allocator@V?$vector@_KV?$allocator@_K@std@@@std@@@2@@std@@QBEIXZ
	?size@?$vector@V?$vector@_KV?$allocator@_K@std@@@std@@V?$allocator@V?$vector@_KV?$allocator@_K@std@@@std@@@2@@std@@QBEIXZ
	?deallocate@?$allocator@V?$vector@_KV?$allocator@_K@std@@@std@@@std@@QAEXPAV?$vector@_KV?$allocator@_K@std@@@2@I@Z
	?_Xlen@?$vector@V?$vector@_KV?$allocator@_K@std@@@std@@V?$allocator@V?$vector@_KV?$allocator@_K@std@@@std@@@2@@std@@KAXXZ
	?max_size@?$allocator@V?$vector@_KV?$allocator@_K@std@@@std@@@std@@QBEIXZ
	??8?$_Vector_const_iterator@V?$vector@_KV?$allocator@_K@std@@@std@@V?$allocator@V?$vector@_KV?$allocator@_K@std@@@std@@@2@@std@@QBE_NABV01@@Z
	??0?$_Ranit@V?$vector@_KV?$allocator@_K@std@@@std@@HPBV12@ABV12@@std@@QAE@XZ
	??$_Copy_backward_opt@PAUTInSliceInfo@?A0xf349abed@Imf@@PAU123@Uforward_iterator_tag@std@@@std@@YAPAUTInSliceInfo@?A0xf349abed@Imf@@PAU123@00Uforward_iterator_tag@0@U_Nonscalar_ptr_iterator_tag@0@U_Range_checked_iterator_tag@0@@Z
	??$_Iter_cat@PAPAUTileBuffer@?A0xf349abed@Imf@@@std@@YA?AUrandom_access_iterator_tag@0@ABQAPAUTileBuffer@?A0xf349abed@Imf@@@Z
	??$_Allocate@V?$vector@_KV?$allocator@_K@std@@@std@@@std@@YAPAV?$vector@_KV?$allocator@_K@std@@@0@IPAV10@@Z
	??0?$allocator@V?$vector@_KV?$allocator@_K@std@@@std@@@std@@QAE@ABV01@@Z
	??$_Uninit_copy@PAPAUTileBuffer@?A0xf349abed@Imf@@PAPAU123@V?$allocator@PAUTileBuffer@?A0xf349abed@Imf@@@std@@@std@@YAPAPAUTileBuffer@?A0xf349abed@Imf@@PAPAU123@00AAV?$allocator@PAUTileBuffer@?A0xf349abed@Imf@@@0@U_Scalar_ptr_iterator_tag@0@U_Range_checked_iterator_tag@0@@Z
	??$_Fill_n@PAPAUTileBuffer@?A0xf349abed@Imf@@IPAU123@@std@@YAXPAPAUTileBuffer@?A0xf349abed@Imf@@IABQAU123@U_Range_checked_iterator_tag@0@@Z
	??$_Iter_random@PAV?$vector@_KV?$allocator@_K@std@@@std@@PAV12@@std@@YA?AUrandom_access_iterator_tag@0@ABQAV?$vector@_KV?$allocator@_K@std@@@0@0@Z
	??$_Ptr_cat@PAV?$vector@_KV?$allocator@_K@std@@@std@@PAV12@@std@@YA?AU_Nonscalar_ptr_iterator_tag@0@AAPAV?$vector@_KV?$allocator@_K@std@@@0@0@Z
	??$_Checked_base@PAV?$vector@_KV?$allocator@_K@std@@@std@@@std@@YAPAV?$vector@_KV?$allocator@_K@std@@@0@AAPAV10@U_Unchanged_checked_iterator_base_type_tag@0@@Z
	??$_Ptr_cat@V?$_Vector_const_iterator@V?$vector@_KV?$allocator@_K@std@@@std@@V?$allocator@V?$vector@_KV?$allocator@_K@std@@@std@@@2@@std@@PAV?$vector@_KV?$allocator@_K@std@@@2@@std@@YA?AU_Nonscalar_ptr_iterator_tag@0@AAV?$_Vector_const_iterator@V?$vector@_KV?$allocator@_K@std@@@std@@V?$allocator@V?$vector@_KV?$allocator@_K@std@@@std@@@2@@0@AAPAV?$vector@_KV?$allocator@_K@std@@@0@@Z
	??$_Ptr_cat@V?$_Vector_const_iterator@_KV?$allocator@_K@std@@@std@@PA_K@std@@YA?AU_Scalar_ptr_iterator_tag@0@AAV?$_Vector_const_iterator@_KV?$allocator@_K@std@@@0@AAPA_K@Z
	?getTileBuffer@Data@TiledInputFile@Imf@@QAEPAUTileBuffer@?A0xf349abed@3@H@Z
	??0?$_Vector_val@UTInSliceInfo@?A0xf349abed@Imf@@V?$allocator@UTInSliceInfo@?A0xf349abed@Imf@@@std@@@std@@IAE@V?$allocator@UTInSliceInfo@?A0xf349abed@Imf@@@1@@Z
	??0?$_Vector_val@PAUTileBuffer@?A0xf349abed@Imf@@V?$allocator@PAUTileBuffer@?A0xf349abed@Imf@@@std@@@std@@IAE@V?$allocator@PAUTileBuffer@?A0xf349abed@Imf@@@1@@Z
	?max_size@?$vector@V?$vector@V?$vector@_KV?$allocator@_K@std@@@std@@V?$allocator@V?$vector@_KV?$allocator@_K@std@@@std@@@2@@std@@V?$allocator@V?$vector@V?$vector@_KV?$allocator@_K@std@@@std@@V?$allocator@V?$vector@_KV?$allocator@_K@std@@@std@@@2@@std@@@2@@std@@QBEIXZ
	?allocate@?$allocator@V?$vector@V?$vector@_KV?$allocator@_K@std@@@std@@V?$allocator@V?$vector@_KV?$allocator@_K@std@@@std@@@2@@std@@@std@@QAEPAV?$vector@V?$vector@_KV?$allocator@_K@std@@@std@@V?$allocator@V?$vector@_KV?$allocator@_K@std@@@std@@@2@@2@I@Z
	?max_size@?$vector@UTInSliceInfo@?A0xf349abed@Imf@@V?$allocator@UTInSliceInfo@?A0xf349abed@Imf@@@std@@@std@@QBEIXZ
	?allocate@?$allocator@UTInSliceInfo@?A0xf349abed@Imf@@@std@@QAEPAUTInSliceInfo@?A0xf349abed@Imf@@I@Z
	?max_size@?$vector@PAUTileBuffer@?A0xf349abed@Imf@@V?$allocator@PAUTileBuffer@?A0xf349abed@Imf@@@std@@@std@@QBEIXZ
	?allocate@?$allocator@PAUTileBuffer@?A0xf349abed@Imf@@@std@@QAEPAPAUTileBuffer@?A0xf349abed@Imf@@I@Z
	??G?$_Vector_iterator@UTInSliceInfo@?A0xf349abed@Imf@@V?$allocator@UTInSliceInfo@?A0xf349abed@Imf@@@std@@@std@@QBEHABV?$_Vector_const_iterator@UTInSliceInfo@?A0xf349abed@Imf@@V?$allocator@UTInSliceInfo@?A0xf349abed@Imf@@@std@@@1@@Z
	??Y?$_Vector_iterator@UTInSliceInfo@?A0xf349abed@Imf@@V?$allocator@UTInSliceInfo@?A0xf349abed@Imf@@@std@@@std@@QAEAAV01@H@Z
	??9?$_Vector_const_iterator@UTInSliceInfo@?A0xf349abed@Imf@@V?$allocator@UTInSliceInfo@?A0xf349abed@Imf@@@std@@@std@@QBE_NABV01@@Z
	??9?$_Vector_const_iterator@V?$vector@V?$vector@_KV?$allocator@_K@std@@@std@@V?$allocator@V?$vector@_KV?$allocator@_K@std@@@std@@@2@@std@@V?$allocator@V?$vector@V?$vector@_KV?$allocator@_K@std@@@std@@V?$allocator@V?$vector@_KV?$allocator@_K@std@@@std@@@2@@std@@@2@@std@@QBE_NABV01@@Z
	??Y?$_Vector_iterator@PAUTileBuffer@?A0xf349abed@Imf@@V?$allocator@PAUTileBuffer@?A0xf349abed@Imf@@@std@@@std@@QAEAAV01@H@Z
	??9?$_Vector_const_iterator@PAUTileBuffer@?A0xf349abed@Imf@@V?$allocator@PAUTileBuffer@?A0xf349abed@Imf@@@std@@@std@@QBE_NABV01@@Z
	??$_Destroy_range@PAUTileBuffer@?A0xf349abed@Imf@@V?$allocator@PAUTileBuffer@?A0xf349abed@Imf@@@std@@@std@@YAXPAPAUTileBuffer@?A0xf349abed@Imf@@0AAV?$allocator@PAUTileBuffer@?A0xf349abed@Imf@@@0@@Z
	??$_Checked_base@PAV?$vector@V?$vector@_KV?$allocator@_K@std@@@std@@V?$allocator@V?$vector@_KV?$allocator@_K@std@@@std@@@2@@std@@@std@@YAPAV?$vector@V?$vector@_KV?$allocator@_K@std@@@std@@V?$allocator@V?$vector@_KV?$allocator@_K@std@@@std@@@2@@0@AAPAV10@@Z
	??$_Checked_base@PAUTInSliceInfo@?A0xf349abed@Imf@@@std@@YAPAUTInSliceInfo@?A0xf349abed@Imf@@AAPAU123@@Z
	??$_Copy_opt@PAUTInSliceInfo@?A0xf349abed@Imf@@PAU123@@std@@YAPAUTInSliceInfo@?A0xf349abed@Imf@@PAU123@00Urandom_access_iterator_tag@0@U_Nonscalar_ptr_iterator_tag@0@U_Range_checked_iterator_tag@0@@Z
	??$_Checked_base@PAPAUTileBuffer@?A0xf349abed@Imf@@@std@@YAPAPAUTileBuffer@?A0xf349abed@Imf@@AAPAPAU123@@Z
	??$_Move_backward_opt@PAPAUTileBuffer@?A0xf349abed@Imf@@PAPAU123@Urandom_access_iterator_tag@std@@U_Undefined_move_tag@5@@std@@YAPAPAUTileBuffer@?A0xf349abed@Imf@@PAPAU123@00Urandom_access_iterator_tag@0@U_Undefined_move_tag@0@U_Range_checked_iterator_tag@0@@Z
	?construct@?$allocator@UTInSliceInfo@?A0xf349abed@Imf@@@std@@QAEXPAUTInSliceInfo@?A0xf349abed@Imf@@ABU345@@Z
	?destroy@?$allocator@UTInSliceInfo@?A0xf349abed@Imf@@@std@@QAEXPAUTInSliceInfo@?A0xf349abed@Imf@@@Z
	??$_Uninit_copy@PAUTInSliceInfo@?A0xf349abed@Imf@@PAU123@V?$allocator@UTInSliceInfo@?A0xf349abed@Imf@@@std@@@std@@YAPAUTInSliceInfo@?A0xf349abed@Imf@@PAU123@00AAV?$allocator@UTInSliceInfo@?A0xf349abed@Imf@@@0@U_Nonscalar_ptr_iterator_tag@0@U_Range_checked_iterator_tag@0@@Z
	??$_Copy_backward_opt@PAUTInSliceInfo@?A0xf349abed@Imf@@PAU123@@std@@YAPAUTInSliceInfo@?A0xf349abed@Imf@@PAU123@00Urandom_access_iterator_tag@0@U_Nonscalar_ptr_iterator_tag@0@U_Range_checked_iterator_tag@0@@Z
	?max_size@?$vector@V?$vector@_KV?$allocator@_K@std@@@std@@V?$allocator@V?$vector@_KV?$allocator@_K@std@@@std@@@2@@std@@QBEIXZ
	?allocate@?$allocator@V?$vector@_KV?$allocator@_K@std@@@std@@@std@@QAEPAV?$vector@_KV?$allocator@_K@std@@@2@I@Z
	??9?$_Vector_const_iterator@V?$vector@_KV?$allocator@_K@std@@@std@@V?$allocator@V?$vector@_KV?$allocator@_K@std@@@std@@@2@@std@@QBE_NABV01@@Z
	??$unchecked_uninitialized_copy@PAPAUTileBuffer@?A0xf349abed@Imf@@PAPAU123@V?$allocator@PAUTileBuffer@?A0xf349abed@Imf@@@std@@@stdext@@YAPAPAUTileBuffer@?A0xf349abed@Imf@@PAPAU123@00AAV?$allocator@PAUTileBuffer@?A0xf349abed@Imf@@@std@@@Z
	??$_Fill_n@PAPAUTileBuffer@?A0xf349abed@Imf@@IPAU123@@std@@YAXPAPAUTileBuffer@?A0xf349abed@Imf@@IABQAU123@Urandom_access_iterator_tag@0@U_Range_checked_iterator_tag@0@@Z
	?begin@?$vector@V?$vector@_KV?$allocator@_K@std@@@std@@V?$allocator@V?$vector@_KV?$allocator@_K@std@@@std@@@2@@std@@QBE?AV?$_Vector_const_iterator@V?$vector@_KV?$allocator@_K@std@@@std@@V?$allocator@V?$vector@_KV?$allocator@_K@std@@@std@@@2@@2@XZ
	?end@?$vector@V?$vector@_KV?$allocator@_K@std@@@std@@V?$allocator@V?$vector@_KV?$allocator@_K@std@@@std@@@2@@std@@QBE?AV?$_Vector_const_iterator@V?$vector@_KV?$allocator@_K@std@@@std@@V?$allocator@V?$vector@_KV?$allocator@_K@std@@@std@@@2@@2@XZ
	??0?$_Vector_val@V?$vector@_KV?$allocator@_K@std@@@std@@V?$allocator@V?$vector@_KV?$allocator@_K@std@@@std@@@2@@std@@IAE@V?$allocator@V?$vector@_KV?$allocator@_K@std@@@std@@@1@@Z
	??$_Checked_base@PAV?$vector@_KV?$allocator@_K@std@@@std@@@std@@YAPAV?$vector@_KV?$allocator@_K@std@@@0@AAPAV10@@Z
	?begin@?$vector@_KV?$allocator@_K@std@@@std@@QBE?AV?$_Vector_const_iterator@_KV?$allocator@_K@std@@@2@XZ
	?end@?$vector@_KV?$allocator@_K@std@@@std@@QBE?AV?$_Vector_const_iterator@_KV?$allocator@_K@std@@@2@XZ
	?_Buy@?$vector@V?$vector@V?$vector@_KV?$allocator@_K@std@@@std@@V?$allocator@V?$vector@_KV?$allocator@_K@std@@@std@@@2@@std@@V?$allocator@V?$vector@V?$vector@_KV?$allocator@_K@std@@@std@@V?$allocator@V?$vector@_KV?$allocator@_K@std@@@std@@@2@@std@@@2@@std@@IAE_NI@Z
	?_Buy@?$vector@UTInSliceInfo@?A0xf349abed@Imf@@V?$allocator@UTInSliceInfo@?A0xf349abed@Imf@@@std@@@std@@IAE_NI@Z
	?_Buy@?$vector@PAUTileBuffer@?A0xf349abed@Imf@@V?$allocator@PAUTileBuffer@?A0xf349abed@Imf@@@std@@@std@@IAE_NI@Z
	?_Destroy@?$vector@PAUTileBuffer@?A0xf349abed@Imf@@V?$allocator@PAUTileBuffer@?A0xf349abed@Imf@@@std@@@std@@IAEXPAPAUTileBuffer@?A0xf349abed@Imf@@0@Z
	??H?$_Vector_iterator@UTInSliceInfo@?A0xf349abed@Imf@@V?$allocator@UTInSliceInfo@?A0xf349abed@Imf@@@std@@@std@@QBE?AV01@H@Z
	??H?$_Vector_iterator@PAUTileBuffer@?A0xf349abed@Imf@@V?$allocator@PAUTileBuffer@?A0xf349abed@Imf@@@std@@@std@@QBE?AV01@H@Z
	??$unchecked_copy@PAUTInSliceInfo@?A0xf349abed@Imf@@PAU123@@stdext@@YAPAUTInSliceInfo@?A0xf349abed@Imf@@PAU123@00@Z
	??$fill@PAUTInSliceInfo@?A0xf349abed@Imf@@U123@@std@@YAXPAUTInSliceInfo@?A0xf349abed@Imf@@0ABU123@@Z
	??$unchecked_copy@PAPAUTileBuffer@?A0xf349abed@Imf@@PAPAU123@@stdext@@YAPAPAUTileBuffer@?A0xf349abed@Imf@@PAPAU123@00@Z
	??$fill@PAPAUTileBuffer@?A0xf349abed@Imf@@PAU123@@std@@YAXPAPAUTileBuffer@?A0xf349abed@Imf@@0ABQAU123@@Z
	??$_Unchecked_move_backward@PAPAUTileBuffer@?A0xf349abed@Imf@@PAPAU123@@stdext@@YAPAPAUTileBuffer@?A0xf349abed@Imf@@PAPAU123@00@Z
	??$unchecked_uninitialized_copy@PAUTInSliceInfo@?A0xf349abed@Imf@@PAU123@V?$allocator@UTInSliceInfo@?A0xf349abed@Imf@@@std@@@stdext@@YAPAUTInSliceInfo@?A0xf349abed@Imf@@PAU123@00AAV?$allocator@UTInSliceInfo@?A0xf349abed@Imf@@@std@@@Z
	??$_Destroy_range@UTInSliceInfo@?A0xf349abed@Imf@@V?$allocator@UTInSliceInfo@?A0xf349abed@Imf@@@std@@@std@@YAXPAUTInSliceInfo@?A0xf349abed@Imf@@0AAV?$allocator@UTInSliceInfo@?A0xf349abed@Imf@@@0@U_Nonscalar_ptr_iterator_tag@0@@Z
	??$_Uninit_fill_n@PAUTInSliceInfo@?A0xf349abed@Imf@@IU123@V?$allocator@UTInSliceInfo@?A0xf349abed@Imf@@@std@@@std@@YAXPAUTInSliceInfo@?A0xf349abed@Imf@@IABU123@AAV?$allocator@UTInSliceInfo@?A0xf349abed@Imf@@@0@U_Nonscalar_ptr_iterator_tag@0@U_Range_checked_iterator_tag@0@@Z
	??$_Move_backward_opt@PAUTInSliceInfo@?A0xf349abed@Imf@@PAU123@Urandom_access_iterator_tag@std@@U_Undefined_move_tag@5@@std@@YAPAUTInSliceInfo@?A0xf349abed@Imf@@PAU123@00Urandom_access_iterator_tag@0@U_Undefined_move_tag@0@U_Range_checked_iterator_tag@0@@Z
	??$_Uninit_move@PAUTInSliceInfo@?A0xf349abed@Imf@@PAU123@V?$allocator@UTInSliceInfo@?A0xf349abed@Imf@@@std@@U_Undefined_move_tag@5@@std@@YAPAUTInSliceInfo@?A0xf349abed@Imf@@PAU123@00AAV?$allocator@UTInSliceInfo@?A0xf349abed@Imf@@@0@U_Undefined_move_tag@0@U_Range_checked_iterator_tag@0@@Z
	??$_Uninit_move@PAPAUTileBuffer@?A0xf349abed@Imf@@PAPAU123@V?$allocator@PAUTileBuffer@?A0xf349abed@Imf@@@std@@U_Undefined_move_tag@5@@std@@YAPAPAUTileBuffer@?A0xf349abed@Imf@@PAPAU123@00AAV?$allocator@PAUTileBuffer@?A0xf349abed@Imf@@@0@U_Undefined_move_tag@0@U_Range_checked_iterator_tag@0@@Z
	??$unchecked_fill_n@PAPAUTileBuffer@?A0xf349abed@Imf@@IPAU123@@stdext@@YAXPAPAUTileBuffer@?A0xf349abed@Imf@@IABQAU123@@Z
	?_Buy@?$vector@V?$vector@_KV?$allocator@_K@std@@@std@@V?$allocator@V?$vector@_KV?$allocator@_K@std@@@std@@@2@@std@@IAE_NI@Z
	??$_Ucopy@PA_K@?$vector@_KV?$allocator@_K@std@@@std@@IAEPA_KPA_K00@Z
	??0?$vector@UTInSliceInfo@?A0xf349abed@Imf@@V?$allocator@UTInSliceInfo@?A0xf349abed@Imf@@@std@@@std@@QAE@XZ
	??0?$vector@PAUTileBuffer@?A0xf349abed@Imf@@V?$allocator@PAUTileBuffer@?A0xf349abed@Imf@@@std@@@std@@QAE@XZ
	?end@?$vector@UTInSliceInfo@?A0xf349abed@Imf@@V?$allocator@UTInSliceInfo@?A0xf349abed@Imf@@@std@@@std@@QAE?AV?$_Vector_iterator@UTInSliceInfo@?A0xf349abed@Imf@@V?$allocator@UTInSliceInfo@?A0xf349abed@Imf@@@std@@@2@XZ
	?_Tidy@?$vector@PAUTileBuffer@?A0xf349abed@Imf@@V?$allocator@PAUTileBuffer@?A0xf349abed@Imf@@@std@@@std@@IAEXXZ
	?begin@?$vector@V?$vector@V?$vector@_KV?$allocator@_K@std@@@std@@V?$allocator@V?$vector@_KV?$allocator@_K@std@@@std@@@2@@std@@V?$allocator@V?$vector@V?$vector@_KV?$allocator@_K@std@@@std@@V?$allocator@V?$vector@_KV?$allocator@_K@std@@@std@@@2@@std@@@2@@std@@QAE?AV?$_Vector_iterator@V?$vector@V?$vector@_KV?$allocator@_K@std@@@std@@V?$allocator@V?$vector@_KV?$allocator@_K@std@@@std@@@2@@std@@V?$allocator@V?$vector@V?$vector@_KV?$allocator@_K@std@@@std@@V?$allocator@V?$vector@_KV?$allocator@_K@std@@@std@@@2@@std@@@2@@2@XZ
	?end@?$vector@V?$vector@V?$vector@_KV?$allocator@_K@std@@@std@@V?$allocator@V?$vector@_KV?$allocator@_K@std@@@std@@@2@@std@@V?$allocator@V?$vector@V?$vector@_KV?$allocator@_K@std@@@std@@V?$allocator@V?$vector@_KV?$allocator@_K@std@@@std@@@2@@std@@@2@@std@@QAE?AV?$_Vector_iterator@V?$vector@V?$vector@_KV?$allocator@_K@std@@@std@@V?$allocator@V?$vector@_KV?$allocator@_K@std@@@std@@@2@@std@@V?$allocator@V?$vector@V?$vector@_KV?$allocator@_K@std@@@std@@V?$allocator@V?$vector@_KV?$allocator@_K@std@@@std@@@2@@std@@@2@@2@XZ
	?begin@?$vector@UTInSliceInfo@?A0xf349abed@Imf@@V?$allocator@UTInSliceInfo@?A0xf349abed@Imf@@@std@@@std@@QAE?AV?$_Vector_iterator@UTInSliceInfo@?A0xf349abed@Imf@@V?$allocator@UTInSliceInfo@?A0xf349abed@Imf@@@std@@@2@XZ
	?begin@?$vector@PAUTileBuffer@?A0xf349abed@Imf@@V?$allocator@PAUTileBuffer@?A0xf349abed@Imf@@@std@@@std@@QAE?AV?$_Vector_iterator@PAUTileBuffer@?A0xf349abed@Imf@@V?$allocator@PAUTileBuffer@?A0xf349abed@Imf@@@std@@@2@XZ
	?end@?$vector@PAUTileBuffer@?A0xf349abed@Imf@@V?$allocator@PAUTileBuffer@?A0xf349abed@Imf@@@std@@@std@@QAE?AV?$_Vector_iterator@PAUTileBuffer@?A0xf349abed@Imf@@V?$allocator@PAUTileBuffer@?A0xf349abed@Imf@@@std@@@2@XZ
	?erase@?$vector@PAUTileBuffer@?A0xf349abed@Imf@@V?$allocator@PAUTileBuffer@?A0xf349abed@Imf@@@std@@@std@@QAE?AV?$_Vector_iterator@PAUTileBuffer@?A0xf349abed@Imf@@V?$allocator@PAUTileBuffer@?A0xf349abed@Imf@@@std@@@2@V32@0@Z
	??$_Ucopy@PAUTInSliceInfo@?A0xf349abed@Imf@@@?$vector@UTInSliceInfo@?A0xf349abed@Imf@@V?$allocator@UTInSliceInfo@?A0xf349abed@Imf@@@std@@@std@@IAEPAUTInSliceInfo@?A0xf349abed@Imf@@PAU234@00@Z
	??$_Destroy_range@UTInSliceInfo@?A0xf349abed@Imf@@V?$allocator@UTInSliceInfo@?A0xf349abed@Imf@@@std@@@std@@YAXPAUTInSliceInfo@?A0xf349abed@Imf@@0AAV?$allocator@UTInSliceInfo@?A0xf349abed@Imf@@@0@@Z
	??$unchecked_uninitialized_fill_n@PAUTInSliceInfo@?A0xf349abed@Imf@@IU123@V?$allocator@UTInSliceInfo@?A0xf349abed@Imf@@@std@@@stdext@@YAXPAUTInSliceInfo@?A0xf349abed@Imf@@IABU123@AAV?$allocator@UTInSliceInfo@?A0xf349abed@Imf@@@std@@@Z
	??$_Unchecked_move_backward@PAUTInSliceInfo@?A0xf349abed@Imf@@PAU123@@stdext@@YAPAUTInSliceInfo@?A0xf349abed@Imf@@PAU123@00@Z
	??$_Unchecked_uninitialized_move@PAUTInSliceInfo@?A0xf349abed@Imf@@PAU123@V?$allocator@UTInSliceInfo@?A0xf349abed@Imf@@@std@@@stdext@@YAPAUTInSliceInfo@?A0xf349abed@Imf@@PAU123@00AAV?$allocator@UTInSliceInfo@?A0xf349abed@Imf@@@std@@@Z
	??$_Unchecked_uninitialized_move@PAPAUTileBuffer@?A0xf349abed@Imf@@PAPAU123@V?$allocator@PAUTileBuffer@?A0xf349abed@Imf@@@std@@@stdext@@YAPAPAUTileBuffer@?A0xf349abed@Imf@@PAPAU123@00AAV?$allocator@PAUTileBuffer@?A0xf349abed@Imf@@@std@@@Z
	??$_Uninit_fill_n@PAPAUTileBuffer@?A0xf349abed@Imf@@IPAU123@V?$allocator@PAUTileBuffer@?A0xf349abed@Imf@@@std@@@std@@YAXPAPAUTileBuffer@?A0xf349abed@Imf@@IABQAU123@AAV?$allocator@PAUTileBuffer@?A0xf349abed@Imf@@@0@U_Scalar_ptr_iterator_tag@0@U_Range_checked_iterator_tag@0@@Z
	?begin@?$vector@V?$vector@_KV?$allocator@_K@std@@@std@@V?$allocator@V?$vector@_KV?$allocator@_K@std@@@std@@@2@@std@@QAE?AV?$_Vector_iterator@V?$vector@_KV?$allocator@_K@std@@@std@@V?$allocator@V?$vector@_KV?$allocator@_K@std@@@std@@@2@@2@XZ
	?end@?$vector@V?$vector@_KV?$allocator@_K@std@@@std@@V?$allocator@V?$vector@_KV?$allocator@_K@std@@@std@@@2@@std@@QAE?AV?$_Vector_iterator@V?$vector@_KV?$allocator@_K@std@@@std@@V?$allocator@V?$vector@_KV?$allocator@_K@std@@@std@@@2@@2@XZ
	??$unchecked_uninitialized_copy@V?$_Vector_const_iterator@_KV?$allocator@_K@std@@@std@@PA_KV?$allocator@_K@2@@stdext@@YAPA_KV?$_Vector_const_iterator@_KV?$allocator@_K@std@@@std@@0PA_KAAV?$allocator@_K@2@@Z
	??1?$vector@PAUTileBuffer@?A0xf349abed@Imf@@V?$allocator@PAUTileBuffer@?A0xf349abed@Imf@@@std@@@std@@QAE@XZ
	?_Destroy@?$vector@UTInSliceInfo@?A0xf349abed@Imf@@V?$allocator@UTInSliceInfo@?A0xf349abed@Imf@@@std@@@std@@IAEXPAUTInSliceInfo@?A0xf349abed@Imf@@0@Z
	?_Tidy@?$vector@UTInSliceInfo@?A0xf349abed@Imf@@V?$allocator@UTInSliceInfo@?A0xf349abed@Imf@@@std@@@std@@IAEXXZ
	?_Ufill@?$vector@UTInSliceInfo@?A0xf349abed@Imf@@V?$allocator@UTInSliceInfo@?A0xf349abed@Imf@@@std@@@std@@IAEPAUTInSliceInfo@?A0xf349abed@Imf@@PAU345@IABU345@@Z
	?erase@?$vector@UTInSliceInfo@?A0xf349abed@Imf@@V?$allocator@UTInSliceInfo@?A0xf349abed@Imf@@@std@@@std@@QAE?AV?$_Vector_iterator@UTInSliceInfo@?A0xf349abed@Imf@@V?$allocator@UTInSliceInfo@?A0xf349abed@Imf@@@std@@@2@V32@0@Z
	??$_Umove@PAUTInSliceInfo@?A0xf349abed@Imf@@@?$vector@UTInSliceInfo@?A0xf349abed@Imf@@V?$allocator@UTInSliceInfo@?A0xf349abed@Imf@@@std@@@std@@IAEPAUTInSliceInfo@?A0xf349abed@Imf@@PAU234@00@Z
	??$_Umove@PAPAUTileBuffer@?A0xf349abed@Imf@@@?$vector@PAUTileBuffer@?A0xf349abed@Imf@@V?$allocator@PAUTileBuffer@?A0xf349abed@Imf@@@std@@@std@@IAEPAPAUTileBuffer@?A0xf349abed@Imf@@PAPAU234@00@Z
	??$unchecked_uninitialized_fill_n@PAPAUTileBuffer@?A0xf349abed@Imf@@IPAU123@V?$allocator@PAUTileBuffer@?A0xf349abed@Imf@@@std@@@stdext@@YAXPAPAUTileBuffer@?A0xf349abed@Imf@@IABQAU123@AAV?$allocator@PAUTileBuffer@?A0xf349abed@Imf@@@std@@@Z
	?clear@?$vector@_KV?$allocator@_K@std@@@std@@QAEXXZ
	??$_Ucopy@V?$_Vector_const_iterator@_KV?$allocator@_K@std@@@std@@@?$vector@_KV?$allocator@_K@std@@@std@@IAEPA_KV?$_Vector_const_iterator@_KV?$allocator@_K@std@@@1@0PA_K@Z
	??1?$vector@UTInSliceInfo@?A0xf349abed@Imf@@V?$allocator@UTInSliceInfo@?A0xf349abed@Imf@@@std@@@std@@QAE@XZ
	?clear@?$vector@UTInSliceInfo@?A0xf349abed@Imf@@V?$allocator@UTInSliceInfo@?A0xf349abed@Imf@@@std@@@std@@QAEXXZ
	?_Insert_n@?$vector@UTInSliceInfo@?A0xf349abed@Imf@@V?$allocator@UTInSliceInfo@?A0xf349abed@Imf@@@std@@@std@@IAEXV?$_Vector_iterator@UTInSliceInfo@?A0xf349abed@Imf@@V?$allocator@UTInSliceInfo@?A0xf349abed@Imf@@@std@@@2@IABUTInSliceInfo@?A0xf349abed@Imf@@@Z
	?_Ufill@?$vector@PAUTileBuffer@?A0xf349abed@Imf@@V?$allocator@PAUTileBuffer@?A0xf349abed@Imf@@@std@@@std@@IAEPAPAUTileBuffer@?A0xf349abed@Imf@@PAPAU345@IABQAU345@@Z
	??$_Destroy@V?$vector@_KV?$allocator@_K@std@@@std@@@std@@YAXPAV?$vector@_KV?$allocator@_K@std@@@0@@Z
	??4?$vector@_KV?$allocator@_K@std@@@std@@QAEAAV01@ABV01@@Z
	??0?$vector@_KV?$allocator@_K@std@@@std@@QAE@ABV01@@Z
	??4?$vector@UTInSliceInfo@?A0xf349abed@Imf@@V?$allocator@UTInSliceInfo@?A0xf349abed@Imf@@@std@@@std@@QAEAAV01@ABV01@@Z
	?insert@?$vector@UTInSliceInfo@?A0xf349abed@Imf@@V?$allocator@UTInSliceInfo@?A0xf349abed@Imf@@@std@@@std@@QAE?AV?$_Vector_iterator@UTInSliceInfo@?A0xf349abed@Imf@@V?$allocator@UTInSliceInfo@?A0xf349abed@Imf@@@std@@@2@V32@ABUTInSliceInfo@?A0xf349abed@Imf@@@Z
	?_Insert_n@?$vector@PAUTileBuffer@?A0xf349abed@Imf@@V?$allocator@PAUTileBuffer@?A0xf349abed@Imf@@@std@@@std@@IAEXV?$_Vector_iterator@PAUTileBuffer@?A0xf349abed@Imf@@V?$allocator@PAUTileBuffer@?A0xf349abed@Imf@@@std@@@2@IABQAUTileBuffer@?A0xf349abed@Imf@@@Z
	?destroy@?$allocator@V?$vector@_KV?$allocator@_K@std@@@std@@@std@@QAEXPAV?$vector@_KV?$allocator@_K@std@@@2@@Z
	??$_Copy_opt@PAV?$vector@_KV?$allocator@_K@std@@@std@@PAV12@Uforward_iterator_tag@2@@std@@YAPAV?$vector@_KV?$allocator@_K@std@@@0@PAV10@00Uforward_iterator_tag@0@U_Nonscalar_ptr_iterator_tag@0@U_Range_checked_iterator_tag@0@@Z
	??$_Construct@V?$vector@_KV?$allocator@_K@std@@@std@@V12@@std@@YAXPAV?$vector@_KV?$allocator@_K@std@@@0@ABV10@@Z
	?push_back@?$vector@UTInSliceInfo@?A0xf349abed@Imf@@V?$allocator@UTInSliceInfo@?A0xf349abed@Imf@@@std@@@std@@QAEXABUTInSliceInfo@?A0xf349abed@Imf@@@Z
	?resize@?$vector@PAUTileBuffer@?A0xf349abed@Imf@@V?$allocator@PAUTileBuffer@?A0xf349abed@Imf@@@std@@@std@@QAEXIPAUTileBuffer@?A0xf349abed@Imf@@@Z
	??$_Copy_opt@PAV?$vector@_KV?$allocator@_K@std@@@std@@PAV12@@std@@YAPAV?$vector@_KV?$allocator@_K@std@@@0@PAV10@00Urandom_access_iterator_tag@0@U_Nonscalar_ptr_iterator_tag@0@U_Range_checked_iterator_tag@0@@Z
	??$_Destroy_range@V?$vector@_KV?$allocator@_K@std@@@std@@V?$allocator@V?$vector@_KV?$allocator@_K@std@@@std@@@2@@std@@YAXPAV?$vector@_KV?$allocator@_K@std@@@0@0AAV?$allocator@V?$vector@_KV?$allocator@_K@std@@@std@@@0@U_Nonscalar_ptr_iterator_tag@0@@Z
	?construct@?$allocator@V?$vector@_KV?$allocator@_K@std@@@std@@@std@@QAEXPAV?$vector@_KV?$allocator@_K@std@@@2@ABV32@@Z
	?resize@?$vector@PAUTileBuffer@?A0xf349abed@Imf@@V?$allocator@PAUTileBuffer@?A0xf349abed@Imf@@@std@@@std@@QAEXI@Z
	??$unchecked_copy@PAV?$vector@_KV?$allocator@_K@std@@@std@@PAV12@@stdext@@YAPAV?$vector@_KV?$allocator@_K@std@@@std@@PAV12@00@Z
	??$_Destroy_range@V?$vector@_KV?$allocator@_K@std@@@std@@V?$allocator@V?$vector@_KV?$allocator@_K@std@@@std@@@2@@std@@YAXPAV?$vector@_KV?$allocator@_K@std@@@0@0AAV?$allocator@V?$vector@_KV?$allocator@_K@std@@@std@@@0@@Z
	??$_Uninit_copy@PAV?$vector@_KV?$allocator@_K@std@@@std@@PAV12@V?$allocator@V?$vector@_KV?$allocator@_K@std@@@std@@@2@@std@@YAPAV?$vector@_KV?$allocator@_K@std@@@0@PAV10@00AAV?$allocator@V?$vector@_KV?$allocator@_K@std@@@std@@@0@U_Nonscalar_ptr_iterator_tag@0@U_Range_checked_iterator_tag@0@@Z
	??$unchecked_uninitialized_copy@V?$_Vector_const_iterator@V?$vector@_KV?$allocator@_K@std@@@std@@V?$allocator@V?$vector@_KV?$allocator@_K@std@@@std@@@2@@std@@PAV?$vector@_KV?$allocator@_K@std@@@2@V?$allocator@V?$vector@_KV?$allocator@_K@std@@@std@@@2@@stdext@@YAPAV?$vector@_KV?$allocator@_K@std@@@std@@V?$_Vector_const_iterator@V?$vector@_KV?$allocator@_K@std@@@std@@V?$allocator@V?$vector@_KV?$allocator@_K@std@@@std@@@2@@2@0PAV12@AAV?$allocator@V?$vector@_KV?$allocator@_K@std@@@std@@@2@@Z
	?_Destroy@?$vector@V?$vector@_KV?$allocator@_K@std@@@std@@V?$allocator@V?$vector@_KV?$allocator@_K@std@@@std@@@2@@std@@IAEXPAV?$vector@_KV?$allocator@_K@std@@@2@0@Z
	?_Tidy@?$vector@V?$vector@_KV?$allocator@_K@std@@@std@@V?$allocator@V?$vector@_KV?$allocator@_K@std@@@std@@@2@@std@@IAEXXZ
	?erase@?$vector@V?$vector@_KV?$allocator@_K@std@@@std@@V?$allocator@V?$vector@_KV?$allocator@_K@std@@@std@@@2@@std@@QAE?AV?$_Vector_iterator@V?$vector@_KV?$allocator@_K@std@@@std@@V?$allocator@V?$vector@_KV?$allocator@_K@std@@@std@@@2@@2@V32@0@Z
	??$unchecked_uninitialized_copy@PAV?$vector@_KV?$allocator@_K@std@@@std@@PAV12@V?$allocator@V?$vector@_KV?$allocator@_K@std@@@std@@@2@@stdext@@YAPAV?$vector@_KV?$allocator@_K@std@@@std@@PAV12@00AAV?$allocator@V?$vector@_KV?$allocator@_K@std@@@std@@@2@@Z
	??$_Ucopy@V?$_Vector_const_iterator@V?$vector@_KV?$allocator@_K@std@@@std@@V?$allocator@V?$vector@_KV?$allocator@_K@std@@@std@@@2@@std@@@?$vector@V?$vector@_KV?$allocator@_K@std@@@std@@V?$allocator@V?$vector@_KV?$allocator@_K@std@@@std@@@2@@std@@IAEPAV?$vector@_KV?$allocator@_K@std@@@1@V?$_Vector_const_iterator@V?$vector@_KV?$allocator@_K@std@@@std@@V?$allocator@V?$vector@_KV?$allocator@_K@std@@@std@@@2@@1@0PAV21@@Z
	??1?$vector@V?$vector@_KV?$allocator@_K@std@@@std@@V?$allocator@V?$vector@_KV?$allocator@_K@std@@@std@@@2@@std@@QAE@XZ
	?clear@?$vector@V?$vector@_KV?$allocator@_K@std@@@std@@V?$allocator@V?$vector@_KV?$allocator@_K@std@@@std@@@2@@std@@QAEXXZ
	??$_Ucopy@PAV?$vector@_KV?$allocator@_K@std@@@std@@@?$vector@V?$vector@_KV?$allocator@_K@std@@@std@@V?$allocator@V?$vector@_KV?$allocator@_K@std@@@std@@@2@@std@@IAEPAV?$vector@_KV?$allocator@_K@std@@@1@PAV21@00@Z
	??0?$vector@V?$vector@_KV?$allocator@_K@std@@@std@@V?$allocator@V?$vector@_KV?$allocator@_K@std@@@std@@@2@@std@@QAE@ABV01@@Z
	??4?$vector@V?$vector@_KV?$allocator@_K@std@@@std@@V?$allocator@V?$vector@_KV?$allocator@_K@std@@@std@@@2@@std@@QAEAAV01@ABV01@@Z
	??$_Construct@V?$vector@V?$vector@_KV?$allocator@_K@std@@@std@@V?$allocator@V?$vector@_KV?$allocator@_K@std@@@std@@@2@@std@@V12@@std@@YAXPAV?$vector@V?$vector@_KV?$allocator@_K@std@@@std@@V?$allocator@V?$vector@_KV?$allocator@_K@std@@@std@@@2@@0@ABV10@@Z
	??$_Copy_opt@PAV?$vector@V?$vector@_KV?$allocator@_K@std@@@std@@V?$allocator@V?$vector@_KV?$allocator@_K@std@@@std@@@2@@std@@PAV12@Uforward_iterator_tag@2@@std@@YAPAV?$vector@V?$vector@_KV?$allocator@_K@std@@@std@@V?$allocator@V?$vector@_KV?$allocator@_K@std@@@std@@@2@@0@PAV10@00Uforward_iterator_tag@0@U_Nonscalar_ptr_iterator_tag@0@U_Range_checked_iterator_tag@0@@Z
	??$_Destroy@V?$vector@V?$vector@_KV?$allocator@_K@std@@@std@@V?$allocator@V?$vector@_KV?$allocator@_K@std@@@std@@@2@@std@@@std@@YAXPAV?$vector@V?$vector@_KV?$allocator@_K@std@@@std@@V?$allocator@V?$vector@_KV?$allocator@_K@std@@@std@@@2@@0@@Z
	?construct@?$allocator@V?$vector@V?$vector@_KV?$allocator@_K@std@@@std@@V?$allocator@V?$vector@_KV?$allocator@_K@std@@@std@@@2@@std@@@std@@QAEXPAV?$vector@V?$vector@_KV?$allocator@_K@std@@@std@@V?$allocator@V?$vector@_KV?$allocator@_K@std@@@std@@@2@@2@ABV32@@Z
	??$_Copy_opt@PAV?$vector@V?$vector@_KV?$allocator@_K@std@@@std@@V?$allocator@V?$vector@_KV?$allocator@_K@std@@@std@@@2@@std@@PAV12@@std@@YAPAV?$vector@V?$vector@_KV?$allocator@_K@std@@@std@@V?$allocator@V?$vector@_KV?$allocator@_K@std@@@std@@@2@@0@PAV10@00Urandom_access_iterator_tag@0@U_Nonscalar_ptr_iterator_tag@0@U_Range_checked_iterator_tag@0@@Z
	?destroy@?$allocator@V?$vector@V?$vector@_KV?$allocator@_K@std@@@std@@V?$allocator@V?$vector@_KV?$allocator@_K@std@@@std@@@2@@std@@@std@@QAEXPAV?$vector@V?$vector@_KV?$allocator@_K@std@@@std@@V?$allocator@V?$vector@_KV?$allocator@_K@std@@@std@@@2@@2@@Z
	??$_Uninit_copy@PAV?$vector@V?$vector@_KV?$allocator@_K@std@@@std@@V?$allocator@V?$vector@_KV?$allocator@_K@std@@@std@@@2@@std@@PAV12@V?$allocator@V?$vector@V?$vector@_KV?$allocator@_K@std@@@std@@V?$allocator@V?$vector@_KV?$allocator@_K@std@@@std@@@2@@std@@@2@@std@@YAPAV?$vector@V?$vector@_KV?$allocator@_K@std@@@std@@V?$allocator@V?$vector@_KV?$allocator@_K@std@@@std@@@2@@0@PAV10@00AAV?$allocator@V?$vector@V?$vector@_KV?$allocator@_K@std@@@std@@V?$allocator@V?$vector@_KV?$allocator@_K@std@@@std@@@2@@std@@@0@U_Nonscalar_ptr_iterator_tag@0@U_Range_checked_iterator_tag@0@@Z
	??$unchecked_copy@PAV?$vector@V?$vector@_KV?$allocator@_K@std@@@std@@V?$allocator@V?$vector@_KV?$allocator@_K@std@@@std@@@2@@std@@PAV12@@stdext@@YAPAV?$vector@V?$vector@_KV?$allocator@_K@std@@@std@@V?$allocator@V?$vector@_KV?$allocator@_K@std@@@std@@@2@@std@@PAV12@00@Z
	??$unchecked_uninitialized_copy@PAV?$vector@V?$vector@_KV?$allocator@_K@std@@@std@@V?$allocator@V?$vector@_KV?$allocator@_K@std@@@std@@@2@@std@@PAV12@V?$allocator@V?$vector@V?$vector@_KV?$allocator@_K@std@@@std@@V?$allocator@V?$vector@_KV?$allocator@_K@std@@@std@@@2@@std@@@2@@stdext@@YAPAV?$vector@V?$vector@_KV?$allocator@_K@std@@@std@@V?$allocator@V?$vector@_KV?$allocator@_K@std@@@std@@@2@@std@@PAV12@00AAV?$allocator@V?$vector@V?$vector@_KV?$allocator@_K@std@@@std@@V?$allocator@V?$vector@_KV?$allocator@_K@std@@@std@@@2@@std@@@2@@Z
	??$_Destroy_range@V?$vector@V?$vector@_KV?$allocator@_K@std@@@std@@V?$allocator@V?$vector@_KV?$allocator@_K@std@@@std@@@2@@std@@V?$allocator@V?$vector@V?$vector@_KV?$allocator@_K@std@@@std@@V?$allocator@V?$vector@_KV?$allocator@_K@std@@@std@@@2@@std@@@2@@std@@YAXPAV?$vector@V?$vector@_KV?$allocator@_K@std@@@std@@V?$allocator@V?$vector@_KV?$allocator@_K@std@@@std@@@2@@0@0AAV?$allocator@V?$vector@V?$vector@_KV?$allocator@_K@std@@@std@@V?$allocator@V?$vector@_KV?$allocator@_K@std@@@std@@@2@@std@@@0@U_Nonscalar_ptr_iterator_tag@0@@Z
	??$_Ucopy@PAV?$vector@V?$vector@_KV?$allocator@_K@std@@@std@@V?$allocator@V?$vector@_KV?$allocator@_K@std@@@std@@@2@@std@@@?$vector@V?$vector@V?$vector@_KV?$allocator@_K@std@@@std@@V?$allocator@V?$vector@_KV?$allocator@_K@std@@@std@@@2@@std@@V?$allocator@V?$vector@V?$vector@_KV?$allocator@_K@std@@@std@@V?$allocator@V?$vector@_KV?$allocator@_K@std@@@std@@@2@@std@@@2@@std@@IAEPAV?$vector@V?$vector@_KV?$allocator@_K@std@@@std@@V?$allocator@V?$vector@_KV?$allocator@_K@std@@@std@@@2@@1@PAV21@00@Z
	??$_Destroy_range@V?$vector@V?$vector@_KV?$allocator@_K@std@@@std@@V?$allocator@V?$vector@_KV?$allocator@_K@std@@@std@@@2@@std@@V?$allocator@V?$vector@V?$vector@_KV?$allocator@_K@std@@@std@@V?$allocator@V?$vector@_KV?$allocator@_K@std@@@std@@@2@@std@@@2@@std@@YAXPAV?$vector@V?$vector@_KV?$allocator@_K@std@@@std@@V?$allocator@V?$vector@_KV?$allocator@_K@std@@@std@@@2@@0@0AAV?$allocator@V?$vector@V?$vector@_KV?$allocator@_K@std@@@std@@V?$allocator@V?$vector@_KV?$allocator@_K@std@@@std@@@2@@std@@@0@@Z
	?_Destroy@?$vector@V?$vector@V?$vector@_KV?$allocator@_K@std@@@std@@V?$allocator@V?$vector@_KV?$allocator@_K@std@@@std@@@2@@std@@V?$allocator@V?$vector@V?$vector@_KV?$allocator@_K@std@@@std@@V?$allocator@V?$vector@_KV?$allocator@_K@std@@@std@@@2@@std@@@2@@std@@IAEXPAV?$vector@V?$vector@_KV?$allocator@_K@std@@@std@@V?$allocator@V?$vector@_KV?$allocator@_K@std@@@std@@@2@@2@0@Z
	?_Tidy@?$vector@V?$vector@V?$vector@_KV?$allocator@_K@std@@@std@@V?$allocator@V?$vector@_KV?$allocator@_K@std@@@std@@@2@@std@@V?$allocator@V?$vector@V?$vector@_KV?$allocator@_K@std@@@std@@V?$allocator@V?$vector@_KV?$allocator@_K@std@@@std@@@2@@std@@@2@@std@@IAEXXZ
	?erase@?$vector@V?$vector@V?$vector@_KV?$allocator@_K@std@@@std@@V?$allocator@V?$vector@_KV?$allocator@_K@std@@@std@@@2@@std@@V?$allocator@V?$vector@V?$vector@_KV?$allocator@_K@std@@@std@@V?$allocator@V?$vector@_KV?$allocator@_K@std@@@std@@@2@@std@@@2@@std@@QAE?AV?$_Vector_iterator@V?$vector@V?$vector@_KV?$allocator@_K@std@@@std@@V?$allocator@V?$vector@_KV?$allocator@_K@std@@@std@@@2@@std@@V?$allocator@V?$vector@V?$vector@_KV?$allocator@_K@std@@@std@@V?$allocator@V?$vector@_KV?$allocator@_K@std@@@std@@@2@@std@@@2@@2@V32@0@Z
	??1?$vector@V?$vector@V?$vector@_KV?$allocator@_K@std@@@std@@V?$allocator@V?$vector@_KV?$allocator@_K@std@@@std@@@2@@std@@V?$allocator@V?$vector@V?$vector@_KV?$allocator@_K@std@@@std@@V?$allocator@V?$vector@_KV?$allocator@_K@std@@@std@@@2@@std@@@2@@std@@QAE@XZ
	?clear@?$vector@V?$vector@V?$vector@_KV?$allocator@_K@std@@@std@@V?$allocator@V?$vector@_KV?$allocator@_K@std@@@std@@@2@@std@@V?$allocator@V?$vector@V?$vector@_KV?$allocator@_K@std@@@std@@V?$allocator@V?$vector@_KV?$allocator@_K@std@@@std@@@2@@std@@@2@@std@@QAEXXZ
	??1TileOffsets@Imf@@QAE@XZ
	??4?$vector@V?$vector@V?$vector@_KV?$allocator@_K@std@@@std@@V?$allocator@V?$vector@_KV?$allocator@_K@std@@@std@@@2@@std@@V?$allocator@V?$vector@V?$vector@_KV?$allocator@_K@std@@@std@@V?$allocator@V?$vector@_KV?$allocator@_K@std@@@std@@@2@@std@@@2@@std@@QAEAAV01@ABV01@@Z
	??4TileOffsets@Imf@@QAEAAV01@ABV01@@Z
	?floorLog2@?A0x2fdeef6b@Imf@@YAHH@Z
	?ceilLog2@?A0x2fdeef6b@Imf@@YAHH@Z
	?roundLog2@?A0x2fdeef6b@Imf@@YAHHW4LevelRoundingMode@2@@Z
	?levelSize@Imf@@YAHHHHW4LevelRoundingMode@1@@Z
	?calculateNumXLevels@?A0x2fdeef6b@Imf@@YAHABVTileDescription@2@HHHH@Z
	?calculateNumYLevels@?A0x2fdeef6b@Imf@@YAHABVTileDescription@2@HHHH@Z
	?calculateNumTiles@?A0x2fdeef6b@Imf@@YAXPAHHHHHW4LevelRoundingMode@2@@Z
	?precalculateTileInfo@Imf@@YAXABVTileDescription@1@HHHHAAPAH1AAH2@Z
	?dataWindowForLevel@Imf@@YA?AV?$Box@V?$Vec2@H@Imath@@@Imath@@ABVTileDescription@1@HHHHHH@Z
	?dataWindowForTile@Imf@@YA?AV?$Box@V?$Vec2@H@Imath@@@Imath@@ABVTileDescription@1@HHHHHHHH@Z
	?calculateBytesPerPixel@Imf@@YAIABVHeader@1@@Z
	??A?$Vec2@H@Imath@@QAEAAHH@Z
	??0?$Vec2@H@Imath@@QAE@HH@Z
	??H?$Vec2@H@Imath@@QBE?AV01@ABV01@@Z
	??0?$Box@V?$Vec2@H@Imath@@@Imath@@QAE@ABV?$Vec2@H@1@0@Z
	??8TileDescription@Imf@@QBE_NABV01@@Z
	??0TOutSliceInfo@?A0xc559f438@Imf@@QAE@W4PixelType@2@PBDII_NHH@Z
	?nextTileCoord@Data@TiledOutputFile@Imf@@QAE?AUTileCoord@?A0xc559f438@3@ABU453@@Z
	??1TileBufferTask@?A0xc559f438@Imf@@UAE@XZ
	??1TiledOutputFile@Imf@@UAE@XZ
	?fileName@TiledOutputFile@Imf@@QBEPBDXZ
	?header@TiledOutputFile@Imf@@QBEABVHeader@2@XZ
	?frameBuffer@TiledOutputFile@Imf@@QBEABVFrameBuffer@2@XZ
	?tileXSize@TiledOutputFile@Imf@@QBEIXZ
	?tileYSize@TiledOutputFile@Imf@@QBEIXZ
	?levelMode@TiledOutputFile@Imf@@QBE?AW4LevelMode@2@XZ
	?levelRoundingMode@TiledOutputFile@Imf@@QBE?AW4LevelRoundingMode@2@XZ
	?numXLevels@TiledOutputFile@Imf@@QBEHXZ
	?numYLevels@TiledOutputFile@Imf@@QBEHXZ
	?isValidLevel@TiledOutputFile@Imf@@QBE_NHH@Z
	?isValidTile@TiledOutputFile@Imf@@ABE_NHHHH@Z
	??0TileBuffer@?A0xc559f438@Imf@@QAE@PAVCompressor@2@@Z
	??1TileBuffer@?A0xc559f438@Imf@@QAE@XZ
	?convertToXdr@?A0xc559f438@Imf@@YAXPAUData@TiledOutputFile@2@AAV?$Array@D@2@HH@Z
	??0TileBufferTask@?A0xc559f438@Imf@@QAE@PAVTaskGroup@IlmThread@@PAUData@TiledOutputFile@2@HHHHH@Z
	?writeTileData@?A0xc559f438@Imf@@YAXPAUData@TiledOutputFile@2@HHHHQBDH@Z
	?execute@TileBufferTask@?A0xc559f438@Imf@@UAEXXZ
	?numLevels@TiledOutputFile@Imf@@QBEHXZ
	?levelWidth@TiledOutputFile@Imf@@QBEHH@Z
	?levelHeight@TiledOutputFile@Imf@@QBEHH@Z
	?numXTiles@TiledOutputFile@Imf@@QBEHH@Z
	?numYTiles@TiledOutputFile@Imf@@QBEHH@Z
	?dataWindowForLevel@TiledOutputFile@Imf@@QBE?AV?$Box@V?$Vec2@H@Imath@@@Imath@@HH@Z
	?dataWindowForTile@TiledOutputFile@Imf@@QBE?AV?$Box@V?$Vec2@H@Imath@@@Imath@@HHHH@Z
	?updatePreviewImage@TiledOutputFile@Imf@@QAEXQBUPreviewRgba@2@@Z
	?breakTile@TiledOutputFile@Imf@@QAEXHHHHHHD@Z
	?copyPixels@TiledOutputFile@Imf@@QAEXAAVTiledInputFile@2@@Z
	?copyPixels@TiledOutputFile@Imf@@QAEXAAVInputFile@2@@Z
	?dataWindowForLevel@TiledOutputFile@Imf@@QBE?AV?$Box@V?$Vec2@H@Imath@@@Imath@@H@Z
	?dataWindowForTile@TiledOutputFile@Imf@@QBE?AV?$Box@V?$Vec2@H@Imath@@@Imath@@HHH@Z
	?bufferedTileWrite@?A0xc559f438@Imf@@YAXPAUData@TiledOutputFile@2@HHHHQBDH@Z
	?writeTiles@TiledOutputFile@Imf@@QAEXHHHHHH@Z
	?writeTiles@TiledOutputFile@Imf@@QAEXHHHHH@Z
	?writeTile@TiledOutputFile@Imf@@QAEXHHHH@Z
	?writeTile@TiledOutputFile@Imf@@QAEXHHH@Z
	?setFrameBuffer@TiledOutputFile@Imf@@QAEXABVFrameBuffer@2@@Z
	??1Data@TiledOutputFile@Imf@@UAE@XZ
	??0Data@TiledOutputFile@Imf@@QAE@_NH@Z
	?initialize@TiledOutputFile@Imf@@AAEXABVHeader@2@@Z
	??0TiledOutputFile@Imf@@QAE@QBDABVHeader@1@H@Z
	??0TiledOutputFile@Imf@@QAE@AAVOStream@1@ABVHeader@1@H@Z
	??0TileCoord@?A0xc559f438@Imf@@QAE@HHHH@Z
	??MTileCoord@?A0xc559f438@Imf@@QBE_NABU012@@Z
	??8TileCoord@?A0xc559f438@Imf@@QBE_NABU012@@Z
	??0BufferedTile@?A0xc559f438@Imf@@QAE@PBDH@Z
	??1BufferedTile@?A0xc559f438@Imf@@QAE@XZ
	?wait@TileBuffer@?A0xc559f438@Imf@@QAEXXZ
	?post@TileBuffer@?A0xc559f438@Imf@@QAEXXZ
	??0?$Array@D@Imf@@QAE@XZ
	??B?$Array@D@Imf@@QAEPADXZ
	?size@?$vector@UTOutSliceInfo@?A0xc559f438@Imf@@V?$allocator@UTOutSliceInfo@?A0xc559f438@Imf@@@std@@@std@@QBEIXZ
	??A?$vector@UTOutSliceInfo@?A0xc559f438@Imf@@V?$allocator@UTOutSliceInfo@?A0xc559f438@Imf@@@std@@@std@@QAEAAUTOutSliceInfo@?A0xc559f438@Imf@@I@Z
	?size@?$vector@PAUTileBuffer@?A0xc559f438@Imf@@V?$allocator@PAUTileBuffer@?A0xc559f438@Imf@@@std@@@std@@QBEIXZ
	??A?$vector@PAUTileBuffer@?A0xc559f438@Imf@@V?$allocator@PAUTileBuffer@?A0xc559f438@Imf@@@std@@@std@@QAEAAPAUTileBuffer@?A0xc559f438@Imf@@I@Z
	?capacity@?$vector@UTOutSliceInfo@?A0xc559f438@Imf@@V?$allocator@UTOutSliceInfo@?A0xc559f438@Imf@@@std@@@std@@QBEIXZ
	??0?$allocator@UTOutSliceInfo@?A0xc559f438@Imf@@@std@@QAE@XZ
	?deallocate@?$allocator@UTOutSliceInfo@?A0xc559f438@Imf@@@std@@QAEXPAUTOutSliceInfo@?A0xc559f438@Imf@@I@Z
	??0?$allocator@PAUTileBuffer@?A0xc559f438@Imf@@@std@@QAE@XZ
	?_Color@?$_Tree@V?$_Tmap_traits@UTileCoord@?A0xc559f438@Imf@@PAUBufferedTile@23@U?$less@UTileCoord@?A0xc559f438@Imf@@@std@@V?$allocator@U?$pair@$$CBUTileCoord@?A0xc559f438@Imf@@PAUBufferedTile@23@@std@@@6@$0A@@std@@@std@@KAAADPAU_Node@?$_Tree_nod@V?$_Tmap_traits@UTileCoord@?A0xc559f438@Imf@@PAUBufferedTile@23@U?$less@UTileCoord@?A0xc559f438@Imf@@@std@@V?$allocator@U?$pair@$$CBUTileCoord@?A0xc559f438@Imf@@PAUBufferedTile@23@@std@@@6@$0A@@std@@@2@@Z
	?_Isnil@?$_Tree@V?$_Tmap_traits@UTileCoord@?A0xc559f438@Imf@@PAUBufferedTile@23@U?$less@UTileCoord@?A0xc559f438@Imf@@@std@@V?$allocator@U?$pair@$$CBUTileCoord@?A0xc559f438@Imf@@PAUBufferedTile@23@@std@@@6@$0A@@std@@@std@@KAAADPAU_Node@?$_Tree_nod@V?$_Tmap_traits@UTileCoord@?A0xc559f438@Imf@@PAUBufferedTile@23@U?$less@UTileCoord@?A0xc559f438@Imf@@@std@@V?$allocator@U?$pair@$$CBUTileCoord@?A0xc559f438@Imf@@PAUBufferedTile@23@@std@@@6@$0A@@std@@@2@@Z
	?_Left@?$_Tree@V?$_Tmap_traits@UTileCoord@?A0xc559f438@Imf@@PAUBufferedTile@23@U?$less@UTileCoord@?A0xc559f438@Imf@@@std@@V?$allocator@U?$pair@$$CBUTileCoord@?A0xc559f438@Imf@@PAUBufferedTile@23@@std@@@6@$0A@@std@@@std@@KAAAPAU_Node@?$_Tree_nod@V?$_Tmap_traits@UTileCoord@?A0xc559f438@Imf@@PAUBufferedTile@23@U?$less@UTileCoord@?A0xc559f438@Imf@@@std@@V?$allocator@U?$pair@$$CBUTileCoord@?A0xc559f438@Imf@@PAUBufferedTile@23@@std@@@6@$0A@@std@@@2@PAU342@@Z
	?_Parent@?$_Tree@V?$_Tmap_traits@UTileCoord@?A0xc559f438@Imf@@PAUBufferedTile@23@U?$less@UTileCoord@?A0xc559f438@Imf@@@std@@V?$allocator@U?$pair@$$CBUTileCoord@?A0xc559f438@Imf@@PAUBufferedTile@23@@std@@@6@$0A@@std@@@std@@KAAAPAU_Node@?$_Tree_nod@V?$_Tmap_traits@UTileCoord@?A0xc559f438@Imf@@PAUBufferedTile@23@U?$less@UTileCoord@?A0xc559f438@Imf@@@std@@V?$allocator@U?$pair@$$CBUTileCoord@?A0xc559f438@Imf@@PAUBufferedTile@23@@std@@@6@$0A@@std@@@2@PAU342@@Z
	?_Right@?$_Tree@V?$_Tmap_traits@UTileCoord@?A0xc559f438@Imf@@PAUBufferedTile@23@U?$less@UTileCoord@?A0xc559f438@Imf@@@std@@V?$allocator@U?$pair@$$CBUTileCoord@?A0xc559f438@Imf@@PAUBufferedTile@23@@std@@@6@$0A@@std@@@std@@KAAAPAU_Node@?$_Tree_nod@V?$_Tmap_traits@UTileCoord@?A0xc559f438@Imf@@PAUBufferedTile@23@U?$less@UTileCoord@?A0xc559f438@Imf@@@std@@V?$allocator@U?$pair@$$CBUTileCoord@?A0xc559f438@Imf@@PAUBufferedTile@23@@std@@@6@$0A@@std@@@2@PAU342@@Z
	?_Lmost@?$_Tree@V?$_Tmap_traits@UTileCoord@?A0xc559f438@Imf@@PAUBufferedTile@23@U?$less@UTileCoord@?A0xc559f438@Imf@@@std@@V?$allocator@U?$pair@$$CBUTileCoord@?A0xc559f438@Imf@@PAUBufferedTile@23@@std@@@6@$0A@@std@@@std@@IBEAAPAU_Node@?$_Tree_nod@V?$_Tmap_traits@UTileCoord@?A0xc559f438@Imf@@PAUBufferedTile@23@U?$less@UTileCoord@?A0xc559f438@Imf@@@std@@V?$allocator@U?$pair@$$CBUTileCoord@?A0xc559f438@Imf@@PAUBufferedTile@23@@std@@@6@$0A@@std@@@2@XZ
	?_Max@?$_Tree@V?$_Tmap_traits@UTileCoord@?A0xc559f438@Imf@@PAUBufferedTile@23@U?$less@UTileCoord@?A0xc559f438@Imf@@@std@@V?$allocator@U?$pair@$$CBUTileCoord@?A0xc559f438@Imf@@PAUBufferedTile@23@@std@@@6@$0A@@std@@@std@@KAPAU_Node@?$_Tree_nod@V?$_Tmap_traits@UTileCoord@?A0xc559f438@Imf@@PAUBufferedTile@23@U?$less@UTileCoord@?A0xc559f438@Imf@@@std@@V?$allocator@U?$pair@$$CBUTileCoord@?A0xc559f438@Imf@@PAUBufferedTile@23@@std@@@6@$0A@@std@@@2@PAU342@@Z
	?_Min@?$_Tree@V?$_Tmap_traits@UTileCoord@?A0xc559f438@Imf@@PAUBufferedTile@23@U?$less@UTileCoord@?A0xc559f438@Imf@@@std@@V?$allocator@U?$pair@$$CBUTileCoord@?A0xc559f438@Imf@@PAUBufferedTile@23@@std@@@6@$0A@@std@@@std@@KAPAU_Node@?$_Tree_nod@V?$_Tmap_traits@UTileCoord@?A0xc559f438@Imf@@PAUBufferedTile@23@U?$less@UTileCoord@?A0xc559f438@Imf@@@std@@V?$allocator@U?$pair@$$CBUTileCoord@?A0xc559f438@Imf@@PAUBufferedTile@23@@std@@@6@$0A@@std@@@2@PAU342@@Z
	?_Rmost@?$_Tree@V?$_Tmap_traits@UTileCoord@?A0xc559f438@Imf@@PAUBufferedTile@23@U?$less@UTileCoord@?A0xc559f438@Imf@@@std@@V?$allocator@U?$pair@$$CBUTileCoord@?A0xc559f438@Imf@@PAUBufferedTile@23@@std@@@6@$0A@@std@@@std@@IBEAAPAU_Node@?$_Tree_nod@V?$_Tmap_traits@UTileCoord@?A0xc559f438@Imf@@PAUBufferedTile@23@U?$less@UTileCoord@?A0xc559f438@Imf@@@std@@V?$allocator@U?$pair@$$CBUTileCoord@?A0xc559f438@Imf@@PAUBufferedTile@23@@std@@@6@$0A@@std@@@2@XZ
	?_Root@?$_Tree@V?$_Tmap_traits@UTileCoord@?A0xc559f438@Imf@@PAUBufferedTile@23@U?$less@UTileCoord@?A0xc559f438@Imf@@@std@@V?$allocator@U?$pair@$$CBUTileCoord@?A0xc559f438@Imf@@PAUBufferedTile@23@@std@@@6@$0A@@std@@@std@@IBEAAPAU_Node@?$_Tree_nod@V?$_Tmap_traits@UTileCoord@?A0xc559f438@Imf@@PAUBufferedTile@23@U?$less@UTileCoord@?A0xc559f438@Imf@@@std@@V?$allocator@U?$pair@$$CBUTileCoord@?A0xc559f438@Imf@@PAUBufferedTile@23@@std@@@6@$0A@@std@@@2@XZ
	?_Rrotate@?$_Tree@V?$_Tmap_traits@UTileCoord@?A0xc559f438@Imf@@PAUBufferedTile@23@U?$less@UTileCoord@?A0xc559f438@Imf@@@std@@V?$allocator@U?$pair@$$CBUTileCoord@?A0xc559f438@Imf@@PAUBufferedTile@23@@std@@@6@$0A@@std@@@std@@IAEXPAU_Node@?$_Tree_nod@V?$_Tmap_traits@UTileCoord@?A0xc559f438@Imf@@PAUBufferedTile@23@U?$less@UTileCoord@?A0xc559f438@Imf@@@std@@V?$allocator@U?$pair@$$CBUTileCoord@?A0xc559f438@Imf@@PAUBufferedTile@23@@std@@@6@$0A@@std@@@2@@Z
	??0?$allocator@U?$pair@$$CBUTileCoord@?A0xc559f438@Imf@@PAUBufferedTile@23@@std@@@std@@QAE@XZ
	??R?$less@UTileCoord@?A0xc559f438@Imf@@@std@@QBE_NABUTileCoord@?A0xc559f438@Imf@@0@Z
	?deallocate@?$allocator@U_Node@?$_Tree_nod@V?$_Tmap_traits@UTileCoord@?A0xc559f438@Imf@@PAUBufferedTile@23@U?$less@UTileCoord@?A0xc559f438@Imf@@@std@@V?$allocator@U?$pair@$$CBUTileCoord@?A0xc559f438@Imf@@PAUBufferedTile@23@@std@@@6@$0A@@std@@@std@@@std@@QAEXPAU_Node@?$_Tree_nod@V?$_Tmap_traits@UTileCoord@?A0xc559f438@Imf@@PAUBufferedTile@23@U?$less@UTileCoord@?A0xc559f438@Imf@@@std@@V?$allocator@U?$pair@$$CBUTileCoord@?A0xc559f438@Imf@@PAUBufferedTile@23@@std@@@6@$0A@@std@@@2@I@Z
	??8const_iterator@?$_Tree@V?$_Tmap_traits@UTileCoord@?A0xc559f438@Imf@@PAUBufferedTile@23@U?$less@UTileCoord@?A0xc559f438@Imf@@@std@@V?$allocator@U?$pair@$$CBUTileCoord@?A0xc559f438@Imf@@PAUBufferedTile@23@@std@@@6@$0A@@std@@@std@@QBE_NABV012@@Z
	?_Mynode@const_iterator@?$_Tree@V?$_Tmap_traits@UTileCoord@?A0xc559f438@Imf@@PAUBufferedTile@23@U?$less@UTileCoord@?A0xc559f438@Imf@@@std@@V?$allocator@U?$pair@$$CBUTileCoord@?A0xc559f438@Imf@@PAUBufferedTile@23@@std@@@6@$0A@@std@@@std@@QBEPAU_Node@?$_Tree_nod@V?$_Tmap_traits@UTileCoord@?A0xc559f438@Imf@@PAUBufferedTile@23@U?$less@UTileCoord@?A0xc559f438@Imf@@@std@@V?$allocator@U?$pair@$$CBUTileCoord@?A0xc559f438@Imf@@PAUBufferedTile@23@@std@@@6@$0A@@std@@@3@XZ
	??0?$pair@$$CBUTileCoord@?A0xc559f438@Imf@@PAUBufferedTile@23@@std@@QAE@ABUTileCoord@?A0xc559f438@Imf@@ABQAUBufferedTile@34@@Z
	?_Xlen@?$vector@UTOutSliceInfo@?A0xc559f438@Imf@@V?$allocator@UTOutSliceInfo@?A0xc559f438@Imf@@@std@@@std@@KAXXZ
	??0?$allocator@UTOutSliceInfo@?A0xc559f438@Imf@@@std@@QAE@ABV01@@Z
	?_Xlen@?$vector@PAUTileBuffer@?A0xc559f438@Imf@@V?$allocator@PAUTileBuffer@?A0xc559f438@Imf@@@std@@@std@@KAXXZ
	??0?$allocator@PAUTileBuffer@?A0xc559f438@Imf@@@std@@QAE@ABV01@@Z
	?deallocate@?$allocator@PAUTileBuffer@?A0xc559f438@Imf@@@std@@QAEXPAPAUTileBuffer@?A0xc559f438@Imf@@I@Z
	?_Myval@?$_Tree@V?$_Tmap_traits@UTileCoord@?A0xc559f438@Imf@@PAUBufferedTile@23@U?$less@UTileCoord@?A0xc559f438@Imf@@@std@@V?$allocator@U?$pair@$$CBUTileCoord@?A0xc559f438@Imf@@PAUBufferedTile@23@@std@@@6@$0A@@std@@@std@@KAAAU?$pair@$$CBUTileCoord@?A0xc559f438@Imf@@PAUBufferedTile@23@@2@PAU_Node@?$_Tree_nod@V?$_Tmap_traits@UTileCoord@?A0xc559f438@Imf@@PAUBufferedTile@23@U?$less@UTileCoord@?A0xc559f438@Imf@@@std@@V?$allocator@U?$pair@$$CBUTileCoord@?A0xc559f438@Imf@@PAUBufferedTile@23@@std@@@6@$0A@@std@@@2@@Z
	?size@?$_Tree@V?$_Tmap_traits@UTileCoord@?A0xc559f438@Imf@@PAUBufferedTile@23@U?$less@UTileCoord@?A0xc559f438@Imf@@@std@@V?$allocator@U?$pair@$$CBUTileCoord@?A0xc559f438@Imf@@PAUBufferedTile@23@@std@@@6@$0A@@std@@@std@@QBEIXZ
	?_Kfn@?$_Tmap_traits@UTileCoord@?A0xc559f438@Imf@@PAUBufferedTile@23@U?$less@UTileCoord@?A0xc559f438@Imf@@@std@@V?$allocator@U?$pair@$$CBUTileCoord@?A0xc559f438@Imf@@PAUBufferedTile@23@@std@@@6@$0A@@std@@SAABUTileCoord@?A0xc559f438@Imf@@ABU?$pair@$$CBUTileCoord@?A0xc559f438@Imf@@PAUBufferedTile@23@@2@@Z
	??0?$allocator@U?$pair@$$CBUTileCoord@?A0xc559f438@Imf@@PAUBufferedTile@23@@std@@@std@@QAE@ABV01@@Z
	??Dconst_iterator@?$_Tree@V?$_Tmap_traits@UTileCoord@?A0xc559f438@Imf@@PAUBufferedTile@23@U?$less@UTileCoord@?A0xc559f438@Imf@@@std@@V?$allocator@U?$pair@$$CBUTileCoord@?A0xc559f438@Imf@@PAUBufferedTile@23@@std@@@6@$0A@@std@@@std@@QBEABU?$pair@$$CBUTileCoord@?A0xc559f438@Imf@@PAUBufferedTile@23@@2@XZ
	?_Inc@const_iterator@?$_Tree@V?$_Tmap_traits@UTileCoord@?A0xc559f438@Imf@@PAUBufferedTile@23@U?$less@UTileCoord@?A0xc559f438@Imf@@@std@@V?$allocator@U?$pair@$$CBUTileCoord@?A0xc559f438@Imf@@PAUBufferedTile@23@@std@@@6@$0A@@std@@@std@@QAEXXZ
	??0?$_Bidit@U?$pair@$$CBUTileCoord@?A0xc559f438@Imf@@PAUBufferedTile@23@@std@@HPBU12@ABU12@@std@@QAE@XZ
	?max_size@?$allocator@UTOutSliceInfo@?A0xc559f438@Imf@@@std@@QBEIXZ
	?capacity@?$vector@PAUTileBuffer@?A0xc559f438@Imf@@V?$allocator@PAUTileBuffer@?A0xc559f438@Imf@@@std@@@std@@QBEIXZ
	?max_size@?$allocator@PAUTileBuffer@?A0xc559f438@Imf@@@std@@QBEIXZ
	??0const_iterator@?$_Tree@V?$_Tmap_traits@UTileCoord@?A0xc559f438@Imf@@PAUBufferedTile@23@U?$less@UTileCoord@?A0xc559f438@Imf@@@std@@V?$allocator@U?$pair@$$CBUTileCoord@?A0xc559f438@Imf@@PAUBufferedTile@23@@std@@@6@$0A@@std@@@std@@QAE@XZ
	??G?$_Vector_const_iterator@UTOutSliceInfo@?A0xc559f438@Imf@@V?$allocator@UTOutSliceInfo@?A0xc559f438@Imf@@@std@@@std@@QBEHABV01@@Z
	??0?$pair@Viterator@?$_Tree@V?$_Tmap_traits@UTileCoord@?A0xc559f438@Imf@@PAUBufferedTile@23@U?$less@UTileCoord@?A0xc559f438@Imf@@@std@@V?$allocator@U?$pair@$$CBUTileCoord@?A0xc559f438@Imf@@PAUBufferedTile@23@@std@@@6@$0A@@std@@@std@@_N@std@@QAE@ABViterator@?$_Tree@V?$_Tmap_traits@UTileCoord@?A0xc559f438@Imf@@PAUBufferedTile@23@U?$less@UTileCoord@?A0xc559f438@Imf@@@std@@V?$allocator@U?$pair@$$CBUTileCoord@?A0xc559f438@Imf@@PAUBufferedTile@23@@std@@@6@$0A@@std@@@1@AB_N@Z
	??0?$_Ranit@UTOutSliceInfo@?A0xc559f438@Imf@@HPBU123@ABU123@@std@@QAE@XZ
	?max_size@?$allocator@U?$pair@$$CBUTileCoord@?A0xc559f438@Imf@@PAUBufferedTile@23@@std@@@std@@QBEIXZ
	?_Dec@const_iterator@?$_Tree@V?$_Tmap_traits@UTileCoord@?A0xc559f438@Imf@@PAUBufferedTile@23@U?$less@UTileCoord@?A0xc559f438@Imf@@@std@@V?$allocator@U?$pair@$$CBUTileCoord@?A0xc559f438@Imf@@PAUBufferedTile@23@@std@@@6@$0A@@std@@@std@@QAEXXZ
	??Y?$_Vector_const_iterator@UTOutSliceInfo@?A0xc559f438@Imf@@V?$allocator@UTOutSliceInfo@?A0xc559f438@Imf@@@std@@@std@@QAEAAV01@H@Z
	??8?$_Vector_const_iterator@UTOutSliceInfo@?A0xc559f438@Imf@@V?$allocator@UTOutSliceInfo@?A0xc559f438@Imf@@@std@@@std@@QBE_NABV01@@Z
	??Y?$_Vector_const_iterator@PAUTileBuffer@?A0xc559f438@Imf@@V?$allocator@PAUTileBuffer@?A0xc559f438@Imf@@@std@@@std@@QAEAAV01@H@Z
	??8?$_Vector_const_iterator@PAUTileBuffer@?A0xc559f438@Imf@@V?$allocator@PAUTileBuffer@?A0xc559f438@Imf@@@std@@@std@@QBE_NABV01@@Z
	??0_Node@?$_Tree_nod@V?$_Tmap_traits@UTileCoord@?A0xc559f438@Imf@@PAUBufferedTile@23@U?$less@UTileCoord@?A0xc559f438@Imf@@@std@@V?$allocator@U?$pair@$$CBUTileCoord@?A0xc559f438@Imf@@PAUBufferedTile@23@@std@@@6@$0A@@std@@@std@@QAE@PAU012@00ABU?$pair@$$CBUTileCoord@?A0xc559f438@Imf@@PAUBufferedTile@23@@2@D@Z
	??0?$_Ranit@PAUTileBuffer@?A0xc559f438@Imf@@HPBQAU123@ABQAU123@@std@@QAE@XZ
	??0?$_Tmap_traits@UTileCoord@?A0xc559f438@Imf@@PAUBufferedTile@23@U?$less@UTileCoord@?A0xc559f438@Imf@@@std@@V?$allocator@U?$pair@$$CBUTileCoord@?A0xc559f438@Imf@@PAUBufferedTile@23@@std@@@6@$0A@@std@@QAE@U?$less@UTileCoord@?A0xc559f438@Imf@@@1@@Z
	?value@?$TypedAttribute@VPreviewImage@Imf@@@Imf@@QAEAAVPreviewImage@2@XZ
	?resizeErase@?$Array@D@Imf@@QAEXJ@Z
	??$_Destroy@U_Node@?$_Tree_nod@V?$_Tmap_traits@UTileCoord@?A0xc559f438@Imf@@PAUBufferedTile@23@U?$less@UTileCoord@?A0xc559f438@Imf@@@std@@V?$allocator@U?$pair@$$CBUTileCoord@?A0xc559f438@Imf@@PAUBufferedTile@23@@std@@@6@$0A@@std@@@std@@@std@@YAXPAU_Node@?$_Tree_nod@V?$_Tmap_traits@UTileCoord@?A0xc559f438@Imf@@PAUBufferedTile@23@U?$less@UTileCoord@?A0xc559f438@Imf@@@std@@V?$allocator@U?$pair@$$CBUTileCoord@?A0xc559f438@Imf@@PAUBufferedTile@23@@std@@@6@$0A@@std@@@0@@Z
	??$_Allocate@UTOutSliceInfo@?A0xc559f438@Imf@@@std@@YAPAUTOutSliceInfo@?A0xc559f438@Imf@@IPAU123@@Z
	??$_Allocate@PAUTileBuffer@?A0xc559f438@Imf@@@std@@YAPAPAUTileBuffer@?A0xc559f438@Imf@@IPAPAU123@@Z
	??$_Destroy@PAU_Node@?$_Tree_nod@V?$_Tmap_traits@UTileCoord@?A0xc559f438@Imf@@PAUBufferedTile@23@U?$less@UTileCoord@?A0xc559f438@Imf@@@std@@V?$allocator@U?$pair@$$CBUTileCoord@?A0xc559f438@Imf@@PAUBufferedTile@23@@std@@@6@$0A@@std@@@std@@@std@@YAXPAPAU_Node@?$_Tree_nod@V?$_Tmap_traits@UTileCoord@?A0xc559f438@Imf@@PAUBufferedTile@23@U?$less@UTileCoord@?A0xc559f438@Imf@@@std@@V?$allocator@U?$pair@$$CBUTileCoord@?A0xc559f438@Imf@@PAUBufferedTile@23@@std@@@6@$0A@@std@@@0@@Z
	??$?0U?$pair@$$CBUTileCoord@?A0xc559f438@Imf@@PAUBufferedTile@23@@std@@@?$allocator@PAU_Node@?$_Tree_nod@V?$_Tmap_traits@UTileCoord@?A0xc559f438@Imf@@PAUBufferedTile@23@U?$less@UTileCoord@?A0xc559f438@Imf@@@std@@V?$allocator@U?$pair@$$CBUTileCoord@?A0xc559f438@Imf@@PAUBufferedTile@23@@std@@@6@$0A@@std@@@std@@@std@@QAE@ABV?$allocator@U?$pair@$$CBUTileCoord@?A0xc559f438@Imf@@PAUBufferedTile@23@@std@@@1@@Z
	??$?0U?$pair@$$CBUTileCoord@?A0xc559f438@Imf@@PAUBufferedTile@23@@std@@@?$allocator@U_Node@?$_Tree_nod@V?$_Tmap_traits@UTileCoord@?A0xc559f438@Imf@@PAUBufferedTile@23@U?$less@UTileCoord@?A0xc559f438@Imf@@@std@@V?$allocator@U?$pair@$$CBUTileCoord@?A0xc559f438@Imf@@PAUBufferedTile@23@@std@@@6@$0A@@std@@@std@@@std@@QAE@ABV?$allocator@U?$pair@$$CBUTileCoord@?A0xc559f438@Imf@@PAUBufferedTile@23@@std@@@1@@Z
	??$_Allocate@U_Node@?$_Tree_nod@V?$_Tmap_traits@UTileCoord@?A0xc559f438@Imf@@PAUBufferedTile@23@U?$less@UTileCoord@?A0xc559f438@Imf@@@std@@V?$allocator@U?$pair@$$CBUTileCoord@?A0xc559f438@Imf@@PAUBufferedTile@23@@std@@@6@$0A@@std@@@std@@@std@@YAPAU_Node@?$_Tree_nod@V?$_Tmap_traits@UTileCoord@?A0xc559f438@Imf@@PAUBufferedTile@23@U?$less@UTileCoord@?A0xc559f438@Imf@@@std@@V?$allocator@U?$pair@$$CBUTileCoord@?A0xc559f438@Imf@@PAUBufferedTile@23@@std@@@6@$0A@@std@@@0@IPAU120@@Z
	??$_Construct@PAU_Node@?$_Tree_nod@V?$_Tmap_traits@UTileCoord@?A0xc559f438@Imf@@PAUBufferedTile@23@U?$less@UTileCoord@?A0xc559f438@Imf@@@std@@V?$allocator@U?$pair@$$CBUTileCoord@?A0xc559f438@Imf@@PAUBufferedTile@23@@std@@@6@$0A@@std@@@std@@PAU123@@std@@YAXPAPAU_Node@?$_Tree_nod@V?$_Tmap_traits@UTileCoord@?A0xc559f438@Imf@@PAUBufferedTile@23@U?$less@UTileCoord@?A0xc559f438@Imf@@@std@@V?$allocator@U?$pair@$$CBUTileCoord@?A0xc559f438@Imf@@PAUBufferedTile@23@@std@@@6@$0A@@std@@@0@ABQAU120@@Z
	??$?8H@?$Vec2@H@Imath@@QBE_NABV01@@Z
	??$_Iter_random@PAUTOutSliceInfo@?A0xc559f438@Imf@@PAU123@@std@@YA?AUrandom_access_iterator_tag@0@ABQAUTOutSliceInfo@?A0xc559f438@Imf@@0@Z
	??$_Ptr_cat@PAUTOutSliceInfo@?A0xc559f438@Imf@@PAU123@@std@@YA?AU_Nonscalar_ptr_iterator_tag@0@AAPAUTOutSliceInfo@?A0xc559f438@Imf@@0@Z
	??$_Fill@PAUTOutSliceInfo@?A0xc559f438@Imf@@U123@@std@@YAXPAUTOutSliceInfo@?A0xc559f438@Imf@@0ABU123@@Z
	??$_Move_cat@PAUTOutSliceInfo@?A0xc559f438@Imf@@@std@@YA?AU_Undefined_move_tag@0@ABQAUTOutSliceInfo@?A0xc559f438@Imf@@@Z
	??$_Iter_random@PAPAUTileBuffer@?A0xc559f438@Imf@@PAPAU123@@std@@YA?AUrandom_access_iterator_tag@0@ABQAPAUTileBuffer@?A0xc559f438@Imf@@0@Z
	??$_Ptr_cat@PAPAUTileBuffer@?A0xc559f438@Imf@@PAPAU123@@std@@YA?AU_Scalar_ptr_iterator_tag@0@AAPAPAUTileBuffer@?A0xc559f438@Imf@@0@Z
	??$_Copy_opt@PAPAUTileBuffer@?A0xc559f438@Imf@@PAPAU123@Urandom_access_iterator_tag@std@@@std@@YAPAPAUTileBuffer@?A0xc559f438@Imf@@PAPAU123@00Urandom_access_iterator_tag@0@U_Scalar_ptr_iterator_tag@0@U_Range_checked_iterator_tag@0@@Z
	??$_Destroy_range@PAUTileBuffer@?A0xc559f438@Imf@@V?$allocator@PAUTileBuffer@?A0xc559f438@Imf@@@std@@@std@@YAXPAPAUTileBuffer@?A0xc559f438@Imf@@0AAV?$allocator@PAUTileBuffer@?A0xc559f438@Imf@@@0@U_Scalar_ptr_iterator_tag@0@@Z
	??$_Fill@PAPAUTileBuffer@?A0xc559f438@Imf@@PAU123@@std@@YAXPAPAUTileBuffer@?A0xc559f438@Imf@@0ABQAU123@@Z
	??$_Move_cat@PAPAUTileBuffer@?A0xc559f438@Imf@@@std@@YA?AU_Undefined_move_tag@0@ABQAPAUTileBuffer@?A0xc559f438@Imf@@@Z
	??$_Checked_base@PAUTOutSliceInfo@?A0xc559f438@Imf@@@std@@YAPAUTOutSliceInfo@?A0xc559f438@Imf@@AAPAU123@U_Unchanged_checked_iterator_base_type_tag@0@@Z
	??$_Copy_opt@PAUTOutSliceInfo@?A0xc559f438@Imf@@PAU123@Uforward_iterator_tag@std@@@std@@YAPAUTOutSliceInfo@?A0xc559f438@Imf@@PAU123@00Uforward_iterator_tag@0@U_Nonscalar_ptr_iterator_tag@0@U_Range_checked_iterator_tag@0@@Z
	??$_Checked_base@PAPAUTileBuffer@?A0xc559f438@Imf@@@std@@YAPAPAUTileBuffer@?A0xc559f438@Imf@@AAPAPAU123@U_Unchanged_checked_iterator_base_type_tag@0@@Z
	??$_Copy_backward_opt@PAPAUTileBuffer@?A0xc559f438@Imf@@PAPAU123@Urandom_access_iterator_tag@std@@@std@@YAPAPAUTileBuffer@?A0xc559f438@Imf@@PAPAU123@00Urandom_access_iterator_tag@0@U_Scalar_ptr_iterator_tag@0@U_Range_checked_iterator_tag@0@@Z
	??$_Construct@UTOutSliceInfo@?A0xc559f438@Imf@@U123@@std@@YAXPAUTOutSliceInfo@?A0xc559f438@Imf@@ABU123@@Z
	??$_Destroy@UTOutSliceInfo@?A0xc559f438@Imf@@@std@@YAXPAUTOutSliceInfo@?A0xc559f438@Imf@@@Z
	??$_Copy_backward_opt@PAUTOutSliceInfo@?A0xc559f438@Imf@@PAU123@Uforward_iterator_tag@std@@@std@@YAPAUTOutSliceInfo@?A0xc559f438@Imf@@PAU123@00Uforward_iterator_tag@0@U_Nonscalar_ptr_iterator_tag@0@U_Range_checked_iterator_tag@0@@Z
	??$_Iter_cat@PAPAUTileBuffer@?A0xc559f438@Imf@@@std@@YA?AUrandom_access_iterator_tag@0@ABQAPAUTileBuffer@?A0xc559f438@Imf@@@Z
	??$_Uninit_copy@PAPAUTileBuffer@?A0xc559f438@Imf@@PAPAU123@V?$allocator@PAUTileBuffer@?A0xc559f438@Imf@@@std@@@std@@YAPAPAUTileBuffer@?A0xc559f438@Imf@@PAPAU123@00AAV?$allocator@PAUTileBuffer@?A0xc559f438@Imf@@@0@U_Scalar_ptr_iterator_tag@0@U_Range_checked_iterator_tag@0@@Z
	??$_Fill_n@PAPAUTileBuffer@?A0xc559f438@Imf@@IPAU123@@std@@YAXPAPAUTileBuffer@?A0xc559f438@Imf@@IABQAU123@U_Range_checked_iterator_tag@0@@Z
	?getTileBuffer@Data@TiledOutputFile@Imf@@QAEPAUTileBuffer@?A0xc559f438@3@H@Z
	??9const_iterator@?$_Tree@V?$_Tmap_traits@UTileCoord@?A0xc559f438@Imf@@PAUBufferedTile@23@U?$less@UTileCoord@?A0xc559f438@Imf@@@std@@V?$allocator@U?$pair@$$CBUTileCoord@?A0xc559f438@Imf@@PAUBufferedTile@23@@std@@@6@$0A@@std@@@std@@QBE_NABV012@@Z
	??0?$_Vector_val@UTOutSliceInfo@?A0xc559f438@Imf@@V?$allocator@UTOutSliceInfo@?A0xc559f438@Imf@@@std@@@std@@IAE@V?$allocator@UTOutSliceInfo@?A0xc559f438@Imf@@@1@@Z
	??0?$_Vector_val@PAUTileBuffer@?A0xc559f438@Imf@@V?$allocator@PAUTileBuffer@?A0xc559f438@Imf@@@std@@@std@@IAE@V?$allocator@PAUTileBuffer@?A0xc559f438@Imf@@@1@@Z
	?_Key@?$_Tree@V?$_Tmap_traits@UTileCoord@?A0xc559f438@Imf@@PAUBufferedTile@23@U?$less@UTileCoord@?A0xc559f438@Imf@@@std@@V?$allocator@U?$pair@$$CBUTileCoord@?A0xc559f438@Imf@@PAUBufferedTile@23@@std@@@6@$0A@@std@@@std@@KAABUTileCoord@?A0xc559f438@Imf@@PAU_Node@?$_Tree_nod@V?$_Tmap_traits@UTileCoord@?A0xc559f438@Imf@@PAUBufferedTile@23@U?$less@UTileCoord@?A0xc559f438@Imf@@@std@@V?$allocator@U?$pair@$$CBUTileCoord@?A0xc559f438@Imf@@PAUBufferedTile@23@@std@@@6@$0A@@std@@@2@@Z
	?_Lrotate@?$_Tree@V?$_Tmap_traits@UTileCoord@?A0xc559f438@Imf@@PAUBufferedTile@23@U?$less@UTileCoord@?A0xc559f438@Imf@@@std@@V?$allocator@U?$pair@$$CBUTileCoord@?A0xc559f438@Imf@@PAUBufferedTile@23@@std@@@6@$0A@@std@@@std@@IAEXPAU_Node@?$_Tree_nod@V?$_Tmap_traits@UTileCoord@?A0xc559f438@Imf@@PAUBufferedTile@23@U?$less@UTileCoord@?A0xc559f438@Imf@@@std@@V?$allocator@U?$pair@$$CBUTileCoord@?A0xc559f438@Imf@@PAUBufferedTile@23@@std@@@6@$0A@@std@@@2@@Z
	?destroy@?$allocator@U_Node@?$_Tree_nod@V?$_Tmap_traits@UTileCoord@?A0xc559f438@Imf@@PAUBufferedTile@23@U?$less@UTileCoord@?A0xc559f438@Imf@@@std@@V?$allocator@U?$pair@$$CBUTileCoord@?A0xc559f438@Imf@@PAUBufferedTile@23@@std@@@6@$0A@@std@@@std@@@std@@QAEXPAU_Node@?$_Tree_nod@V?$_Tmap_traits@UTileCoord@?A0xc559f438@Imf@@PAUBufferedTile@23@U?$less@UTileCoord@?A0xc559f438@Imf@@@std@@V?$allocator@U?$pair@$$CBUTileCoord@?A0xc559f438@Imf@@PAUBufferedTile@23@@std@@@6@$0A@@std@@@2@@Z
	??Diterator@?$_Tree@V?$_Tmap_traits@UTileCoord@?A0xc559f438@Imf@@PAUBufferedTile@23@U?$less@UTileCoord@?A0xc559f438@Imf@@@std@@V?$allocator@U?$pair@$$CBUTileCoord@?A0xc559f438@Imf@@PAUBufferedTile@23@@std@@@6@$0A@@std@@@std@@QBEAAU?$pair@$$CBUTileCoord@?A0xc559f438@Imf@@PAUBufferedTile@23@@2@XZ
	??Econst_iterator@?$_Tree@V?$_Tmap_traits@UTileCoord@?A0xc559f438@Imf@@PAUBufferedTile@23@U?$less@UTileCoord@?A0xc559f438@Imf@@@std@@V?$allocator@U?$pair@$$CBUTileCoord@?A0xc559f438@Imf@@PAUBufferedTile@23@@std@@@6@$0A@@std@@@std@@QAEAAV012@XZ
	?max_size@?$vector@UTOutSliceInfo@?A0xc559f438@Imf@@V?$allocator@UTOutSliceInfo@?A0xc559f438@Imf@@@std@@@std@@QBEIXZ
	?allocate@?$allocator@UTOutSliceInfo@?A0xc559f438@Imf@@@std@@QAEPAUTOutSliceInfo@?A0xc559f438@Imf@@I@Z
	?max_size@?$vector@PAUTileBuffer@?A0xc559f438@Imf@@V?$allocator@PAUTileBuffer@?A0xc559f438@Imf@@@std@@@std@@QBEIXZ
	?allocate@?$allocator@PAUTileBuffer@?A0xc559f438@Imf@@@std@@QAEPAPAUTileBuffer@?A0xc559f438@Imf@@I@Z
	?_Lbound@?$_Tree@V?$_Tmap_traits@UTileCoord@?A0xc559f438@Imf@@PAUBufferedTile@23@U?$less@UTileCoord@?A0xc559f438@Imf@@@std@@V?$allocator@U?$pair@$$CBUTileCoord@?A0xc559f438@Imf@@PAUBufferedTile@23@@std@@@6@$0A@@std@@@std@@IBEPAU_Node@?$_Tree_nod@V?$_Tmap_traits@UTileCoord@?A0xc559f438@Imf@@PAUBufferedTile@23@U?$less@UTileCoord@?A0xc559f438@Imf@@@std@@V?$allocator@U?$pair@$$CBUTileCoord@?A0xc559f438@Imf@@PAUBufferedTile@23@@std@@@6@$0A@@std@@@2@ABUTileCoord@?A0xc559f438@Imf@@@Z
	?destroy@?$allocator@PAU_Node@?$_Tree_nod@V?$_Tmap_traits@UTileCoord@?A0xc559f438@Imf@@PAUBufferedTile@23@U?$less@UTileCoord@?A0xc559f438@Imf@@@std@@V?$allocator@U?$pair@$$CBUTileCoord@?A0xc559f438@Imf@@PAUBufferedTile@23@@std@@@6@$0A@@std@@@std@@@std@@QAEXPAPAU_Node@?$_Tree_nod@V?$_Tmap_traits@UTileCoord@?A0xc559f438@Imf@@PAUBufferedTile@23@U?$less@UTileCoord@?A0xc559f438@Imf@@@std@@V?$allocator@U?$pair@$$CBUTileCoord@?A0xc559f438@Imf@@PAUBufferedTile@23@@std@@@6@$0A@@std@@@2@@Z
	??0iterator@?$_Tree@V?$_Tmap_traits@UTileCoord@?A0xc559f438@Imf@@PAUBufferedTile@23@U?$less@UTileCoord@?A0xc559f438@Imf@@@std@@V?$allocator@U?$pair@$$CBUTileCoord@?A0xc559f438@Imf@@PAUBufferedTile@23@@std@@@6@$0A@@std@@@std@@QAE@XZ
	??0const_iterator@?$_Tree@V?$_Tmap_traits@UTileCoord@?A0xc559f438@Imf@@PAUBufferedTile@23@U?$less@UTileCoord@?A0xc559f438@Imf@@@std@@V?$allocator@U?$pair@$$CBUTileCoord@?A0xc559f438@Imf@@PAUBufferedTile@23@@std@@@6@$0A@@std@@@std@@QAE@PAU_Node@?$_Tree_nod@V?$_Tmap_traits@UTileCoord@?A0xc559f438@Imf@@PAUBufferedTile@23@U?$less@UTileCoord@?A0xc559f438@Imf@@@std@@V?$allocator@U?$pair@$$CBUTileCoord@?A0xc559f438@Imf@@PAUBufferedTile@23@@std@@@6@$0A@@std@@@2@PBV12@@Z
	??G?$_Vector_iterator@UTOutSliceInfo@?A0xc559f438@Imf@@V?$allocator@UTOutSliceInfo@?A0xc559f438@Imf@@@std@@@std@@QBEHABV?$_Vector_const_iterator@UTOutSliceInfo@?A0xc559f438@Imf@@V?$allocator@UTOutSliceInfo@?A0xc559f438@Imf@@@std@@@1@@Z
	?max_size@?$_Tree@V?$_Tmap_traits@UTileCoord@?A0xc559f438@Imf@@PAUBufferedTile@23@U?$less@UTileCoord@?A0xc559f438@Imf@@@std@@V?$allocator@U?$pair@$$CBUTileCoord@?A0xc559f438@Imf@@PAUBufferedTile@23@@std@@@6@$0A@@std@@@std@@QBEIXZ
	??Fconst_iterator@?$_Tree@V?$_Tmap_traits@UTileCoord@?A0xc559f438@Imf@@PAUBufferedTile@23@U?$less@UTileCoord@?A0xc559f438@Imf@@@std@@V?$allocator@U?$pair@$$CBUTileCoord@?A0xc559f438@Imf@@PAUBufferedTile@23@@std@@@6@$0A@@std@@@std@@QAEAAV012@XZ
	??Y?$_Vector_iterator@UTOutSliceInfo@?A0xc559f438@Imf@@V?$allocator@UTOutSliceInfo@?A0xc559f438@Imf@@@std@@@std@@QAEAAV01@H@Z
	??9?$_Vector_const_iterator@UTOutSliceInfo@?A0xc559f438@Imf@@V?$allocator@UTOutSliceInfo@?A0xc559f438@Imf@@@std@@@std@@QBE_NABV01@@Z
	??Y?$_Vector_iterator@PAUTileBuffer@?A0xc559f438@Imf@@V?$allocator@PAUTileBuffer@?A0xc559f438@Imf@@@std@@@std@@QAEAAV01@H@Z
	??9?$_Vector_const_iterator@PAUTileBuffer@?A0xc559f438@Imf@@V?$allocator@PAUTileBuffer@?A0xc559f438@Imf@@@std@@@std@@QBE_NABV01@@Z
	?_Erase@?$_Tree@V?$_Tmap_traits@UTileCoord@?A0xc559f438@Imf@@PAUBufferedTile@23@U?$less@UTileCoord@?A0xc559f438@Imf@@@std@@V?$allocator@U?$pair@$$CBUTileCoord@?A0xc559f438@Imf@@PAUBufferedTile@23@@std@@@6@$0A@@std@@@std@@IAEXPAU_Node@?$_Tree_nod@V?$_Tmap_traits@UTileCoord@?A0xc559f438@Imf@@PAUBufferedTile@23@U?$less@UTileCoord@?A0xc559f438@Imf@@@std@@V?$allocator@U?$pair@$$CBUTileCoord@?A0xc559f438@Imf@@PAUBufferedTile@23@@std@@@6@$0A@@std@@@2@@Z
	??0?$_Tree_nod@V?$_Tmap_traits@UTileCoord@?A0xc559f438@Imf@@PAUBufferedTile@23@U?$less@UTileCoord@?A0xc559f438@Imf@@@std@@V?$allocator@U?$pair@$$CBUTileCoord@?A0xc559f438@Imf@@PAUBufferedTile@23@@std@@@6@$0A@@std@@@std@@IAE@ABU?$less@UTileCoord@?A0xc559f438@Imf@@@1@V?$allocator@U?$pair@$$CBUTileCoord@?A0xc559f438@Imf@@PAUBufferedTile@23@@std@@@1@@Z
	?allocate@?$allocator@U_Node@?$_Tree_nod@V?$_Tmap_traits@UTileCoord@?A0xc559f438@Imf@@PAUBufferedTile@23@U?$less@UTileCoord@?A0xc559f438@Imf@@@std@@V?$allocator@U?$pair@$$CBUTileCoord@?A0xc559f438@Imf@@PAUBufferedTile@23@@std@@@6@$0A@@std@@@std@@@std@@QAEPAU_Node@?$_Tree_nod@V?$_Tmap_traits@UTileCoord@?A0xc559f438@Imf@@PAUBufferedTile@23@U?$less@UTileCoord@?A0xc559f438@Imf@@@std@@V?$allocator@U?$pair@$$CBUTileCoord@?A0xc559f438@Imf@@PAUBufferedTile@23@@std@@@6@$0A@@std@@@2@I@Z
	?construct@?$allocator@PAU_Node@?$_Tree_nod@V?$_Tmap_traits@UTileCoord@?A0xc559f438@Imf@@PAUBufferedTile@23@U?$less@UTileCoord@?A0xc559f438@Imf@@@std@@V?$allocator@U?$pair@$$CBUTileCoord@?A0xc559f438@Imf@@PAUBufferedTile@23@@std@@@6@$0A@@std@@@std@@@std@@QAEXPAPAU_Node@?$_Tree_nod@V?$_Tmap_traits@UTileCoord@?A0xc559f438@Imf@@PAUBufferedTile@23@U?$less@UTileCoord@?A0xc559f438@Imf@@@std@@V?$allocator@U?$pair@$$CBUTileCoord@?A0xc559f438@Imf@@PAUBufferedTile@23@@std@@@6@$0A@@std@@@2@ABQAU342@@Z
	??$_Destroy_range@PAUTileBuffer@?A0xc559f438@Imf@@V?$allocator@PAUTileBuffer@?A0xc559f438@Imf@@@std@@@std@@YAXPAPAUTileBuffer@?A0xc559f438@Imf@@0AAV?$allocator@PAUTileBuffer@?A0xc559f438@Imf@@@0@@Z
	??$_Checked_base@PAUTOutSliceInfo@?A0xc559f438@Imf@@@std@@YAPAUTOutSliceInfo@?A0xc559f438@Imf@@AAPAU123@@Z
	??$_Copy_opt@PAUTOutSliceInfo@?A0xc559f438@Imf@@PAU123@@std@@YAPAUTOutSliceInfo@?A0xc559f438@Imf@@PAU123@00Urandom_access_iterator_tag@0@U_Nonscalar_ptr_iterator_tag@0@U_Range_checked_iterator_tag@0@@Z
	??$_Checked_base@PAPAUTileBuffer@?A0xc559f438@Imf@@@std@@YAPAPAUTileBuffer@?A0xc559f438@Imf@@AAPAPAU123@@Z
	??$_Move_backward_opt@PAPAUTileBuffer@?A0xc559f438@Imf@@PAPAU123@Urandom_access_iterator_tag@std@@U_Undefined_move_tag@5@@std@@YAPAPAUTileBuffer@?A0xc559f438@Imf@@PAPAU123@00Urandom_access_iterator_tag@0@U_Undefined_move_tag@0@U_Range_checked_iterator_tag@0@@Z
	?construct@?$allocator@UTOutSliceInfo@?A0xc559f438@Imf@@@std@@QAEXPAUTOutSliceInfo@?A0xc559f438@Imf@@ABU345@@Z
	?destroy@?$allocator@UTOutSliceInfo@?A0xc559f438@Imf@@@std@@QAEXPAUTOutSliceInfo@?A0xc559f438@Imf@@@Z
	??$_Uninit_copy@PAUTOutSliceInfo@?A0xc559f438@Imf@@PAU123@V?$allocator@UTOutSliceInfo@?A0xc559f438@Imf@@@std@@@std@@YAPAUTOutSliceInfo@?A0xc559f438@Imf@@PAU123@00AAV?$allocator@UTOutSliceInfo@?A0xc559f438@Imf@@@0@U_Nonscalar_ptr_iterator_tag@0@U_Range_checked_iterator_tag@0@@Z
	??$_Copy_backward_opt@PAUTOutSliceInfo@?A0xc559f438@Imf@@PAU123@@std@@YAPAUTOutSliceInfo@?A0xc559f438@Imf@@PAU123@00Urandom_access_iterator_tag@0@U_Nonscalar_ptr_iterator_tag@0@U_Range_checked_iterator_tag@0@@Z
	??$unchecked_uninitialized_copy@PAPAUTileBuffer@?A0xc559f438@Imf@@PAPAU123@V?$allocator@PAUTileBuffer@?A0xc559f438@Imf@@@std@@@stdext@@YAPAPAUTileBuffer@?A0xc559f438@Imf@@PAPAU123@00AAV?$allocator@PAUTileBuffer@?A0xc559f438@Imf@@@std@@@Z
	??$_Fill_n@PAPAUTileBuffer@?A0xc559f438@Imf@@IPAU123@@std@@YAXPAPAUTileBuffer@?A0xc559f438@Imf@@IABQAU123@Urandom_access_iterator_tag@0@U_Range_checked_iterator_tag@0@@Z
	??Citerator@?$_Tree@V?$_Tmap_traits@UTileCoord@?A0xc559f438@Imf@@PAUBufferedTile@23@U?$less@UTileCoord@?A0xc559f438@Imf@@@std@@V?$allocator@U?$pair@$$CBUTileCoord@?A0xc559f438@Imf@@PAUBufferedTile@23@@std@@@6@$0A@@std@@@std@@QBEPAU?$pair@$$CBUTileCoord@?A0xc559f438@Imf@@PAUBufferedTile@23@@2@XZ
	??Eiterator@?$_Tree@V?$_Tmap_traits@UTileCoord@?A0xc559f438@Imf@@PAUBufferedTile@23@U?$less@UTileCoord@?A0xc559f438@Imf@@@std@@V?$allocator@U?$pair@$$CBUTileCoord@?A0xc559f438@Imf@@PAUBufferedTile@23@@std@@@6@$0A@@std@@@std@@QAEAAV012@XZ
	?_Buy@?$vector@UTOutSliceInfo@?A0xc559f438@Imf@@V?$allocator@UTOutSliceInfo@?A0xc559f438@Imf@@@std@@@std@@IAE_NI@Z
	?_Buy@?$vector@PAUTileBuffer@?A0xc559f438@Imf@@V?$allocator@PAUTileBuffer@?A0xc559f438@Imf@@@std@@@std@@IAE_NI@Z
	??0iterator@?$_Tree@V?$_Tmap_traits@UTileCoord@?A0xc559f438@Imf@@PAUBufferedTile@23@U?$less@UTileCoord@?A0xc559f438@Imf@@@std@@V?$allocator@U?$pair@$$CBUTileCoord@?A0xc559f438@Imf@@PAUBufferedTile@23@@std@@@6@$0A@@std@@@std@@QAE@PAU_Node@?$_Tree_nod@V?$_Tmap_traits@UTileCoord@?A0xc559f438@Imf@@PAUBufferedTile@23@U?$less@UTileCoord@?A0xc559f438@Imf@@@std@@V?$allocator@U?$pair@$$CBUTileCoord@?A0xc559f438@Imf@@PAUBufferedTile@23@@std@@@6@$0A@@std@@@2@PBV12@@Z
	?_Destroy@?$vector@PAUTileBuffer@?A0xc559f438@Imf@@V?$allocator@PAUTileBuffer@?A0xc559f438@Imf@@@std@@@std@@IAEXPAPAUTileBuffer@?A0xc559f438@Imf@@0@Z
	??Fiterator@?$_Tree@V?$_Tmap_traits@UTileCoord@?A0xc559f438@Imf@@PAUBufferedTile@23@U?$less@UTileCoord@?A0xc559f438@Imf@@@std@@V?$allocator@U?$pair@$$CBUTileCoord@?A0xc559f438@Imf@@PAUBufferedTile@23@@std@@@6@$0A@@std@@@std@@QAEAAV012@XZ
	??H?$_Vector_iterator@UTOutSliceInfo@?A0xc559f438@Imf@@V?$allocator@UTOutSliceInfo@?A0xc559f438@Imf@@@std@@@std@@QBE?AV01@H@Z
	??H?$_Vector_iterator@PAUTileBuffer@?A0xc559f438@Imf@@V?$allocator@PAUTileBuffer@?A0xc559f438@Imf@@@std@@@std@@QBE?AV01@H@Z
	?clear@?$_Tree@V?$_Tmap_traits@UTileCoord@?A0xc559f438@Imf@@PAUBufferedTile@23@U?$less@UTileCoord@?A0xc559f438@Imf@@@std@@V?$allocator@U?$pair@$$CBUTileCoord@?A0xc559f438@Imf@@PAUBufferedTile@23@@std@@@6@$0A@@std@@@std@@QAEXXZ
	?_Buynode@?$_Tree@V?$_Tmap_traits@UTileCoord@?A0xc559f438@Imf@@PAUBufferedTile@23@U?$less@UTileCoord@?A0xc559f438@Imf@@@std@@V?$allocator@U?$pair@$$CBUTileCoord@?A0xc559f438@Imf@@PAUBufferedTile@23@@std@@@6@$0A@@std@@@std@@IAEPAU_Node@?$_Tree_nod@V?$_Tmap_traits@UTileCoord@?A0xc559f438@Imf@@PAUBufferedTile@23@U?$less@UTileCoord@?A0xc559f438@Imf@@@std@@V?$allocator@U?$pair@$$CBUTileCoord@?A0xc559f438@Imf@@PAUBufferedTile@23@@std@@@6@$0A@@std@@@2@XZ
	?_Buynode@?$_Tree@V?$_Tmap_traits@UTileCoord@?A0xc559f438@Imf@@PAUBufferedTile@23@U?$less@UTileCoord@?A0xc559f438@Imf@@@std@@V?$allocator@U?$pair@$$CBUTileCoord@?A0xc559f438@Imf@@PAUBufferedTile@23@@std@@@6@$0A@@std@@@std@@IAEPAU_Node@?$_Tree_nod@V?$_Tmap_traits@UTileCoord@?A0xc559f438@Imf@@PAUBufferedTile@23@U?$less@UTileCoord@?A0xc559f438@Imf@@@std@@V?$allocator@U?$pair@$$CBUTileCoord@?A0xc559f438@Imf@@PAUBufferedTile@23@@std@@@6@$0A@@std@@@2@PAU342@00ABU?$pair@$$CBUTileCoord@?A0xc559f438@Imf@@PAUBufferedTile@23@@2@D@Z
	??Eiterator@?$_Tree@V?$_Tmap_traits@UTileCoord@?A0xc559f438@Imf@@PAUBufferedTile@23@U?$less@UTileCoord@?A0xc559f438@Imf@@@std@@V?$allocator@U?$pair@$$CBUTileCoord@?A0xc559f438@Imf@@PAUBufferedTile@23@@std@@@6@$0A@@std@@@std@@QAE?AV012@H@Z
	??$unchecked_copy@PAUTOutSliceInfo@?A0xc559f438@Imf@@PAU123@@stdext@@YAPAUTOutSliceInfo@?A0xc559f438@Imf@@PAU123@00@Z
	??$fill@PAUTOutSliceInfo@?A0xc559f438@Imf@@U123@@std@@YAXPAUTOutSliceInfo@?A0xc559f438@Imf@@0ABU123@@Z
	??$unchecked_copy@PAPAUTileBuffer@?A0xc559f438@Imf@@PAPAU123@@stdext@@YAPAPAUTileBuffer@?A0xc559f438@Imf@@PAPAU123@00@Z
	??$fill@PAPAUTileBuffer@?A0xc559f438@Imf@@PAU123@@std@@YAXPAPAUTileBuffer@?A0xc559f438@Imf@@0ABQAU123@@Z
	??$_Unchecked_move_backward@PAPAUTileBuffer@?A0xc559f438@Imf@@PAPAU123@@stdext@@YAPAPAUTileBuffer@?A0xc559f438@Imf@@PAPAU123@00@Z
	??$unchecked_uninitialized_copy@PAUTOutSliceInfo@?A0xc559f438@Imf@@PAU123@V?$allocator@UTOutSliceInfo@?A0xc559f438@Imf@@@std@@@stdext@@YAPAUTOutSliceInfo@?A0xc559f438@Imf@@PAU123@00AAV?$allocator@UTOutSliceInfo@?A0xc559f438@Imf@@@std@@@Z
	??$_Destroy_range@UTOutSliceInfo@?A0xc559f438@Imf@@V?$allocator@UTOutSliceInfo@?A0xc559f438@Imf@@@std@@@std@@YAXPAUTOutSliceInfo@?A0xc559f438@Imf@@0AAV?$allocator@UTOutSliceInfo@?A0xc559f438@Imf@@@0@U_Nonscalar_ptr_iterator_tag@0@@Z
	??$_Uninit_fill_n@PAUTOutSliceInfo@?A0xc559f438@Imf@@IU123@V?$allocator@UTOutSliceInfo@?A0xc559f438@Imf@@@std@@@std@@YAXPAUTOutSliceInfo@?A0xc559f438@Imf@@IABU123@AAV?$allocator@UTOutSliceInfo@?A0xc559f438@Imf@@@0@U_Nonscalar_ptr_iterator_tag@0@U_Range_checked_iterator_tag@0@@Z
	??$_Move_backward_opt@PAUTOutSliceInfo@?A0xc559f438@Imf@@PAU123@Urandom_access_iterator_tag@std@@U_Undefined_move_tag@5@@std@@YAPAUTOutSliceInfo@?A0xc559f438@Imf@@PAU123@00Urandom_access_iterator_tag@0@U_Undefined_move_tag@0@U_Range_checked_iterator_tag@0@@Z
	??$_Uninit_move@PAUTOutSliceInfo@?A0xc559f438@Imf@@PAU123@V?$allocator@UTOutSliceInfo@?A0xc559f438@Imf@@@std@@U_Undefined_move_tag@5@@std@@YAPAUTOutSliceInfo@?A0xc559f438@Imf@@PAU123@00AAV?$allocator@UTOutSliceInfo@?A0xc559f438@Imf@@@0@U_Undefined_move_tag@0@U_Range_checked_iterator_tag@0@@Z
	??$_Uninit_move@PAPAUTileBuffer@?A0xc559f438@Imf@@PAPAU123@V?$allocator@PAUTileBuffer@?A0xc559f438@Imf@@@std@@U_Undefined_move_tag@5@@std@@YAPAPAUTileBuffer@?A0xc559f438@Imf@@PAPAU123@00AAV?$allocator@PAUTileBuffer@?A0xc559f438@Imf@@@0@U_Undefined_move_tag@0@U_Range_checked_iterator_tag@0@@Z
	??$unchecked_fill_n@PAPAUTileBuffer@?A0xc559f438@Imf@@IPAU123@@stdext@@YAXPAPAUTileBuffer@?A0xc559f438@Imf@@IABQAU123@@Z
	??0?$vector@UTOutSliceInfo@?A0xc559f438@Imf@@V?$allocator@UTOutSliceInfo@?A0xc559f438@Imf@@@std@@@std@@QAE@XZ
	??0?$vector@PAUTileBuffer@?A0xc559f438@Imf@@V?$allocator@PAUTileBuffer@?A0xc559f438@Imf@@@std@@@std@@QAE@XZ
	?begin@?$_Tree@V?$_Tmap_traits@UTileCoord@?A0xc559f438@Imf@@PAUBufferedTile@23@U?$less@UTileCoord@?A0xc559f438@Imf@@@std@@V?$allocator@U?$pair@$$CBUTileCoord@?A0xc559f438@Imf@@PAUBufferedTile@23@@std@@@6@$0A@@std@@@std@@QAE?AViterator@12@XZ
	?end@?$_Tree@V?$_Tmap_traits@UTileCoord@?A0xc559f438@Imf@@PAUBufferedTile@23@U?$less@UTileCoord@?A0xc559f438@Imf@@@std@@V?$allocator@U?$pair@$$CBUTileCoord@?A0xc559f438@Imf@@PAUBufferedTile@23@@std@@@6@$0A@@std@@@std@@QAE?AViterator@12@XZ
	?erase@?$_Tree@V?$_Tmap_traits@UTileCoord@?A0xc559f438@Imf@@PAUBufferedTile@23@U?$less@UTileCoord@?A0xc559f438@Imf@@@std@@V?$allocator@U?$pair@$$CBUTileCoord@?A0xc559f438@Imf@@PAUBufferedTile@23@@std@@@6@$0A@@std@@@std@@QAE?AViterator@12@V312@@Z
	?end@?$vector@UTOutSliceInfo@?A0xc559f438@Imf@@V?$allocator@UTOutSliceInfo@?A0xc559f438@Imf@@@std@@@std@@QAE?AV?$_Vector_iterator@UTOutSliceInfo@?A0xc559f438@Imf@@V?$allocator@UTOutSliceInfo@?A0xc559f438@Imf@@@std@@@2@XZ
	?_Tidy@?$vector@PAUTileBuffer@?A0xc559f438@Imf@@V?$allocator@PAUTileBuffer@?A0xc559f438@Imf@@@std@@@std@@IAEXXZ
	?lower_bound@?$_Tree@V?$_Tmap_traits@UTileCoord@?A0xc559f438@Imf@@PAUBufferedTile@23@U?$less@UTileCoord@?A0xc559f438@Imf@@@std@@V?$allocator@U?$pair@$$CBUTileCoord@?A0xc559f438@Imf@@PAUBufferedTile@23@@std@@@6@$0A@@std@@@std@@QAE?AViterator@12@ABUTileCoord@?A0xc559f438@Imf@@@Z
	?begin@?$vector@UTOutSliceInfo@?A0xc559f438@Imf@@V?$allocator@UTOutSliceInfo@?A0xc559f438@Imf@@@std@@@std@@QAE?AV?$_Vector_iterator@UTOutSliceInfo@?A0xc559f438@Imf@@V?$allocator@UTOutSliceInfo@?A0xc559f438@Imf@@@std@@@2@XZ
	?begin@?$vector@PAUTileBuffer@?A0xc559f438@Imf@@V?$allocator@PAUTileBuffer@?A0xc559f438@Imf@@@std@@@std@@QAE?AV?$_Vector_iterator@PAUTileBuffer@?A0xc559f438@Imf@@V?$allocator@PAUTileBuffer@?A0xc559f438@Imf@@@std@@@2@XZ
	?end@?$vector@PAUTileBuffer@?A0xc559f438@Imf@@V?$allocator@PAUTileBuffer@?A0xc559f438@Imf@@@std@@@std@@QAE?AV?$_Vector_iterator@PAUTileBuffer@?A0xc559f438@Imf@@V?$allocator@PAUTileBuffer@?A0xc559f438@Imf@@@std@@@2@XZ
	?erase@?$vector@PAUTileBuffer@?A0xc559f438@Imf@@V?$allocator@PAUTileBuffer@?A0xc559f438@Imf@@@std@@@std@@QAE?AV?$_Vector_iterator@PAUTileBuffer@?A0xc559f438@Imf@@V?$allocator@PAUTileBuffer@?A0xc559f438@Imf@@@std@@@2@V32@0@Z
	?erase@?$_Tree@V?$_Tmap_traits@UTileCoord@?A0xc559f438@Imf@@PAUBufferedTile@23@U?$less@UTileCoord@?A0xc559f438@Imf@@@std@@V?$allocator@U?$pair@$$CBUTileCoord@?A0xc559f438@Imf@@PAUBufferedTile@23@@std@@@6@$0A@@std@@@std@@QAE?AViterator@12@V312@0@Z
	?_Init@?$_Tree@V?$_Tmap_traits@UTileCoord@?A0xc559f438@Imf@@PAUBufferedTile@23@U?$less@UTileCoord@?A0xc559f438@Imf@@@std@@V?$allocator@U?$pair@$$CBUTileCoord@?A0xc559f438@Imf@@PAUBufferedTile@23@@std@@@6@$0A@@std@@@std@@IAEXXZ
	?_Insert@?$_Tree@V?$_Tmap_traits@UTileCoord@?A0xc559f438@Imf@@PAUBufferedTile@23@U?$less@UTileCoord@?A0xc559f438@Imf@@@std@@V?$allocator@U?$pair@$$CBUTileCoord@?A0xc559f438@Imf@@PAUBufferedTile@23@@std@@@6@$0A@@std@@@std@@IAE?AViterator@12@_NPAU_Node@?$_Tree_nod@V?$_Tmap_traits@UTileCoord@?A0xc559f438@Imf@@PAUBufferedTile@23@U?$less@UTileCoord@?A0xc559f438@Imf@@@std@@V?$allocator@U?$pair@$$CBUTileCoord@?A0xc559f438@Imf@@PAUBufferedTile@23@@std@@@6@$0A@@std@@@2@ABU?$pair@$$CBUTileCoord@?A0xc559f438@Imf@@PAUBufferedTile@23@@2@@Z
	??0?$_Tree_val@V?$_Tmap_traits@UTileCoord@?A0xc559f438@Imf@@PAUBufferedTile@23@U?$less@UTileCoord@?A0xc559f438@Imf@@@std@@V?$allocator@U?$pair@$$CBUTileCoord@?A0xc559f438@Imf@@PAUBufferedTile@23@@std@@@6@$0A@@std@@@std@@IAE@ABU?$less@UTileCoord@?A0xc559f438@Imf@@@1@V?$allocator@U?$pair@$$CBUTileCoord@?A0xc559f438@Imf@@PAUBufferedTile@23@@std@@@1@@Z
	??$_Ucopy@PAUTOutSliceInfo@?A0xc559f438@Imf@@@?$vector@UTOutSliceInfo@?A0xc559f438@Imf@@V?$allocator@UTOutSliceInfo@?A0xc559f438@Imf@@@std@@@std@@IAEPAUTOutSliceInfo@?A0xc559f438@Imf@@PAU234@00@Z
	??$_Destroy_range@UTOutSliceInfo@?A0xc559f438@Imf@@V?$allocator@UTOutSliceInfo@?A0xc559f438@Imf@@@std@@@std@@YAXPAUTOutSliceInfo@?A0xc559f438@Imf@@0AAV?$allocator@UTOutSliceInfo@?A0xc559f438@Imf@@@0@@Z
	??$unchecked_uninitialized_fill_n@PAUTOutSliceInfo@?A0xc559f438@Imf@@IU123@V?$allocator@UTOutSliceInfo@?A0xc559f438@Imf@@@std@@@stdext@@YAXPAUTOutSliceInfo@?A0xc559f438@Imf@@IABU123@AAV?$allocator@UTOutSliceInfo@?A0xc559f438@Imf@@@std@@@Z
	??$_Unchecked_move_backward@PAUTOutSliceInfo@?A0xc559f438@Imf@@PAU123@@stdext@@YAPAUTOutSliceInfo@?A0xc559f438@Imf@@PAU123@00@Z
	??$_Unchecked_uninitialized_move@PAUTOutSliceInfo@?A0xc559f438@Imf@@PAU123@V?$allocator@UTOutSliceInfo@?A0xc559f438@Imf@@@std@@@stdext@@YAPAUTOutSliceInfo@?A0xc559f438@Imf@@PAU123@00AAV?$allocator@UTOutSliceInfo@?A0xc559f438@Imf@@@std@@@Z
	??$_Unchecked_uninitialized_move@PAPAUTileBuffer@?A0xc559f438@Imf@@PAPAU123@V?$allocator@PAUTileBuffer@?A0xc559f438@Imf@@@std@@@stdext@@YAPAPAUTileBuffer@?A0xc559f438@Imf@@PAPAU123@00AAV?$allocator@PAUTileBuffer@?A0xc559f438@Imf@@@std@@@Z
	??$_Uninit_fill_n@PAPAUTileBuffer@?A0xc559f438@Imf@@IPAU123@V?$allocator@PAUTileBuffer@?A0xc559f438@Imf@@@std@@@std@@YAXPAPAUTileBuffer@?A0xc559f438@Imf@@IABQAU123@AAV?$allocator@PAUTileBuffer@?A0xc559f438@Imf@@@0@U_Scalar_ptr_iterator_tag@0@U_Range_checked_iterator_tag@0@@Z
	??1?$vector@PAUTileBuffer@?A0xc559f438@Imf@@V?$allocator@PAUTileBuffer@?A0xc559f438@Imf@@@std@@@std@@QAE@XZ
	?find@?$_Tree@V?$_Tmap_traits@UTileCoord@?A0xc559f438@Imf@@PAUBufferedTile@23@U?$less@UTileCoord@?A0xc559f438@Imf@@@std@@V?$allocator@U?$pair@$$CBUTileCoord@?A0xc559f438@Imf@@PAUBufferedTile@23@@std@@@6@$0A@@std@@@std@@QAE?AViterator@12@ABUTileCoord@?A0xc559f438@Imf@@@Z
	?_Destroy@?$vector@UTOutSliceInfo@?A0xc559f438@Imf@@V?$allocator@UTOutSliceInfo@?A0xc559f438@Imf@@@std@@@std@@IAEXPAUTOutSliceInfo@?A0xc559f438@Imf@@0@Z
	?_Tidy@?$vector@UTOutSliceInfo@?A0xc559f438@Imf@@V?$allocator@UTOutSliceInfo@?A0xc559f438@Imf@@@std@@@std@@IAEXXZ
	?_Ufill@?$vector@UTOutSliceInfo@?A0xc559f438@Imf@@V?$allocator@UTOutSliceInfo@?A0xc559f438@Imf@@@std@@@std@@IAEPAUTOutSliceInfo@?A0xc559f438@Imf@@PAU345@IABU345@@Z
	??0?$_Tree@V?$_Tmap_traits@UTileCoord@?A0xc559f438@Imf@@PAUBufferedTile@23@U?$less@UTileCoord@?A0xc559f438@Imf@@@std@@V?$allocator@U?$pair@$$CBUTileCoord@?A0xc559f438@Imf@@PAUBufferedTile@23@@std@@@6@$0A@@std@@@std@@QAE@ABU?$less@UTileCoord@?A0xc559f438@Imf@@@1@ABV?$allocator@U?$pair@$$CBUTileCoord@?A0xc559f438@Imf@@PAUBufferedTile@23@@std@@@1@@Z
	?_Tidy@?$_Tree@V?$_Tmap_traits@UTileCoord@?A0xc559f438@Imf@@PAUBufferedTile@23@U?$less@UTileCoord@?A0xc559f438@Imf@@@std@@V?$allocator@U?$pair@$$CBUTileCoord@?A0xc559f438@Imf@@PAUBufferedTile@23@@std@@@6@$0A@@std@@@std@@IAEXXZ
	?erase@?$vector@UTOutSliceInfo@?A0xc559f438@Imf@@V?$allocator@UTOutSliceInfo@?A0xc559f438@Imf@@@std@@@std@@QAE?AV?$_Vector_iterator@UTOutSliceInfo@?A0xc559f438@Imf@@V?$allocator@UTOutSliceInfo@?A0xc559f438@Imf@@@std@@@2@V32@0@Z
	?insert@?$_Tree@V?$_Tmap_traits@UTileCoord@?A0xc559f438@Imf@@PAUBufferedTile@23@U?$less@UTileCoord@?A0xc559f438@Imf@@@std@@V?$allocator@U?$pair@$$CBUTileCoord@?A0xc559f438@Imf@@PAUBufferedTile@23@@std@@@6@$0A@@std@@@std@@QAE?AU?$pair@Viterator@?$_Tree@V?$_Tmap_traits@UTileCoord@?A0xc559f438@Imf@@PAUBufferedTile@23@U?$less@UTileCoord@?A0xc559f438@Imf@@@std@@V?$allocator@U?$pair@$$CBUTileCoord@?A0xc559f438@Imf@@PAUBufferedTile@23@@std@@@6@$0A@@std@@@std@@_N@2@ABU?$pair@$$CBUTileCoord@?A0xc559f438@Imf@@PAUBufferedTile@23@@2@@Z
	??$_Umove@PAUTOutSliceInfo@?A0xc559f438@Imf@@@?$vector@UTOutSliceInfo@?A0xc559f438@Imf@@V?$allocator@UTOutSliceInfo@?A0xc559f438@Imf@@@std@@@std@@IAEPAUTOutSliceInfo@?A0xc559f438@Imf@@PAU234@00@Z
	??$_Umove@PAPAUTileBuffer@?A0xc559f438@Imf@@@?$vector@PAUTileBuffer@?A0xc559f438@Imf@@V?$allocator@PAUTileBuffer@?A0xc559f438@Imf@@@std@@@std@@IAEPAPAUTileBuffer@?A0xc559f438@Imf@@PAPAU234@00@Z
	??$unchecked_uninitialized_fill_n@PAPAUTileBuffer@?A0xc559f438@Imf@@IPAU123@V?$allocator@PAUTileBuffer@?A0xc559f438@Imf@@@std@@@stdext@@YAXPAPAUTileBuffer@?A0xc559f438@Imf@@IABQAU123@AAV?$allocator@PAUTileBuffer@?A0xc559f438@Imf@@@std@@@Z
	??1?$vector@UTOutSliceInfo@?A0xc559f438@Imf@@V?$allocator@UTOutSliceInfo@?A0xc559f438@Imf@@@std@@@std@@QAE@XZ
	??1?$_Tree@V?$_Tmap_traits@UTileCoord@?A0xc559f438@Imf@@PAUBufferedTile@23@U?$less@UTileCoord@?A0xc559f438@Imf@@@std@@V?$allocator@U?$pair@$$CBUTileCoord@?A0xc559f438@Imf@@PAUBufferedTile@23@@std@@@6@$0A@@std@@@std@@QAE@XZ
	?clear@?$vector@UTOutSliceInfo@?A0xc559f438@Imf@@V?$allocator@UTOutSliceInfo@?A0xc559f438@Imf@@@std@@@std@@QAEXXZ
	?insert@?$_Tree@V?$_Tmap_traits@UTileCoord@?A0xc559f438@Imf@@PAUBufferedTile@23@U?$less@UTileCoord@?A0xc559f438@Imf@@@std@@V?$allocator@U?$pair@$$CBUTileCoord@?A0xc559f438@Imf@@PAUBufferedTile@23@@std@@@6@$0A@@std@@@std@@QAE?AViterator@12@V312@ABU?$pair@$$CBUTileCoord@?A0xc559f438@Imf@@PAUBufferedTile@23@@2@@Z
	?_Insert_n@?$vector@UTOutSliceInfo@?A0xc559f438@Imf@@V?$allocator@UTOutSliceInfo@?A0xc559f438@Imf@@@std@@@std@@IAEXV?$_Vector_iterator@UTOutSliceInfo@?A0xc559f438@Imf@@V?$allocator@UTOutSliceInfo@?A0xc559f438@Imf@@@std@@@2@IABUTOutSliceInfo@?A0xc559f438@Imf@@@Z
	?_Ufill@?$vector@PAUTileBuffer@?A0xc559f438@Imf@@V?$allocator@PAUTileBuffer@?A0xc559f438@Imf@@@std@@@std@@IAEPAPAUTileBuffer@?A0xc559f438@Imf@@PAPAU345@IABQAU345@@Z
	??1?$map@UTileCoord@?A0xc559f438@Imf@@PAUBufferedTile@23@U?$less@UTileCoord@?A0xc559f438@Imf@@@std@@V?$allocator@U?$pair@$$CBUTileCoord@?A0xc559f438@Imf@@PAUBufferedTile@23@@std@@@6@@std@@QAE@XZ
	??4?$vector@UTOutSliceInfo@?A0xc559f438@Imf@@V?$allocator@UTOutSliceInfo@?A0xc559f438@Imf@@@std@@@std@@QAEAAV01@ABV01@@Z
	??0?$map@UTileCoord@?A0xc559f438@Imf@@PAUBufferedTile@23@U?$less@UTileCoord@?A0xc559f438@Imf@@@std@@V?$allocator@U?$pair@$$CBUTileCoord@?A0xc559f438@Imf@@PAUBufferedTile@23@@std@@@6@@std@@QAE@XZ
	??A?$map@UTileCoord@?A0xc559f438@Imf@@PAUBufferedTile@23@U?$less@UTileCoord@?A0xc559f438@Imf@@@std@@V?$allocator@U?$pair@$$CBUTileCoord@?A0xc559f438@Imf@@PAUBufferedTile@23@@std@@@6@@std@@QAEAAPAUBufferedTile@?A0xc559f438@Imf@@ABUTileCoord@34@@Z
	?insert@?$vector@UTOutSliceInfo@?A0xc559f438@Imf@@V?$allocator@UTOutSliceInfo@?A0xc559f438@Imf@@@std@@@std@@QAE?AV?$_Vector_iterator@UTOutSliceInfo@?A0xc559f438@Imf@@V?$allocator@UTOutSliceInfo@?A0xc559f438@Imf@@@std@@@2@V32@ABUTOutSliceInfo@?A0xc559f438@Imf@@@Z
	?_Insert_n@?$vector@PAUTileBuffer@?A0xc559f438@Imf@@V?$allocator@PAUTileBuffer@?A0xc559f438@Imf@@@std@@@std@@IAEXV?$_Vector_iterator@PAUTileBuffer@?A0xc559f438@Imf@@V?$allocator@PAUTileBuffer@?A0xc559f438@Imf@@@std@@@2@IABQAUTileBuffer@?A0xc559f438@Imf@@@Z
	?push_back@?$vector@UTOutSliceInfo@?A0xc559f438@Imf@@V?$allocator@UTOutSliceInfo@?A0xc559f438@Imf@@@std@@@std@@QAEXABUTOutSliceInfo@?A0xc559f438@Imf@@@Z
	?resize@?$vector@PAUTileBuffer@?A0xc559f438@Imf@@V?$allocator@PAUTileBuffer@?A0xc559f438@Imf@@@std@@@std@@QAEXIPAUTileBuffer@?A0xc559f438@Imf@@@Z
	?resize@?$vector@PAUTileBuffer@?A0xc559f438@Imf@@V?$allocator@PAUTileBuffer@?A0xc559f438@Imf@@@std@@@std@@QAEXI@Z
	??4half@@QAEAAV0@V0@@Z
	??4half@@QAEAAV0@M@Z
	??0Rgba@Imf@@QAE@XZ
	??4Rgba@Imf@@QAEAAU01@ABU01@@Z
	?rgbaChannels@?A0xc07b59fb@Imf@@YA?AW4RgbaChannels@2@ABVChannelList@2@@Z
	?setFrameBuffer@ToYa@TiledRgbaOutputFile@Imf@@QAEXPBURgba@3@II@Z
	??1TiledRgbaOutputFile@Imf@@UAE@XZ
	?header@TiledRgbaOutputFile@Imf@@QBEABVHeader@2@XZ
	?frameBuffer@TiledRgbaOutputFile@Imf@@QBEABVFrameBuffer@2@XZ
	?displayWindow@TiledRgbaOutputFile@Imf@@QBEABV?$Box@V?$Vec2@H@Imath@@@Imath@@XZ
	?dataWindow@TiledRgbaOutputFile@Imf@@QBEABV?$Box@V?$Vec2@H@Imath@@@Imath@@XZ
	?pixelAspectRatio@TiledRgbaOutputFile@Imf@@QBEMXZ
	?screenWindowWidth@TiledRgbaOutputFile@Imf@@QBEMXZ
	?lineOrder@TiledRgbaOutputFile@Imf@@QBE?AW4LineOrder@2@XZ
	?compression@TiledRgbaOutputFile@Imf@@QBE?AW4Compression@2@XZ
	?channels@TiledRgbaOutputFile@Imf@@QBE?AW4RgbaChannels@2@XZ
	?tileXSize@TiledRgbaOutputFile@Imf@@QBEIXZ
	?tileYSize@TiledRgbaOutputFile@Imf@@QBEIXZ
	?levelMode@TiledRgbaOutputFile@Imf@@QBE?AW4LevelMode@2@XZ
	?levelRoundingMode@TiledRgbaOutputFile@Imf@@QBE?AW4LevelRoundingMode@2@XZ
	?numLevels@TiledRgbaOutputFile@Imf@@QBEHXZ
	?numXLevels@TiledRgbaOutputFile@Imf@@QBEHXZ
	?numYLevels@TiledRgbaOutputFile@Imf@@QBEHXZ
	?isValidLevel@TiledRgbaOutputFile@Imf@@QBE_NHH@Z
	?levelWidth@TiledRgbaOutputFile@Imf@@QBEHH@Z
	?levelHeight@TiledRgbaOutputFile@Imf@@QBEHH@Z
	?numXTiles@TiledRgbaOutputFile@Imf@@QBEHH@Z
	?numYTiles@TiledRgbaOutputFile@Imf@@QBEHH@Z
	?dataWindowForLevel@TiledRgbaOutputFile@Imf@@QBE?AV?$Box@V?$Vec2@H@Imath@@@Imath@@H@Z
	?dataWindowForLevel@TiledRgbaOutputFile@Imf@@QBE?AV?$Box@V?$Vec2@H@Imath@@@Imath@@HH@Z
	?dataWindowForTile@TiledRgbaOutputFile@Imf@@QBE?AV?$Box@V?$Vec2@H@Imath@@@Imath@@HHH@Z
	?dataWindowForTile@TiledRgbaOutputFile@Imf@@QBE?AV?$Box@V?$Vec2@H@Imath@@@Imath@@HHHH@Z
	?setFrameBuffer@FromYa@TiledRgbaInputFile@Imf@@QAEXPAURgba@3@II@Z
	??1TiledRgbaInputFile@Imf@@UAE@XZ
	?header@TiledRgbaInputFile@Imf@@QBEABVHeader@2@XZ
	?fileName@TiledRgbaInputFile@Imf@@QBEPBDXZ
	?frameBuffer@TiledRgbaInputFile@Imf@@QBEABVFrameBuffer@2@XZ
	?displayWindow@TiledRgbaInputFile@Imf@@QBEABV?$Box@V?$Vec2@H@Imath@@@Imath@@XZ
	?dataWindow@TiledRgbaInputFile@Imf@@QBEABV?$Box@V?$Vec2@H@Imath@@@Imath@@XZ
	?pixelAspectRatio@TiledRgbaInputFile@Imf@@QBEMXZ
	?screenWindowWidth@TiledRgbaInputFile@Imf@@QBEMXZ
	?lineOrder@TiledRgbaInputFile@Imf@@QBE?AW4LineOrder@2@XZ
	?compression@TiledRgbaInputFile@Imf@@QBE?AW4Compression@2@XZ
	?channels@TiledRgbaInputFile@Imf@@QBE?AW4RgbaChannels@2@XZ
	?version@TiledRgbaInputFile@Imf@@QBEHXZ
	?isComplete@TiledRgbaInputFile@Imf@@QBE_NXZ
	?tileXSize@TiledRgbaInputFile@Imf@@QBEIXZ
	?tileYSize@TiledRgbaInputFile@Imf@@QBEIXZ
	?levelMode@TiledRgbaInputFile@Imf@@QBE?AW4LevelMode@2@XZ
	?levelRoundingMode@TiledRgbaInputFile@Imf@@QBE?AW4LevelRoundingMode@2@XZ
	?numLevels@TiledRgbaInputFile@Imf@@QBEHXZ
	?numXLevels@TiledRgbaInputFile@Imf@@QBEHXZ
	?numYLevels@TiledRgbaInputFile@Imf@@QBEHXZ
	?isValidLevel@TiledRgbaInputFile@Imf@@QBE_NHH@Z
	?levelWidth@TiledRgbaInputFile@Imf@@QBEHH@Z
	?levelHeight@TiledRgbaInputFile@Imf@@QBEHH@Z
	?numXTiles@TiledRgbaInputFile@Imf@@QBEHH@Z
	?numYTiles@TiledRgbaInputFile@Imf@@QBEHH@Z
	?dataWindowForLevel@TiledRgbaInputFile@Imf@@QBE?AV?$Box@V?$Vec2@H@Imath@@@Imath@@H@Z
	?dataWindowForLevel@TiledRgbaInputFile@Imf@@QBE?AV?$Box@V?$Vec2@H@Imath@@@Imath@@HH@Z
	?dataWindowForTile@TiledRgbaInputFile@Imf@@QBE?AV?$Box@V?$Vec2@H@Imath@@@Imath@@HHH@Z
	?dataWindowForTile@TiledRgbaInputFile@Imf@@QBE?AV?$Box@V?$Vec2@H@Imath@@@Imath@@HHHH@Z
	?updatePreviewImage@TiledRgbaOutputFile@Imf@@QAEXQBUPreviewRgba@2@@Z
	?breakTile@TiledRgbaOutputFile@Imf@@QAEXHHHHHHD@Z
	?screenWindowCenter@TiledRgbaOutputFile@Imf@@QBE?BV?$Vec2@M@Imath@@XZ
	?screenWindowCenter@TiledRgbaInputFile@Imf@@QBE?BV?$Vec2@M@Imath@@XZ
	?ywFromHeader@?A0xc07b59fb@Imf@@YA?AV?$Vec3@M@Imath@@ABVHeader@2@@Z
	??0ToYa@TiledRgbaOutputFile@Imf@@QAE@AAVTiledOutputFile@2@W4RgbaChannels@2@@Z
	??0FromYa@TiledRgbaInputFile@Imf@@QAE@AAVTiledInputFile@2@@Z
	??0TiledRgbaInputFile@Imf@@QAE@QBDH@Z
	??0TiledRgbaInputFile@Imf@@QAE@AAVIStream@1@H@Z
	?insertChannels@?A0xc07b59fb@Imf@@YAXAAVHeader@2@W4RgbaChannels@2@QBD@Z
	??0TiledRgbaOutputFile@Imf@@QAE@QBDABVHeader@1@W4RgbaChannels@1@HHW4LevelMode@1@W4LevelRoundingMode@1@H@Z
	??0TiledRgbaOutputFile@Imf@@QAE@AAVOStream@1@ABVHeader@1@W4RgbaChannels@1@HHW4LevelMode@1@W4LevelRoundingMode@1@H@Z
	??0TiledRgbaOutputFile@Imf@@QAE@QBDHHW4LevelMode@1@W4LevelRoundingMode@1@ABV?$Box@V?$Vec2@H@Imath@@@Imath@@3W4RgbaChannels@1@MV?$Vec2@M@5@MW4LineOrder@1@W4Compression@1@H@Z
	??0TiledRgbaOutputFile@Imf@@QAE@QBDHHHHW4LevelMode@1@W4LevelRoundingMode@1@W4RgbaChannels@1@MV?$Vec2@M@Imath@@MW4LineOrder@1@W4Compression@1@H@Z
	?setFrameBuffer@TiledRgbaOutputFile@Imf@@QAEXPBURgba@2@II@Z
	?readTile@FromYa@TiledRgbaInputFile@Imf@@QAEXHHHH@Z
	?setFrameBuffer@TiledRgbaInputFile@Imf@@QAEXPAURgba@2@II@Z
	?readTile@TiledRgbaInputFile@Imf@@QAEXHHH@Z
	?readTile@TiledRgbaInputFile@Imf@@QAEXHHHH@Z
	?readTiles@TiledRgbaInputFile@Imf@@QAEXHHHHHH@Z
	?readTiles@TiledRgbaInputFile@Imf@@QAEXHHHHH@Z
	?writeTile@ToYa@TiledRgbaOutputFile@Imf@@QAEXHHHH@Z
	?writeTile@TiledRgbaOutputFile@Imf@@QAEXHHH@Z
	?writeTile@TiledRgbaOutputFile@Imf@@QAEXHHHH@Z
	?writeTiles@TiledRgbaOutputFile@Imf@@QAEXHHHHHH@Z
	?writeTiles@TiledRgbaOutputFile@Imf@@QAEXHHHHH@Z
	??0?$_Bidit@U?$pair@$$CBVName@Imf@@UChannel@2@@std@@HPBU12@ABU12@@std@@QAE@XZ
	??0?$allocator@U?$pair@$$CBVName@Imf@@UChannel@2@@std@@@std@@QAE@XZ
	?size@?$_Tree@V?$_Tmap_traits@VName@Imf@@UChannel@2@U?$less@VName@Imf@@@std@@V?$allocator@U?$pair@$$CBVName@Imf@@UChannel@2@@std@@@5@$0A@@std@@@std@@QBEIXZ
	?_Lmost@?$_Tree@V?$_Tmap_traits@VName@Imf@@UChannel@2@U?$less@VName@Imf@@@std@@V?$allocator@U?$pair@$$CBVName@Imf@@UChannel@2@@std@@@5@$0A@@std@@@std@@IBEAAPAU_Node@?$_Tree_nod@V?$_Tmap_traits@VName@Imf@@UChannel@2@U?$less@VName@Imf@@@std@@V?$allocator@U?$pair@$$CBVName@Imf@@UChannel@2@@std@@@5@$0A@@std@@@2@XZ
	?_Max@?$_Tree@V?$_Tmap_traits@VName@Imf@@UChannel@2@U?$less@VName@Imf@@@std@@V?$allocator@U?$pair@$$CBVName@Imf@@UChannel@2@@std@@@5@$0A@@std@@@std@@KAPAU_Node@?$_Tree_nod@V?$_Tmap_traits@VName@Imf@@UChannel@2@U?$less@VName@Imf@@@std@@V?$allocator@U?$pair@$$CBVName@Imf@@UChannel@2@@std@@@5@$0A@@std@@@2@PAU342@@Z
	?_Rmost@?$_Tree@V?$_Tmap_traits@VName@Imf@@UChannel@2@U?$less@VName@Imf@@@std@@V?$allocator@U?$pair@$$CBVName@Imf@@UChannel@2@@std@@@5@$0A@@std@@@std@@IBEAAPAU_Node@?$_Tree_nod@V?$_Tmap_traits@VName@Imf@@UChannel@2@U?$less@VName@Imf@@@std@@V?$allocator@U?$pair@$$CBVName@Imf@@UChannel@2@@std@@@5@$0A@@std@@@2@XZ
	?_Root@?$_Tree@V?$_Tmap_traits@VName@Imf@@UChannel@2@U?$less@VName@Imf@@@std@@V?$allocator@U?$pair@$$CBVName@Imf@@UChannel@2@@std@@@5@$0A@@std@@@std@@IBEAAPAU_Node@?$_Tree_nod@V?$_Tmap_traits@VName@Imf@@UChannel@2@U?$less@VName@Imf@@@std@@V?$allocator@U?$pair@$$CBVName@Imf@@UChannel@2@@std@@@5@$0A@@std@@@2@XZ
	??0?$allocator@U?$pair@$$CBVName@Imf@@UChannel@2@@std@@@std@@QAE@ABV01@@Z
	?deallocate@?$allocator@U_Node@?$_Tree_nod@V?$_Tmap_traits@VName@Imf@@UChannel@2@U?$less@VName@Imf@@@std@@V?$allocator@U?$pair@$$CBVName@Imf@@UChannel@2@@std@@@5@$0A@@std@@@std@@@std@@QAEXPAU_Node@?$_Tree_nod@V?$_Tmap_traits@VName@Imf@@UChannel@2@U?$less@VName@Imf@@@std@@V?$allocator@U?$pair@$$CBVName@Imf@@UChannel@2@@std@@@5@$0A@@std@@@2@I@Z
	??9const_iterator@?$_Tree@V?$_Tmap_traits@VName@Imf@@UChannel@2@U?$less@VName@Imf@@@std@@V?$allocator@U?$pair@$$CBVName@Imf@@UChannel@2@@std@@@5@$0A@@std@@@std@@QBE_NABV012@@Z
	?_Color@?$_Tree@V?$_Tmap_traits@VName@Imf@@UChannel@2@U?$less@VName@Imf@@@std@@V?$allocator@U?$pair@$$CBVName@Imf@@UChannel@2@@std@@@5@$0A@@std@@@std@@KAAADPAU_Node@?$_Tree_nod@V?$_Tmap_traits@VName@Imf@@UChannel@2@U?$less@VName@Imf@@@std@@V?$allocator@U?$pair@$$CBVName@Imf@@UChannel@2@@std@@@5@$0A@@std@@@2@@Z
	?_Mynode@const_iterator@?$_Tree@V?$_Tmap_traits@VName@Imf@@UChannel@2@U?$less@VName@Imf@@@std@@V?$allocator@U?$pair@$$CBVName@Imf@@UChannel@2@@std@@@5@$0A@@std@@@std@@QBEPAU_Node@?$_Tree_nod@V?$_Tmap_traits@VName@Imf@@UChannel@2@U?$less@VName@Imf@@@std@@V?$allocator@U?$pair@$$CBVName@Imf@@UChannel@2@@std@@@5@$0A@@std@@@3@XZ
	??0_Node@?$_Tree_nod@V?$_Tmap_traits@VName@Imf@@UChannel@2@U?$less@VName@Imf@@@std@@V?$allocator@U?$pair@$$CBVName@Imf@@UChannel@2@@std@@@5@$0A@@std@@@std@@QAE@PAU012@00ABU?$pair@$$CBVName@Imf@@UChannel@2@@2@D@Z
	??0?$_Tmap_traits@VName@Imf@@UChannel@2@U?$less@VName@Imf@@@std@@V?$allocator@U?$pair@$$CBVName@Imf@@UChannel@2@@std@@@5@$0A@@std@@QAE@U?$less@VName@Imf@@@1@@Z
	??0?$Vec3@M@Imath@@QAE@XZ
	??4?$Vec3@M@Imath@@QAEABV01@ABV01@@Z
	??0?$Array2D@URgba@Imf@@@Imf@@QAE@XZ
	??1?$Array2D@URgba@Imf@@@Imf@@QAE@XZ
	??A?$Array2D@URgba@Imf@@@Imf@@QAEPAURgba@1@J@Z
	??$_Destroy@PAU_Node@?$_Tree_nod@V?$_Tmap_traits@VName@Imf@@UChannel@2@U?$less@VName@Imf@@@std@@V?$allocator@U?$pair@$$CBVName@Imf@@UChannel@2@@std@@@5@$0A@@std@@@std@@@std@@YAXPAPAU_Node@?$_Tree_nod@V?$_Tmap_traits@VName@Imf@@UChannel@2@U?$less@VName@Imf@@@std@@V?$allocator@U?$pair@$$CBVName@Imf@@UChannel@2@@std@@@5@$0A@@std@@@0@@Z
	??$?0U?$pair@$$CBVName@Imf@@UChannel@2@@std@@@?$allocator@PAU_Node@?$_Tree_nod@V?$_Tmap_traits@VName@Imf@@UChannel@2@U?$less@VName@Imf@@@std@@V?$allocator@U?$pair@$$CBVName@Imf@@UChannel@2@@std@@@5@$0A@@std@@@std@@@std@@QAE@ABV?$allocator@U?$pair@$$CBVName@Imf@@UChannel@2@@std@@@1@@Z
	??$_Destroy@U_Node@?$_Tree_nod@V?$_Tmap_traits@VName@Imf@@UChannel@2@U?$less@VName@Imf@@@std@@V?$allocator@U?$pair@$$CBVName@Imf@@UChannel@2@@std@@@5@$0A@@std@@@std@@@std@@YAXPAU_Node@?$_Tree_nod@V?$_Tmap_traits@VName@Imf@@UChannel@2@U?$less@VName@Imf@@@std@@V?$allocator@U?$pair@$$CBVName@Imf@@UChannel@2@@std@@@5@$0A@@std@@@0@@Z
	??$?0U?$pair@$$CBVName@Imf@@UChannel@2@@std@@@?$allocator@U_Node@?$_Tree_nod@V?$_Tmap_traits@VName@Imf@@UChannel@2@U?$less@VName@Imf@@@std@@V?$allocator@U?$pair@$$CBVName@Imf@@UChannel@2@@std@@@5@$0A@@std@@@std@@@std@@QAE@ABV?$allocator@U?$pair@$$CBVName@Imf@@UChannel@2@@std@@@1@@Z
	??$_Construct@PAU_Node@?$_Tree_nod@V?$_Tmap_traits@VName@Imf@@UChannel@2@U?$less@VName@Imf@@@std@@V?$allocator@U?$pair@$$CBVName@Imf@@UChannel@2@@std@@@5@$0A@@std@@@std@@PAU123@@std@@YAXPAPAU_Node@?$_Tree_nod@V?$_Tmap_traits@VName@Imf@@UChannel@2@U?$less@VName@Imf@@@std@@V?$allocator@U?$pair@$$CBVName@Imf@@UChannel@2@@std@@@5@$0A@@std@@@0@ABQAU120@@Z
	?dimensions@?$Vec2@H@Imath@@SAIXZ
	??A?$Vec2@H@Imath@@QBEABHH@Z
	?destroy@?$allocator@PAU_Node@?$_Tree_nod@V?$_Tmap_traits@VName@Imf@@UChannel@2@U?$less@VName@Imf@@@std@@V?$allocator@U?$pair@$$CBVName@Imf@@UChannel@2@@std@@@5@$0A@@std@@@std@@@std@@QAEXPAPAU_Node@?$_Tree_nod@V?$_Tmap_traits@VName@Imf@@UChannel@2@U?$less@VName@Imf@@@std@@V?$allocator@U?$pair@$$CBVName@Imf@@UChannel@2@@std@@@5@$0A@@std@@@2@@Z
	??0iterator@?$_Tree@V?$_Tmap_traits@VName@Imf@@UChannel@2@U?$less@VName@Imf@@@std@@V?$allocator@U?$pair@$$CBVName@Imf@@UChannel@2@@std@@@5@$0A@@std@@@std@@QAE@PAU_Node@?$_Tree_nod@V?$_Tmap_traits@VName@Imf@@UChannel@2@U?$less@VName@Imf@@@std@@V?$allocator@U?$pair@$$CBVName@Imf@@UChannel@2@@std@@@5@$0A@@std@@@2@PBV12@@Z
	?destroy@?$allocator@U_Node@?$_Tree_nod@V?$_Tmap_traits@VName@Imf@@UChannel@2@U?$less@VName@Imf@@@std@@V?$allocator@U?$pair@$$CBVName@Imf@@UChannel@2@@std@@@5@$0A@@std@@@std@@@std@@QAEXPAU_Node@?$_Tree_nod@V?$_Tmap_traits@VName@Imf@@UChannel@2@U?$less@VName@Imf@@@std@@V?$allocator@U?$pair@$$CBVName@Imf@@UChannel@2@@std@@@5@$0A@@std@@@2@@Z
	??0?$_Tree_nod@V?$_Tmap_traits@VName@Imf@@UChannel@2@U?$less@VName@Imf@@@std@@V?$allocator@U?$pair@$$CBVName@Imf@@UChannel@2@@std@@@5@$0A@@std@@@std@@IAE@ABU?$less@VName@Imf@@@1@V?$allocator@U?$pair@$$CBVName@Imf@@UChannel@2@@std@@@1@@Z
	?construct@?$allocator@PAU_Node@?$_Tree_nod@V?$_Tmap_traits@VName@Imf@@UChannel@2@U?$less@VName@Imf@@@std@@V?$allocator@U?$pair@$$CBVName@Imf@@UChannel@2@@std@@@5@$0A@@std@@@std@@@std@@QAEXPAPAU_Node@?$_Tree_nod@V?$_Tmap_traits@VName@Imf@@UChannel@2@U?$less@VName@Imf@@@std@@V?$allocator@U?$pair@$$CBVName@Imf@@UChannel@2@@std@@@5@$0A@@std@@@2@ABQAU342@@Z
	?isEmpty@?$Box@V?$Vec2@H@Imath@@@Imath@@QBE_NXZ
	?resizeErase@?$Array2D@URgba@Imf@@@Imf@@QAEXJJ@Z
	??1ToYa@TiledRgbaOutputFile@Imf@@UAE@XZ
	??1FromYa@TiledRgbaInputFile@Imf@@UAE@XZ
	?begin@?$_Tree@V?$_Tmap_traits@VName@Imf@@UChannel@2@U?$less@VName@Imf@@@std@@V?$allocator@U?$pair@$$CBVName@Imf@@UChannel@2@@std@@@5@$0A@@std@@@std@@QAE?AViterator@12@XZ
	?end@?$_Tree@V?$_Tmap_traits@VName@Imf@@UChannel@2@U?$less@VName@Imf@@@std@@V?$allocator@U?$pair@$$CBVName@Imf@@UChannel@2@@std@@@5@$0A@@std@@@std@@QAE?AViterator@12@XZ
	??Eiterator@?$_Tree@V?$_Tmap_traits@VName@Imf@@UChannel@2@U?$less@VName@Imf@@@std@@V?$allocator@U?$pair@$$CBVName@Imf@@UChannel@2@@std@@@5@$0A@@std@@@std@@QAEAAV012@XZ
	??0?$_Tree_val@V?$_Tmap_traits@VName@Imf@@UChannel@2@U?$less@VName@Imf@@@std@@V?$allocator@U?$pair@$$CBVName@Imf@@UChannel@2@@std@@@5@$0A@@std@@@std@@IAE@ABU?$less@VName@Imf@@@1@V?$allocator@U?$pair@$$CBVName@Imf@@UChannel@2@@std@@@1@@Z
	??Eiterator@?$_Tree@V?$_Tmap_traits@VName@Imf@@UChannel@2@U?$less@VName@Imf@@@std@@V?$allocator@U?$pair@$$CBVName@Imf@@UChannel@2@@std@@@5@$0A@@std@@@std@@QAE?AV012@H@Z
	??1?$_Tree@V?$_Tmap_traits@VName@Imf@@UChannel@2@U?$less@VName@Imf@@@std@@V?$allocator@U?$pair@$$CBVName@Imf@@UChannel@2@@std@@@5@$0A@@std@@@std@@QAE@XZ
	??1?$map@VName@Imf@@UChannel@2@U?$less@VName@Imf@@@std@@V?$allocator@U?$pair@$$CBVName@Imf@@UChannel@2@@std@@@5@@std@@QAE@XZ
	??4?$map@VName@Imf@@UChannel@2@U?$less@VName@Imf@@@std@@V?$allocator@U?$pair@$$CBVName@Imf@@UChannel@2@@std@@@5@@std@@QAEAAV01@ABV01@@Z
	??0?$map@VName@Imf@@UChannel@2@U?$less@VName@Imf@@@std@@V?$allocator@U?$pair@$$CBVName@Imf@@UChannel@2@@std@@@5@@std@@QAE@XZ
	??0ChannelList@Imf@@QAE@XZ
	??4ChannelList@Imf@@QAEAAV01@ABV01@@Z
	??A?$vector@V?$vector@V?$vector@_KV?$allocator@_K@std@@@std@@V?$allocator@V?$vector@_KV?$allocator@_K@std@@@std@@@2@@std@@V?$allocator@V?$vector@V?$vector@_KV?$allocator@_K@std@@@std@@V?$allocator@V?$vector@_KV?$allocator@_K@std@@@std@@@2@@std@@@2@@std@@QBEABV?$vector@V?$vector@_KV?$allocator@_K@std@@@std@@V?$allocator@V?$vector@_KV?$allocator@_K@std@@@std@@@2@@1@I@Z
	??A?$vector@V?$vector@V?$vector@_KV?$allocator@_K@std@@@std@@V?$allocator@V?$vector@_KV?$allocator@_K@std@@@std@@@2@@std@@V?$allocator@V?$vector@V?$vector@_KV?$allocator@_K@std@@@std@@V?$allocator@V?$vector@_KV?$allocator@_K@std@@@std@@@2@@std@@@2@@std@@QAEAAV?$vector@V?$vector@_KV?$allocator@_K@std@@@std@@V?$allocator@V?$vector@_KV?$allocator@_K@std@@@std@@@2@@1@I@Z
	??A?$vector@V?$vector@_KV?$allocator@_K@std@@@std@@V?$allocator@V?$vector@_KV?$allocator@_K@std@@@std@@@2@@std@@QBEABV?$vector@_KV?$allocator@_K@std@@@1@I@Z
	??A?$vector@V?$vector@_KV?$allocator@_K@std@@@std@@V?$allocator@V?$vector@_KV?$allocator@_K@std@@@std@@@2@@std@@QAEAAV?$vector@_KV?$allocator@_K@std@@@1@I@Z
	??A?$vector@_KV?$allocator@_K@std@@@std@@QBEAB_KI@Z
	??0?$allocator@V?$vector@V?$vector@_KV?$allocator@_K@std@@@std@@V?$allocator@V?$vector@_KV?$allocator@_K@std@@@std@@@2@@std@@@std@@QAE@XZ
	??0?$allocator@V?$vector@V?$vector@_KV?$allocator@_K@std@@@std@@V?$allocator@V?$vector@_KV?$allocator@_K@std@@@std@@@2@@std@@@std@@QAE@ABV01@@Z
	??0?$allocator@V?$vector@_KV?$allocator@_K@std@@@std@@@std@@QAE@XZ
	??Y?$_Vector_const_iterator@V?$vector@V?$vector@_KV?$allocator@_K@std@@@std@@V?$allocator@V?$vector@_KV?$allocator@_K@std@@@std@@@2@@std@@V?$allocator@V?$vector@V?$vector@_KV?$allocator@_K@std@@@std@@V?$allocator@V?$vector@_KV?$allocator@_K@std@@@std@@@2@@std@@@2@@std@@QAEAAV01@H@Z
	??Y?$_Vector_const_iterator@V?$vector@_KV?$allocator@_K@std@@@std@@V?$allocator@V?$vector@_KV?$allocator@_K@std@@@std@@@2@@std@@QAEAAV01@H@Z
	??$_Move_cat@PAV?$vector@V?$vector@_KV?$allocator@_K@std@@@std@@V?$allocator@V?$vector@_KV?$allocator@_K@std@@@std@@@2@@std@@@std@@YA?AU_Swap_move_tag@0@ABQAV?$vector@V?$vector@_KV?$allocator@_K@std@@@std@@V?$allocator@V?$vector@_KV?$allocator@_K@std@@@std@@@2@@0@@Z
	??$_Move_cat@PAV?$vector@_KV?$allocator@_K@std@@@std@@@std@@YA?AU_Swap_move_tag@0@ABQAV?$vector@_KV?$allocator@_K@std@@@0@@Z
	??$?8V?$vector@_KV?$allocator@_K@std@@@std@@V01@@std@@YA_NABV?$allocator@V?$vector@_KV?$allocator@_K@std@@@std@@@0@0@Z
	??$swap@PAV?$vector@_KV?$allocator@_K@std@@@std@@@std@@YAXAAPAV?$vector@_KV?$allocator@_K@std@@@0@0@Z
	??$?8_K_K@std@@YA_NABV?$allocator@_K@0@0@Z
	??$swap@PA_K@std@@YAXAAPA_K0@Z
	?anyOffsetsAreInvalid@TileOffsets@Imf@@ABE_NXZ
	?isEmpty@TileOffsets@Imf@@QBE_NXZ
	?isValidTile@TileOffsets@Imf@@ABE_NHHHH@Z
	??RTileOffsets@Imf@@QAEAA_KHHHH@Z
	??RTileOffsets@Imf@@QAEAA_KHHH@Z
	??RTileOffsets@Imf@@QBEAB_KHHHH@Z
	??RTileOffsets@Imf@@QBEAB_KHHH@Z
	?findTiles@TileOffsets@Imf@@AAEXAAVIStream@2@@Z
	?reconstructFromFile@TileOffsets@Imf@@AAEXAAVIStream@2@@Z
	?readFrom@TileOffsets@Imf@@QAEXAAVIStream@2@AA_N@Z
	?writeTo@TileOffsets@Imf@@QBE_KAAVOStream@2@@Z
	??0TileOffsets@Imf@@QAE@W4LevelMode@1@HHPBH1@Z
	??0?$_Vector_val@V?$vector@V?$vector@_KV?$allocator@_K@std@@@std@@V?$allocator@V?$vector@_KV?$allocator@_K@std@@@std@@@2@@std@@V?$allocator@V?$vector@V?$vector@_KV?$allocator@_K@std@@@std@@V?$allocator@V?$vector@_KV?$allocator@_K@std@@@std@@@2@@std@@@2@@std@@IAE@V?$allocator@V?$vector@V?$vector@_KV?$allocator@_K@std@@@std@@V?$allocator@V?$vector@_KV?$allocator@_K@std@@@std@@@2@@std@@@1@@Z
	??Y?$_Vector_iterator@V?$vector@V?$vector@_KV?$allocator@_K@std@@@std@@V?$allocator@V?$vector@_KV?$allocator@_K@std@@@std@@@2@@std@@V?$allocator@V?$vector@V?$vector@_KV?$allocator@_K@std@@@std@@V?$allocator@V?$vector@_KV?$allocator@_K@std@@@std@@@2@@std@@@2@@std@@QAEAAV01@H@Z
	??Y?$_Vector_iterator@V?$vector@_KV?$allocator@_K@std@@@std@@V?$allocator@V?$vector@_KV?$allocator@_K@std@@@std@@@2@@std@@QAEAAV01@H@Z
	??H?$_Vector_iterator@V?$vector@V?$vector@_KV?$allocator@_K@std@@@std@@V?$allocator@V?$vector@_KV?$allocator@_K@std@@@std@@@2@@std@@V?$allocator@V?$vector@V?$vector@_KV?$allocator@_K@std@@@std@@V?$allocator@V?$vector@_KV?$allocator@_K@std@@@std@@@2@@std@@@2@@std@@QBE?AV01@H@Z
	??H?$_Vector_iterator@V?$vector@_KV?$allocator@_K@std@@@std@@V?$allocator@V?$vector@_KV?$allocator@_K@std@@@std@@@2@@std@@QBE?AV01@H@Z
	??0?$vector@V?$vector@V?$vector@_KV?$allocator@_K@std@@@std@@V?$allocator@V?$vector@_KV?$allocator@_K@std@@@std@@@2@@std@@V?$allocator@V?$vector@V?$vector@_KV?$allocator@_K@std@@@std@@V?$allocator@V?$vector@_KV?$allocator@_K@std@@@std@@@2@@std@@@2@@std@@QAE@XZ
	??0?$vector@V?$vector@_KV?$allocator@_K@std@@@std@@V?$allocator@V?$vector@_KV?$allocator@_K@std@@@std@@@2@@std@@QAE@XZ
	??$_Fill@PAV?$vector@_KV?$allocator@_K@std@@@std@@V12@@std@@YAXPAV?$vector@_KV?$allocator@_K@std@@@0@0ABV10@@Z
	?swap@?$vector@_KV?$allocator@_K@std@@@std@@QAEXAAV12@@Z
	??$fill@PAV?$vector@_KV?$allocator@_K@std@@@std@@V12@@std@@YAXPAV?$vector@_KV?$allocator@_K@std@@@0@0ABV10@@Z
	??$swap@_KV?$allocator@_K@std@@@std@@YAXAAV?$vector@_KV?$allocator@_K@std@@@0@0@Z
	??$_Uninit_fill_n@PAV?$vector@_KV?$allocator@_K@std@@@std@@IV12@V?$allocator@V?$vector@_KV?$allocator@_K@std@@@std@@@2@@std@@YAXPAV?$vector@_KV?$allocator@_K@std@@@0@IABV10@AAV?$allocator@V?$vector@_KV?$allocator@_K@std@@@std@@@0@U_Nonscalar_ptr_iterator_tag@0@U_Range_checked_iterator_tag@0@@Z
	??$_Uninit_move@PAV?$vector@_KV?$allocator@_K@std@@@std@@PAV12@V?$allocator@V?$vector@_KV?$allocator@_K@std@@@std@@@2@@std@@YAPAV?$vector@_KV?$allocator@_K@std@@@0@PAV10@00AAV?$allocator@V?$vector@_KV?$allocator@_K@std@@@std@@@0@U_Swap_move_tag@0@U_Range_checked_iterator_tag@0@@Z
	??$_Move_backward_opt@PAV?$vector@_KV?$allocator@_K@std@@@std@@PAV12@Uforward_iterator_tag@2@@std@@YAPAV?$vector@_KV?$allocator@_K@std@@@0@PAV10@00Uforward_iterator_tag@0@U_Swap_move_tag@0@U_Range_checked_iterator_tag@0@@Z
	??$unchecked_uninitialized_fill_n@PAV?$vector@_KV?$allocator@_K@std@@@std@@IV12@V?$allocator@V?$vector@_KV?$allocator@_K@std@@@std@@@2@@stdext@@YAXPAV?$vector@_KV?$allocator@_K@std@@@std@@IABV12@AAV?$allocator@V?$vector@_KV?$allocator@_K@std@@@std@@@2@@Z
	??$_Unchecked_uninitialized_move@PAV?$vector@_KV?$allocator@_K@std@@@std@@PAV12@V?$allocator@V?$vector@_KV?$allocator@_K@std@@@std@@@2@@stdext@@YAPAV?$vector@_KV?$allocator@_K@std@@@std@@PAV12@00AAV?$allocator@V?$vector@_KV?$allocator@_K@std@@@std@@@2@@Z
	??$_Move_backward_opt@PAV?$vector@_KV?$allocator@_K@std@@@std@@PAV12@@std@@YAPAV?$vector@_KV?$allocator@_K@std@@@0@PAV10@00Urandom_access_iterator_tag@0@U_Swap_move_tag@0@U_Range_checked_iterator_tag@0@@Z
	?_Ufill@?$vector@V?$vector@_KV?$allocator@_K@std@@@std@@V?$allocator@V?$vector@_KV?$allocator@_K@std@@@std@@@2@@std@@IAEPAV?$vector@_KV?$allocator@_K@std@@@2@PAV32@IABV32@@Z
	??$_Umove@PAV?$vector@_KV?$allocator@_K@std@@@std@@@?$vector@V?$vector@_KV?$allocator@_K@std@@@std@@V?$allocator@V?$vector@_KV?$allocator@_K@std@@@std@@@2@@std@@IAEPAV?$vector@_KV?$allocator@_K@std@@@1@PAV21@00@Z
	??$_Unchecked_move_backward@PAV?$vector@_KV?$allocator@_K@std@@@std@@PAV12@@stdext@@YAPAV?$vector@_KV?$allocator@_K@std@@@std@@PAV12@00@Z
	?_Insert_n@?$vector@V?$vector@_KV?$allocator@_K@std@@@std@@V?$allocator@V?$vector@_KV?$allocator@_K@std@@@std@@@2@@std@@IAEXV?$_Vector_iterator@V?$vector@_KV?$allocator@_K@std@@@std@@V?$allocator@V?$vector@_KV?$allocator@_K@std@@@std@@@2@@2@IABV?$vector@_KV?$allocator@_K@std@@@2@@Z
	?resize@?$vector@V?$vector@_KV?$allocator@_K@std@@@std@@V?$allocator@V?$vector@_KV?$allocator@_K@std@@@std@@@2@@std@@QAEXIV?$vector@_KV?$allocator@_K@std@@@2@@Z
	?swap@?$vector@V?$vector@_KV?$allocator@_K@std@@@std@@V?$allocator@V?$vector@_KV?$allocator@_K@std@@@std@@@2@@std@@QAEXAAV12@@Z
	?resize@?$vector@V?$vector@_KV?$allocator@_K@std@@@std@@V?$allocator@V?$vector@_KV?$allocator@_K@std@@@std@@@2@@std@@QAEXI@Z
	??$_Fill@PAV?$vector@V?$vector@_KV?$allocator@_K@std@@@std@@V?$allocator@V?$vector@_KV?$allocator@_K@std@@@std@@@2@@std@@V12@@std@@YAXPAV?$vector@V?$vector@_KV?$allocator@_K@std@@@std@@V?$allocator@V?$vector@_KV?$allocator@_K@std@@@std@@@2@@0@0ABV10@@Z
	??$swap@V?$vector@_KV?$allocator@_K@std@@@std@@V?$allocator@V?$vector@_KV?$allocator@_K@std@@@std@@@2@@std@@YAXAAV?$vector@V?$vector@_KV?$allocator@_K@std@@@std@@V?$allocator@V?$vector@_KV?$allocator@_K@std@@@std@@@2@@0@0@Z
	??$fill@PAV?$vector@V?$vector@_KV?$allocator@_K@std@@@std@@V?$allocator@V?$vector@_KV?$allocator@_K@std@@@std@@@2@@std@@V12@@std@@YAXPAV?$vector@V?$vector@_KV?$allocator@_K@std@@@std@@V?$allocator@V?$vector@_KV?$allocator@_K@std@@@std@@@2@@0@0ABV10@@Z
	??$_Uninit_move@PAV?$vector@V?$vector@_KV?$allocator@_K@std@@@std@@V?$allocator@V?$vector@_KV?$allocator@_K@std@@@std@@@2@@std@@PAV12@V?$allocator@V?$vector@V?$vector@_KV?$allocator@_K@std@@@std@@V?$allocator@V?$vector@_KV?$allocator@_K@std@@@std@@@2@@std@@@2@@std@@YAPAV?$vector@V?$vector@_KV?$allocator@_K@std@@@std@@V?$allocator@V?$vector@_KV?$allocator@_K@std@@@std@@@2@@0@PAV10@00AAV?$allocator@V?$vector@V?$vector@_KV?$allocator@_K@std@@@std@@V?$allocator@V?$vector@_KV?$allocator@_K@std@@@std@@@2@@std@@@0@U_Swap_move_tag@0@U_Range_checked_iterator_tag@0@@Z
	??$_Move_backward_opt@PAV?$vector@V?$vector@_KV?$allocator@_K@std@@@std@@V?$allocator@V?$vector@_KV?$allocator@_K@std@@@std@@@2@@std@@PAV12@Uforward_iterator_tag@2@@std@@YAPAV?$vector@V?$vector@_KV?$allocator@_K@std@@@std@@V?$allocator@V?$vector@_KV?$allocator@_K@std@@@std@@@2@@0@PAV10@00Uforward_iterator_tag@0@U_Swap_move_tag@0@U_Range_checked_iterator_tag@0@@Z
	??$_Unchecked_uninitialized_move@PAV?$vector@V?$vector@_KV?$allocator@_K@std@@@std@@V?$allocator@V?$vector@_KV?$allocator@_K@std@@@std@@@2@@std@@PAV12@V?$allocator@V?$vector@V?$vector@_KV?$allocator@_K@std@@@std@@V?$allocator@V?$vector@_KV?$allocator@_K@std@@@std@@@2@@std@@@2@@stdext@@YAPAV?$vector@V?$vector@_KV?$allocator@_K@std@@@std@@V?$allocator@V?$vector@_KV?$allocator@_K@std@@@std@@@2@@std@@PAV12@00AAV?$allocator@V?$vector@V?$vector@_KV?$allocator@_K@std@@@std@@V?$allocator@V?$vector@_KV?$allocator@_K@std@@@std@@@2@@std@@@2@@Z
	??$_Move_backward_opt@PAV?$vector@V?$vector@_KV?$allocator@_K@std@@@std@@V?$allocator@V?$vector@_KV?$allocator@_K@std@@@std@@@2@@std@@PAV12@@std@@YAPAV?$vector@V?$vector@_KV?$allocator@_K@std@@@std@@V?$allocator@V?$vector@_KV?$allocator@_K@std@@@std@@@2@@0@PAV10@00Urandom_access_iterator_tag@0@U_Swap_move_tag@0@U_Range_checked_iterator_tag@0@@Z
	??$_Uninit_fill_n@PAV?$vector@V?$vector@_KV?$allocator@_K@std@@@std@@V?$allocator@V?$vector@_KV?$allocator@_K@std@@@std@@@2@@std@@IV12@V?$allocator@V?$vector@V?$vector@_KV?$allocator@_K@std@@@std@@V?$allocator@V?$vector@_KV?$allocator@_K@std@@@std@@@2@@std@@@2@@std@@YAXPAV?$vector@V?$vector@_KV?$allocator@_K@std@@@std@@V?$allocator@V?$vector@_KV?$allocator@_K@std@@@std@@@2@@0@IABV10@AAV?$allocator@V?$vector@V?$vector@_KV?$allocator@_K@std@@@std@@V?$allocator@V?$vector@_KV?$allocator@_K@std@@@std@@@2@@std@@@0@U_Nonscalar_ptr_iterator_tag@0@U_Range_checked_iterator_tag@0@@Z
	??$_Umove@PAV?$vector@V?$vector@_KV?$allocator@_K@std@@@std@@V?$allocator@V?$vector@_KV?$allocator@_K@std@@@std@@@2@@std@@@?$vector@V?$vector@V?$vector@_KV?$allocator@_K@std@@@std@@V?$allocator@V?$vector@_KV?$allocator@_K@std@@@std@@@2@@std@@V?$allocator@V?$vector@V?$vector@_KV?$allocator@_K@std@@@std@@V?$allocator@V?$vector@_KV?$allocator@_K@std@@@std@@@2@@std@@@2@@std@@IAEPAV?$vector@V?$vector@_KV?$allocator@_K@std@@@std@@V?$allocator@V?$vector@_KV?$allocator@_K@std@@@std@@@2@@1@PAV21@00@Z
	??$_Unchecked_move_backward@PAV?$vector@V?$vector@_KV?$allocator@_K@std@@@std@@V?$allocator@V?$vector@_KV?$allocator@_K@std@@@std@@@2@@std@@PAV12@@stdext@@YAPAV?$vector@V?$vector@_KV?$allocator@_K@std@@@std@@V?$allocator@V?$vector@_KV?$allocator@_K@std@@@std@@@2@@std@@PAV12@00@Z
	??$unchecked_uninitialized_fill_n@PAV?$vector@V?$vector@_KV?$allocator@_K@std@@@std@@V?$allocator@V?$vector@_KV?$allocator@_K@std@@@std@@@2@@std@@IV12@V?$allocator@V?$vector@V?$vector@_KV?$allocator@_K@std@@@std@@V?$allocator@V?$vector@_KV?$allocator@_K@std@@@std@@@2@@std@@@2@@stdext@@YAXPAV?$vector@V?$vector@_KV?$allocator@_K@std@@@std@@V?$allocator@V?$vector@_KV?$allocator@_K@std@@@std@@@2@@std@@IABV12@AAV?$allocator@V?$vector@V?$vector@_KV?$allocator@_K@std@@@std@@V?$allocator@V?$vector@_KV?$allocator@_K@std@@@std@@@2@@std@@@2@@Z
	?_Ufill@?$vector@V?$vector@V?$vector@_KV?$allocator@_K@std@@@std@@V?$allocator@V?$vector@_KV?$allocator@_K@std@@@std@@@2@@std@@V?$allocator@V?$vector@V?$vector@_KV?$allocator@_K@std@@@std@@V?$allocator@V?$vector@_KV?$allocator@_K@std@@@std@@@2@@std@@@2@@std@@IAEPAV?$vector@V?$vector@_KV?$allocator@_K@std@@@std@@V?$allocator@V?$vector@_KV?$allocator@_K@std@@@std@@@2@@2@PAV32@IABV32@@Z
	?_Insert_n@?$vector@V?$vector@V?$vector@_KV?$allocator@_K@std@@@std@@V?$allocator@V?$vector@_KV?$allocator@_K@std@@@std@@@2@@std@@V?$allocator@V?$vector@V?$vector@_KV?$allocator@_K@std@@@std@@V?$allocator@V?$vector@_KV?$allocator@_K@std@@@std@@@2@@std@@@2@@std@@IAEXV?$_Vector_iterator@V?$vector@V?$vector@_KV?$allocator@_K@std@@@std@@V?$allocator@V?$vector@_KV?$allocator@_K@std@@@std@@@2@@std@@V?$allocator@V?$vector@V?$vector@_KV?$allocator@_K@std@@@std@@V?$allocator@V?$vector@_KV?$allocator@_K@std@@@std@@@2@@std@@@2@@2@IABV?$vector@V?$vector@_KV?$allocator@_K@std@@@std@@V?$allocator@V?$vector@_KV?$allocator@_K@std@@@std@@@2@@2@@Z
	?resize@?$vector@V?$vector@V?$vector@_KV?$allocator@_K@std@@@std@@V?$allocator@V?$vector@_KV?$allocator@_K@std@@@std@@@2@@std@@V?$allocator@V?$vector@V?$vector@_KV?$allocator@_K@std@@@std@@V?$allocator@V?$vector@_KV?$allocator@_K@std@@@std@@@2@@std@@@2@@std@@QAEXIV?$vector@V?$vector@_KV?$allocator@_K@std@@@std@@V?$allocator@V?$vector@_KV?$allocator@_K@std@@@std@@@2@@2@@Z
	?resize@?$vector@V?$vector@V?$vector@_KV?$allocator@_K@std@@@std@@V?$allocator@V?$vector@_KV?$allocator@_K@std@@@std@@@2@@std@@V?$allocator@V?$vector@V?$vector@_KV?$allocator@_K@std@@@std@@V?$allocator@V?$vector@_KV?$allocator@_K@std@@@std@@@2@@std@@@2@@std@@QAEXI@Z
	??0TimeCode@Imf@@QAE@XZ
	??0TimeCode@Imf@@QAE@ABV01@@Z
	??4TimeCode@Imf@@QAEAAV01@ABV01@@Z
	?bitField@?A0x6579a903@Imf@@YAIIHH@Z
	?setBitField@?A0x6579a903@Imf@@YAXAAIHHI@Z
	?bcdToBinary@?A0x6579a903@Imf@@YAHI@Z
	?binaryToBcd@?A0x6579a903@Imf@@YAIH@Z
	?hours@TimeCode@Imf@@QBEHXZ
	?setHours@TimeCode@Imf@@QAEXH@Z
	?minutes@TimeCode@Imf@@QBEHXZ
	?setMinutes@TimeCode@Imf@@QAEXH@Z
	?seconds@TimeCode@Imf@@QBEHXZ
	?setSeconds@TimeCode@Imf@@QAEXH@Z
	?frame@TimeCode@Imf@@QBEHXZ
	?setFrame@TimeCode@Imf@@QAEXH@Z
	?dropFrame@TimeCode@Imf@@QBE_NXZ
	?setDropFrame@TimeCode@Imf@@QAEX_N@Z
	?colorFrame@TimeCode@Imf@@QBE_NXZ
	?setColorFrame@TimeCode@Imf@@QAEX_N@Z
	?fieldPhase@TimeCode@Imf@@QBE_NXZ
	?setFieldPhase@TimeCode@Imf@@QAEX_N@Z
	?bgf0@TimeCode@Imf@@QBE_NXZ
	?setBgf0@TimeCode@Imf@@QAEX_N@Z
	?bgf1@TimeCode@Imf@@QBE_NXZ
	?setBgf1@TimeCode@Imf@@QAEX_N@Z
	?bgf2@TimeCode@Imf@@QBE_NXZ
	?setBgf2@TimeCode@Imf@@QAEX_N@Z
	?binaryGroup@TimeCode@Imf@@QBEHH@Z
	?setBinaryGroup@TimeCode@Imf@@QAEXHH@Z
	?timeAndFlags@TimeCode@Imf@@QBEIW4Packing@12@@Z
	?setTimeAndFlags@TimeCode@Imf@@QAEXIW4Packing@12@@Z
	?userData@TimeCode@Imf@@QBEIXZ
	?setUserData@TimeCode@Imf@@QAEXI@Z
	??0TimeCode@Imf@@QAE@HHHH_N00000HHHHHHHH@Z
	??0TimeCode@Imf@@QAE@IIW4Packing@01@@Z
	?staticTypeName@?$TypedAttribute@VTimeCode@Imf@@@Imf@@SAPBDXZ
	?writeValueTo@?$TypedAttribute@VTimeCode@Imf@@@Imf@@UBEXAAVOStream@2@H@Z
	?readValueFrom@?$TypedAttribute@VTimeCode@Imf@@@Imf@@UAEXAAVIStream@2@HH@Z
	?staticTypeName@?$TypedAttribute@V?$Vec2@H@Imath@@@Imf@@SAPBDXZ
	?writeValueTo@?$TypedAttribute@V?$Vec2@H@Imath@@@Imf@@UBEXAAVOStream@2@H@Z
	?readValueFrom@?$TypedAttribute@V?$Vec2@H@Imath@@@Imf@@UAEXAAVIStream@2@HH@Z
	?staticTypeName@?$TypedAttribute@V?$Vec2@M@Imath@@@Imf@@SAPBDXZ
	?writeValueTo@?$TypedAttribute@V?$Vec2@M@Imath@@@Imf@@UBEXAAVOStream@2@H@Z
	?readValueFrom@?$TypedAttribute@V?$Vec2@M@Imath@@@Imf@@UAEXAAVIStream@2@HH@Z
	?staticTypeName@?$TypedAttribute@V?$Vec3@H@Imath@@@Imf@@SAPBDXZ
	?writeValueTo@?$TypedAttribute@V?$Vec3@H@Imath@@@Imf@@UBEXAAVOStream@2@H@Z
	?readValueFrom@?$TypedAttribute@V?$Vec3@H@Imath@@@Imf@@UAEXAAVIStream@2@HH@Z
	?staticTypeName@?$TypedAttribute@V?$Vec3@M@Imath@@@Imf@@SAPBDXZ
	?writeValueTo@?$TypedAttribute@V?$Vec3@M@Imath@@@Imf@@UBEXAAVOStream@2@H@Z
	?readValueFrom@?$TypedAttribute@V?$Vec3@M@Imath@@@Imf@@UAEXAAVIStream@2@HH@Z
	?isImfMagic@Imf@@YA_NQBD@Z
	?wav2Encode@Imf@@YAXPAGHHHHG@Z
	?wav2Decode@Imf@@YAXPAGHHHHG@Z
	??0ZipCompressor@Imf@@QAE@ABVHeader@1@HH@Z
	??1ZipCompressor@Imf@@UAE@XZ
	?numScanLines@ZipCompressor@Imf@@UBEHXZ
	?compress@ZipCompressor@Imf@@UAEHPBDHHAAPBD@Z
	?uncompress@ZipCompressor@Imf@@UAEHPBDHHAAPBD@Z
	?collate@?$_Locbase@H@std@@2HB
	?ctype@?$_Locbase@H@std@@2HB
	?monetary@?$_Locbase@H@std@@2HB
	?numeric@?$_Locbase@H@std@@2HB
	?time@?$_Locbase@H@std@@2HB
	?messages@?$_Locbase@H@std@@2HB
	?all@?$_Locbase@H@std@@2HB
	?none@?$_Locbase@H@std@@2HB
	?skipws@?$_Iosb@H@std@@2W4_Fmtflags@12@B
	?unitbuf@?$_Iosb@H@std@@2W4_Fmtflags@12@B
	?uppercase@?$_Iosb@H@std@@2W4_Fmtflags@12@B
	?showbase@?$_Iosb@H@std@@2W4_Fmtflags@12@B
	?showpoint@?$_Iosb@H@std@@2W4_Fmtflags@12@B
	?showpos@?$_Iosb@H@std@@2W4_Fmtflags@12@B
	?left@?$_Iosb@H@std@@2W4_Fmtflags@12@B
	?right@?$_Iosb@H@std@@2W4_Fmtflags@12@B
	?internal@?$_Iosb@H@std@@2W4_Fmtflags@12@B
	?dec@?$_Iosb@H@std@@2W4_Fmtflags@12@B
	?oct@?$_Iosb@H@std@@2W4_Fmtflags@12@B
	?hex@?$_Iosb@H@std@@2W4_Fmtflags@12@B
	?scientific@?$_Iosb@H@std@@2W4_Fmtflags@12@B
	?fixed@?$_Iosb@H@std@@2W4_Fmtflags@12@B
	?boolalpha@?$_Iosb@H@std@@2W4_Fmtflags@12@B
	?_Stdio@?$_Iosb@H@std@@2W4_Fmtflags@12@B
	?adjustfield@?$_Iosb@H@std@@2W4_Fmtflags@12@B
	?basefield@?$_Iosb@H@std@@2W4_Fmtflags@12@B
	?floatfield@?$_Iosb@H@std@@2W4_Fmtflags@12@B
	?goodbit@?$_Iosb@H@std@@2W4_Iostate@12@B
	?eofbit@?$_Iosb@H@std@@2W4_Iostate@12@B
	?failbit@?$_Iosb@H@std@@2W4_Iostate@12@B
	?badbit@?$_Iosb@H@std@@2W4_Iostate@12@B
	?_Hardfail@?$_Iosb@H@std@@2W4_Iostate@12@B
	?in@?$_Iosb@H@std@@2W4_Openmode@12@B
	?out@?$_Iosb@H@std@@2W4_Openmode@12@B
	?ate@?$_Iosb@H@std@@2W4_Openmode@12@B
	?app@?$_Iosb@H@std@@2W4_Openmode@12@B
	?trunc@?$_Iosb@H@std@@2W4_Openmode@12@B
	?_Nocreate@?$_Iosb@H@std@@2W4_Openmode@12@B
	?_Noreplace@?$_Iosb@H@std@@2W4_Openmode@12@B
	?binary@?$_Iosb@H@std@@2W4_Openmode@12@B
	?beg@?$_Iosb@H@std@@2W4_Seekdir@12@B
	?cur@?$_Iosb@H@std@@2W4_Seekdir@12@B
	?end@?$_Iosb@H@std@@2W4_Seekdir@12@B
	?SIZE@Name@Imf@@2HB
	?MAX_LENGTH@Name@Imf@@2HB
	?errorMessage@?A0x04758b90@@3PADA
