 IlmImf_dll

 Timestamp is 44d97f6c (Tue Aug 08 23:23:40 2006)

 Preferred load address is 10000000

 Start         Length     Name                   Class
 0001:00000000 0005a86eH .text                   CODE
 0001:0005a870 00002c52H .text$x                 CODE
 0001:0005d4d0 00000036H .text$yd                CODE
 0002:00000000 000002a0H .idata$5                DATA
 0002:000002a0 00000004H .CRT$XCA                DATA
 0002:000002a4 00000004H .CRT$XCZ                DATA
 0002:000002a8 00000004H .CRT$XIA                DATA
 0002:000002ac 00000004H .CRT$XIAA               DATA
 0002:000002b0 00000004H .CRT$XIC                DATA
 0002:000002b4 00000004H .CRT$XIZ                DATA
 0002:000002b8 00002bb0H .rdata                  DATA
 0002:00002e68 00001928H .rdata$r                DATA
 0002:00004790 000005e0H .rdata$sxdata           DATA
 0002:00004d70 00000004H .rtc$IAA                DATA
 0002:00004d74 00000088H .rtc$IMZ                DATA
 0002:00004dfc 00000004H .rtc$IZZ                DATA
 0002:00004e00 00000004H .rtc$TAA                DATA
 0002:00004e04 00000088H .rtc$TMZ                DATA
 0002:00004e8c 00000004H .rtc$TZZ                DATA
 0002:00004e90 000064bcH .xdata$x                DATA
 0002:0000b34c 0000008cH .idata$2                DATA
 0002:0000b3d8 00000014H .idata$3                DATA
 0002:0000b3ec 000002a0H .idata$4                DATA
 0002:0000b68c 00001a3aH .idata$6                DATA
 0002:0000d0c6 00000000H .edata                  DATA
 0003:00000000 00000ed4H .data                   DATA
 0003:00000ed8 000007b8H .bss                    DATA

  Address         Publics by Value              Rva+Base       Lib:Object

 0000:00000000       __except_list              00000000     <absolute>
 0000:00000178       ___safe_se_handler_count   00000178     <absolute>
 0000:00009876       __ldused                   00009876     <absolute>
 0000:00009876       __fltused                  00009876     <absolute>
 0000:00000000       ___ImageBase               10000000     <linker-defined>
 0001:00000000       ??0Attribute@Imf@@QAE@XZ   10001000 f   ImfAttribute.obj
 0001:00000020       ??1Attribute@Imf@@UAE@XZ   10001020 f   ImfAttribute.obj
 0001:00000040       ?typeMap@?A0xa1908c12@Imf@@YAAAVLockedTypeMap@12@XZ 10001040 f   ImfAttribute.obj
 0001:000001a0       ?knownType@Attribute@Imf@@SA_NQBD@Z 100011a0 f   ImfAttribute.obj
 0001:000002e0       ?registerAttributeType@Attribute@Imf@@KAXQBDP6APAV12@XZ@Z 100012e0 f   ImfAttribute.obj
 0001:00000540       ?unRegisterAttributeType@Attribute@Imf@@KAXQBD@Z 10001540 f   ImfAttribute.obj
 0001:00000610       ?newAttribute@Attribute@Imf@@SAPAV12@QBD@Z 10001610 f   ImfAttribute.obj
 0001:000008a0       ??_GAttribute@Imf@@UAEPAXI@Z 100018a0 f i ImfAttribute.obj
 0001:000008a0       ??_EAttribute@Imf@@UAEPAXI@Z 100018a0 f i ImfAttribute.obj
 0001:000008e0       ??1Lock@IlmThread@@QAE@XZ  100018e0 f i ImfAttribute.obj
 0001:00000920       ??1?$map@PBDP6APAVAttribute@Imf@@XZUNameCompare@?A0xa1908c12@2@V?$allocator@U?$pair@QBDP6APAVAttribute@Imf@@XZ@std@@@std@@@std@@QAE@XZ 10001920 f i ImfAttribute.obj
 0001:00000960       ??_EArgExc@Iex@@UAEPAXI@Z  10001960 f i ImfAttribute.obj
 0001:00000960       ??_GArgExc@Iex@@UAEPAXI@Z  10001960 f i ImfAttribute.obj
 0001:000009a0       ??1ArgExc@Iex@@UAE@XZ      100019a0 f i ImfAttribute.obj
 0001:000009d0       ??0ArgExc@Iex@@QAE@ABV01@@Z 100019d0 f i ImfAttribute.obj
 0001:00000a10       ?insert@?$_Tree@V?$_Tmap_traits@PBDP6APAVAttribute@Imf@@XZUNameCompare@?A0xa1908c12@2@V?$allocator@U?$pair@QBDP6APAVAttribute@Imf@@XZ@std@@@std@@$0A@@std@@@std@@QAE?AU?$pair@Viterator@?$_Tree@V?$_Tmap_traits@PBDP6APAVAttribute@Imf@@XZUNameCompare@?A0xa1908c12@2@V?$allocator@U?$pair@QBDP6APAVAttribute@Imf@@XZ@std@@@std@@$0A@@std@@@std@@_N@2@ABU?$pair@QBDP6APAVAttribute@Imf@@XZ@2@@Z 10001a10 f i ImfAttribute.obj
 0001:00000d70       ?erase@?$_Tree@V?$_Tmap_traits@PBDP6APAVAttribute@Imf@@XZUNameCompare@?A0xa1908c12@2@V?$allocator@U?$pair@QBDP6APAVAttribute@Imf@@XZ@std@@@std@@$0A@@std@@@std@@QAEIABQBD@Z 10001d70 f i ImfAttribute.obj
 0001:00000ea0       ?find@?$_Tree@V?$_Tmap_traits@PBDP6APAVAttribute@Imf@@XZUNameCompare@?A0xa1908c12@2@V?$allocator@U?$pair@QBDP6APAVAttribute@Imf@@XZ@std@@@std@@$0A@@std@@@std@@QAE?AViterator@12@ABQBD@Z 10001ea0 f i ImfAttribute.obj
 0001:00001060       ??0?$_Tree@V?$_Tmap_traits@PBDP6APAVAttribute@Imf@@XZUNameCompare@?A0xa1908c12@2@V?$allocator@U?$pair@QBDP6APAVAttribute@Imf@@XZ@std@@@std@@$0A@@std@@@std@@QAE@ABUNameCompare@?A0xa1908c12@Imf@@ABV?$allocator@U?$pair@QBDP6APAVAttribute@Imf@@XZ@std@@@1@@Z 10002060 f i ImfAttribute.obj
 0001:000010b0       ?erase@?$_Tree@V?$_Tmap_traits@PBDP6APAVAttribute@Imf@@XZUNameCompare@?A0xa1908c12@2@V?$allocator@U?$pair@QBDP6APAVAttribute@Imf@@XZ@std@@@std@@$0A@@std@@@std@@QAE?AViterator@12@V312@0@Z 100020b0 f i ImfAttribute.obj
 0001:000012b0       ?equal_range@?$_Tree@V?$_Tmap_traits@PBDP6APAVAttribute@Imf@@XZUNameCompare@?A0xa1908c12@2@V?$allocator@U?$pair@QBDP6APAVAttribute@Imf@@XZ@std@@@std@@$0A@@std@@@std@@QAE?AU?$pair@Viterator@?$_Tree@V?$_Tmap_traits@PBDP6APAVAttribute@Imf@@XZUNameCompare@?A0xa1908c12@2@V?$allocator@U?$pair@QBDP6APAVAttribute@Imf@@XZ@std@@@std@@$0A@@std@@@std@@V123@@2@ABQBD@Z 100022b0 f i ImfAttribute.obj
 0001:00001370       ?_Insert@?$_Tree@V?$_Tmap_traits@PBDP6APAVAttribute@Imf@@XZUNameCompare@?A0xa1908c12@2@V?$allocator@U?$pair@QBDP6APAVAttribute@Imf@@XZ@std@@@std@@$0A@@std@@@std@@IAE?AViterator@12@_NPAU_Node@?$_Tree_nod@V?$_Tmap_traits@PBDP6APAVAttribute@Imf@@XZUNameCompare@?A0xa1908c12@2@V?$allocator@U?$pair@QBDP6APAVAttribute@Imf@@XZ@std@@@std@@$0A@@std@@@2@ABU?$pair@QBDP6APAVAttribute@Imf@@XZ@2@@Z 10002370 f i ImfAttribute.obj
 0001:00001730       ??0logic_error@std@@QAE@ABV?$basic_string@DU?$char_traits@D@std@@V?$allocator@D@2@@1@@Z 10002730 f i ImfAttribute.obj
 0001:000017c0       ?what@logic_error@std@@UBEPBDXZ 100027c0 f i ImfAttribute.obj
 0001:00001800       ??_Elogic_error@std@@UAEPAXI@Z 10002800 f i ImfAttribute.obj
 0001:00001800       ??_Glogic_error@std@@UAEPAXI@Z 10002800 f i ImfAttribute.obj
 0001:00001870       ??1length_error@std@@UAE@XZ 10002870 f i ImfAttribute.obj
 0001:000018d0       ??_Glength_error@std@@UAEPAXI@Z 100028d0 f i ImfAttribute.obj
 0001:000018d0       ??_Elength_error@std@@UAEPAXI@Z 100028d0 f i ImfAttribute.obj
 0001:00001940       ??0logic_error@std@@QAE@ABV01@@Z 10002940 f i ImfAttribute.obj
 0001:000019d0       ?_Tidy@?$_Tree@V?$_Tmap_traits@PBDP6APAVAttribute@Imf@@XZUNameCompare@?A0xa1908c12@2@V?$allocator@U?$pair@QBDP6APAVAttribute@Imf@@XZ@std@@@std@@$0A@@std@@@std@@IAEXXZ 100029d0 f i ImfAttribute.obj
 0001:00001ac0       ??0length_error@std@@QAE@ABV01@@Z 10002ac0 f i ImfAttribute.obj
 0001:00001b60       ?erase@?$_Tree@V?$_Tmap_traits@PBDP6APAVAttribute@Imf@@XZUNameCompare@?A0xa1908c12@2@V?$allocator@U?$pair@QBDP6APAVAttribute@Imf@@XZ@std@@@std@@$0A@@std@@@std@@QAE?AViterator@12@V312@@Z 10002b60 f i ImfAttribute.obj
 0001:000020e0       ??1out_of_range@std@@UAE@XZ 100030e0 f i ImfAttribute.obj
 0001:00002140       ??_Gout_of_range@std@@UAEPAXI@Z 10003140 f i ImfAttribute.obj
 0001:00002140       ??_Eout_of_range@std@@UAEPAXI@Z 10003140 f i ImfAttribute.obj
 0001:000021b0       ??0out_of_range@std@@QAE@ABV01@@Z 100031b0 f i ImfAttribute.obj
 0001:00002250       ?clear@?$_Tree@V?$_Tmap_traits@PBDP6APAVAttribute@Imf@@XZUNameCompare@?A0xa1908c12@2@V?$allocator@U?$pair@QBDP6APAVAttribute@Imf@@XZ@std@@@std@@$0A@@std@@@std@@QAEXXZ 10003250 f i ImfAttribute.obj
 0001:000022d0       ?_Init@?$_Tree@V?$_Tmap_traits@PBDP6APAVAttribute@Imf@@XZUNameCompare@?A0xa1908c12@2@V?$allocator@U?$pair@QBDP6APAVAttribute@Imf@@XZ@std@@@std@@$0A@@std@@@std@@IAEXXZ 100032d0 f i ImfAttribute.obj
 0001:00002350       ?_Lbound@?$_Tree@V?$_Tmap_traits@PBDP6APAVAttribute@Imf@@XZUNameCompare@?A0xa1908c12@2@V?$allocator@U?$pair@QBDP6APAVAttribute@Imf@@XZ@std@@@std@@$0A@@std@@@std@@IBEPAU_Node@?$_Tree_nod@V?$_Tmap_traits@PBDP6APAVAttribute@Imf@@XZUNameCompare@?A0xa1908c12@2@V?$allocator@U?$pair@QBDP6APAVAttribute@Imf@@XZ@std@@@std@@$0A@@std@@@2@ABQBD@Z 10003350 f i ImfAttribute.obj
 0001:00002430       ?_Lrotate@?$_Tree@V?$_Tmap_traits@PBDP6APAVAttribute@Imf@@XZUNameCompare@?A0xa1908c12@2@V?$allocator@U?$pair@QBDP6APAVAttribute@Imf@@XZ@std@@@std@@$0A@@std@@@std@@IAEXPAU_Node@?$_Tree_nod@V?$_Tmap_traits@PBDP6APAVAttribute@Imf@@XZUNameCompare@?A0xa1908c12@2@V?$allocator@U?$pair@QBDP6APAVAttribute@Imf@@XZ@std@@@std@@$0A@@std@@@2@@Z 10003430 f i ImfAttribute.obj
 0001:000024f0       ?_Rrotate@?$_Tree@V?$_Tmap_traits@PBDP6APAVAttribute@Imf@@XZUNameCompare@?A0xa1908c12@2@V?$allocator@U?$pair@QBDP6APAVAttribute@Imf@@XZ@std@@@std@@$0A@@std@@@std@@IAEXPAU_Node@?$_Tree_nod@V?$_Tmap_traits@PBDP6APAVAttribute@Imf@@XZUNameCompare@?A0xa1908c12@2@V?$allocator@U?$pair@QBDP6APAVAttribute@Imf@@XZ@std@@@std@@$0A@@std@@@2@@Z 100034f0 f i ImfAttribute.obj
 0001:000025b0       ?_Buynode@?$_Tree@V?$_Tmap_traits@PBDP6APAVAttribute@Imf@@XZUNameCompare@?A0xa1908c12@2@V?$allocator@U?$pair@QBDP6APAVAttribute@Imf@@XZ@std@@@std@@$0A@@std@@@std@@IAEPAU_Node@?$_Tree_nod@V?$_Tmap_traits@PBDP6APAVAttribute@Imf@@XZUNameCompare@?A0xa1908c12@2@V?$allocator@U?$pair@QBDP6APAVAttribute@Imf@@XZ@std@@@std@@$0A@@std@@@2@PAU342@00ABU?$pair@QBDP6APAVAttribute@Imf@@XZ@2@D@Z 100035b0 f i ImfAttribute.obj
 0001:000026b0       ??0const_iterator@?$_Tree@V?$_Tmap_traits@PBDP6APAVAttribute@Imf@@XZUNameCompare@?A0xa1908c12@2@V?$allocator@U?$pair@QBDP6APAVAttribute@Imf@@XZ@std@@@std@@$0A@@std@@@std@@QAE@PAU_Node@?$_Tree_nod@V?$_Tmap_traits@PBDP6APAVAttribute@Imf@@XZUNameCompare@?A0xa1908c12@2@V?$allocator@U?$pair@QBDP6APAVAttribute@Imf@@XZ@std@@@std@@$0A@@std@@@2@PBV12@@Z 100036b0 f i ImfAttribute.obj
 0001:00002710       ?_Erase@?$_Tree@V?$_Tmap_traits@PBDP6APAVAttribute@Imf@@XZUNameCompare@?A0xa1908c12@2@V?$allocator@U?$pair@QBDP6APAVAttribute@Imf@@XZ@std@@@std@@$0A@@std@@@std@@IAEXPAU_Node@?$_Tree_nod@V?$_Tmap_traits@PBDP6APAVAttribute@Imf@@XZUNameCompare@?A0xa1908c12@2@V?$allocator@U?$pair@QBDP6APAVAttribute@Imf@@XZ@std@@@std@@$0A@@std@@@2@@Z 10003710 f i ImfAttribute.obj
 0001:00002780       ?_Ubound@?$_Tree@V?$_Tmap_traits@PBDP6APAVAttribute@Imf@@XZUNameCompare@?A0xa1908c12@2@V?$allocator@U?$pair@QBDP6APAVAttribute@Imf@@XZ@std@@@std@@$0A@@std@@@std@@IBEPAU_Node@?$_Tree_nod@V?$_Tmap_traits@PBDP6APAVAttribute@Imf@@XZUNameCompare@?A0xa1908c12@2@V?$allocator@U?$pair@QBDP6APAVAttribute@Imf@@XZ@std@@@std@@$0A@@std@@@2@ABQBD@Z 10003780 f i ImfAttribute.obj
 0001:00002860       ?_Buynode@?$_Tree@V?$_Tmap_traits@PBDP6APAVAttribute@Imf@@XZUNameCompare@?A0xa1908c12@2@V?$allocator@U?$pair@QBDP6APAVAttribute@Imf@@XZ@std@@@std@@$0A@@std@@@std@@IAEPAU_Node@?$_Tree_nod@V?$_Tmap_traits@PBDP6APAVAttribute@Imf@@XZUNameCompare@?A0xa1908c12@2@V?$allocator@U?$pair@QBDP6APAVAttribute@Imf@@XZ@std@@@std@@$0A@@std@@@2@XZ 10003860 f i ImfAttribute.obj
 0001:000029b0       ?allocate@?$allocator@U_Node@?$_Tree_nod@V?$_Tmap_traits@PBDP6APAVAttribute@Imf@@XZUNameCompare@?A0xa1908c12@2@V?$allocator@U?$pair@QBDP6APAVAttribute@Imf@@XZ@std@@@std@@$0A@@std@@@std@@@std@@QAEPAU_Node@?$_Tree_nod@V?$_Tmap_traits@PBDP6APAVAttribute@Imf@@XZUNameCompare@?A0xa1908c12@2@V?$allocator@U?$pair@QBDP6APAVAttribute@Imf@@XZ@std@@@std@@$0A@@std@@@2@I@Z 100039b0 f i ImfAttribute.obj
 0001:000029f0       ?_Dec@const_iterator@?$_Tree@V?$_Tmap_traits@PBDP6APAVAttribute@Imf@@XZUNameCompare@?A0xa1908c12@2@V?$allocator@U?$pair@QBDP6APAVAttribute@Imf@@XZ@std@@@std@@$0A@@std@@@std@@QAEXXZ 100039f0 f i ImfAttribute.obj
 0001:00002b20       ?_Inc@const_iterator@?$_Tree@V?$_Tmap_traits@PBDP6APAVAttribute@Imf@@XZUNameCompare@?A0xa1908c12@2@V?$allocator@U?$pair@QBDP6APAVAttribute@Imf@@XZ@std@@@std@@$0A@@std@@@std@@QAEXXZ 10003b20 f i ImfAttribute.obj
 0001:00002c10       ??0?$TypedAttribute@M@Imf@@QAE@ABV01@@Z 10003c10 f i ImfAttribute.obj
 0001:00002c90       ??0?$TypedAttribute@M@Imf@@QAE@ABM@Z 10003c90 f i ImfAttribute.obj
 0001:00002cd0       ??0?$TypedAttribute@M@Imf@@QAE@XZ 10003cd0 f i ImfAttribute.obj
 0001:00002d10       ??1?$TypedAttribute@M@Imf@@UAE@XZ 10003d10 f i ImfAttribute.obj
 0001:00002d40       ?value@?$TypedAttribute@M@Imf@@QBEABMXZ 10003d40 f i ImfAttribute.obj
 0001:00002d60       ?value@?$TypedAttribute@M@Imf@@QAEAAMXZ 10003d60 f i ImfAttribute.obj
 0001:00002d80       ?typeName@?$TypedAttribute@M@Imf@@UBEPBDXZ 10003d80 f i ImfAttribute.obj
 0001:00002db0       ?makeNewAttribute@?$TypedAttribute@M@Imf@@SAPAVAttribute@2@XZ 10003db0 f i ImfAttribute.obj
 0001:00002e40       ?copy@?$TypedAttribute@M@Imf@@UBEPAVAttribute@2@XZ 10003e40 f i ImfAttribute.obj
 0001:00002ef0       ?writeValueTo@?$TypedAttribute@M@Imf@@UBEXAAVOStream@2@H@Z 10003ef0 f i ImfAttribute.obj
 0001:00002f30       ?readValueFrom@?$TypedAttribute@M@Imf@@UAEXAAVIStream@2@HH@Z 10003f30 f i ImfAttribute.obj
 0001:00002f70       ?copyValueFrom@?$TypedAttribute@M@Imf@@UAEXABVAttribute@2@@Z 10003f70 f i ImfAttribute.obj
 0001:00002fb0       ?cast@?$TypedAttribute@M@Imf@@SAABV12@ABVAttribute@2@@Z 10003fb0 f i ImfAttribute.obj
 0001:00002fd0       ?cast@?$TypedAttribute@M@Imf@@SAAAV12@AAVAttribute@2@@Z 10003fd0 f i ImfAttribute.obj
 0001:00002ff0       ?cast@?$TypedAttribute@M@Imf@@SAPBV12@PBVAttribute@2@@Z 10003ff0 f i ImfAttribute.obj
 0001:00003060       ??_ETypeExc@Iex@@UAEPAXI@Z 10004060 f i ImfAttribute.obj
 0001:00003060       ??_GTypeExc@Iex@@UAEPAXI@Z 10004060 f i ImfAttribute.obj
 0001:000030a0       ??1TypeExc@Iex@@UAE@XZ     100040a0 f i ImfAttribute.obj
 0001:000030d0       ?cast@?$TypedAttribute@M@Imf@@SAPAV12@PAVAttribute@2@@Z 100040d0 f i ImfAttribute.obj
 0001:00003140       ?registerAttributeType@?$TypedAttribute@M@Imf@@SAXXZ 10004140 f i ImfAttribute.obj
 0001:00003160       ?unRegisterAttributeType@?$TypedAttribute@M@Imf@@SAXXZ 10004160 f i ImfAttribute.obj
 0001:00003180       ??0?$TypedAttribute@N@Imf@@QAE@ABV01@@Z 10004180 f i ImfAttribute.obj
 0001:00003200       ??0?$TypedAttribute@N@Imf@@QAE@ABN@Z 10004200 f i ImfAttribute.obj
 0001:00003240       ??0?$TypedAttribute@N@Imf@@QAE@XZ 10004240 f i ImfAttribute.obj
 0001:00003280       ??1?$TypedAttribute@N@Imf@@UAE@XZ 10004280 f i ImfAttribute.obj
 0001:000032b0       ?value@?$TypedAttribute@N@Imf@@QBEABNXZ 100042b0 f i ImfAttribute.obj
 0001:000032d0       ?value@?$TypedAttribute@N@Imf@@QAEAANXZ 100042d0 f i ImfAttribute.obj
 0001:000032f0       ?typeName@?$TypedAttribute@N@Imf@@UBEPBDXZ 100042f0 f i ImfAttribute.obj
 0001:00003320       ?makeNewAttribute@?$TypedAttribute@N@Imf@@SAPAVAttribute@2@XZ 10004320 f i ImfAttribute.obj
 0001:000033b0       ?copy@?$TypedAttribute@N@Imf@@UBEPAVAttribute@2@XZ 100043b0 f i ImfAttribute.obj
 0001:00003460       ?writeValueTo@?$TypedAttribute@N@Imf@@UBEXAAVOStream@2@H@Z 10004460 f i ImfAttribute.obj
 0001:000034a0       ?readValueFrom@?$TypedAttribute@N@Imf@@UAEXAAVIStream@2@HH@Z 100044a0 f i ImfAttribute.obj
 0001:000034e0       ?copyValueFrom@?$TypedAttribute@N@Imf@@UAEXABVAttribute@2@@Z 100044e0 f i ImfAttribute.obj
 0001:00003520       ?cast@?$TypedAttribute@N@Imf@@SAABV12@ABVAttribute@2@@Z 10004520 f i ImfAttribute.obj
 0001:00003540       ?cast@?$TypedAttribute@N@Imf@@SAAAV12@AAVAttribute@2@@Z 10004540 f i ImfAttribute.obj
 0001:00003560       ?cast@?$TypedAttribute@N@Imf@@SAPBV12@PBVAttribute@2@@Z 10004560 f i ImfAttribute.obj
 0001:000035d0       ?cast@?$TypedAttribute@N@Imf@@SAPAV12@PAVAttribute@2@@Z 100045d0 f i ImfAttribute.obj
 0001:00003640       ?registerAttributeType@?$TypedAttribute@N@Imf@@SAXXZ 10004640 f i ImfAttribute.obj
 0001:00003660       ?unRegisterAttributeType@?$TypedAttribute@N@Imf@@SAXXZ 10004660 f i ImfAttribute.obj
 0001:00003680       ??$?6U?$char_traits@D@std@@@std@@YAAAV?$basic_ostream@DU?$char_traits@D@std@@@0@AAV10@PBD@Z 10004680 f i ImfAttribute.obj
 0001:00003a70       ??0sentry@?$basic_ostream@DU?$char_traits@D@std@@@std@@QAE@AAV12@@Z 10004a70 f i ImfAttribute.obj
 0001:00003b60       ??1sentry@?$basic_ostream@DU?$char_traits@D@std@@@std@@QAE@XZ 10004b60 f i ImfAttribute.obj
 0001:00003be0       ??0_Sentry_base@?$basic_ostream@DU?$char_traits@D@std@@@std@@QAE@AAV12@@Z 10004be0 f i ImfAttribute.obj
 0001:00003c60       ??1_Sentry_base@?$basic_ostream@DU?$char_traits@D@std@@@std@@QAE@XZ 10004c60 f i ImfAttribute.obj
 0001:00003cd0       ??$_Allocate@U_Node@?$_Tree_nod@V?$_Tmap_traits@PBDP6APAVAttribute@Imf@@XZUNameCompare@?A0xa1908c12@2@V?$allocator@U?$pair@QBDP6APAVAttribute@Imf@@XZ@std@@@std@@$0A@@std@@@std@@@std@@YAPAU_Node@?$_Tree_nod@V?$_Tmap_traits@PBDP6APAVAttribute@Imf@@XZUNameCompare@?A0xa1908c12@2@V?$allocator@U?$pair@QBDP6APAVAttribute@Imf@@XZ@std@@@std@@$0A@@std@@@0@IPAU120@@Z 10004cd0 f i ImfAttribute.obj
 0001:00003d60       ??1bad_alloc@std@@UAE@XZ   10004d60 f i ImfAttribute.obj
 0001:00003da0       ??_Ebad_alloc@std@@UAEPAXI@Z 10004da0 f i ImfAttribute.obj
 0001:00003da0       ??_Gbad_alloc@std@@UAEPAXI@Z 10004da0 f i ImfAttribute.obj
 0001:00003e00       ??_E?$TypedAttribute@M@Imf@@UAEPAXI@Z 10004e00 f i ImfAttribute.obj
 0001:00003e00       ??_G?$TypedAttribute@M@Imf@@UAEPAXI@Z 10004e00 f i ImfAttribute.obj
 0001:00003e40       ??0TypeExc@Iex@@QAE@ABV01@@Z 10004e40 f i ImfAttribute.obj
 0001:00003e80       ??_E?$TypedAttribute@N@Imf@@UAEPAXI@Z 10004e80 f i ImfAttribute.obj
 0001:00003e80       ??_G?$TypedAttribute@N@Imf@@UAEPAXI@Z 10004e80 f i ImfAttribute.obj
 0001:00003ec0       ??0bad_alloc@std@@QAE@ABV01@@Z 10004ec0 f i ImfAttribute.obj
 0001:00003f10       ??$write@UStreamIO@Imf@@VOStream@2@@Xdr@Imf@@YAXAAVOStream@1@N@Z 10004f10 f i ImfAttribute.obj
 0001:00004010       ??$write@UStreamIO@Imf@@VOStream@2@@Xdr@Imf@@YAXAAVOStream@1@M@Z 10005010 f i ImfAttribute.obj
 0001:000040c0       ??$read@UStreamIO@Imf@@VIStream@2@@Xdr@Imf@@YAXAAVIStream@1@AAN@Z 100050c0 f i ImfAttribute.obj
 0001:00004210       ??$read@UStreamIO@Imf@@VIStream@2@@Xdr@Imf@@YAXAAVIStream@1@AAM@Z 10005210 f i ImfAttribute.obj
 0001:000042d0       ?staticTypeName@?$TypedAttribute@V?$Box@V?$Vec2@H@Imath@@@Imath@@@Imf@@SAPBDXZ 100052d0 f   ImfBoxAttribute.obj
 0001:000042e0       ?writeValueTo@?$TypedAttribute@V?$Box@V?$Vec2@H@Imath@@@Imath@@@Imf@@UBEXAAVOStream@2@H@Z 100052e0 f   ImfBoxAttribute.obj
 0001:00004350       ?readValueFrom@?$TypedAttribute@V?$Box@V?$Vec2@H@Imath@@@Imath@@@Imf@@UAEXAAVIStream@2@HH@Z 10005350 f   ImfBoxAttribute.obj
 0001:000043c0       ?staticTypeName@?$TypedAttribute@V?$Box@V?$Vec2@M@Imath@@@Imath@@@Imf@@SAPBDXZ 100053c0 f   ImfBoxAttribute.obj
 0001:000043d0       ?writeValueTo@?$TypedAttribute@V?$Box@V?$Vec2@M@Imath@@@Imath@@@Imf@@UBEXAAVOStream@2@H@Z 100053d0 f   ImfBoxAttribute.obj
 0001:00004450       ?readValueFrom@?$TypedAttribute@V?$Box@V?$Vec2@M@Imath@@@Imath@@@Imf@@UAEXAAVIStream@2@HH@Z 10005450 f   ImfBoxAttribute.obj
 0001:000044c0       ??$write@UStreamIO@Imf@@VOStream@2@@Xdr@Imf@@YAXAAVOStream@1@H@Z 100054c0 f i ImfBoxAttribute.obj
 0001:00004560       ??$read@UStreamIO@Imf@@VIStream@2@@Xdr@Imf@@YAXAAVIStream@1@AAH@Z 10005560 f i ImfBoxAttribute.obj
 0001:00004610       ??0Channel@Imf@@QAE@W4PixelType@1@HH@Z 10005610 f   ImfChannelList.obj
 0001:00004650       ??8Channel@Imf@@QBE_NABU01@@Z 10005650 f   ImfChannelList.obj
 0001:000046b0       ?insert@ChannelList@Imf@@QAEXQBDABUChannel@2@@Z 100056b0 f   ImfChannelList.obj
 0001:00004830       ??AChannelList@Imf@@QAEAAUChannel@1@QBD@Z 10005830 f   ImfChannelList.obj
 0001:00004a70       ??AChannelList@Imf@@QBEABUChannel@1@QBD@Z 10005a70 f   ImfChannelList.obj
 0001:00004cb0       ?findChannel@ChannelList@Imf@@QAEPAUChannel@2@QBD@Z 10005cb0 f   ImfChannelList.obj
 0001:00004de0       ?findChannel@ChannelList@Imf@@QBEPBUChannel@2@QBD@Z 10005de0 f   ImfChannelList.obj
 0001:00004f10       ?begin@ChannelList@Imf@@QAE?AVIterator@12@XZ 10005f10 f   ImfChannelList.obj
 0001:00004f90       ?begin@ChannelList@Imf@@QBE?AVConstIterator@12@XZ 10005f90 f   ImfChannelList.obj
 0001:00005010       ?end@ChannelList@Imf@@QAE?AVIterator@12@XZ 10006010 f   ImfChannelList.obj
 0001:00005080       ?end@ChannelList@Imf@@QBE?AVConstIterator@12@XZ 10006080 f   ImfChannelList.obj
 0001:000050f0       ?find@ChannelList@Imf@@QAE?AVIterator@12@QBD@Z 100060f0 f   ImfChannelList.obj
 0001:00005170       ?find@ChannelList@Imf@@QBE?AVConstIterator@12@QBD@Z 10006170 f   ImfChannelList.obj
 0001:000051f0       ?layers@ChannelList@Imf@@QBEXAAV?$set@V?$basic_string@DU?$char_traits@D@std@@V?$allocator@D@2@@std@@U?$less@V?$basic_string@DU?$char_traits@D@std@@V?$allocator@D@2@@std@@@2@V?$allocator@V?$basic_string@DU?$char_traits@D@std@@V?$allocator@D@2@@std@@@2@@std@@@Z 100061f0 f   ImfChannelList.obj
 0001:000053b0       ?channelsInLayer@ChannelList@Imf@@QAEXABV?$basic_string@DU?$char_traits@D@std@@V?$allocator@D@2@@std@@AAVIterator@12@1@Z 100063b0 f   ImfChannelList.obj
 0001:00005470       ?channelsInLayer@ChannelList@Imf@@QBEXABV?$basic_string@DU?$char_traits@D@std@@V?$allocator@D@2@@std@@AAVConstIterator@12@1@Z 10006470 f   ImfChannelList.obj
 0001:00005530       ?channelsWithPrefix@ChannelList@Imf@@QAEXQBDAAVIterator@12@1@Z 10006530 f   ImfChannelList.obj
 0001:00005700       ?channelsWithPrefix@ChannelList@Imf@@QBEXQBDAAVConstIterator@12@1@Z 10006700 f   ImfChannelList.obj
 0001:000058b0       ??8ChannelList@Imf@@QBE_NABV01@@Z 100068b0 f   ImfChannelList.obj
 0001:00005aa0       ?channel@ConstIterator@ChannelList@Imf@@QBEABUChannel@3@XZ 10006aa0 f i ImfChannelList.obj
 0001:00005b00       ??A?$map@VName@Imf@@UChannel@2@U?$less@VName@Imf@@@std@@V?$allocator@U?$pair@$$CBVName@Imf@@UChannel@2@@std@@@5@@std@@QAEAAUChannel@Imf@@ABVName@3@@Z 10006b00 f i ImfChannelList.obj
 0001:00005ce0       ?find@?$_Tree@V?$_Tmap_traits@VName@Imf@@UChannel@2@U?$less@VName@Imf@@@std@@V?$allocator@U?$pair@$$CBVName@Imf@@UChannel@2@@std@@@5@$0A@@std@@@std@@QAE?AViterator@12@ABVName@Imf@@@Z 10006ce0 f i ImfChannelList.obj
 0001:00005e90       ?find@?$_Tree@V?$_Tmap_traits@VName@Imf@@UChannel@2@U?$less@VName@Imf@@@std@@V?$allocator@U?$pair@$$CBVName@Imf@@UChannel@2@@std@@@5@$0A@@std@@@std@@QBE?AVconst_iterator@12@ABVName@Imf@@@Z 10006e90 f i ImfChannelList.obj
 0001:00006030       ?insert@?$_Tree@V?$_Tset_traits@V?$basic_string@DU?$char_traits@D@std@@V?$allocator@D@2@@std@@U?$less@V?$basic_string@DU?$char_traits@D@std@@V?$allocator@D@2@@std@@@2@V?$allocator@V?$basic_string@DU?$char_traits@D@std@@V?$allocator@D@2@@std@@@2@$0A@@std@@@std@@QAE?AU?$pair@Viterator@?$_Tree@V?$_Tset_traits@V?$basic_string@DU?$char_traits@D@std@@V?$allocator@D@2@@std@@U?$less@V?$basic_string@DU?$char_traits@D@std@@V?$allocator@D@2@@std@@@2@V?$allocator@V?$basic_string@DU?$char_traits@D@std@@V?$allocator@D@2@@std@@@2@$0A@@std@@@std@@_N@2@ABV?$basic_string@DU?$char_traits@D@std@@V?$allocator@D@2@@2@@Z 10007030 f i ImfChannelList.obj
 0001:00006280       ?clear@?$_Tree@V?$_Tset_traits@V?$basic_string@DU?$char_traits@D@std@@V?$allocator@D@2@@std@@U?$less@V?$basic_string@DU?$char_traits@D@std@@V?$allocator@D@2@@std@@@2@V?$allocator@V?$basic_string@DU?$char_traits@D@std@@V?$allocator@D@2@@std@@@2@$0A@@std@@@std@@QAEXXZ 10007280 f i ImfChannelList.obj
 0001:00006300       ?insert@?$_Tree@V?$_Tmap_traits@VName@Imf@@UChannel@2@U?$less@VName@Imf@@@std@@V?$allocator@U?$pair@$$CBVName@Imf@@UChannel@2@@std@@@5@$0A@@std@@@std@@QAE?AViterator@12@V312@ABU?$pair@$$CBVName@Imf@@UChannel@2@@2@@Z 10007300 f i ImfChannelList.obj
 0001:00007030       ??8const_iterator@?$_Tree@V?$_Tmap_traits@VName@Imf@@UChannel@2@U?$less@VName@Imf@@@std@@V?$allocator@U?$pair@$$CBVName@Imf@@UChannel@2@@std@@@5@$0A@@std@@@std@@QBE_NABV012@@Z 10008030 f i ImfChannelList.obj
 0001:00007090       ?_Lbound@?$_Tree@V?$_Tmap_traits@VName@Imf@@UChannel@2@U?$less@VName@Imf@@@std@@V?$allocator@U?$pair@$$CBVName@Imf@@UChannel@2@@std@@@5@$0A@@std@@@std@@IBEPAU_Node@?$_Tree_nod@V?$_Tmap_traits@VName@Imf@@UChannel@2@U?$less@VName@Imf@@@std@@V?$allocator@U?$pair@$$CBVName@Imf@@UChannel@2@@std@@@5@$0A@@std@@@2@ABVName@Imf@@@Z 10008090 f i ImfChannelList.obj
 0001:00007170       ??0const_iterator@?$_Tree@V?$_Tmap_traits@VName@Imf@@UChannel@2@U?$less@VName@Imf@@@std@@V?$allocator@U?$pair@$$CBVName@Imf@@UChannel@2@@std@@@5@$0A@@std@@@std@@QAE@PAU_Node@?$_Tree_nod@V?$_Tmap_traits@VName@Imf@@UChannel@2@U?$less@VName@Imf@@@std@@V?$allocator@U?$pair@$$CBVName@Imf@@UChannel@2@@std@@@5@$0A@@std@@@2@PBV12@@Z 10008170 f i ImfChannelList.obj
 0001:000071d0       ??Dconst_iterator@?$_Tree@V?$_Tmap_traits@VName@Imf@@UChannel@2@U?$less@VName@Imf@@@std@@V?$allocator@U?$pair@$$CBVName@Imf@@UChannel@2@@std@@@5@$0A@@std@@@std@@QBEABU?$pair@$$CBVName@Imf@@UChannel@2@@2@XZ 100081d0 f i ImfChannelList.obj
 0001:00007230       ?_Inc@const_iterator@?$_Tree@V?$_Tmap_traits@VName@Imf@@UChannel@2@U?$less@VName@Imf@@@std@@V?$allocator@U?$pair@$$CBVName@Imf@@UChannel@2@@std@@@5@$0A@@std@@@std@@QAEXXZ 10008230 f i ImfChannelList.obj
 0001:00007320       ?_Erase@?$_Tree@V?$_Tset_traits@V?$basic_string@DU?$char_traits@D@std@@V?$allocator@D@2@@std@@U?$less@V?$basic_string@DU?$char_traits@D@std@@V?$allocator@D@2@@std@@@2@V?$allocator@V?$basic_string@DU?$char_traits@D@std@@V?$allocator@D@2@@std@@@2@$0A@@std@@@std@@IAEXPAU_Node@?$_Tree_nod@V?$_Tset_traits@V?$basic_string@DU?$char_traits@D@std@@V?$allocator@D@2@@std@@U?$less@V?$basic_string@DU?$char_traits@D@std@@V?$allocator@D@2@@std@@@2@V?$allocator@V?$basic_string@DU?$char_traits@D@std@@V?$allocator@D@2@@std@@@2@$0A@@std@@@2@@Z 10008320 f i ImfChannelList.obj
 0001:000073b0       ?_Insert@?$_Tree@V?$_Tset_traits@V?$basic_string@DU?$char_traits@D@std@@V?$allocator@D@2@@std@@U?$less@V?$basic_string@DU?$char_traits@D@std@@V?$allocator@D@2@@std@@@2@V?$allocator@V?$basic_string@DU?$char_traits@D@std@@V?$allocator@D@2@@std@@@2@$0A@@std@@@std@@IAE?AViterator@12@_NPAU_Node@?$_Tree_nod@V?$_Tset_traits@V?$basic_string@DU?$char_traits@D@std@@V?$allocator@D@2@@std@@U?$less@V?$basic_string@DU?$char_traits@D@std@@V?$allocator@D@2@@std@@@2@V?$allocator@V?$basic_string@DU?$char_traits@D@std@@V?$allocator@D@2@@std@@@2@$0A@@std@@@2@ABV?$basic_string@DU?$char_traits@D@std@@V?$allocator@D@2@@2@@Z 100083b0 f i ImfChannelList.obj
 0001:00007770       ?insert@?$_Tree@V?$_Tmap_traits@VName@Imf@@UChannel@2@U?$less@VName@Imf@@@std@@V?$allocator@U?$pair@$$CBVName@Imf@@UChannel@2@@std@@@5@$0A@@std@@@std@@QAE?AU?$pair@Viterator@?$_Tree@V?$_Tmap_traits@VName@Imf@@UChannel@2@U?$less@VName@Imf@@@std@@V?$allocator@U?$pair@$$CBVName@Imf@@UChannel@2@@std@@@5@$0A@@std@@@std@@_N@2@ABU?$pair@$$CBVName@Imf@@UChannel@2@@2@@Z 10008770 f i ImfChannelList.obj
 0001:00007a90       ?_Insert@?$_Tree@V?$_Tmap_traits@VName@Imf@@UChannel@2@U?$less@VName@Imf@@@std@@V?$allocator@U?$pair@$$CBVName@Imf@@UChannel@2@@std@@@5@$0A@@std@@@std@@IAE?AViterator@12@_NPAU_Node@?$_Tree_nod@V?$_Tmap_traits@VName@Imf@@UChannel@2@U?$less@VName@Imf@@@std@@V?$allocator@U?$pair@$$CBVName@Imf@@UChannel@2@@std@@@5@$0A@@std@@@2@ABU?$pair@$$CBVName@Imf@@UChannel@2@@2@@Z 10008a90 f i ImfChannelList.obj
 0001:00007e50       ?_Lrotate@?$_Tree@V?$_Tset_traits@V?$basic_string@DU?$char_traits@D@std@@V?$allocator@D@2@@std@@U?$less@V?$basic_string@DU?$char_traits@D@std@@V?$allocator@D@2@@std@@@2@V?$allocator@V?$basic_string@DU?$char_traits@D@std@@V?$allocator@D@2@@std@@@2@$0A@@std@@@std@@IAEXPAU_Node@?$_Tree_nod@V?$_Tset_traits@V?$basic_string@DU?$char_traits@D@std@@V?$allocator@D@2@@std@@U?$less@V?$basic_string@DU?$char_traits@D@std@@V?$allocator@D@2@@std@@@2@V?$allocator@V?$basic_string@DU?$char_traits@D@std@@V?$allocator@D@2@@std@@@2@$0A@@std@@@2@@Z 10008e50 f i ImfChannelList.obj
 0001:00007f10       ?_Rrotate@?$_Tree@V?$_Tset_traits@V?$basic_string@DU?$char_traits@D@std@@V?$allocator@D@2@@std@@U?$less@V?$basic_string@DU?$char_traits@D@std@@V?$allocator@D@2@@std@@@2@V?$allocator@V?$basic_string@DU?$char_traits@D@std@@V?$allocator@D@2@@std@@@2@$0A@@std@@@std@@IAEXPAU_Node@?$_Tree_nod@V?$_Tset_traits@V?$basic_string@DU?$char_traits@D@std@@V?$allocator@D@2@@std@@U?$less@V?$basic_string@DU?$char_traits@D@std@@V?$allocator@D@2@@std@@@2@V?$allocator@V?$basic_string@DU?$char_traits@D@std@@V?$allocator@D@2@@std@@@2@$0A@@std@@@2@@Z 10008f10 f i ImfChannelList.obj
 0001:00007fd0       ?_Buynode@?$_Tree@V?$_Tset_traits@V?$basic_string@DU?$char_traits@D@std@@V?$allocator@D@2@@std@@U?$less@V?$basic_string@DU?$char_traits@D@std@@V?$allocator@D@2@@std@@@2@V?$allocator@V?$basic_string@DU?$char_traits@D@std@@V?$allocator@D@2@@std@@@2@$0A@@std@@@std@@IAEPAU_Node@?$_Tree_nod@V?$_Tset_traits@V?$basic_string@DU?$char_traits@D@std@@V?$allocator@D@2@@std@@U?$less@V?$basic_string@DU?$char_traits@D@std@@V?$allocator@D@2@@std@@@2@V?$allocator@V?$basic_string@DU?$char_traits@D@std@@V?$allocator@D@2@@std@@@2@$0A@@std@@@2@PAU342@00ABV?$basic_string@DU?$char_traits@D@std@@V?$allocator@D@2@@2@D@Z 10008fd0 f i ImfChannelList.obj
 0001:000080e0       ??3@YAXPAX0@Z              100090e0 f i ImfChannelList.obj
 0001:000080f0       ??0const_iterator@?$_Tree@V?$_Tset_traits@V?$basic_string@DU?$char_traits@D@std@@V?$allocator@D@2@@std@@U?$less@V?$basic_string@DU?$char_traits@D@std@@V?$allocator@D@2@@std@@@2@V?$allocator@V?$basic_string@DU?$char_traits@D@std@@V?$allocator@D@2@@std@@@2@$0A@@std@@@std@@QAE@PAU_Node@?$_Tree_nod@V?$_Tset_traits@V?$basic_string@DU?$char_traits@D@std@@V?$allocator@D@2@@std@@U?$less@V?$basic_string@DU?$char_traits@D@std@@V?$allocator@D@2@@std@@@2@V?$allocator@V?$basic_string@DU?$char_traits@D@std@@V?$allocator@D@2@@std@@@2@$0A@@std@@@2@PBV12@@Z 100090f0 f i ImfChannelList.obj
 0001:00008150       ?_Lrotate@?$_Tree@V?$_Tmap_traits@VName@Imf@@UChannel@2@U?$less@VName@Imf@@@std@@V?$allocator@U?$pair@$$CBVName@Imf@@UChannel@2@@std@@@5@$0A@@std@@@std@@IAEXPAU_Node@?$_Tree_nod@V?$_Tmap_traits@VName@Imf@@UChannel@2@U?$less@VName@Imf@@@std@@V?$allocator@U?$pair@$$CBVName@Imf@@UChannel@2@@std@@@5@$0A@@std@@@2@@Z 10009150 f i ImfChannelList.obj
 0001:00008210       ?_Rrotate@?$_Tree@V?$_Tmap_traits@VName@Imf@@UChannel@2@U?$less@VName@Imf@@@std@@V?$allocator@U?$pair@$$CBVName@Imf@@UChannel@2@@std@@@5@$0A@@std@@@std@@IAEXPAU_Node@?$_Tree_nod@V?$_Tmap_traits@VName@Imf@@UChannel@2@U?$less@VName@Imf@@@std@@V?$allocator@U?$pair@$$CBVName@Imf@@UChannel@2@@std@@@5@$0A@@std@@@2@@Z 10009210 f i ImfChannelList.obj
 0001:000082d0       ?_Buynode@?$_Tree@V?$_Tmap_traits@VName@Imf@@UChannel@2@U?$less@VName@Imf@@@std@@V?$allocator@U?$pair@$$CBVName@Imf@@UChannel@2@@std@@@5@$0A@@std@@@std@@IAEPAU_Node@?$_Tree_nod@V?$_Tmap_traits@VName@Imf@@UChannel@2@U?$less@VName@Imf@@@std@@V?$allocator@U?$pair@$$CBVName@Imf@@UChannel@2@@std@@@5@$0A@@std@@@2@PAU342@00ABU?$pair@$$CBVName@Imf@@UChannel@2@@2@D@Z 100092d0 f i ImfChannelList.obj
 0001:000083d0       ?_Dec@const_iterator@?$_Tree@V?$_Tset_traits@V?$basic_string@DU?$char_traits@D@std@@V?$allocator@D@2@@std@@U?$less@V?$basic_string@DU?$char_traits@D@std@@V?$allocator@D@2@@std@@@2@V?$allocator@V?$basic_string@DU?$char_traits@D@std@@V?$allocator@D@2@@std@@@2@$0A@@std@@@std@@QAEXXZ 100093d0 f i ImfChannelList.obj
 0001:00008500       ?_Dec@const_iterator@?$_Tree@V?$_Tmap_traits@VName@Imf@@UChannel@2@U?$less@VName@Imf@@@std@@V?$allocator@U?$pair@$$CBVName@Imf@@UChannel@2@@std@@@5@$0A@@std@@@std@@QAEXXZ 10009500 f i ImfChannelList.obj
 0001:00008630       ??$_Allocate@U_Node@?$_Tree_nod@V?$_Tset_traits@V?$basic_string@DU?$char_traits@D@std@@V?$allocator@D@2@@std@@U?$less@V?$basic_string@DU?$char_traits@D@std@@V?$allocator@D@2@@std@@@2@V?$allocator@V?$basic_string@DU?$char_traits@D@std@@V?$allocator@D@2@@std@@@2@$0A@@std@@@std@@@std@@YAPAU_Node@?$_Tree_nod@V?$_Tset_traits@V?$basic_string@DU?$char_traits@D@std@@V?$allocator@D@2@@std@@U?$less@V?$basic_string@DU?$char_traits@D@std@@V?$allocator@D@2@@std@@@2@V?$allocator@V?$basic_string@DU?$char_traits@D@std@@V?$allocator@D@2@@std@@@2@$0A@@std@@@0@IPAU120@@Z 10009630 f i ImfChannelList.obj
 0001:000086c0       ??$_Allocate@U_Node@?$_Tree_nod@V?$_Tmap_traits@VName@Imf@@UChannel@2@U?$less@VName@Imf@@@std@@V?$allocator@U?$pair@$$CBVName@Imf@@UChannel@2@@std@@@5@$0A@@std@@@std@@@std@@YAPAU_Node@?$_Tree_nod@V?$_Tmap_traits@VName@Imf@@UChannel@2@U?$less@VName@Imf@@@std@@V?$allocator@U?$pair@$$CBVName@Imf@@UChannel@2@@std@@@5@$0A@@std@@@0@IPAU120@@Z 100096c0 f i ImfChannelList.obj
 0001:00008750       ?staticTypeName@?$TypedAttribute@VChannelList@Imf@@@Imf@@SAPBDXZ 10009750 f   ImfChannelListAttribute.obj
 0001:00008760       ?writeValueTo@?$TypedAttribute@VChannelList@Imf@@@Imf@@UBEXAAVOStream@2@H@Z 10009760 f   ImfChannelListAttribute.obj
 0001:000088a0       ?readValueFrom@?$TypedAttribute@VChannelList@Imf@@@Imf@@UAEXAAVIStream@2@HH@Z 100098a0 f   ImfChannelListAttribute.obj
 0001:000089d0       ?name@ConstIterator@ChannelList@Imf@@QBEPBDXZ 100099d0 f i ImfChannelListAttribute.obj
 0001:00008a40       ??$write@UStreamIO@Imf@@VOStream@2@@Xdr@Imf@@YAXAAVOStream@1@QBD@Z 10009a40 f i ImfChannelListAttribute.obj
 0001:00008aa0       ??$pad@UStreamIO@Imf@@VOStream@2@@Xdr@Imf@@YAXAAVOStream@1@H@Z 10009aa0 f i ImfChannelListAttribute.obj
 0001:00008b30       ??$read@UStreamIO@Imf@@VIStream@2@@Xdr@Imf@@YAXAAVIStream@1@HQAD@Z 10009b30 f i ImfChannelListAttribute.obj
 0001:00008b80       ??$skip@UStreamIO@Imf@@VIStream@2@@Xdr@Imf@@YAXAAVIStream@1@H@Z 10009b80 f i ImfChannelListAttribute.obj
 0001:00008c50       ??0Chromaticities@Imf@@QAE@ABV?$Vec2@M@Imath@@000@Z 10009c50 f   ImfChromaticities.obj
 0001:00008cf0       ?RGBtoXYZ@Imf@@YA?AV?$Matrix44@M@Imath@@UChromaticities@1@M@Z 10009cf0 f   ImfChromaticities.obj
 0001:00008f30       ?XYZtoRGB@Imf@@YA?AV?$Matrix44@M@Imath@@UChromaticities@1@M@Z 10009f30 f   ImfChromaticities.obj
 0001:00008f90       ??0Chromaticities@Imf@@QAE@ABU01@@Z 10009f90 f i ImfChromaticities.obj
 0001:00009050       ??0?$Matrix44@M@Imath@@QAE@ABV01@@Z 1000a050 f i ImfChromaticities.obj
 0001:00009130       ??0?$Matrix44@M@Imath@@QAE@XZ 1000a130 f i ImfChromaticities.obj
 0001:000091d0       ?inverse@?$Matrix44@M@Imath@@QBE?AV12@_N@Z 1000a1d0 f i ImfChromaticities.obj
 0001:00009740       ??_GMathExc@Iex@@UAEPAXI@Z 1000a740 f i ImfChromaticities.obj
 0001:00009740       ??_EMathExc@Iex@@UAEPAXI@Z 1000a740 f i ImfChromaticities.obj
 0001:00009780       ??_GSingMatrixExc@Imath@@UAEPAXI@Z 1000a780 f i ImfChromaticities.obj
 0001:00009780       ??_ESingMatrixExc@Imath@@UAEPAXI@Z 1000a780 f i ImfChromaticities.obj
 0001:000097c0       ??1SingMatrixExc@Imath@@UAE@XZ 1000a7c0 f i ImfChromaticities.obj
 0001:000097f0       ??0SingMatrixExc@Imath@@QAE@ABV01@@Z 1000a7f0 f i ImfChromaticities.obj
 0001:00009830       ??0MathExc@Iex@@QAE@ABV01@@Z 1000a830 f i ImfChromaticities.obj
 0001:00009870       ?gjInverse@?$Matrix44@M@Imath@@QBE?AV12@_N@Z 1000a870 f i ImfChromaticities.obj
 0001:00009e00       ??0MathExc@Iex@@QAE@PBD@Z  1000ae00 f i ImfChromaticities.obj
 0001:00009e40       ?staticTypeName@?$TypedAttribute@UChromaticities@Imf@@@Imf@@SAPBDXZ 1000ae40 f   ImfChromaticitiesAttribute.obj
 0001:00009e50       ?writeValueTo@?$TypedAttribute@UChromaticities@Imf@@@Imf@@UBEXAAVOStream@2@H@Z 1000ae50 f   ImfChromaticitiesAttribute.obj
 0001:00009f20       ?readValueFrom@?$TypedAttribute@UChromaticities@Imf@@@Imf@@UAEXAAVIStream@2@HH@Z 1000af20 f   ImfChromaticitiesAttribute.obj
 0001:00009fe0       ?staticTypeName@?$TypedAttribute@W4Compression@Imf@@@Imf@@SAPBDXZ 1000afe0 f   ImfCompressionAttribute.obj
 0001:00009ff0       ?writeValueTo@?$TypedAttribute@W4Compression@Imf@@@Imf@@UBEXAAVOStream@2@H@Z 1000aff0 f   ImfCompressionAttribute.obj
 0001:0000a050       ?readValueFrom@?$TypedAttribute@W4Compression@Imf@@@Imf@@UAEXAAVIStream@2@HH@Z 1000b050 f   ImfCompressionAttribute.obj
 0001:0000a0d0       ??0Compressor@Imf@@QAE@ABVHeader@1@@Z 1000b0d0 f   ImfCompressor.obj
 0001:0000a100       ??1Compressor@Imf@@UAE@XZ  1000b100 f   ImfCompressor.obj
 0001:0000a120       ?format@Compressor@Imf@@UBE?AW4Format@12@XZ 1000b120 f   ImfCompressor.obj
 0001:0000a140       ?compressTile@Compressor@Imf@@UAEHPBDHV?$Box@V?$Vec2@H@Imath@@@Imath@@AAPBD@Z 1000b140 f   ImfCompressor.obj
 0001:0000a190       ?uncompressTile@Compressor@Imf@@UAEHPBDHV?$Box@V?$Vec2@H@Imath@@@Imath@@AAPBD@Z 1000b190 f   ImfCompressor.obj
 0001:0000a1e0       ?isValidCompression@Imf@@YA_NW4Compression@1@@Z 1000b1e0 f   ImfCompressor.obj
 0001:0000a210       ?newCompressor@Imf@@YAPAVCompressor@1@W4Compression@1@HABVHeader@1@@Z 1000b210 f   ImfCompressor.obj
 0001:0000a410       ?newTileCompressor@Imf@@YAPAVCompressor@1@W4Compression@1@HHABVHeader@1@@Z 1000b410 f   ImfCompressor.obj
 0001:0000a5d0       ??_GCompressor@Imf@@UAEPAXI@Z 1000b5d0 f i ImfCompressor.obj
 0001:0000a5d0       ??_ECompressor@Imf@@UAEPAXI@Z 1000b5d0 f i ImfCompressor.obj
 0001:0000a610       ??0half@@QAE@XZ            1000b610 f i ImfConvert.obj
 0001:0000a620       ??0half@@QAE@M@Z           1000b620 f i ImfConvert.obj
 0001:0000a690       ??Bhalf@@QBEMXZ            1000b690 f i ImfConvert.obj
 0001:0000a6a0       ?isNan@half@@QBE_NXZ       1000b6a0 f i ImfConvert.obj
 0001:0000a6d0       ?isInfinity@half@@QBE_NXZ  1000b6d0 f i ImfConvert.obj
 0001:0000a700       ?isNegative@half@@QBE_NXZ  1000b700 f i ImfConvert.obj
 0001:0000a710       ?posInf@half@@SA?AV1@XZ    1000b710 f i ImfConvert.obj
 0001:0000a720       ?negInf@half@@SA?AV1@XZ    1000b720 f i ImfConvert.obj
 0001:0000a730       ?isNegative@?A0xecb7bd60@Imf@@YA_NM@Z 1000b730 f i ImfConvert.obj
 0001:0000a740       ?isNan@?A0xecb7bd60@Imf@@YA_NM@Z 1000b740 f i ImfConvert.obj
 0001:0000a760       ?isInfinity@?A0xecb7bd60@Imf@@YA_NM@Z 1000b760 f i ImfConvert.obj
 0001:0000a780       ?isFinite@?A0xecb7bd60@Imf@@YA_NM@Z 1000b780 f i ImfConvert.obj
 0001:0000a7a0       ?halfToUint@Imf@@YAIVhalf@@@Z 1000b7a0 f   ImfConvert.obj
 0001:0000a810       ?floatToUint@Imf@@YAIM@Z   1000b810 f   ImfConvert.obj
 0001:0000a8a0       ?uintToHalf@Imf@@YA?AVhalf@@I@Z 1000b8a0 f   ImfConvert.obj
 0001:0000a8f0       ?floatToHalf@Imf@@YA?AVhalf@@M@Z 1000b8f0 f   ImfConvert.obj
 0001:0000a950       ?setErrorMessage@?A0x04758b90@@YAXABVexception@std@@@Z 1000b950 f   ImfCRgbaFile.obj
 0001:0000a9a0       _ImfFloatToHalf            1000b9a0 f   ImfCRgbaFile.obj
 0001:0000a9f0       _ImfFloatToHalfArray       1000b9f0 f   ImfCRgbaFile.obj
 0001:0000aa70       _ImfHalfToFloat            1000ba70 f   ImfCRgbaFile.obj
 0001:0000aaa0       _ImfHalfToFloatArray       1000baa0 f   ImfCRgbaFile.obj
 0001:0000ab00       _ImfNewHeader              1000bb00 f   ImfCRgbaFile.obj
 0001:0000ac10       _ImfDeleteHeader           1000bc10 f   ImfCRgbaFile.obj
 0001:0000ac80       _ImfCopyHeader             1000bc80 f   ImfCRgbaFile.obj
 0001:0000ad90       _ImfHeaderSetDisplayWindow 1000bd90 f   ImfCRgbaFile.obj
 0001:0000ae40       _ImfHeaderDisplayWindow    1000be40 f   ImfCRgbaFile.obj
 0001:0000af00       _ImfHeaderSetDataWindow    1000bf00 f   ImfCRgbaFile.obj
 0001:0000afb0       _ImfHeaderDataWindow       1000bfb0 f   ImfCRgbaFile.obj
 0001:0000b070       _ImfHeaderSetPixelAspectRatio 1000c070 f   ImfCRgbaFile.obj
 0001:0000b090       _ImfHeaderPixelAspectRatio 1000c090 f   ImfCRgbaFile.obj
 0001:0000b0b0       _ImfHeaderSetScreenWindowCenter 1000c0b0 f   ImfCRgbaFile.obj
 0001:0000b110       _ImfHeaderScreenWindowCenter 1000c110 f   ImfCRgbaFile.obj
 0001:0000b1b0       _ImfHeaderSetScreenWindowWidth 1000c1b0 f   ImfCRgbaFile.obj
 0001:0000b1d0       _ImfHeaderScreenWindowWidth 1000c1d0 f   ImfCRgbaFile.obj
 0001:0000b1f0       _ImfHeaderSetLineOrder     1000c1f0 f   ImfCRgbaFile.obj
 0001:0000b210       _ImfHeaderLineOrder        1000c210 f   ImfCRgbaFile.obj
 0001:0000b230       _ImfHeaderSetCompression   1000c230 f   ImfCRgbaFile.obj
 0001:0000b250       _ImfHeaderCompression      1000c250 f   ImfCRgbaFile.obj
 0001:0000b270       _ImfHeaderSetIntAttribute  1000c270 f   ImfCRgbaFile.obj
 0001:0000b3f0       _ImfHeaderIntAttribute     1000c3f0 f   ImfCRgbaFile.obj
 0001:0000b4d0       _ImfHeaderSetFloatAttribute 1000c4d0 f   ImfCRgbaFile.obj
 0001:0000b650       _ImfHeaderSetDoubleAttribute 1000c650 f   ImfCRgbaFile.obj
 0001:0000b7d0       _ImfHeaderFloatAttribute   1000c7d0 f   ImfCRgbaFile.obj
 0001:0000b8b0       _ImfHeaderDoubleAttribute  1000c8b0 f   ImfCRgbaFile.obj
 0001:0000b990       _ImfHeaderSetStringAttribute 1000c990 f   ImfCRgbaFile.obj
 0001:0000bb90       _ImfHeaderStringAttribute  1000cb90 f   ImfCRgbaFile.obj
 0001:0000bc80       _ImfHeaderSetBox2iAttribute 1000cc80 f   ImfCRgbaFile.obj
 0001:0000bee0       _ImfHeaderBox2iAttribute   1000cee0 f   ImfCRgbaFile.obj
 0001:0000bff0       _ImfHeaderSetBox2fAttribute 1000cff0 f   ImfCRgbaFile.obj
 0001:0000c250       _ImfHeaderBox2fAttribute   1000d250 f   ImfCRgbaFile.obj
 0001:0000c360       _ImfHeaderSetV2iAttribute  1000d360 f   ImfCRgbaFile.obj
 0001:0000c510       _ImfHeaderV2iAttribute     1000d510 f   ImfCRgbaFile.obj
 0001:0000c600       _ImfHeaderSetV2fAttribute  1000d600 f   ImfCRgbaFile.obj
 0001:0000c7b0       _ImfHeaderV2fAttribute     1000d7b0 f   ImfCRgbaFile.obj
 0001:0000c8a0       _ImfHeaderSetV3iAttribute  1000d8a0 f   ImfCRgbaFile.obj
 0001:0000ca70       _ImfHeaderV3iAttribute     1000da70 f   ImfCRgbaFile.obj
 0001:0000cb70       _ImfHeaderSetV3fAttribute  1000db70 f   ImfCRgbaFile.obj
 0001:0000cd40       _ImfHeaderV3fAttribute     1000dd40 f   ImfCRgbaFile.obj
 0001:0000ce40       _ImfHeaderSetM33fAttribute 1000de40 f   ImfCRgbaFile.obj
 0001:0000d030       _ImfHeaderM33fAttribute    1000e030 f   ImfCRgbaFile.obj
 0001:0000d1c0       _ImfHeaderSetM44fAttribute 1000e1c0 f   ImfCRgbaFile.obj
 0001:0000d3b0       _ImfHeaderM44fAttribute    1000e3b0 f   ImfCRgbaFile.obj
 0001:0000d5d0       _ImfOpenOutputFile         1000e5d0 f   ImfCRgbaFile.obj
 0001:0000d6e0       _ImfCloseOutputFile        1000e6e0 f   ImfCRgbaFile.obj
 0001:0000d7e0       _ImfOutputSetFrameBuffer   1000e7e0 f   ImfCRgbaFile.obj
 0001:0000d8b0       _ImfOutputWritePixels      1000e8b0 f   ImfCRgbaFile.obj
 0001:0000d970       _ImfOutputCurrentScanLine  1000e970 f   ImfCRgbaFile.obj
 0001:0000d990       _ImfOutputHeader           1000e990 f   ImfCRgbaFile.obj
 0001:0000d9b0       _ImfOutputChannels         1000e9b0 f   ImfCRgbaFile.obj
 0001:0000d9d0       _ImfOpenTiledOutputFile    1000e9d0 f   ImfCRgbaFile.obj
 0001:0000daf0       _ImfCloseTiledOutputFile   1000eaf0 f   ImfCRgbaFile.obj
 0001:0000dbf0       _ImfTiledOutputSetFrameBuffer 1000ebf0 f   ImfCRgbaFile.obj
 0001:0000dcc0       _ImfTiledOutputWriteTile   1000ecc0 f   ImfCRgbaFile.obj
 0001:0000dd90       _ImfTiledOutputWriteTiles  1000ed90 f   ImfCRgbaFile.obj
 0001:0000de60       _ImfTiledOutputHeader      1000ee60 f   ImfCRgbaFile.obj
 0001:0000de80       _ImfTiledOutputChannels    1000ee80 f   ImfCRgbaFile.obj
 0001:0000dea0       _ImfTiledOutputTileXSize   1000eea0 f   ImfCRgbaFile.obj
 0001:0000dec0       _ImfTiledOutputTileYSize   1000eec0 f   ImfCRgbaFile.obj
 0001:0000dee0       _ImfTiledOutputLevelMode   1000eee0 f   ImfCRgbaFile.obj
 0001:0000df00       _ImfTiledOutputLevelRoundingMode 1000ef00 f   ImfCRgbaFile.obj
 0001:0000df20       _ImfOpenInputFile          1000ef20 f   ImfCRgbaFile.obj
 0001:0000e020       _ImfCloseInputFile         1000f020 f   ImfCRgbaFile.obj
 0001:0000e120       _ImfInputSetFrameBuffer    1000f120 f   ImfCRgbaFile.obj
 0001:0000e1f0       _ImfInputReadPixels        1000f1f0 f   ImfCRgbaFile.obj
 0001:0000e2b0       _ImfInputHeader            1000f2b0 f   ImfCRgbaFile.obj
 0001:0000e2d0       _ImfInputChannels          1000f2d0 f   ImfCRgbaFile.obj
 0001:0000e2f0       _ImfInputFileName          1000f2f0 f   ImfCRgbaFile.obj
 0001:0000e310       _ImfOpenTiledInputFile     1000f310 f   ImfCRgbaFile.obj
 0001:0000e410       _ImfCloseTiledInputFile    1000f410 f   ImfCRgbaFile.obj
 0001:0000e510       _ImfTiledInputSetFrameBuffer 1000f510 f   ImfCRgbaFile.obj
 0001:0000e5e0       _ImfTiledInputReadTile     1000f5e0 f   ImfCRgbaFile.obj
 0001:0000e6b0       _ImfTiledInputReadTiles    1000f6b0 f   ImfCRgbaFile.obj
 0001:0000e780       _ImfTiledInputHeader       1000f780 f   ImfCRgbaFile.obj
 0001:0000e7a0       _ImfTiledInputChannels     1000f7a0 f   ImfCRgbaFile.obj
 0001:0000e7c0       _ImfTiledInputFileName     1000f7c0 f   ImfCRgbaFile.obj
 0001:0000e7e0       _ImfTiledInputTileXSize    1000f7e0 f   ImfCRgbaFile.obj
 0001:0000e800       _ImfTiledInputTileYSize    1000f800 f   ImfCRgbaFile.obj
 0001:0000e820       _ImfTiledInputLevelMode    1000f820 f   ImfCRgbaFile.obj
 0001:0000e840       _ImfTiledInputLevelRoundingMode 1000f840 f   ImfCRgbaFile.obj
 0001:0000e860       _ImfNewRound12logLut       1000f860 f   ImfCRgbaFile.obj
 0001:0000e970       _ImfNewRoundNBitLut        1000f970 f   ImfCRgbaFile.obj
 0001:0000ea70       _ImfDeleteLut              1000fa70 f   ImfCRgbaFile.obj
 0001:0000eaa0       _ImfApplyLut               1000faa0 f   ImfCRgbaFile.obj
 0001:0000eac0       _ImfErrorMessage           1000fac0 f   ImfCRgbaFile.obj
 0001:0000ead0       ??0?$TypedAttribute@H@Imf@@QAE@ABH@Z 1000fad0 f i ImfCRgbaFile.obj
 0001:0000eb10       ??1?$TypedAttribute@H@Imf@@UAE@XZ 1000fb10 f i ImfCRgbaFile.obj
 0001:0000eb40       ?typeName@?$TypedAttribute@H@Imf@@UBEPBDXZ 1000fb40 f i ImfCRgbaFile.obj
 0001:0000eb70       ?copy@?$TypedAttribute@H@Imf@@UBEPAVAttribute@2@XZ 1000fb70 f i ImfCRgbaFile.obj
 0001:0000ec20       ?writeValueTo@?$TypedAttribute@H@Imf@@UBEXAAVOStream@2@H@Z 1000fc20 f i ImfCRgbaFile.obj
 0001:0000ec60       ?readValueFrom@?$TypedAttribute@H@Imf@@UAEXAAVIStream@2@HH@Z 1000fc60 f i ImfCRgbaFile.obj
 0001:0000eca0       ?copyValueFrom@?$TypedAttribute@H@Imf@@UAEXABVAttribute@2@@Z 1000fca0 f i ImfCRgbaFile.obj
 0001:0000ece0       ??0?$TypedAttribute@V?$basic_string@DU?$char_traits@D@std@@V?$allocator@D@2@@std@@@Imf@@QAE@ABV?$basic_string@DU?$char_traits@D@std@@V?$allocator@D@2@@std@@@Z 1000fce0 f i ImfCRgbaFile.obj
 0001:0000ed60       ??1?$TypedAttribute@V?$basic_string@DU?$char_traits@D@std@@V?$allocator@D@2@@std@@@Imf@@UAE@XZ 1000fd60 f i ImfCRgbaFile.obj
 0001:0000ede0       ?typeName@?$TypedAttribute@V?$basic_string@DU?$char_traits@D@std@@V?$allocator@D@2@@std@@@Imf@@UBEPBDXZ 1000fde0 f i ImfCRgbaFile.obj
 0001:0000ee10       ?copy@?$TypedAttribute@V?$basic_string@DU?$char_traits@D@std@@V?$allocator@D@2@@std@@@Imf@@UBEPAVAttribute@2@XZ 1000fe10 f i ImfCRgbaFile.obj
 0001:0000eec0       ?copyValueFrom@?$TypedAttribute@V?$basic_string@DU?$char_traits@D@std@@V?$allocator@D@2@@std@@@Imf@@UAEXABVAttribute@2@@Z 1000fec0 f i ImfCRgbaFile.obj
 0001:0000ef10       ??0?$TypedAttribute@V?$Box@V?$Vec2@H@Imath@@@Imath@@@Imf@@QAE@ABV?$Box@V?$Vec2@H@Imath@@@Imath@@@Z 1000ff10 f i ImfCRgbaFile.obj
 0001:0000efa0       ??1?$TypedAttribute@V?$Box@V?$Vec2@H@Imath@@@Imath@@@Imf@@UAE@XZ 1000ffa0 f i ImfCRgbaFile.obj
 0001:0000efd0       ?typeName@?$TypedAttribute@V?$Box@V?$Vec2@H@Imath@@@Imath@@@Imf@@UBEPBDXZ 1000ffd0 f i ImfCRgbaFile.obj
 0001:0000f000       ?copy@?$TypedAttribute@V?$Box@V?$Vec2@H@Imath@@@Imath@@@Imf@@UBEPAVAttribute@2@XZ 10010000 f i ImfCRgbaFile.obj
 0001:0000f0b0       ?copyValueFrom@?$TypedAttribute@V?$Box@V?$Vec2@H@Imath@@@Imath@@@Imf@@UAEXABVAttribute@2@@Z 100100b0 f i ImfCRgbaFile.obj
 0001:0000f140       ??0?$TypedAttribute@V?$Box@V?$Vec2@M@Imath@@@Imath@@@Imf@@QAE@ABV?$Box@V?$Vec2@M@Imath@@@Imath@@@Z 10010140 f i ImfCRgbaFile.obj
 0001:0000f1d0       ??1?$TypedAttribute@V?$Box@V?$Vec2@M@Imath@@@Imath@@@Imf@@UAE@XZ 100101d0 f i ImfCRgbaFile.obj
 0001:0000f200       ?typeName@?$TypedAttribute@V?$Box@V?$Vec2@M@Imath@@@Imath@@@Imf@@UBEPBDXZ 10010200 f i ImfCRgbaFile.obj
 0001:0000f230       ?copy@?$TypedAttribute@V?$Box@V?$Vec2@M@Imath@@@Imath@@@Imf@@UBEPAVAttribute@2@XZ 10010230 f i ImfCRgbaFile.obj
 0001:0000f2e0       ?copyValueFrom@?$TypedAttribute@V?$Box@V?$Vec2@M@Imath@@@Imath@@@Imf@@UAEXABVAttribute@2@@Z 100102e0 f i ImfCRgbaFile.obj
 0001:0000f370       ??0?$TypedAttribute@V?$Vec2@H@Imath@@@Imf@@QAE@ABV?$Vec2@H@Imath@@@Z 10010370 f i ImfCRgbaFile.obj
 0001:0000f3d0       ??1?$TypedAttribute@V?$Vec2@H@Imath@@@Imf@@UAE@XZ 100103d0 f i ImfCRgbaFile.obj
 0001:0000f400       ?typeName@?$TypedAttribute@V?$Vec2@H@Imath@@@Imf@@UBEPBDXZ 10010400 f i ImfCRgbaFile.obj
 0001:0000f430       ?copy@?$TypedAttribute@V?$Vec2@H@Imath@@@Imf@@UBEPAVAttribute@2@XZ 10010430 f i ImfCRgbaFile.obj
 0001:0000f4e0       ?copyValueFrom@?$TypedAttribute@V?$Vec2@H@Imath@@@Imf@@UAEXABVAttribute@2@@Z 100104e0 f i ImfCRgbaFile.obj
 0001:0000f540       ??0?$TypedAttribute@V?$Vec2@M@Imath@@@Imf@@QAE@ABV?$Vec2@M@Imath@@@Z 10010540 f i ImfCRgbaFile.obj
 0001:0000f5a0       ??1?$TypedAttribute@V?$Vec2@M@Imath@@@Imf@@UAE@XZ 100105a0 f i ImfCRgbaFile.obj
 0001:0000f5d0       ?typeName@?$TypedAttribute@V?$Vec2@M@Imath@@@Imf@@UBEPBDXZ 100105d0 f i ImfCRgbaFile.obj
 0001:0000f600       ?copy@?$TypedAttribute@V?$Vec2@M@Imath@@@Imf@@UBEPAVAttribute@2@XZ 10010600 f i ImfCRgbaFile.obj
 0001:0000f6b0       ?copyValueFrom@?$TypedAttribute@V?$Vec2@M@Imath@@@Imf@@UAEXABVAttribute@2@@Z 100106b0 f i ImfCRgbaFile.obj
 0001:0000f710       ??0?$TypedAttribute@V?$Vec3@H@Imath@@@Imf@@QAE@ABV?$Vec3@H@Imath@@@Z 10010710 f i ImfCRgbaFile.obj
 0001:0000f780       ??1?$TypedAttribute@V?$Vec3@H@Imath@@@Imf@@UAE@XZ 10010780 f i ImfCRgbaFile.obj
 0001:0000f7b0       ?typeName@?$TypedAttribute@V?$Vec3@H@Imath@@@Imf@@UBEPBDXZ 100107b0 f i ImfCRgbaFile.obj
 0001:0000f7e0       ?copy@?$TypedAttribute@V?$Vec3@H@Imath@@@Imf@@UBEPAVAttribute@2@XZ 100107e0 f i ImfCRgbaFile.obj
 0001:0000f890       ?copyValueFrom@?$TypedAttribute@V?$Vec3@H@Imath@@@Imf@@UAEXABVAttribute@2@@Z 10010890 f i ImfCRgbaFile.obj
 0001:0000f900       ??0?$TypedAttribute@V?$Vec3@M@Imath@@@Imf@@QAE@ABV?$Vec3@M@Imath@@@Z 10010900 f i ImfCRgbaFile.obj
 0001:0000f970       ??1?$TypedAttribute@V?$Vec3@M@Imath@@@Imf@@UAE@XZ 10010970 f i ImfCRgbaFile.obj
 0001:0000f9a0       ?typeName@?$TypedAttribute@V?$Vec3@M@Imath@@@Imf@@UBEPBDXZ 100109a0 f i ImfCRgbaFile.obj
 0001:0000f9d0       ?copy@?$TypedAttribute@V?$Vec3@M@Imath@@@Imf@@UBEPAVAttribute@2@XZ 100109d0 f i ImfCRgbaFile.obj
 0001:0000fa80       ?copyValueFrom@?$TypedAttribute@V?$Vec3@M@Imath@@@Imf@@UAEXABVAttribute@2@@Z 10010a80 f i ImfCRgbaFile.obj
 0001:0000faf0       ??0?$Matrix33@M@Imath@@QAE@QAY02$$CBM@Z 10010af0 f i ImfCRgbaFile.obj
 0001:0000fb80       ??4?$Matrix33@M@Imath@@QAEABV01@ABV01@@Z 10010b80 f i ImfCRgbaFile.obj
 0001:0000fc10       ??0?$Matrix44@M@Imath@@QAE@QAY03$$CBM@Z 10010c10 f i ImfCRgbaFile.obj
 0001:0000fcf0       ??4?$Matrix44@M@Imath@@QAEABV01@ABV01@@Z 10010cf0 f i ImfCRgbaFile.obj
 0001:0000fdd0       ??0?$TypedAttribute@V?$Matrix33@M@Imath@@@Imf@@QAE@ABV?$Matrix33@M@Imath@@@Z 10010dd0 f i ImfCRgbaFile.obj
 0001:0000fe40       ??1?$TypedAttribute@V?$Matrix33@M@Imath@@@Imf@@UAE@XZ 10010e40 f i ImfCRgbaFile.obj
 0001:0000fe70       ?typeName@?$TypedAttribute@V?$Matrix33@M@Imath@@@Imf@@UBEPBDXZ 10010e70 f i ImfCRgbaFile.obj
 0001:0000fea0       ?copy@?$TypedAttribute@V?$Matrix33@M@Imath@@@Imf@@UBEPAVAttribute@2@XZ 10010ea0 f i ImfCRgbaFile.obj
 0001:0000ff50       ?copyValueFrom@?$TypedAttribute@V?$Matrix33@M@Imath@@@Imf@@UAEXABVAttribute@2@@Z 10010f50 f i ImfCRgbaFile.obj
 0001:0000ff90       ??0?$TypedAttribute@V?$Matrix44@M@Imath@@@Imf@@QAE@ABV?$Matrix44@M@Imath@@@Z 10010f90 f i ImfCRgbaFile.obj
 0001:00010000       ??1?$TypedAttribute@V?$Matrix44@M@Imath@@@Imf@@UAE@XZ 10011000 f i ImfCRgbaFile.obj
 0001:00010030       ?typeName@?$TypedAttribute@V?$Matrix44@M@Imath@@@Imf@@UBEPBDXZ 10011030 f i ImfCRgbaFile.obj
 0001:00010060       ?copy@?$TypedAttribute@V?$Matrix44@M@Imath@@@Imf@@UBEPAVAttribute@2@XZ 10011060 f i ImfCRgbaFile.obj
 0001:00010110       ?copyValueFrom@?$TypedAttribute@V?$Matrix44@M@Imath@@@Imf@@UAEXABVAttribute@2@@Z 10011110 f i ImfCRgbaFile.obj
 0001:00010150       ??$typedAttribute@V?$TypedAttribute@H@Imf@@@Header@Imf@@QBEABV?$TypedAttribute@H@1@QBD@Z 10011150 f i ImfCRgbaFile.obj
 0001:000101e0       ??$typedAttribute@V?$TypedAttribute@H@Imf@@@Header@Imf@@QAEAAV?$TypedAttribute@H@1@QBD@Z 100111e0 f i ImfCRgbaFile.obj
 0001:00010270       ??$typedAttribute@V?$TypedAttribute@M@Imf@@@Header@Imf@@QBEABV?$TypedAttribute@M@1@QBD@Z 10011270 f i ImfCRgbaFile.obj
 0001:00010300       ??$typedAttribute@V?$TypedAttribute@M@Imf@@@Header@Imf@@QAEAAV?$TypedAttribute@M@1@QBD@Z 10011300 f i ImfCRgbaFile.obj
 0001:00010390       ??$typedAttribute@V?$TypedAttribute@N@Imf@@@Header@Imf@@QBEABV?$TypedAttribute@N@1@QBD@Z 10011390 f i ImfCRgbaFile.obj
 0001:00010420       ??$typedAttribute@V?$TypedAttribute@N@Imf@@@Header@Imf@@QAEAAV?$TypedAttribute@N@1@QBD@Z 10011420 f i ImfCRgbaFile.obj
 0001:000104b0       ??$typedAttribute@V?$TypedAttribute@V?$basic_string@DU?$char_traits@D@std@@V?$allocator@D@2@@std@@@Imf@@@Header@Imf@@QBEABV?$TypedAttribute@V?$basic_string@DU?$char_traits@D@std@@V?$allocator@D@2@@std@@@1@QBD@Z 100114b0 f i ImfCRgbaFile.obj
 0001:00010540       ??$typedAttribute@V?$TypedAttribute@V?$basic_string@DU?$char_traits@D@std@@V?$allocator@D@2@@std@@@Imf@@@Header@Imf@@QAEAAV?$TypedAttribute@V?$basic_string@DU?$char_traits@D@std@@V?$allocator@D@2@@std@@@1@QBD@Z 10011540 f i ImfCRgbaFile.obj
 0001:000105d0       ??$typedAttribute@V?$TypedAttribute@V?$Box@V?$Vec2@H@Imath@@@Imath@@@Imf@@@Header@Imf@@QBEABV?$TypedAttribute@V?$Box@V?$Vec2@H@Imath@@@Imath@@@1@QBD@Z 100115d0 f i ImfCRgbaFile.obj
 0001:00010660       ??$typedAttribute@V?$TypedAttribute@V?$Box@V?$Vec2@H@Imath@@@Imath@@@Imf@@@Header@Imf@@QAEAAV?$TypedAttribute@V?$Box@V?$Vec2@H@Imath@@@Imath@@@1@QBD@Z 10011660 f i ImfCRgbaFile.obj
 0001:000106f0       ??$typedAttribute@V?$TypedAttribute@V?$Box@V?$Vec2@M@Imath@@@Imath@@@Imf@@@Header@Imf@@QBEABV?$TypedAttribute@V?$Box@V?$Vec2@M@Imath@@@Imath@@@1@QBD@Z 100116f0 f i ImfCRgbaFile.obj
 0001:00010780       ??$typedAttribute@V?$TypedAttribute@V?$Box@V?$Vec2@M@Imath@@@Imath@@@Imf@@@Header@Imf@@QAEAAV?$TypedAttribute@V?$Box@V?$Vec2@M@Imath@@@Imath@@@1@QBD@Z 10011780 f i ImfCRgbaFile.obj
 0001:00010810       ??$typedAttribute@V?$TypedAttribute@V?$Vec2@H@Imath@@@Imf@@@Header@Imf@@QBEABV?$TypedAttribute@V?$Vec2@H@Imath@@@1@QBD@Z 10011810 f i ImfCRgbaFile.obj
 0001:000108a0       ??$typedAttribute@V?$TypedAttribute@V?$Vec2@H@Imath@@@Imf@@@Header@Imf@@QAEAAV?$TypedAttribute@V?$Vec2@H@Imath@@@1@QBD@Z 100118a0 f i ImfCRgbaFile.obj
 0001:00010930       ??$typedAttribute@V?$TypedAttribute@V?$Vec2@M@Imath@@@Imf@@@Header@Imf@@QBEABV?$TypedAttribute@V?$Vec2@M@Imath@@@1@QBD@Z 10011930 f i ImfCRgbaFile.obj
 0001:000109c0       ??$typedAttribute@V?$TypedAttribute@V?$Vec2@M@Imath@@@Imf@@@Header@Imf@@QAEAAV?$TypedAttribute@V?$Vec2@M@Imath@@@1@QBD@Z 100119c0 f i ImfCRgbaFile.obj
 0001:00010a50       ??$typedAttribute@V?$TypedAttribute@V?$Vec3@H@Imath@@@Imf@@@Header@Imf@@QBEABV?$TypedAttribute@V?$Vec3@H@Imath@@@1@QBD@Z 10011a50 f i ImfCRgbaFile.obj
 0001:00010ae0       ??$typedAttribute@V?$TypedAttribute@V?$Vec3@H@Imath@@@Imf@@@Header@Imf@@QAEAAV?$TypedAttribute@V?$Vec3@H@Imath@@@1@QBD@Z 10011ae0 f i ImfCRgbaFile.obj
 0001:00010b70       ??$typedAttribute@V?$TypedAttribute@V?$Vec3@M@Imath@@@Imf@@@Header@Imf@@QBEABV?$TypedAttribute@V?$Vec3@M@Imath@@@1@QBD@Z 10011b70 f i ImfCRgbaFile.obj
 0001:00010c00       ??$typedAttribute@V?$TypedAttribute@V?$Vec3@M@Imath@@@Imf@@@Header@Imf@@QAEAAV?$TypedAttribute@V?$Vec3@M@Imath@@@1@QBD@Z 10011c00 f i ImfCRgbaFile.obj
 0001:00010c90       ??$typedAttribute@V?$TypedAttribute@V?$Matrix33@M@Imath@@@Imf@@@Header@Imf@@QBEABV?$TypedAttribute@V?$Matrix33@M@Imath@@@1@QBD@Z 10011c90 f i ImfCRgbaFile.obj
 0001:00010d20       ??$typedAttribute@V?$TypedAttribute@V?$Matrix33@M@Imath@@@Imf@@@Header@Imf@@QAEAAV?$TypedAttribute@V?$Matrix33@M@Imath@@@1@QBD@Z 10011d20 f i ImfCRgbaFile.obj
 0001:00010db0       ??$typedAttribute@V?$TypedAttribute@V?$Matrix44@M@Imath@@@Imf@@@Header@Imf@@QBEABV?$TypedAttribute@V?$Matrix44@M@Imath@@@1@QBD@Z 10011db0 f i ImfCRgbaFile.obj
 0001:00010e40       ??$typedAttribute@V?$TypedAttribute@V?$Matrix44@M@Imath@@@Imf@@@Header@Imf@@QAEAAV?$TypedAttribute@V?$Matrix44@M@Imath@@@1@QBD@Z 10011e40 f i ImfCRgbaFile.obj
 0001:00010ed0       ??$?0P6A?AVhalf@@V0@@Z@RgbaLut@Imf@@QAE@P6A?AVhalf@@V2@@ZW4RgbaChannels@1@@Z 10011ed0 f i ImfCRgbaFile.obj
 0001:00010fd0       ??$?0UroundNBit@Imf@@@RgbaLut@Imf@@QAE@UroundNBit@1@W4RgbaChannels@1@@Z 10011fd0 f i ImfCRgbaFile.obj
 0001:000110d0       ??_E?$TypedAttribute@H@Imf@@UAEPAXI@Z 100120d0 f i ImfCRgbaFile.obj
 0001:000110d0       ??_G?$TypedAttribute@H@Imf@@UAEPAXI@Z 100120d0 f i ImfCRgbaFile.obj
 0001:00011110       ??_E?$TypedAttribute@V?$basic_string@DU?$char_traits@D@std@@V?$allocator@D@2@@std@@@Imf@@UAEPAXI@Z 10012110 f i ImfCRgbaFile.obj
 0001:00011110       ??_G?$TypedAttribute@V?$basic_string@DU?$char_traits@D@std@@V?$allocator@D@2@@std@@@Imf@@UAEPAXI@Z 10012110 f i ImfCRgbaFile.obj
 0001:00011150       ??_G?$TypedAttribute@V?$Box@V?$Vec2@H@Imath@@@Imath@@@Imf@@UAEPAXI@Z 10012150 f i ImfCRgbaFile.obj
 0001:00011150       ??_E?$TypedAttribute@V?$Box@V?$Vec2@H@Imath@@@Imath@@@Imf@@UAEPAXI@Z 10012150 f i ImfCRgbaFile.obj
 0001:00011190       ??_G?$TypedAttribute@V?$Box@V?$Vec2@M@Imath@@@Imath@@@Imf@@UAEPAXI@Z 10012190 f i ImfCRgbaFile.obj
 0001:00011190       ??_E?$TypedAttribute@V?$Box@V?$Vec2@M@Imath@@@Imath@@@Imf@@UAEPAXI@Z 10012190 f i ImfCRgbaFile.obj
 0001:000111d0       ??_G?$TypedAttribute@V?$Vec2@H@Imath@@@Imf@@UAEPAXI@Z 100121d0 f i ImfCRgbaFile.obj
 0001:000111d0       ??_E?$TypedAttribute@V?$Vec2@H@Imath@@@Imf@@UAEPAXI@Z 100121d0 f i ImfCRgbaFile.obj
 0001:00011210       ??_E?$TypedAttribute@V?$Vec2@M@Imath@@@Imf@@UAEPAXI@Z 10012210 f i ImfCRgbaFile.obj
 0001:00011210       ??_G?$TypedAttribute@V?$Vec2@M@Imath@@@Imf@@UAEPAXI@Z 10012210 f i ImfCRgbaFile.obj
 0001:00011250       ??_E?$TypedAttribute@V?$Vec3@H@Imath@@@Imf@@UAEPAXI@Z 10012250 f i ImfCRgbaFile.obj
 0001:00011250       ??_G?$TypedAttribute@V?$Vec3@H@Imath@@@Imf@@UAEPAXI@Z 10012250 f i ImfCRgbaFile.obj
 0001:00011290       ??_E?$TypedAttribute@V?$Vec3@M@Imath@@@Imf@@UAEPAXI@Z 10012290 f i ImfCRgbaFile.obj
 0001:00011290       ??_G?$TypedAttribute@V?$Vec3@M@Imath@@@Imf@@UAEPAXI@Z 10012290 f i ImfCRgbaFile.obj
 0001:000112d0       ??_G?$TypedAttribute@V?$Matrix33@M@Imath@@@Imf@@UAEPAXI@Z 100122d0 f i ImfCRgbaFile.obj
 0001:000112d0       ??_E?$TypedAttribute@V?$Matrix33@M@Imath@@@Imf@@UAEPAXI@Z 100122d0 f i ImfCRgbaFile.obj
 0001:00011310       ??_E?$TypedAttribute@V?$Matrix44@M@Imath@@@Imf@@UAEPAXI@Z 10012310 f i ImfCRgbaFile.obj
 0001:00011310       ??_G?$TypedAttribute@V?$Matrix44@M@Imath@@@Imf@@UAEPAXI@Z 10012310 f i ImfCRgbaFile.obj
 0001:00011350       ??0?$TypedAttribute@H@Imf@@QAE@XZ 10012350 f i ImfCRgbaFile.obj
 0001:00011390       ??0?$TypedAttribute@V?$basic_string@DU?$char_traits@D@std@@V?$allocator@D@2@@std@@@Imf@@QAE@XZ 10012390 f i ImfCRgbaFile.obj
 0001:00011410       ??0?$TypedAttribute@V?$Box@V?$Vec2@H@Imath@@@Imath@@@Imf@@QAE@XZ 10012410 f i ImfCRgbaFile.obj
 0001:000114b0       ??0?$TypedAttribute@V?$Box@V?$Vec2@M@Imath@@@Imath@@@Imf@@QAE@XZ 100124b0 f i ImfCRgbaFile.obj
 0001:00011550       ??0?$TypedAttribute@V?$Vec2@H@Imath@@@Imf@@QAE@XZ 10012550 f i ImfCRgbaFile.obj
 0001:00011580       ??0?$TypedAttribute@V?$Vec2@M@Imath@@@Imf@@QAE@XZ 10012580 f i ImfCRgbaFile.obj
 0001:000115b0       ??0?$TypedAttribute@V?$Vec3@H@Imath@@@Imf@@QAE@XZ 100125b0 f i ImfCRgbaFile.obj
 0001:000115e0       ??0?$TypedAttribute@V?$Vec3@M@Imath@@@Imf@@QAE@XZ 100125e0 f i ImfCRgbaFile.obj
 0001:00011610       ??0?$Matrix33@M@Imath@@QAE@ABV01@@Z 10012610 f i ImfCRgbaFile.obj
 0001:000116a0       ??0?$TypedAttribute@V?$Matrix33@M@Imath@@@Imf@@QAE@XZ 100126a0 f i ImfCRgbaFile.obj
 0001:00011730       ??0?$TypedAttribute@V?$Matrix44@M@Imath@@@Imf@@QAE@XZ 10012730 f i ImfCRgbaFile.obj
 0001:000117a0       ??$?0P6A?AVhalf@@V0@@Z@?$halfFunction@Vhalf@@@@QAE@P6A?AVhalf@@V1@@Z000000@Z 100127a0 f i ImfCRgbaFile.obj
 0001:00011970       ??$?0UroundNBit@Imf@@@?$halfFunction@Vhalf@@@@QAE@UroundNBit@Imf@@Vhalf@@11111@Z 10012970 f i ImfCRgbaFile.obj
 0001:00011b40       ?round@half@@QBE?AV1@I@Z   10012b40 f i ImfCRgbaFile.obj
 0001:00011c60       ??_H@YGXPAXIHP6EPAX0@Z@Z   10012c60 f i ImfCRgbaFile.obj
 0001:00011ca0       ?cast@?$TypedAttribute@H@Imf@@SAPBV12@PBVAttribute@2@@Z 10012ca0 f i ImfCRgbaFile.obj
 0001:00011d10       ?cast@?$TypedAttribute@V?$basic_string@DU?$char_traits@D@std@@V?$allocator@D@2@@std@@@Imf@@SAPBV12@PBVAttribute@2@@Z 10012d10 f i ImfCRgbaFile.obj
 0001:00011d80       ?cast@?$TypedAttribute@V?$Box@V?$Vec2@H@Imath@@@Imath@@@Imf@@SAPBV12@PBVAttribute@2@@Z 10012d80 f i ImfCRgbaFile.obj
 0001:00011df0       ?cast@?$TypedAttribute@V?$Box@V?$Vec2@M@Imath@@@Imath@@@Imf@@SAPBV12@PBVAttribute@2@@Z 10012df0 f i ImfCRgbaFile.obj
 0001:00011e60       ?cast@?$TypedAttribute@V?$Vec2@H@Imath@@@Imf@@SAPBV12@PBVAttribute@2@@Z 10012e60 f i ImfCRgbaFile.obj
 0001:00011ed0       ?cast@?$TypedAttribute@V?$Vec2@M@Imath@@@Imf@@SAPBV12@PBVAttribute@2@@Z 10012ed0 f i ImfCRgbaFile.obj
 0001:00011f40       ?cast@?$TypedAttribute@V?$Vec3@H@Imath@@@Imf@@SAPBV12@PBVAttribute@2@@Z 10012f40 f i ImfCRgbaFile.obj
 0001:00011fb0       ?cast@?$TypedAttribute@V?$Vec3@M@Imath@@@Imf@@SAPBV12@PBVAttribute@2@@Z 10012fb0 f i ImfCRgbaFile.obj
 0001:00012020       ?cast@?$TypedAttribute@V?$Matrix33@M@Imath@@@Imf@@SAPBV12@PBVAttribute@2@@Z 10013020 f i ImfCRgbaFile.obj
 0001:00012090       ?cast@?$TypedAttribute@V?$Matrix44@M@Imath@@@Imf@@SAPBV12@PBVAttribute@2@@Z 10013090 f i ImfCRgbaFile.obj
 0001:00012100       ?staticTypeName@?$TypedAttribute@N@Imf@@SAPBDXZ 10013100 f   ImfDoubleAttribute.obj
 0001:00012110       ?min@?$limits@H@Imath@@SAHXZ 10013110 f i ImfEnvmap.obj
 0001:00012120       ?max@?$limits@H@Imath@@SAHXZ 10013120 f i ImfEnvmap.obj
 0001:00012130       _fabsf                     10013130 f i ImfEnvmap.obj
 0001:00012140       _acosf                     10013140 f i ImfEnvmap.obj
 0001:00012160       _asinf                     10013160 f i ImfEnvmap.obj
 0001:00012180       _atan2f                    10013180 f i ImfEnvmap.obj
 0001:000121a0       _cosf                      100131a0 f i ImfEnvmap.obj
 0001:000121c0       _sinf                      100131c0 f i ImfEnvmap.obj
 0001:000121e0       _sqrtf                     100131e0 f i ImfEnvmap.obj
 0001:00012200       ?abs@@YAMM@Z               10013200 f i ImfEnvmap.obj
 0001:00012210       ?acos@@YAMM@Z              10013210 f i ImfEnvmap.obj
 0001:00012230       ?asin@@YAMM@Z              10013230 f i ImfEnvmap.obj
 0001:00012250       ?atan2@@YAMMM@Z            10013250 f i ImfEnvmap.obj
 0001:00012270       ?cos@@YAMM@Z               10013270 f i ImfEnvmap.obj
 0001:00012290       ?sin@@YAMM@Z               10013290 f i ImfEnvmap.obj
 0001:000122b0       ?sqrt@@YAMM@Z              100132b0 f i ImfEnvmap.obj
 0001:000122d0       ?sqrt@?$Math@M@Imath@@SAMM@Z 100132d0 f i ImfEnvmap.obj
 0001:000122f0       ??0?$Vec2@H@Imath@@QAE@ABV01@@Z 100132f0 f i ImfEnvmap.obj
 0001:00012310       ??0?$Vec2@M@Imath@@QAE@ABV01@@Z 10013310 f i ImfEnvmap.obj
 0001:00012330       ??0?$Vec2@M@Imath@@QAE@MM@Z 10013330 f i ImfEnvmap.obj
 0001:00012350       ??0?$Vec2@M@Imath@@QAE@XZ  10013350 f i ImfEnvmap.obj
 0001:00012360       ??4?$Vec2@M@Imath@@QAEABV01@ABV01@@Z 10013360 f i ImfEnvmap.obj
 0001:00012380       ??0?$Vec3@M@Imath@@QAE@ABV01@@Z 10013380 f i ImfEnvmap.obj
 0001:000123a0       ??0?$Vec3@M@Imath@@QAE@MMM@Z 100133a0 f i ImfEnvmap.obj
 0001:000123c0       ??$sign@M@Imath@@YAHM@Z    100133c0 f i ImfEnvmap.obj
 0001:000123f0       ??$min@H@std@@YAABHABH0@Z  100133f0 f i ImfEnvmap.obj
 0001:00012410       ??0?$Vec2@H@Imath@@QAE@XZ  10013410 f i ImfEnvmap.obj
 0001:00012420       ?dot@?$Vec3@M@Imath@@QBEMABV12@@Z 10013420 f i ImfEnvmap.obj
 0001:00012450       ?baseTypeMin@?$Vec2@H@Imath@@SAHXZ 10013450 f i ImfEnvmap.obj
 0001:00012460       ?baseTypeMax@?$Vec2@H@Imath@@SAHXZ 10013460 f i ImfEnvmap.obj
 0001:00012470       ??0?$Vec2@H@Imath@@QAE@H@Z 10013470 f i ImfEnvmap.obj
 0001:00012480       ??4?$Vec2@H@Imath@@QAEABV01@ABV01@@Z 10013480 f i ImfEnvmap.obj
 0001:000124a0       ?latLong@LatLongMap@Imf@@YA?AV?$Vec2@M@Imath@@ABV?$Box@V?$Vec2@H@Imath@@@4@ABV34@@Z 100134a0 f   ImfEnvmap.obj
 0001:00012540       ?pixelPosition@LatLongMap@Imf@@YA?AV?$Vec2@M@Imath@@ABV?$Box@V?$Vec2@H@Imath@@@4@ABV34@@Z 10013540 f   ImfEnvmap.obj
 0001:000125c0       ?direction@LatLongMap@Imf@@YA?AV?$Vec3@M@Imath@@ABV?$Box@V?$Vec2@H@Imath@@@4@ABV?$Vec2@M@4@@Z 100135c0 f   ImfEnvmap.obj
 0001:00012640       ?sizeOfFace@CubeMap@Imf@@YAHABV?$Box@V?$Vec2@H@Imath@@@Imath@@@Z 10013640 f   ImfEnvmap.obj
 0001:00012680       ?faceAndPixelPosition@CubeMap@Imf@@YAXABV?$Vec3@M@Imath@@ABV?$Box@V?$Vec2@H@Imath@@@4@AAW4CubeMapFace@2@AAV?$Vec2@M@4@@Z 10013680 f   ImfEnvmap.obj
 0001:00012870       ?direction@CubeMap@Imf@@YA?AV?$Vec3@M@Imath@@W4CubeMapFace@2@ABV?$Box@V?$Vec2@H@Imath@@@4@ABV?$Vec2@M@4@@Z 10013870 f   ImfEnvmap.obj
 0001:000129e0       ?latLong@LatLongMap@Imf@@YA?AV?$Vec2@M@Imath@@ABV?$Vec3@M@4@@Z 100139e0 f   ImfEnvmap.obj
 0001:00012b60       ?pixelPosition@LatLongMap@Imf@@YA?AV?$Vec2@M@Imath@@ABV?$Box@V?$Vec2@H@Imath@@@4@ABV?$Vec3@M@4@@Z 10013b60 f   ImfEnvmap.obj
 0001:00012b90       ?dataWindowForFace@CubeMap@Imf@@YA?AV?$Box@V?$Vec2@H@Imath@@@Imath@@W4CubeMapFace@2@ABV34@@Z 10013b90 f   ImfEnvmap.obj
 0001:00012bf0       ?pixelPosition@CubeMap@Imf@@YA?AV?$Vec2@M@Imath@@W4CubeMapFace@2@ABV?$Box@V?$Vec2@H@Imath@@@4@V34@@Z 10013bf0 f   ImfEnvmap.obj
 0001:00012cc0       ??0?$Box@V?$Vec2@H@Imath@@@Imath@@QAE@ABV01@@Z 10013cc0 f i ImfEnvmap.obj
 0001:00012ce0       ?length@?$Vec3@M@Imath@@QBEMXZ 10013ce0 f i ImfEnvmap.obj
 0001:00012d10       ?makeEmpty@?$Box@V?$Vec2@H@Imath@@@Imath@@QAEXXZ 10013d10 f i ImfEnvmap.obj
 0001:00012d30       ??0?$Box@V?$Vec2@H@Imath@@@Imath@@QAE@XZ 10013d30 f i ImfEnvmap.obj
 0001:00012d50       ??0TypeExc@Iex@@QAE@PBD@Z  10013d50 f i ImfEnvmapAttribute.obj
 0001:00012d70       ?writeChars@StreamIO@Imf@@SAXAAVOStream@2@QBDH@Z 10013d70 f i ImfEnvmapAttribute.obj
 0001:00012d90       ?readChars@StreamIO@Imf@@SA_NAAVIStream@2@QADH@Z 10013d90 f i ImfEnvmapAttribute.obj
 0001:00012db0       ?staticTypeName@?$TypedAttribute@W4Envmap@Imf@@@Imf@@SAPBDXZ 10013db0 f   ImfEnvmapAttribute.obj
 0001:00012dc0       ?writeValueTo@?$TypedAttribute@W4Envmap@Imf@@@Imf@@UBEXAAVOStream@2@H@Z 10013dc0 f   ImfEnvmapAttribute.obj
 0001:00012de0       ?readValueFrom@?$TypedAttribute@W4Envmap@Imf@@@Imf@@UAEXAAVIStream@2@HH@Z 10013de0 f   ImfEnvmapAttribute.obj
 0001:00012e10       ??$writeUnsignedChars@UStreamIO@Imf@@VOStream@2@@Xdr@Imf@@YAXAAVOStream@1@QBEH@Z 10013e10 f i ImfEnvmapAttribute.obj
 0001:00012e30       ??$readUnsignedChars@UStreamIO@Imf@@VIStream@2@@Xdr@Imf@@YAXAAVIStream@1@QAEH@Z 10013e30 f i ImfEnvmapAttribute.obj
 0001:00012e50       ??$write@UStreamIO@Imf@@VOStream@2@@Xdr@Imf@@YAXAAVOStream@1@E@Z 10013e50 f i ImfEnvmapAttribute.obj
 0001:00012e70       ??$read@UStreamIO@Imf@@VIStream@2@@Xdr@Imf@@YAXAAVIStream@1@AAE@Z 10013e70 f i ImfEnvmapAttribute.obj
 0001:00012e90       ?staticTypeName@?$TypedAttribute@M@Imf@@SAPBDXZ 10013e90 f   ImfFloatAttribute.obj
 0001:00012ea0       ??0Slice@Imf@@QAE@W4PixelType@1@PADIIHHN_N2@Z 10013ea0 f   ImfFrameBuffer.obj
 0001:00012f10       ?insert@FrameBuffer@Imf@@QAEXQBDABUSlice@2@@Z 10013f10 f   ImfFrameBuffer.obj
 0001:00013090       ??AFrameBuffer@Imf@@QAEAAUSlice@1@QBD@Z 10014090 f   ImfFrameBuffer.obj
 0001:000132d0       ??AFrameBuffer@Imf@@QBEABUSlice@1@QBD@Z 100142d0 f   ImfFrameBuffer.obj
 0001:00013510       ?findSlice@FrameBuffer@Imf@@QAEPAUSlice@2@QBD@Z 10014510 f   ImfFrameBuffer.obj
 0001:00013640       ?findSlice@FrameBuffer@Imf@@QBEPBUSlice@2@QBD@Z 10014640 f   ImfFrameBuffer.obj
 0001:00013770       ?begin@FrameBuffer@Imf@@QAE?AVIterator@12@XZ 10014770 f   ImfFrameBuffer.obj
 0001:000137f0       ?begin@FrameBuffer@Imf@@QBE?AVConstIterator@12@XZ 100147f0 f   ImfFrameBuffer.obj
 0001:00013870       ?end@FrameBuffer@Imf@@QAE?AVIterator@12@XZ 10014870 f   ImfFrameBuffer.obj
 0001:000138e0       ?end@FrameBuffer@Imf@@QBE?AVConstIterator@12@XZ 100148e0 f   ImfFrameBuffer.obj
 0001:00013950       ?find@FrameBuffer@Imf@@QAE?AVIterator@12@QBD@Z 10014950 f   ImfFrameBuffer.obj
 0001:000139d0       ?find@FrameBuffer@Imf@@QBE?AVConstIterator@12@QBD@Z 100149d0 f   ImfFrameBuffer.obj
 0001:00013a50       ??A?$map@VName@Imf@@USlice@2@U?$less@VName@Imf@@@std@@V?$allocator@U?$pair@$$CBVName@Imf@@USlice@2@@std@@@5@@std@@QAEAAUSlice@Imf@@ABVName@3@@Z 10014a50 f i ImfFrameBuffer.obj
 0001:00013c90       ?find@?$_Tree@V?$_Tmap_traits@VName@Imf@@USlice@2@U?$less@VName@Imf@@@std@@V?$allocator@U?$pair@$$CBVName@Imf@@USlice@2@@std@@@5@$0A@@std@@@std@@QAE?AViterator@12@ABVName@Imf@@@Z 10014c90 f i ImfFrameBuffer.obj
 0001:00013e40       ?find@?$_Tree@V?$_Tmap_traits@VName@Imf@@USlice@2@U?$less@VName@Imf@@@std@@V?$allocator@U?$pair@$$CBVName@Imf@@USlice@2@@std@@@5@$0A@@std@@@std@@QBE?AVconst_iterator@12@ABVName@Imf@@@Z 10014e40 f i ImfFrameBuffer.obj
 0001:00013fe0       ?insert@?$_Tree@V?$_Tmap_traits@VName@Imf@@USlice@2@U?$less@VName@Imf@@@std@@V?$allocator@U?$pair@$$CBVName@Imf@@USlice@2@@std@@@5@$0A@@std@@@std@@QAE?AViterator@12@V312@ABU?$pair@$$CBVName@Imf@@USlice@2@@2@@Z 10014fe0 f i ImfFrameBuffer.obj
 0001:00014d10       ??8const_iterator@?$_Tree@V?$_Tmap_traits@VName@Imf@@USlice@2@U?$less@VName@Imf@@@std@@V?$allocator@U?$pair@$$CBVName@Imf@@USlice@2@@std@@@5@$0A@@std@@@std@@QBE_NABV012@@Z 10015d10 f i ImfFrameBuffer.obj
 0001:00014d70       ??0const_iterator@?$_Tree@V?$_Tmap_traits@VName@Imf@@USlice@2@U?$less@VName@Imf@@@std@@V?$allocator@U?$pair@$$CBVName@Imf@@USlice@2@@std@@@5@$0A@@std@@@std@@QAE@PAU_Node@?$_Tree_nod@V?$_Tmap_traits@VName@Imf@@USlice@2@U?$less@VName@Imf@@@std@@V?$allocator@U?$pair@$$CBVName@Imf@@USlice@2@@std@@@5@$0A@@std@@@2@PBV12@@Z 10015d70 f i ImfFrameBuffer.obj
 0001:00014dd0       ?_Inc@const_iterator@?$_Tree@V?$_Tmap_traits@VName@Imf@@USlice@2@U?$less@VName@Imf@@@std@@V?$allocator@U?$pair@$$CBVName@Imf@@USlice@2@@std@@@5@$0A@@std@@@std@@QAEXXZ 10015dd0 f i ImfFrameBuffer.obj
 0001:00014ec0       ?insert@?$_Tree@V?$_Tmap_traits@VName@Imf@@USlice@2@U?$less@VName@Imf@@@std@@V?$allocator@U?$pair@$$CBVName@Imf@@USlice@2@@std@@@5@$0A@@std@@@std@@QAE?AU?$pair@Viterator@?$_Tree@V?$_Tmap_traits@VName@Imf@@USlice@2@U?$less@VName@Imf@@@std@@V?$allocator@U?$pair@$$CBVName@Imf@@USlice@2@@std@@@5@$0A@@std@@@std@@_N@2@ABU?$pair@$$CBVName@Imf@@USlice@2@@2@@Z 10015ec0 f i ImfFrameBuffer.obj
 0001:000151e0       ?_Insert@?$_Tree@V?$_Tmap_traits@VName@Imf@@USlice@2@U?$less@VName@Imf@@@std@@V?$allocator@U?$pair@$$CBVName@Imf@@USlice@2@@std@@@5@$0A@@std@@@std@@IAE?AViterator@12@_NPAU_Node@?$_Tree_nod@V?$_Tmap_traits@VName@Imf@@USlice@2@U?$less@VName@Imf@@@std@@V?$allocator@U?$pair@$$CBVName@Imf@@USlice@2@@std@@@5@$0A@@std@@@2@ABU?$pair@$$CBVName@Imf@@USlice@2@@2@@Z 100161e0 f i ImfFrameBuffer.obj
 0001:000155a0       ?_Lbound@?$_Tree@V?$_Tmap_traits@VName@Imf@@USlice@2@U?$less@VName@Imf@@@std@@V?$allocator@U?$pair@$$CBVName@Imf@@USlice@2@@std@@@5@$0A@@std@@@std@@IBEPAU_Node@?$_Tree_nod@V?$_Tmap_traits@VName@Imf@@USlice@2@U?$less@VName@Imf@@@std@@V?$allocator@U?$pair@$$CBVName@Imf@@USlice@2@@std@@@5@$0A@@std@@@2@ABVName@Imf@@@Z 100165a0 f i ImfFrameBuffer.obj
 0001:00015680       ?_Lrotate@?$_Tree@V?$_Tmap_traits@VName@Imf@@USlice@2@U?$less@VName@Imf@@@std@@V?$allocator@U?$pair@$$CBVName@Imf@@USlice@2@@std@@@5@$0A@@std@@@std@@IAEXPAU_Node@?$_Tree_nod@V?$_Tmap_traits@VName@Imf@@USlice@2@U?$less@VName@Imf@@@std@@V?$allocator@U?$pair@$$CBVName@Imf@@USlice@2@@std@@@5@$0A@@std@@@2@@Z 10016680 f i ImfFrameBuffer.obj
 0001:00015740       ?_Rrotate@?$_Tree@V?$_Tmap_traits@VName@Imf@@USlice@2@U?$less@VName@Imf@@@std@@V?$allocator@U?$pair@$$CBVName@Imf@@USlice@2@@std@@@5@$0A@@std@@@std@@IAEXPAU_Node@?$_Tree_nod@V?$_Tmap_traits@VName@Imf@@USlice@2@U?$less@VName@Imf@@@std@@V?$allocator@U?$pair@$$CBVName@Imf@@USlice@2@@std@@@5@$0A@@std@@@2@@Z 10016740 f i ImfFrameBuffer.obj
 0001:00015800       ?_Buynode@?$_Tree@V?$_Tmap_traits@VName@Imf@@USlice@2@U?$less@VName@Imf@@@std@@V?$allocator@U?$pair@$$CBVName@Imf@@USlice@2@@std@@@5@$0A@@std@@@std@@IAEPAU_Node@?$_Tree_nod@V?$_Tmap_traits@VName@Imf@@USlice@2@U?$less@VName@Imf@@@std@@V?$allocator@U?$pair@$$CBVName@Imf@@USlice@2@@std@@@5@$0A@@std@@@2@PAU342@00ABU?$pair@$$CBVName@Imf@@USlice@2@@2@D@Z 10016800 f i ImfFrameBuffer.obj
 0001:00015900       ?_Dec@const_iterator@?$_Tree@V?$_Tmap_traits@VName@Imf@@USlice@2@U?$less@VName@Imf@@@std@@V?$allocator@U?$pair@$$CBVName@Imf@@USlice@2@@std@@@5@$0A@@std@@@std@@QAEXXZ 10016900 f i ImfFrameBuffer.obj
 0001:00015a30       ??$_Allocate@U_Node@?$_Tree_nod@V?$_Tmap_traits@VName@Imf@@USlice@2@U?$less@VName@Imf@@@std@@V?$allocator@U?$pair@$$CBVName@Imf@@USlice@2@@std@@@5@$0A@@std@@@std@@@std@@YAPAU_Node@?$_Tree_nod@V?$_Tmap_traits@VName@Imf@@USlice@2@U?$less@VName@Imf@@@std@@V?$allocator@U?$pair@$$CBVName@Imf@@USlice@2@@std@@@5@$0A@@std@@@0@IPAU120@@Z 10016a30 f i ImfFrameBuffer.obj
 0001:00015ac0       ?initialize@?A0x54d39354@Imf@@YAXAAVHeader@2@ABV?$Box@V?$Vec2@H@Imath@@@Imath@@1MABV?$Vec2@M@5@MW4LineOrder@2@W4Compression@2@@Z 10016ac0 f   ImfHeader.obj
 0001:00015d40       ??0Header@Imf@@QAE@HHMABV?$Vec2@M@Imath@@MW4LineOrder@1@W4Compression@1@@Z 10016d40 f   ImfHeader.obj
 0001:00015e50       ??0Header@Imf@@QAE@HHABV?$Box@V?$Vec2@H@Imath@@@Imath@@MABV?$Vec2@M@3@MW4LineOrder@1@W4Compression@1@@Z 10016e50 f   ImfHeader.obj
 0001:00015f60       ??0Header@Imf@@QAE@ABV?$Box@V?$Vec2@H@Imath@@@Imath@@0MABV?$Vec2@M@3@MW4LineOrder@1@W4Compression@1@@Z 10016f60 f   ImfHeader.obj
 0001:00016010       ??0Header@Imf@@QAE@ABV01@@Z 10017010 f   ImfHeader.obj
 0001:000161e0       ??1Header@Imf@@QAE@XZ      100171e0 f   ImfHeader.obj
 0001:00016390       ??4Header@Imf@@QAEAAV01@ABV01@@Z 10017390 f   ImfHeader.obj
 0001:000166e0       ?insert@Header@Imf@@QAEXQBDABVAttribute@2@@Z 100176e0 f   ImfHeader.obj
 0001:00016d30       ??AHeader@Imf@@QAEAAVAttribute@1@QBD@Z 10017d30 f   ImfHeader.obj
 0001:00016f70       ??AHeader@Imf@@QBEABVAttribute@1@QBD@Z 10017f70 f   ImfHeader.obj
 0001:000171b0       ?begin@Header@Imf@@QAE?AVIterator@12@XZ 100181b0 f   ImfHeader.obj
 0001:00017230       ?begin@Header@Imf@@QBE?AVConstIterator@12@XZ 10018230 f   ImfHeader.obj
 0001:000172b0       ?end@Header@Imf@@QAE?AVIterator@12@XZ 100182b0 f   ImfHeader.obj
 0001:00017320       ?end@Header@Imf@@QBE?AVConstIterator@12@XZ 10018320 f   ImfHeader.obj
 0001:00017390       ?find@Header@Imf@@QAE?AVIterator@12@QBD@Z 10018390 f   ImfHeader.obj
 0001:00017410       ?find@Header@Imf@@QBE?AVConstIterator@12@QBD@Z 10018410 f   ImfHeader.obj
 0001:00017490       ?displayWindow@Header@Imf@@QAEAAV?$Box@V?$Vec2@H@Imath@@@Imath@@XZ 10018490 f   ImfHeader.obj
 0001:000174d0       ?displayWindow@Header@Imf@@QBEABV?$Box@V?$Vec2@H@Imath@@@Imath@@XZ 100184d0 f   ImfHeader.obj
 0001:00017510       ?dataWindow@Header@Imf@@QAEAAV?$Box@V?$Vec2@H@Imath@@@Imath@@XZ 10018510 f   ImfHeader.obj
 0001:00017550       ?dataWindow@Header@Imf@@QBEABV?$Box@V?$Vec2@H@Imath@@@Imath@@XZ 10018550 f   ImfHeader.obj
 0001:00017590       ?pixelAspectRatio@Header@Imf@@QAEAAMXZ 10018590 f   ImfHeader.obj
 0001:000175d0       ?pixelAspectRatio@Header@Imf@@QBEABMXZ 100185d0 f   ImfHeader.obj
 0001:00017610       ?screenWindowCenter@Header@Imf@@QAEAAV?$Vec2@M@Imath@@XZ 10018610 f   ImfHeader.obj
 0001:00017650       ?screenWindowCenter@Header@Imf@@QBEABV?$Vec2@M@Imath@@XZ 10018650 f   ImfHeader.obj
 0001:00017690       ?screenWindowWidth@Header@Imf@@QAEAAMXZ 10018690 f   ImfHeader.obj
 0001:000176d0       ?screenWindowWidth@Header@Imf@@QBEABMXZ 100186d0 f   ImfHeader.obj
 0001:00017710       ?channels@Header@Imf@@QAEAAVChannelList@2@XZ 10018710 f   ImfHeader.obj
 0001:00017750       ?channels@Header@Imf@@QBEABVChannelList@2@XZ 10018750 f   ImfHeader.obj
 0001:00017790       ?lineOrder@Header@Imf@@QAEAAW4LineOrder@2@XZ 10018790 f   ImfHeader.obj
 0001:000177d0       ?lineOrder@Header@Imf@@QBEABW4LineOrder@2@XZ 100187d0 f   ImfHeader.obj
 0001:00017810       ?compression@Header@Imf@@QAEAAW4Compression@2@XZ 10018810 f   ImfHeader.obj
 0001:00017850       ?compression@Header@Imf@@QBEABW4Compression@2@XZ 10018850 f   ImfHeader.obj
 0001:00017890       ?setTileDescription@Header@Imf@@QAEXABVTileDescription@2@@Z 10018890 f   ImfHeader.obj
 0001:00017930       ?hasTileDescription@Header@Imf@@QBE_NXZ 10018930 f   ImfHeader.obj
 0001:00017960       ?tileDescription@Header@Imf@@QAEAAVTileDescription@2@XZ 10018960 f   ImfHeader.obj
 0001:000179a0       ?tileDescription@Header@Imf@@QBEABVTileDescription@2@XZ 100189a0 f   ImfHeader.obj
 0001:000179e0       ?setPreviewImage@Header@Imf@@QAEXABVPreviewImage@2@@Z 100189e0 f   ImfHeader.obj
 0001:00017a70       ?previewImage@Header@Imf@@QAEAAVPreviewImage@2@XZ 10018a70 f   ImfHeader.obj
 0001:00017ab0       ?previewImage@Header@Imf@@QBEABVPreviewImage@2@XZ 10018ab0 f   ImfHeader.obj
 0001:00017af0       ?hasPreviewImage@Header@Imf@@QBE_NXZ 10018af0 f   ImfHeader.obj
 0001:00017b20       ?sanityCheck@Header@Imf@@QBEX_N@Z 10018b20 f   ImfHeader.obj
 0001:00018a20       ?writeTo@Header@Imf@@QBE_KAAVOStream@2@_N@Z 10019a20 f   ImfHeader.obj
 0001:00018d40       ?readFrom@Header@Imf@@QAEXAAVIStream@2@AAH@Z 10019d40 f   ImfHeader.obj
 0001:000194c0       ?staticInitialize@Imf@@YAXXZ 1001a4c0 f   ImfHeader.obj
 0001:00019760       ??1?$map@VName@Imf@@PAVAttribute@2@U?$less@VName@Imf@@@std@@V?$allocator@U?$pair@$$CBVName@Imf@@PAVAttribute@2@@std@@@5@@std@@QAE@XZ 1001a760 f i ImfHeader.obj
 0001:000197a0       ?attribute@ConstIterator@Header@Imf@@QBEABVAttribute@3@XZ 1001a7a0 f i ImfHeader.obj
 0001:00019800       ?str@StdOSStream@Imf@@QBE?AV?$basic_string@DU?$char_traits@D@std@@V?$allocator@D@2@@std@@XZ 1001a800 f i ImfHeader.obj
 0001:00019860       ??1StdOSStream@Imf@@UAE@XZ 1001a860 f i ImfHeader.obj
 0001:000198d0       ??_EInputExc@Iex@@UAEPAXI@Z 1001a8d0 f i ImfHeader.obj
 0001:000198d0       ??_GInputExc@Iex@@UAEPAXI@Z 1001a8d0 f i ImfHeader.obj
 0001:00019910       ??1InputExc@Iex@@UAE@XZ    1001a910 f i ImfHeader.obj
 0001:00019940       ??0InputExc@Iex@@QAE@ABV01@@Z 1001a940 f i ImfHeader.obj
 0001:00019980       ??0?$map@VName@Imf@@PAVAttribute@2@U?$less@VName@Imf@@@std@@V?$allocator@U?$pair@$$CBVName@Imf@@PAVAttribute@2@@std@@@5@@std@@QAE@XZ 1001a980 f i ImfHeader.obj
 0001:000199d0       ??A?$map@VName@Imf@@PAVAttribute@2@U?$less@VName@Imf@@@std@@V?$allocator@U?$pair@$$CBVName@Imf@@PAVAttribute@2@@std@@@5@@std@@QAEAAPAVAttribute@Imf@@ABVName@3@@Z 1001a9d0 f i ImfHeader.obj
 0001:00019b90       ?erase@?$_Tree@V?$_Tmap_traits@VName@Imf@@PAVAttribute@2@U?$less@VName@Imf@@@std@@V?$allocator@U?$pair@$$CBVName@Imf@@PAVAttribute@2@@std@@@5@$0A@@std@@@std@@QAE?AViterator@12@V312@0@Z 1001ab90 f i ImfHeader.obj
 0001:00019d90       ?find@?$_Tree@V?$_Tmap_traits@VName@Imf@@PAVAttribute@2@U?$less@VName@Imf@@@std@@V?$allocator@U?$pair@$$CBVName@Imf@@PAVAttribute@2@@std@@@5@$0A@@std@@@std@@QAE?AViterator@12@ABVName@Imf@@@Z 1001ad90 f i ImfHeader.obj
 0001:00019f40       ?find@?$_Tree@V?$_Tmap_traits@VName@Imf@@PAVAttribute@2@U?$less@VName@Imf@@@std@@V?$allocator@U?$pair@$$CBVName@Imf@@PAVAttribute@2@@std@@@5@$0A@@std@@@std@@QBE?AVconst_iterator@12@ABVName@Imf@@@Z 1001af40 f i ImfHeader.obj
 0001:0001a0e0       ?insert@?$_Tree@V?$_Tmap_traits@VName@Imf@@PAVAttribute@2@U?$less@VName@Imf@@@std@@V?$allocator@U?$pair@$$CBVName@Imf@@PAVAttribute@2@@std@@@5@$0A@@std@@@std@@QAE?AViterator@12@V312@ABU?$pair@$$CBVName@Imf@@PAVAttribute@2@@2@@Z 1001b0e0 f i ImfHeader.obj
 0001:0001ae10       ??8const_iterator@?$_Tree@V?$_Tmap_traits@VName@Imf@@PAVAttribute@2@U?$less@VName@Imf@@@std@@V?$allocator@U?$pair@$$CBVName@Imf@@PAVAttribute@2@@std@@@5@$0A@@std@@@std@@QBE_NABV012@@Z 1001be10 f i ImfHeader.obj
 0001:0001ae70       ?erase@?$_Tree@V?$_Tmap_traits@VName@Imf@@PAVAttribute@2@U?$less@VName@Imf@@@std@@V?$allocator@U?$pair@$$CBVName@Imf@@PAVAttribute@2@@std@@@5@$0A@@std@@@std@@QAE?AViterator@12@V312@@Z 1001be70 f i ImfHeader.obj
 0001:0001b3f0       ?clear@?$_Tree@V?$_Tmap_traits@VName@Imf@@PAVAttribute@2@U?$less@VName@Imf@@@std@@V?$allocator@U?$pair@$$CBVName@Imf@@PAVAttribute@2@@std@@@5@$0A@@std@@@std@@QAEXXZ 1001c3f0 f i ImfHeader.obj
 0001:0001b470       ?_Tidy@?$_Tree@V?$_Tmap_traits@VName@Imf@@PAVAttribute@2@U?$less@VName@Imf@@@std@@V?$allocator@U?$pair@$$CBVName@Imf@@PAVAttribute@2@@std@@@5@$0A@@std@@@std@@IAEXXZ 1001c470 f i ImfHeader.obj
 0001:0001b560       ??0const_iterator@?$_Tree@V?$_Tmap_traits@VName@Imf@@PAVAttribute@2@U?$less@VName@Imf@@@std@@V?$allocator@U?$pair@$$CBVName@Imf@@PAVAttribute@2@@std@@@5@$0A@@std@@@std@@QAE@PAU_Node@?$_Tree_nod@V?$_Tmap_traits@VName@Imf@@PAVAttribute@2@U?$less@VName@Imf@@@std@@V?$allocator@U?$pair@$$CBVName@Imf@@PAVAttribute@2@@std@@@5@$0A@@std@@@2@PBV12@@Z 1001c560 f i ImfHeader.obj
 0001:0001b5c0       ??Dconst_iterator@?$_Tree@V?$_Tmap_traits@VName@Imf@@PAVAttribute@2@U?$less@VName@Imf@@@std@@V?$allocator@U?$pair@$$CBVName@Imf@@PAVAttribute@2@@std@@@5@$0A@@std@@@std@@QBEABU?$pair@$$CBVName@Imf@@PAVAttribute@2@@2@XZ 1001c5c0 f i ImfHeader.obj
 0001:0001b620       ?_Inc@const_iterator@?$_Tree@V?$_Tmap_traits@VName@Imf@@PAVAttribute@2@U?$less@VName@Imf@@@std@@V?$allocator@U?$pair@$$CBVName@Imf@@PAVAttribute@2@@std@@@5@$0A@@std@@@std@@QAEXXZ 1001c620 f i ImfHeader.obj
 0001:0001b710       ?insert@?$_Tree@V?$_Tmap_traits@VName@Imf@@PAVAttribute@2@U?$less@VName@Imf@@@std@@V?$allocator@U?$pair@$$CBVName@Imf@@PAVAttribute@2@@std@@@5@$0A@@std@@@std@@QAE?AU?$pair@Viterator@?$_Tree@V?$_Tmap_traits@VName@Imf@@PAVAttribute@2@U?$less@VName@Imf@@@std@@V?$allocator@U?$pair@$$CBVName@Imf@@PAVAttribute@2@@std@@@5@$0A@@std@@@std@@_N@2@ABU?$pair@$$CBVName@Imf@@PAVAttribute@2@@2@@Z 1001c710 f i ImfHeader.obj
 0001:0001ba30       ?_Erase@?$_Tree@V?$_Tmap_traits@VName@Imf@@PAVAttribute@2@U?$less@VName@Imf@@@std@@V?$allocator@U?$pair@$$CBVName@Imf@@PAVAttribute@2@@std@@@5@$0A@@std@@@std@@IAEXPAU_Node@?$_Tree_nod@V?$_Tmap_traits@VName@Imf@@PAVAttribute@2@U?$less@VName@Imf@@@std@@V?$allocator@U?$pair@$$CBVName@Imf@@PAVAttribute@2@@std@@@5@$0A@@std@@@2@@Z 1001ca30 f i ImfHeader.obj
 0001:0001baa0       ?_Init@?$_Tree@V?$_Tmap_traits@VName@Imf@@PAVAttribute@2@U?$less@VName@Imf@@@std@@V?$allocator@U?$pair@$$CBVName@Imf@@PAVAttribute@2@@std@@@5@$0A@@std@@@std@@IAEXXZ 1001caa0 f i ImfHeader.obj
 0001:0001bb20       ?_Insert@?$_Tree@V?$_Tmap_traits@VName@Imf@@PAVAttribute@2@U?$less@VName@Imf@@@std@@V?$allocator@U?$pair@$$CBVName@Imf@@PAVAttribute@2@@std@@@5@$0A@@std@@@std@@IAE?AViterator@12@_NPAU_Node@?$_Tree_nod@V?$_Tmap_traits@VName@Imf@@PAVAttribute@2@U?$less@VName@Imf@@@std@@V?$allocator@U?$pair@$$CBVName@Imf@@PAVAttribute@2@@std@@@5@$0A@@std@@@2@ABU?$pair@$$CBVName@Imf@@PAVAttribute@2@@2@@Z 1001cb20 f i ImfHeader.obj
 0001:0001bee0       ?_Lbound@?$_Tree@V?$_Tmap_traits@VName@Imf@@PAVAttribute@2@U?$less@VName@Imf@@@std@@V?$allocator@U?$pair@$$CBVName@Imf@@PAVAttribute@2@@std@@@5@$0A@@std@@@std@@IBEPAU_Node@?$_Tree_nod@V?$_Tmap_traits@VName@Imf@@PAVAttribute@2@U?$less@VName@Imf@@@std@@V?$allocator@U?$pair@$$CBVName@Imf@@PAVAttribute@2@@std@@@5@$0A@@std@@@2@ABVName@Imf@@@Z 1001cee0 f i ImfHeader.obj
 0001:0001bfc0       ?_Lrotate@?$_Tree@V?$_Tmap_traits@VName@Imf@@PAVAttribute@2@U?$less@VName@Imf@@@std@@V?$allocator@U?$pair@$$CBVName@Imf@@PAVAttribute@2@@std@@@5@$0A@@std@@@std@@IAEXPAU_Node@?$_Tree_nod@V?$_Tmap_traits@VName@Imf@@PAVAttribute@2@U?$less@VName@Imf@@@std@@V?$allocator@U?$pair@$$CBVName@Imf@@PAVAttribute@2@@std@@@5@$0A@@std@@@2@@Z 1001cfc0 f i ImfHeader.obj
 0001:0001c080       ?_Rrotate@?$_Tree@V?$_Tmap_traits@VName@Imf@@PAVAttribute@2@U?$less@VName@Imf@@@std@@V?$allocator@U?$pair@$$CBVName@Imf@@PAVAttribute@2@@std@@@5@$0A@@std@@@std@@IAEXPAU_Node@?$_Tree_nod@V?$_Tmap_traits@VName@Imf@@PAVAttribute@2@U?$less@VName@Imf@@@std@@V?$allocator@U?$pair@$$CBVName@Imf@@PAVAttribute@2@@std@@@5@$0A@@std@@@2@@Z 1001d080 f i ImfHeader.obj
 0001:0001c140       ?_Buynode@?$_Tree@V?$_Tmap_traits@VName@Imf@@PAVAttribute@2@U?$less@VName@Imf@@@std@@V?$allocator@U?$pair@$$CBVName@Imf@@PAVAttribute@2@@std@@@5@$0A@@std@@@std@@IAEPAU_Node@?$_Tree_nod@V?$_Tmap_traits@VName@Imf@@PAVAttribute@2@U?$less@VName@Imf@@@std@@V?$allocator@U?$pair@$$CBVName@Imf@@PAVAttribute@2@@std@@@5@$0A@@std@@@2@XZ 1001d140 f i ImfHeader.obj
 0001:0001c290       ?_Buynode@?$_Tree@V?$_Tmap_traits@VName@Imf@@PAVAttribute@2@U?$less@VName@Imf@@@std@@V?$allocator@U?$pair@$$CBVName@Imf@@PAVAttribute@2@@std@@@5@$0A@@std@@@std@@IAEPAU_Node@?$_Tree_nod@V?$_Tmap_traits@VName@Imf@@PAVAttribute@2@U?$less@VName@Imf@@@std@@V?$allocator@U?$pair@$$CBVName@Imf@@PAVAttribute@2@@std@@@5@$0A@@std@@@2@PAU342@00ABU?$pair@$$CBVName@Imf@@PAVAttribute@2@@2@D@Z 1001d290 f i ImfHeader.obj
 0001:0001c390       ?allocate@?$allocator@U_Node@?$_Tree_nod@V?$_Tmap_traits@VName@Imf@@PAVAttribute@2@U?$less@VName@Imf@@@std@@V?$allocator@U?$pair@$$CBVName@Imf@@PAVAttribute@2@@std@@@5@$0A@@std@@@std@@@std@@QAEPAU_Node@?$_Tree_nod@V?$_Tmap_traits@VName@Imf@@PAVAttribute@2@U?$less@VName@Imf@@@std@@V?$allocator@U?$pair@$$CBVName@Imf@@PAVAttribute@2@@std@@@5@$0A@@std@@@2@I@Z 1001d390 f i ImfHeader.obj
 0001:0001c3d0       ?_Dec@const_iterator@?$_Tree@V?$_Tmap_traits@VName@Imf@@PAVAttribute@2@U?$less@VName@Imf@@@std@@V?$allocator@U?$pair@$$CBVName@Imf@@PAVAttribute@2@@std@@@5@$0A@@std@@@std@@QAEXXZ 1001d3d0 f i ImfHeader.obj
 0001:0001c500       ??0?$TypedAttribute@VChannelList@Imf@@@Imf@@QAE@XZ 1001d500 f i ImfHeader.obj
 0001:0001c590       ??1?$TypedAttribute@VChannelList@Imf@@@Imf@@UAE@XZ 1001d590 f i ImfHeader.obj
 0001:0001c610       ?typeName@?$TypedAttribute@VChannelList@Imf@@@Imf@@UBEPBDXZ 1001d610 f i ImfHeader.obj
 0001:0001c640       ?copy@?$TypedAttribute@VChannelList@Imf@@@Imf@@UBEPAVAttribute@2@XZ 1001d640 f i ImfHeader.obj
 0001:0001c6f0       ?copyValueFrom@?$TypedAttribute@VChannelList@Imf@@@Imf@@UAEXABVAttribute@2@@Z 1001d6f0 f i ImfHeader.obj
 0001:0001c750       ??0?$TypedAttribute@W4Compression@Imf@@@Imf@@QAE@ABW4Compression@1@@Z 1001d750 f i ImfHeader.obj
 0001:0001c790       ??1?$TypedAttribute@W4Compression@Imf@@@Imf@@UAE@XZ 1001d790 f i ImfHeader.obj
 0001:0001c7c0       ?typeName@?$TypedAttribute@W4Compression@Imf@@@Imf@@UBEPBDXZ 1001d7c0 f i ImfHeader.obj
 0001:0001c7f0       ?copy@?$TypedAttribute@W4Compression@Imf@@@Imf@@UBEPAVAttribute@2@XZ 1001d7f0 f i ImfHeader.obj
 0001:0001c8a0       ?copyValueFrom@?$TypedAttribute@W4Compression@Imf@@@Imf@@UAEXABVAttribute@2@@Z 1001d8a0 f i ImfHeader.obj
 0001:0001c8e0       ??0?$TypedAttribute@W4LineOrder@Imf@@@Imf@@QAE@ABW4LineOrder@1@@Z 1001d8e0 f i ImfHeader.obj
 0001:0001c920       ??1?$TypedAttribute@W4LineOrder@Imf@@@Imf@@UAE@XZ 1001d920 f i ImfHeader.obj
 0001:0001c950       ?typeName@?$TypedAttribute@W4LineOrder@Imf@@@Imf@@UBEPBDXZ 1001d950 f i ImfHeader.obj
 0001:0001c980       ?copy@?$TypedAttribute@W4LineOrder@Imf@@@Imf@@UBEPAVAttribute@2@XZ 1001d980 f i ImfHeader.obj
 0001:0001ca30       ?copyValueFrom@?$TypedAttribute@W4LineOrder@Imf@@@Imf@@UAEXABVAttribute@2@@Z 1001da30 f i ImfHeader.obj
 0001:0001ca70       ??0?$TypedAttribute@VPreviewImage@Imf@@@Imf@@QAE@ABVPreviewImage@1@@Z 1001da70 f i ImfHeader.obj
 0001:0001cae0       ??1?$TypedAttribute@VPreviewImage@Imf@@@Imf@@UAE@XZ 1001dae0 f i ImfHeader.obj
 0001:0001cb50       ?typeName@?$TypedAttribute@VPreviewImage@Imf@@@Imf@@UBEPBDXZ 1001db50 f i ImfHeader.obj
 0001:0001cb80       ?copy@?$TypedAttribute@VPreviewImage@Imf@@@Imf@@UBEPAVAttribute@2@XZ 1001db80 f i ImfHeader.obj
 0001:0001cc30       ?copyValueFrom@?$TypedAttribute@VPreviewImage@Imf@@@Imf@@UAEXABVAttribute@2@@Z 1001dc30 f i ImfHeader.obj
 0001:0001cc70       ??0?$TypedAttribute@VTileDescription@Imf@@@Imf@@QAE@ABVTileDescription@1@@Z 1001dc70 f i ImfHeader.obj
 0001:0001ccd0       ??1?$TypedAttribute@VTileDescription@Imf@@@Imf@@UAE@XZ 1001dcd0 f i ImfHeader.obj
 0001:0001cd00       ?typeName@?$TypedAttribute@VTileDescription@Imf@@@Imf@@UBEPBDXZ 1001dd00 f i ImfHeader.obj
 0001:0001cd30       ?copy@?$TypedAttribute@VTileDescription@Imf@@@Imf@@UBEPAVAttribute@2@XZ 1001dd30 f i ImfHeader.obj
 0001:0001cde0       ?copyValueFrom@?$TypedAttribute@VTileDescription@Imf@@@Imf@@UAEXABVAttribute@2@@Z 1001dde0 f i ImfHeader.obj
 0001:0001ce40       ??$findTypedAttribute@V?$TypedAttribute@VTileDescription@Imf@@@Imf@@@Header@Imf@@QBEPBV?$TypedAttribute@VTileDescription@Imf@@@1@QBD@Z 1001de40 f i ImfHeader.obj
 0001:0001cf90       ??$typedAttribute@V?$TypedAttribute@VTileDescription@Imf@@@Imf@@@Header@Imf@@QBEABV?$TypedAttribute@VTileDescription@Imf@@@1@QBD@Z 1001df90 f i ImfHeader.obj
 0001:0001d020       ??$typedAttribute@V?$TypedAttribute@VTileDescription@Imf@@@Imf@@@Header@Imf@@QAEAAV?$TypedAttribute@VTileDescription@Imf@@@1@QBD@Z 1001e020 f i ImfHeader.obj
 0001:0001d0b0       ??$typedAttribute@V?$TypedAttribute@VPreviewImage@Imf@@@Imf@@@Header@Imf@@QBEABV?$TypedAttribute@VPreviewImage@Imf@@@1@QBD@Z 1001e0b0 f i ImfHeader.obj
 0001:0001d140       ??$typedAttribute@V?$TypedAttribute@VPreviewImage@Imf@@@Imf@@@Header@Imf@@QAEAAV?$TypedAttribute@VPreviewImage@Imf@@@1@QBD@Z 1001e140 f i ImfHeader.obj
 0001:0001d1d0       ??$findTypedAttribute@V?$TypedAttribute@VPreviewImage@Imf@@@Imf@@@Header@Imf@@QBEPBV?$TypedAttribute@VPreviewImage@Imf@@@1@QBD@Z 1001e1d0 f i ImfHeader.obj
 0001:0001d320       ??$_Allocate@U_Node@?$_Tree_nod@V?$_Tmap_traits@VName@Imf@@PAVAttribute@2@U?$less@VName@Imf@@@std@@V?$allocator@U?$pair@$$CBVName@Imf@@PAVAttribute@2@@std@@@5@$0A@@std@@@std@@@std@@YAPAU_Node@?$_Tree_nod@V?$_Tmap_traits@VName@Imf@@PAVAttribute@2@U?$less@VName@Imf@@@std@@V?$allocator@U?$pair@$$CBVName@Imf@@PAVAttribute@2@@std@@@5@$0A@@std@@@0@IPAU120@@Z 1001e320 f i ImfHeader.obj
 0001:0001d3b0       ??_G?$TypedAttribute@VChannelList@Imf@@@Imf@@UAEPAXI@Z 1001e3b0 f i ImfHeader.obj
 0001:0001d3b0       ??_E?$TypedAttribute@VChannelList@Imf@@@Imf@@UAEPAXI@Z 1001e3b0 f i ImfHeader.obj
 0001:0001d3f0       ??_E?$TypedAttribute@W4Compression@Imf@@@Imf@@UAEPAXI@Z 1001e3f0 f i ImfHeader.obj
 0001:0001d3f0       ??_G?$TypedAttribute@W4Compression@Imf@@@Imf@@UAEPAXI@Z 1001e3f0 f i ImfHeader.obj
 0001:0001d430       ??_E?$TypedAttribute@W4LineOrder@Imf@@@Imf@@UAEPAXI@Z 1001e430 f i ImfHeader.obj
 0001:0001d430       ??_G?$TypedAttribute@W4LineOrder@Imf@@@Imf@@UAEPAXI@Z 1001e430 f i ImfHeader.obj
 0001:0001d470       ??_E?$TypedAttribute@VPreviewImage@Imf@@@Imf@@UAEPAXI@Z 1001e470 f i ImfHeader.obj
 0001:0001d470       ??_G?$TypedAttribute@VPreviewImage@Imf@@@Imf@@UAEPAXI@Z 1001e470 f i ImfHeader.obj
 0001:0001d4b0       ??_G?$TypedAttribute@VTileDescription@Imf@@@Imf@@UAEPAXI@Z 1001e4b0 f i ImfHeader.obj
 0001:0001d4b0       ??_E?$TypedAttribute@VTileDescription@Imf@@@Imf@@UAEPAXI@Z 1001e4b0 f i ImfHeader.obj
 0001:0001d4f0       ??4?$_Tree@V?$_Tmap_traits@VName@Imf@@UChannel@2@U?$less@VName@Imf@@@std@@V?$allocator@U?$pair@$$CBVName@Imf@@UChannel@2@@std@@@5@$0A@@std@@@std@@QAEAAV01@ABV01@@Z 1001e4f0 f i ImfHeader.obj
 0001:0001d5c0       ?erase@?$_Tree@V?$_Tmap_traits@VName@Imf@@UChannel@2@U?$less@VName@Imf@@@std@@V?$allocator@U?$pair@$$CBVName@Imf@@UChannel@2@@std@@@5@$0A@@std@@@std@@QAE?AViterator@12@V312@0@Z 1001e5c0 f i ImfHeader.obj
 0001:0001d7c0       ?_Copy@?$_Tree@V?$_Tmap_traits@VName@Imf@@UChannel@2@U?$less@VName@Imf@@@std@@V?$allocator@U?$pair@$$CBVName@Imf@@UChannel@2@@std@@@5@$0A@@std@@@std@@IAEXABV12@@Z 1001e7c0 f i ImfHeader.obj
 0001:0001d8f0       ?_Tidy@?$_Tree@V?$_Tmap_traits@VName@Imf@@UChannel@2@U?$less@VName@Imf@@@std@@V?$allocator@U?$pair@$$CBVName@Imf@@UChannel@2@@std@@@5@$0A@@std@@@std@@IAEXXZ 1001e8f0 f i ImfHeader.obj
 0001:0001d9e0       ?erase@?$_Tree@V?$_Tmap_traits@VName@Imf@@UChannel@2@U?$less@VName@Imf@@@std@@V?$allocator@U?$pair@$$CBVName@Imf@@UChannel@2@@std@@@5@$0A@@std@@@std@@QAE?AViterator@12@V312@@Z 1001e9e0 f i ImfHeader.obj
 0001:0001df60       ?clear@?$_Tree@V?$_Tmap_traits@VName@Imf@@UChannel@2@U?$less@VName@Imf@@@std@@V?$allocator@U?$pair@$$CBVName@Imf@@UChannel@2@@std@@@5@$0A@@std@@@std@@QAEXXZ 1001ef60 f i ImfHeader.obj
 0001:0001dfe0       ?_Copy@?$_Tree@V?$_Tmap_traits@VName@Imf@@UChannel@2@U?$less@VName@Imf@@@std@@V?$allocator@U?$pair@$$CBVName@Imf@@UChannel@2@@std@@@5@$0A@@std@@@std@@IAEPAU_Node@?$_Tree_nod@V?$_Tmap_traits@VName@Imf@@UChannel@2@U?$less@VName@Imf@@@std@@V?$allocator@U?$pair@$$CBVName@Imf@@UChannel@2@@std@@@5@$0A@@std@@@2@PAU342@0@Z 1001efe0 f i ImfHeader.obj
 0001:0001e100       ?_Init@?$_Tree@V?$_Tmap_traits@VName@Imf@@UChannel@2@U?$less@VName@Imf@@@std@@V?$allocator@U?$pair@$$CBVName@Imf@@UChannel@2@@std@@@5@$0A@@std@@@std@@IAEXXZ 1001f100 f i ImfHeader.obj
 0001:0001e180       ?_Erase@?$_Tree@V?$_Tmap_traits@VName@Imf@@UChannel@2@U?$less@VName@Imf@@@std@@V?$allocator@U?$pair@$$CBVName@Imf@@UChannel@2@@std@@@5@$0A@@std@@@std@@IAEXPAU_Node@?$_Tree_nod@V?$_Tmap_traits@VName@Imf@@UChannel@2@U?$less@VName@Imf@@@std@@V?$allocator@U?$pair@$$CBVName@Imf@@UChannel@2@@std@@@5@$0A@@std@@@2@@Z 1001f180 f i ImfHeader.obj
 0001:0001e1f0       ?_Buynode@?$_Tree@V?$_Tmap_traits@VName@Imf@@UChannel@2@U?$less@VName@Imf@@@std@@V?$allocator@U?$pair@$$CBVName@Imf@@UChannel@2@@std@@@5@$0A@@std@@@std@@IAEPAU_Node@?$_Tree_nod@V?$_Tmap_traits@VName@Imf@@UChannel@2@U?$less@VName@Imf@@@std@@V?$allocator@U?$pair@$$CBVName@Imf@@UChannel@2@@std@@@5@$0A@@std@@@2@XZ 1001f1f0 f i ImfHeader.obj
 0001:0001e340       ?allocate@?$allocator@U_Node@?$_Tree_nod@V?$_Tmap_traits@VName@Imf@@UChannel@2@U?$less@VName@Imf@@@std@@V?$allocator@U?$pair@$$CBVName@Imf@@UChannel@2@@std@@@5@$0A@@std@@@std@@@std@@QAEPAU_Node@?$_Tree_nod@V?$_Tmap_traits@VName@Imf@@UChannel@2@U?$less@VName@Imf@@@std@@V?$allocator@U?$pair@$$CBVName@Imf@@UChannel@2@@std@@@5@$0A@@std@@@2@I@Z 1001f340 f i ImfHeader.obj
 0001:0001e380       ?makeNewAttribute@?$TypedAttribute@V?$Box@V?$Vec2@H@Imath@@@Imath@@@Imf@@SAPAVAttribute@2@XZ 1001f380 f i ImfHeader.obj
 0001:0001e410       ?makeNewAttribute@?$TypedAttribute@V?$Box@V?$Vec2@M@Imath@@@Imath@@@Imf@@SAPAVAttribute@2@XZ 1001f410 f i ImfHeader.obj
 0001:0001e4a0       ?makeNewAttribute@?$TypedAttribute@VChannelList@Imf@@@Imf@@SAPAVAttribute@2@XZ 1001f4a0 f i ImfHeader.obj
 0001:0001e530       ?makeNewAttribute@?$TypedAttribute@UChromaticities@Imf@@@Imf@@SAPAVAttribute@2@XZ 1001f530 f i ImfHeader.obj
 0001:0001e5c0       ??0?$TypedAttribute@UChromaticities@Imf@@@Imf@@QAE@XZ 1001f5c0 f i ImfHeader.obj
 0001:0001e6a0       ?typeName@?$TypedAttribute@UChromaticities@Imf@@@Imf@@UBEPBDXZ 1001f6a0 f i ImfHeader.obj
 0001:0001e6d0       ?copy@?$TypedAttribute@UChromaticities@Imf@@@Imf@@UBEPAVAttribute@2@XZ 1001f6d0 f i ImfHeader.obj
 0001:0001e780       ?copyValueFrom@?$TypedAttribute@UChromaticities@Imf@@@Imf@@UAEXABVAttribute@2@@Z 1001f780 f i ImfHeader.obj
 0001:0001e7d0       ??_E?$TypedAttribute@UChromaticities@Imf@@@Imf@@UAEPAXI@Z 1001f7d0 f i ImfHeader.obj
 0001:0001e7d0       ??_G?$TypedAttribute@UChromaticities@Imf@@@Imf@@UAEPAXI@Z 1001f7d0 f i ImfHeader.obj
 0001:0001e810       ??1?$TypedAttribute@UChromaticities@Imf@@@Imf@@UAE@XZ 1001f810 f i ImfHeader.obj
 0001:0001e840       ??4Chromaticities@Imf@@QAEAAU01@ABU01@@Z 1001f840 f i ImfHeader.obj
 0001:0001e900       ??0?$TypedAttribute@W4Compression@Imf@@@Imf@@QAE@XZ 1001f900 f i ImfHeader.obj
 0001:0001e940       ?makeNewAttribute@?$TypedAttribute@W4Compression@Imf@@@Imf@@SAPAVAttribute@2@XZ 1001f940 f i ImfHeader.obj
 0001:0001e9d0       ?makeNewAttribute@?$TypedAttribute@W4Envmap@Imf@@@Imf@@SAPAVAttribute@2@XZ 1001f9d0 f i ImfHeader.obj
 0001:0001ea60       ??0?$TypedAttribute@W4Envmap@Imf@@@Imf@@QAE@XZ 1001fa60 f i ImfHeader.obj
 0001:0001eaa0       ?typeName@?$TypedAttribute@W4Envmap@Imf@@@Imf@@UBEPBDXZ 1001faa0 f i ImfHeader.obj
 0001:0001ead0       ?copy@?$TypedAttribute@W4Envmap@Imf@@@Imf@@UBEPAVAttribute@2@XZ 1001fad0 f i ImfHeader.obj
 0001:0001eb80       ?copyValueFrom@?$TypedAttribute@W4Envmap@Imf@@@Imf@@UAEXABVAttribute@2@@Z 1001fb80 f i ImfHeader.obj
 0001:0001ebc0       ??_G?$TypedAttribute@W4Envmap@Imf@@@Imf@@UAEPAXI@Z 1001fbc0 f i ImfHeader.obj
 0001:0001ebc0       ??_E?$TypedAttribute@W4Envmap@Imf@@@Imf@@UAEPAXI@Z 1001fbc0 f i ImfHeader.obj
 0001:0001ec00       ??1?$TypedAttribute@W4Envmap@Imf@@@Imf@@UAE@XZ 1001fc00 f i ImfHeader.obj
 0001:0001ec30       ?makeNewAttribute@?$TypedAttribute@H@Imf@@SAPAVAttribute@2@XZ 1001fc30 f i ImfHeader.obj
 0001:0001ecc0       ?makeNewAttribute@?$TypedAttribute@VKeyCode@Imf@@@Imf@@SAPAVAttribute@2@XZ 1001fcc0 f i ImfHeader.obj
 0001:0001ed50       ??0?$TypedAttribute@VKeyCode@Imf@@@Imf@@QAE@XZ 1001fd50 f i ImfHeader.obj
 0001:0001edd0       ?typeName@?$TypedAttribute@VKeyCode@Imf@@@Imf@@UBEPBDXZ 1001fdd0 f i ImfHeader.obj
 0001:0001ee00       ?copy@?$TypedAttribute@VKeyCode@Imf@@@Imf@@UBEPAVAttribute@2@XZ 1001fe00 f i ImfHeader.obj
 0001:0001eeb0       ?copyValueFrom@?$TypedAttribute@VKeyCode@Imf@@@Imf@@UAEXABVAttribute@2@@Z 1001feb0 f i ImfHeader.obj
 0001:0001eef0       ??_E?$TypedAttribute@VKeyCode@Imf@@@Imf@@UAEPAXI@Z 1001fef0 f i ImfHeader.obj
 0001:0001eef0       ??_G?$TypedAttribute@VKeyCode@Imf@@@Imf@@UAEPAXI@Z 1001fef0 f i ImfHeader.obj
 0001:0001ef30       ??1?$TypedAttribute@VKeyCode@Imf@@@Imf@@UAE@XZ 1001ff30 f i ImfHeader.obj
 0001:0001ef60       ??0?$TypedAttribute@W4LineOrder@Imf@@@Imf@@QAE@XZ 1001ff60 f i ImfHeader.obj
 0001:0001efa0       ?makeNewAttribute@?$TypedAttribute@W4LineOrder@Imf@@@Imf@@SAPAVAttribute@2@XZ 1001ffa0 f i ImfHeader.obj
 0001:0001f030       ?makeNewAttribute@?$TypedAttribute@V?$Matrix33@M@Imath@@@Imf@@SAPAVAttribute@2@XZ 10020030 f i ImfHeader.obj
 0001:0001f0c0       ?makeNewAttribute@?$TypedAttribute@V?$Matrix44@M@Imath@@@Imf@@SAPAVAttribute@2@XZ 100200c0 f i ImfHeader.obj
 0001:0001f150       ??0?$TypedAttribute@VPreviewImage@Imf@@@Imf@@QAE@XZ 10020150 f i ImfHeader.obj
 0001:0001f1c0       ?makeNewAttribute@?$TypedAttribute@VPreviewImage@Imf@@@Imf@@SAPAVAttribute@2@XZ 100201c0 f i ImfHeader.obj
 0001:0001f250       ?makeNewAttribute@?$TypedAttribute@V?$basic_string@DU?$char_traits@D@std@@V?$allocator@D@2@@std@@@Imf@@SAPAVAttribute@2@XZ 10020250 f i ImfHeader.obj
 0001:0001f2e0       ??0?$TypedAttribute@VTileDescription@Imf@@@Imf@@QAE@XZ 100202e0 f i ImfHeader.obj
 0001:0001f350       ?makeNewAttribute@?$TypedAttribute@VTileDescription@Imf@@@Imf@@SAPAVAttribute@2@XZ 10020350 f i ImfHeader.obj
 0001:0001f3e0       ?makeNewAttribute@?$TypedAttribute@VTimeCode@Imf@@@Imf@@SAPAVAttribute@2@XZ 100203e0 f i ImfHeader.obj
 0001:0001f470       ??0?$TypedAttribute@VTimeCode@Imf@@@Imf@@QAE@XZ 10020470 f i ImfHeader.obj
 0001:0001f4e0       ?typeName@?$TypedAttribute@VTimeCode@Imf@@@Imf@@UBEPBDXZ 100204e0 f i ImfHeader.obj
 0001:0001f510       ?copy@?$TypedAttribute@VTimeCode@Imf@@@Imf@@UBEPAVAttribute@2@XZ 10020510 f i ImfHeader.obj
 0001:0001f5c0       ?copyValueFrom@?$TypedAttribute@VTimeCode@Imf@@@Imf@@UAEXABVAttribute@2@@Z 100205c0 f i ImfHeader.obj
 0001:0001f600       ??_E?$TypedAttribute@VTimeCode@Imf@@@Imf@@UAEPAXI@Z 10020600 f i ImfHeader.obj
 0001:0001f600       ??_G?$TypedAttribute@VTimeCode@Imf@@@Imf@@UAEPAXI@Z 10020600 f i ImfHeader.obj
 0001:0001f640       ??1?$TypedAttribute@VTimeCode@Imf@@@Imf@@UAE@XZ 10020640 f i ImfHeader.obj
 0001:0001f670       ?makeNewAttribute@?$TypedAttribute@V?$Vec2@H@Imath@@@Imf@@SAPAVAttribute@2@XZ 10020670 f i ImfHeader.obj
 0001:0001f700       ?makeNewAttribute@?$TypedAttribute@V?$Vec2@M@Imath@@@Imf@@SAPAVAttribute@2@XZ 10020700 f i ImfHeader.obj
 0001:0001f790       ?makeNewAttribute@?$TypedAttribute@V?$Vec3@H@Imath@@@Imf@@SAPAVAttribute@2@XZ 10020790 f i ImfHeader.obj
 0001:0001f820       ?makeNewAttribute@?$TypedAttribute@V?$Vec3@M@Imath@@@Imf@@SAPAVAttribute@2@XZ 10020820 f i ImfHeader.obj
 0001:0001f8b0       ?cast@?$TypedAttribute@VChannelList@Imf@@@Imf@@SAPBV12@PBVAttribute@2@@Z 100208b0 f i ImfHeader.obj
 0001:0001f920       ?cast@?$TypedAttribute@UChromaticities@Imf@@@Imf@@SAPBV12@PBVAttribute@2@@Z 10020920 f i ImfHeader.obj
 0001:0001f990       ?cast@?$TypedAttribute@W4Compression@Imf@@@Imf@@SAPBV12@PBVAttribute@2@@Z 10020990 f i ImfHeader.obj
 0001:0001fa00       ?cast@?$TypedAttribute@W4Envmap@Imf@@@Imf@@SAPBV12@PBVAttribute@2@@Z 10020a00 f i ImfHeader.obj
 0001:0001fa70       ?cast@?$TypedAttribute@VKeyCode@Imf@@@Imf@@SAPBV12@PBVAttribute@2@@Z 10020a70 f i ImfHeader.obj
 0001:0001fae0       ?cast@?$TypedAttribute@W4LineOrder@Imf@@@Imf@@SAPBV12@PBVAttribute@2@@Z 10020ae0 f i ImfHeader.obj
 0001:0001fb50       ?cast@?$TypedAttribute@VPreviewImage@Imf@@@Imf@@SAPBV12@PBVAttribute@2@@Z 10020b50 f i ImfHeader.obj
 0001:0001fbc0       ?cast@?$TypedAttribute@VTileDescription@Imf@@@Imf@@SAPBV12@PBVAttribute@2@@Z 10020bc0 f i ImfHeader.obj
 0001:0001fc30       ?cast@?$TypedAttribute@VTimeCode@Imf@@@Imf@@SAPBV12@PBVAttribute@2@@Z 10020c30 f i ImfHeader.obj
 0001:0001fca0       ?invalidNBits@?A0x15928e88@Imf@@YAXXZ 10020ca0 f   ImfHuf.obj
 0001:0001fcf0       ?tooMuchData@?A0x15928e88@Imf@@YAXXZ 10020cf0 f   ImfHuf.obj
 0001:0001fd40       ?notEnoughData@?A0x15928e88@Imf@@YAXXZ 10020d40 f   ImfHuf.obj
 0001:0001fd90       ?invalidCode@?A0x15928e88@Imf@@YAXXZ 10020d90 f   ImfHuf.obj
 0001:0001fde0       ?invalidTableSize@?A0x15928e88@Imf@@YAXXZ 10020de0 f   ImfHuf.obj
 0001:0001fe30       ?unexpectedEndOfTable@?A0x15928e88@Imf@@YAXXZ 10020e30 f   ImfHuf.obj
 0001:0001fe80       ?tableTooLong@?A0x15928e88@Imf@@YAXXZ 10020e80 f   ImfHuf.obj
 0001:0001fed0       ?invalidTableEntry@?A0x15928e88@Imf@@YAXXZ 10020ed0 f   ImfHuf.obj
 0001:0001ff20       ?hufCanonicalCodeTable@?A0x15928e88@Imf@@YAXQA_K@Z 10020f20 f   ImfHuf.obj
 0001:000201a0       ?hufBuildEncTable@?A0x15928e88@Imf@@YAXPA_KPAH1@Z 100211a0 f   ImfHuf.obj
 0001:00020830       ?hufPackEncTable@?A0x15928e88@Imf@@YAXPB_KHHPAPAD@Z 10021830 f   ImfHuf.obj
 0001:00020ac0       ?hufUnpackEncTable@?A0x15928e88@Imf@@YAXPAPBDHHHPA_K@Z 10021ac0 f   ImfHuf.obj
 0001:00020d40       ?hufBuildDecTable@?A0x15928e88@Imf@@YAXPB_KHHPAUHufDec@12@@Z 10021d40 f   ImfHuf.obj
 0001:00020fe0       ?hufFreeDecTable@?A0x15928e88@Imf@@YAXPAUHufDec@12@@Z 10021fe0 f   ImfHuf.obj
 0001:00021060       ?hufEncode@?A0x15928e88@Imf@@YAHPB_KPBGHHPAD@Z 10022060 f   ImfHuf.obj
 0001:000211b0       ?hufDecode@?A0x15928e88@Imf@@YAXPB_KPBUHufDec@12@PBDHHHPAG@Z 100221b0 f   ImfHuf.obj
 0001:00021790       ?countFrequencies@?A0x15928e88@Imf@@YAXQA_KQBGH@Z 10022790 f   ImfHuf.obj
 0001:00021830       ?writeUInt@?A0x15928e88@Imf@@YAXQADI@Z 10022830 f   ImfHuf.obj
 0001:00021880       ?readUInt@?A0x15928e88@Imf@@YAIQBD@Z 10022880 f   ImfHuf.obj
 0001:000218e0       ?hufCompress@Imf@@YAHQBGHQAD@Z 100228e0 f   ImfHuf.obj
 0001:00021ad0       ?hufUncompress@Imf@@YAXQBDHQAGH@Z 10022ad0 f   ImfHuf.obj
 0001:00021d00       ?sendCode@?A0x15928e88@Imf@@YAX_KH0AA_KAAHAAPAD@Z 10022d00 f i ImfHuf.obj
 0001:00021f90       ??1?$AutoArray@H$0BAAAB@@Imf@@QAE@XZ 10022f90 f i ImfHuf.obj
 0001:00021fd0       ??1?$AutoArray@PA_K$0BAAAB@@Imf@@QAE@XZ 10022fd0 f i ImfHuf.obj
 0001:00022010       ??1?$AutoArray@_K$0BAAAB@@Imf@@QAE@XZ 10023010 f i ImfHuf.obj
 0001:00022050       ??1?$AutoArray@UHufDec@?A0x15928e88@Imf@@$0EAAA@@Imf@@QAE@XZ 10023050 f i ImfHuf.obj
 0001:00022090       ??$_Make_heap@PAPA_KHPA_KUFHeapCompare@?A0x15928e88@Imf@@@std@@YAXPAPA_K0UFHeapCompare@?A0x15928e88@Imf@@PAH0@Z 10023090 f i ImfHuf.obj
 0001:00022110       ??$_Adjust_heap@PAPA_KHPA_KUFHeapCompare@?A0x15928e88@Imf@@@std@@YAXPAPA_KHHPA_KUFHeapCompare@?A0x15928e88@Imf@@@Z 10023110 f i ImfHuf.obj
 0001:000222a0       ??$_Pop_heap@PAPA_KHPA_KUFHeapCompare@?A0x15928e88@Imf@@@std@@YAXPAPA_K00PA_KUFHeapCompare@?A0x15928e88@Imf@@PAH@Z 100232a0 f i ImfHuf.obj
 0001:00022300       ??$_Push_heap@PAPA_KHPA_KUFHeapCompare@?A0x15928e88@Imf@@@std@@YAXPAPA_KHHPA_KUFHeapCompare@?A0x15928e88@Imf@@@Z 10023300 f i ImfHuf.obj
 0001:000223c0       ??0Data@InputFile@Imf@@QAE@_NH@Z 100233c0 f   ImfInputFile.obj
 0001:000224d0       ??1Data@InputFile@Imf@@UAE@XZ 100234d0 f   ImfInputFile.obj
 0001:00022620       ?deleteCachedBuffer@Data@InputFile@Imf@@QAEXXZ 10023620 f   ImfInputFile.obj
 0001:000227e0       ?bufferedReadPixels@?A0xc635d1bd@Imf@@YAXPAUData@InputFile@2@HH@Z 100237e0 f   ImfInputFile.obj
 0001:00022d60       ??0InputFile@Imf@@QAE@QBDH@Z 10023d60 f   ImfInputFile.obj
 0001:00023030       ??0InputFile@Imf@@QAE@AAVIStream@1@H@Z 10024030 f   ImfInputFile.obj
 0001:00023290       ?initialize@InputFile@Imf@@AAEXXZ 10024290 f   ImfInputFile.obj
 0001:00023470       ??1InputFile@Imf@@UAE@XZ   10024470 f   ImfInputFile.obj
 0001:000234e0       ?fileName@InputFile@Imf@@QBEPBDXZ 100244e0 f   ImfInputFile.obj
 0001:00023510       ?header@InputFile@Imf@@QBEABVHeader@2@XZ 10024510 f   ImfInputFile.obj
 0001:00023530       ?version@InputFile@Imf@@QBEHXZ 10024530 f   ImfInputFile.obj
 0001:00023550       ?setFrameBuffer@InputFile@Imf@@QAEXABVFrameBuffer@2@@Z 10024550 f   ImfInputFile.obj
 0001:00023c90       ?frameBuffer@InputFile@Imf@@QBEABVFrameBuffer@2@XZ 10024c90 f   ImfInputFile.obj
 0001:00023d70       ?isComplete@InputFile@Imf@@QBE_NXZ 10024d70 f   ImfInputFile.obj
 0001:00023dd0       ?readPixels@InputFile@Imf@@QAEXHH@Z 10024dd0 f   ImfInputFile.obj
 0001:00023ee0       ?readPixels@InputFile@Imf@@QAEXH@Z 10024ee0 f   ImfInputFile.obj
 0001:00023f10       ?rawPixelData@InputFile@Imf@@QAEXHAAPBDAAH@Z 10024f10 f   ImfInputFile.obj
 0001:00024100       ?rawTileData@InputFile@Imf@@QAEXAAH000AAPBD0@Z 10025100 f   ImfInputFile.obj
 0001:00024300       ?tFile@InputFile@Imf@@AAEPAVTiledInputFile@2@XZ 10025300 f   ImfInputFile.obj
 0001:00024380       ??_GData@InputFile@Imf@@UAEPAXI@Z 10025380 f i ImfInputFile.obj
 0001:00024380       ??_EData@InputFile@Imf@@UAEPAXI@Z 10025380 f i ImfInputFile.obj
 0001:000243c0       ??1FrameBuffer@Imf@@QAE@XZ 100253c0 f i ImfInputFile.obj
 0001:00024400       ?slice@Iterator@FrameBuffer@Imf@@QBEAAUSlice@3@XZ 10025400 f i ImfInputFile.obj
 0001:00024460       ?name@ConstIterator@FrameBuffer@Imf@@QBEPBDXZ 10025460 f i ImfInputFile.obj
 0001:000244d0       ?slice@ConstIterator@FrameBuffer@Imf@@QBEABUSlice@3@XZ 100254d0 f i ImfInputFile.obj
 0001:00024530       ?divp@Imath@@YAHHH@Z       10025530 f i ImfInputFile.obj
 0001:000245c0       ??_EInputFile@Imf@@UAEPAXI@Z 100255c0 f i ImfInputFile.obj
 0001:000245c0       ??_GInputFile@Imf@@UAEPAXI@Z 100255c0 f i ImfInputFile.obj
 0001:00024600       ??0?$map@VName@Imf@@USlice@2@U?$less@VName@Imf@@@std@@V?$allocator@U?$pair@$$CBVName@Imf@@USlice@2@@std@@@5@@std@@QAE@XZ 10025600 f i ImfInputFile.obj
 0001:00024650       ??4?$_Tree@V?$_Tmap_traits@VName@Imf@@USlice@2@U?$less@VName@Imf@@@std@@V?$allocator@U?$pair@$$CBVName@Imf@@USlice@2@@std@@@5@$0A@@std@@@std@@QAEAAV01@ABV01@@Z 10025650 f i ImfInputFile.obj
 0001:00024720       ?erase@?$_Tree@V?$_Tmap_traits@VName@Imf@@USlice@2@U?$less@VName@Imf@@@std@@V?$allocator@U?$pair@$$CBVName@Imf@@USlice@2@@std@@@5@$0A@@std@@@std@@QAE?AViterator@12@V312@0@Z 10025720 f i ImfInputFile.obj
 0001:00024920       ?_Copy@?$_Tree@V?$_Tmap_traits@VName@Imf@@USlice@2@U?$less@VName@Imf@@@std@@V?$allocator@U?$pair@$$CBVName@Imf@@USlice@2@@std@@@5@$0A@@std@@@std@@IAEXABV12@@Z 10025920 f i ImfInputFile.obj
 0001:00024a50       ?_Tidy@?$_Tree@V?$_Tmap_traits@VName@Imf@@USlice@2@U?$less@VName@Imf@@@std@@V?$allocator@U?$pair@$$CBVName@Imf@@USlice@2@@std@@@5@$0A@@std@@@std@@IAEXXZ 10025a50 f i ImfInputFile.obj
 0001:00024b40       ??Dconst_iterator@?$_Tree@V?$_Tmap_traits@VName@Imf@@USlice@2@U?$less@VName@Imf@@@std@@V?$allocator@U?$pair@$$CBVName@Imf@@USlice@2@@std@@@5@$0A@@std@@@std@@QBEABU?$pair@$$CBVName@Imf@@USlice@2@@2@XZ 10025b40 f i ImfInputFile.obj
 0001:00024ba0       ?erase@?$_Tree@V?$_Tmap_traits@VName@Imf@@USlice@2@U?$less@VName@Imf@@@std@@V?$allocator@U?$pair@$$CBVName@Imf@@USlice@2@@std@@@5@$0A@@std@@@std@@QAE?AViterator@12@V312@@Z 10025ba0 f i ImfInputFile.obj
 0001:00025120       ?clear@?$_Tree@V?$_Tmap_traits@VName@Imf@@USlice@2@U?$less@VName@Imf@@@std@@V?$allocator@U?$pair@$$CBVName@Imf@@USlice@2@@std@@@5@$0A@@std@@@std@@QAEXXZ 10026120 f i ImfInputFile.obj
 0001:000251a0       ?_Copy@?$_Tree@V?$_Tmap_traits@VName@Imf@@USlice@2@U?$less@VName@Imf@@@std@@V?$allocator@U?$pair@$$CBVName@Imf@@USlice@2@@std@@@5@$0A@@std@@@std@@IAEPAU_Node@?$_Tree_nod@V?$_Tmap_traits@VName@Imf@@USlice@2@U?$less@VName@Imf@@@std@@V?$allocator@U?$pair@$$CBVName@Imf@@USlice@2@@std@@@5@$0A@@std@@@2@PAU342@0@Z 100261a0 f i ImfInputFile.obj
 0001:000252c0       ?_Init@?$_Tree@V?$_Tmap_traits@VName@Imf@@USlice@2@U?$less@VName@Imf@@@std@@V?$allocator@U?$pair@$$CBVName@Imf@@USlice@2@@std@@@5@$0A@@std@@@std@@IAEXXZ 100262c0 f i ImfInputFile.obj
 0001:00025340       ?_Erase@?$_Tree@V?$_Tmap_traits@VName@Imf@@USlice@2@U?$less@VName@Imf@@@std@@V?$allocator@U?$pair@$$CBVName@Imf@@USlice@2@@std@@@5@$0A@@std@@@std@@IAEXPAU_Node@?$_Tree_nod@V?$_Tmap_traits@VName@Imf@@USlice@2@U?$less@VName@Imf@@@std@@V?$allocator@U?$pair@$$CBVName@Imf@@USlice@2@@std@@@5@$0A@@std@@@2@@Z 10026340 f i ImfInputFile.obj
 0001:000253b0       ?_Buynode@?$_Tree@V?$_Tmap_traits@VName@Imf@@USlice@2@U?$less@VName@Imf@@@std@@V?$allocator@U?$pair@$$CBVName@Imf@@USlice@2@@std@@@5@$0A@@std@@@std@@IAEPAU_Node@?$_Tree_nod@V?$_Tmap_traits@VName@Imf@@USlice@2@U?$less@VName@Imf@@@std@@V?$allocator@U?$pair@$$CBVName@Imf@@USlice@2@@std@@@5@$0A@@std@@@2@XZ 100263b0 f i ImfInputFile.obj
 0001:00025500       ?allocate@?$allocator@U_Node@?$_Tree_nod@V?$_Tmap_traits@VName@Imf@@USlice@2@U?$less@VName@Imf@@@std@@V?$allocator@U?$pair@$$CBVName@Imf@@USlice@2@@std@@@5@$0A@@std@@@std@@@std@@QAEPAU_Node@?$_Tree_nod@V?$_Tmap_traits@VName@Imf@@USlice@2@U?$less@VName@Imf@@@std@@V?$allocator@U?$pair@$$CBVName@Imf@@USlice@2@@std@@@5@$0A@@std@@@2@I@Z 10026500 f i ImfInputFile.obj
 0001:00025540       ?staticTypeName@?$TypedAttribute@H@Imf@@SAPBDXZ 10026540 f   ImfIntAttribute.obj
 0001:00025550       ??0IStream@Imf@@IAE@QBD@Z  10026550 f   ImfIO.obj
 0001:000255a0       ??1IStream@Imf@@UAE@XZ     100265a0 f   ImfIO.obj
 0001:000255e0       ?isMemoryMapped@IStream@Imf@@UBE_NXZ 100265e0 f   ImfIO.obj
 0001:00025600       ?readMemoryMapped@IStream@Imf@@UAEPADH@Z 10026600 f   ImfIO.obj
 0001:00025650       ?clear@IStream@Imf@@UAEXXZ 10026650 f   ImfIO.obj
 0001:00025670       ?fileName@IStream@Imf@@QBEPBDXZ 10026670 f   ImfIO.obj
 0001:000256b0       ??0OStream@Imf@@IAE@QBD@Z  100266b0 f   ImfIO.obj
 0001:00025700       ??1OStream@Imf@@UAE@XZ     10026700 f   ImfIO.obj
 0001:00025740       ?fileName@OStream@Imf@@QBEPBDXZ 10026740 f   ImfIO.obj
 0001:00025780       ??_GIStream@Imf@@UAEPAXI@Z 10026780 f i ImfIO.obj
 0001:00025780       ??_EIStream@Imf@@UAEPAXI@Z 10026780 f i ImfIO.obj
 0001:000257c0       ??_GOStream@Imf@@UAEPAXI@Z 100267c0 f i ImfIO.obj
 0001:000257c0       ??_EOStream@Imf@@UAEPAXI@Z 100267c0 f i ImfIO.obj
 0001:00025800       ??0ArgExc@Iex@@QAE@PBD@Z   10026800 f i ImfKeyCode.obj
 0001:00025820       ??0KeyCode@Imf@@QAE@ABV01@@Z 10026820 f   ImfKeyCode.obj
 0001:00025860       ??4KeyCode@Imf@@QAEAAV01@ABV01@@Z 10026860 f   ImfKeyCode.obj
 0001:000258a0       ?filmMfcCode@KeyCode@Imf@@QBEHXZ 100268a0 f   ImfKeyCode.obj
 0001:000258b0       ?setFilmMfcCode@KeyCode@Imf@@QAEXH@Z 100268b0 f   ImfKeyCode.obj
 0001:000258f0       ?filmType@KeyCode@Imf@@QBEHXZ 100268f0 f   ImfKeyCode.obj
 0001:00025900       ?setFilmType@KeyCode@Imf@@QAEXH@Z 10026900 f   ImfKeyCode.obj
 0001:00025940       ?prefix@KeyCode@Imf@@QBEHXZ 10026940 f   ImfKeyCode.obj
 0001:00025950       ?setPrefix@KeyCode@Imf@@QAEXH@Z 10026950 f   ImfKeyCode.obj
 0001:00025990       ?count@KeyCode@Imf@@QBEHXZ 10026990 f   ImfKeyCode.obj
 0001:000259a0       ?setCount@KeyCode@Imf@@QAEXH@Z 100269a0 f   ImfKeyCode.obj
 0001:000259e0       ?perfOffset@KeyCode@Imf@@QBEHXZ 100269e0 f   ImfKeyCode.obj
 0001:000259f0       ?setPerfOffset@KeyCode@Imf@@QAEXH@Z 100269f0 f   ImfKeyCode.obj
 0001:00025a30       ?perfsPerFrame@KeyCode@Imf@@QBEHXZ 10026a30 f   ImfKeyCode.obj
 0001:00025a40       ?setPerfsPerFrame@KeyCode@Imf@@QAEXH@Z 10026a40 f   ImfKeyCode.obj
 0001:00025a80       ?perfsPerCount@KeyCode@Imf@@QBEHXZ 10026a80 f   ImfKeyCode.obj
 0001:00025a90       ?setPerfsPerCount@KeyCode@Imf@@QAEXH@Z 10026a90 f   ImfKeyCode.obj
 0001:00025ad0       ??0KeyCode@Imf@@QAE@HHHHHHH@Z 10026ad0 f   ImfKeyCode.obj
 0001:00025c50       ?staticTypeName@?$TypedAttribute@VKeyCode@Imf@@@Imf@@SAPBDXZ 10026c50 f   ImfKeyCodeAttribute.obj
 0001:00025c60       ?writeValueTo@?$TypedAttribute@VKeyCode@Imf@@@Imf@@UBEXAAVOStream@2@H@Z 10026c60 f   ImfKeyCodeAttribute.obj
 0001:00025de0       ?readValueFrom@?$TypedAttribute@VKeyCode@Imf@@@Imf@@UAEXAAVIStream@2@HH@Z 10026de0 f   ImfKeyCodeAttribute.obj
 0001:00025f90       ??$writeSignedChars@UStreamIO@Imf@@VOStream@2@@Xdr@Imf@@YAXAAVOStream@1@QBCH@Z 10026f90 f i ImfKeyCodeAttribute.obj
 0001:00025fb0       ??$readSignedChars@UStreamIO@Imf@@VIStream@2@@Xdr@Imf@@YAXAAVIStream@1@QACH@Z 10026fb0 f i ImfKeyCodeAttribute.obj
 0001:00025fd0       ?staticTypeName@?$TypedAttribute@W4LineOrder@Imf@@@Imf@@SAPBDXZ 10026fd0 f   ImfLineOrderAttribute.obj
 0001:00025fe0       ?writeValueTo@?$TypedAttribute@W4LineOrder@Imf@@@Imf@@UBEXAAVOStream@2@H@Z 10026fe0 f   ImfLineOrderAttribute.obj
 0001:00026040       ?readValueFrom@?$TypedAttribute@W4LineOrder@Imf@@@Imf@@UAEXAAVIStream@2@HH@Z 10027040 f   ImfLineOrderAttribute.obj
 0001:000260c0       ?apply@HalfLut@Imf@@QBEXPAVhalf@@HH@Z 100270c0 f   ImfLut.obj
 0001:00026130       ?apply@HalfLut@Imf@@QBEXABUSlice@2@ABV?$Box@V?$Vec2@H@Imath@@@Imath@@@Z 10027130 f   ImfLut.obj
 0001:00026230       ?apply@RgbaLut@Imf@@QBEXPAURgba@2@HH@Z 10027230 f   ImfLut.obj
 0001:00026380       ?apply@RgbaLut@Imf@@QBEXPAURgba@2@HHABV?$Box@V?$Vec2@H@Imath@@@Imath@@@Z 10027380 f   ImfLut.obj
 0001:00026530       ?round12log@Imf@@YA?AVhalf@@V2@@Z 10027530 f   ImfLut.obj
 0001:00026650       ?staticTypeName@?$TypedAttribute@V?$Matrix33@M@Imath@@@Imf@@SAPBDXZ 10027650 f   ImfMatrixAttribute.obj
 0001:00026660       ?writeValueTo@?$TypedAttribute@V?$Matrix33@M@Imath@@@Imf@@UBEXAAVOStream@2@H@Z 10027660 f   ImfMatrixAttribute.obj
 0001:00026790       ?readValueFrom@?$TypedAttribute@V?$Matrix33@M@Imath@@@Imf@@UAEXAAVIStream@2@HH@Z 10027790 f   ImfMatrixAttribute.obj
 0001:000268b0       ?staticTypeName@?$TypedAttribute@V?$Matrix44@M@Imath@@@Imf@@SAPBDXZ 100278b0 f   ImfMatrixAttribute.obj
 0001:000268c0       ?writeValueTo@?$TypedAttribute@V?$Matrix44@M@Imath@@@Imf@@UBEXAAVOStream@2@H@Z 100278c0 f   ImfMatrixAttribute.obj
 0001:00026ad0       ?readValueFrom@?$TypedAttribute@V?$Matrix44@M@Imath@@@Imf@@UAEXAAVIStream@2@HH@Z 10027ad0 f   ImfMatrixAttribute.obj
 0001:00026cb0       ?pixelTypeSize@Imf@@YAHW4PixelType@1@@Z 10027cb0 f   ImfMisc.obj
 0001:00026d30       ?bytesPerLineTable@Imf@@YAIABVHeader@1@AAV?$vector@IV?$allocator@I@std@@@std@@@Z 10027d30 f   ImfMisc.obj
 0001:00026ff0       ?offsetInLineBufferTable@Imf@@YAXABV?$vector@IV?$allocator@I@std@@@std@@HAAV23@@Z 10027ff0 f   ImfMisc.obj
 0001:00027140       ?lineBufferMinY@Imf@@YAHHHH@Z 10028140 f   ImfMisc.obj
 0001:00027160       ?lineBufferMaxY@Imf@@YAHHHH@Z 10028160 f   ImfMisc.obj
 0001:00027190       ?defaultFormat@Imf@@YA?AW4Format@Compressor@1@PAV31@@Z 10028190 f   ImfMisc.obj
 0001:000271e0       ?numLinesInBuffer@Imf@@YAHPAVCompressor@1@@Z 100281e0 f   ImfMisc.obj
 0001:00027230       ?copyIntoFrameBuffer@Imf@@YAXAAPBDPAD1I_NNW4Format@Compressor@1@W4PixelType@1@4@Z 10028230 f   ImfMisc.obj
 0001:00027bc0       ?skipChannel@Imf@@YAXAAPBDW4PixelType@1@I@Z 10028bc0 f   ImfMisc.obj
 0001:00027c70       ?convertInPlace@Imf@@YAXAAPADAAPBDW4PixelType@1@I@Z 10028c70 f   ImfMisc.obj
 0001:00027da0       ?copyFromFrameBuffer@Imf@@YAXAAPADAAPBDPBDIW4Format@Compressor@1@W4PixelType@1@@Z 10028da0 f   ImfMisc.obj
 0001:00028020       ?fillChannelWithZeroes@Imf@@YAXAAPADW4Format@Compressor@1@W4PixelType@1@I@Z 10029020 f   ImfMisc.obj
 0001:000282b0       ?resize@?$vector@IV?$allocator@I@std@@@std@@QAEXII@Z 100292b0 f i ImfMisc.obj
 0001:000284d0       ?erase@?$vector@IV?$allocator@I@std@@@std@@QAE?AV?$_Vector_iterator@IV?$allocator@I@std@@@2@V32@0@Z 100294d0 f i ImfMisc.obj
 0001:000285c0       ?_Insert_n@?$vector@IV?$allocator@I@std@@@std@@IAEXV?$_Vector_iterator@IV?$allocator@I@std@@@2@IABI@Z 100295c0 f i ImfMisc.obj
 0001:00028e10       ?_Ufill@?$vector@IV?$allocator@I@std@@@std@@IAEPAIPAIIABI@Z 10029e10 f i ImfMisc.obj
 0001:00028eb0       ?_Xlen@?$vector@IV?$allocator@I@std@@@std@@KAXXZ 10029eb0 f i ImfMisc.obj
 0001:00028f80       ??Y?$_Vector_const_iterator@IV?$allocator@I@std@@@std@@QAEAAV01@H@Z 10029f80 f i ImfMisc.obj
 0001:00029010       ??$read@UCharPtrIO@Imf@@PBD@Xdr@Imf@@YAXAAPBDAAVhalf@@@Z 1002a010 f i ImfMisc.obj
 0001:000290d0       ??$read@UCharPtrIO@Imf@@PBD@Xdr@Imf@@YAXAAPBDAAM@Z 1002a0d0 f i ImfMisc.obj
 0001:000291b0       ??$read@UCharPtrIO@Imf@@PBD@Xdr@Imf@@YAXAAPBDAAI@Z 1002a1b0 f i ImfMisc.obj
 0001:00029280       ??$skip@UCharPtrIO@Imf@@PBD@Xdr@Imf@@YAXAAPBDH@Z 1002a280 f i ImfMisc.obj
 0001:000293d0       ??$write@UCharPtrIO@Imf@@PAD@Xdr@Imf@@YAXAAPADVhalf@@@Z 1002a3d0 f i ImfMisc.obj
 0001:00029470       ??$write@UCharPtrIO@Imf@@PAD@Xdr@Imf@@YAXAAPADM@Z 1002a470 f i ImfMisc.obj
 0001:00029540       ??$write@UCharPtrIO@Imf@@PAD@Xdr@Imf@@YAXAAPADI@Z 1002a540 f i ImfMisc.obj
 0001:00029600       ??$unchecked_copy@PAIPAI@stdext@@YAPAIPAI00@Z 1002a600 f i ImfMisc.obj
 0001:00029710       ??$_Unchecked_move_backward@PAIPAI@stdext@@YAPAIPAI00@Z 1002a710 f i ImfMisc.obj
 0001:00029850       ??$_Allocate@I@std@@YAPAIIPAI@Z 1002a850 f i ImfMisc.obj
 0001:000298e0       ??$_Unchecked_uninitialized_move@PAIPAIV?$allocator@I@std@@@stdext@@YAPAIPAI00AAV?$allocator@I@std@@@Z 1002a8e0 f i ImfMisc.obj
 0001:000299a0       ??$unchecked_fill_n@PAIII@stdext@@YAXPAIIABI@Z 1002a9a0 f i ImfMisc.obj
 0001:00029a60       ??$unchecked_uninitialized_copy@PAIPAIV?$allocator@I@std@@@stdext@@YAPAIPAI00AAV?$allocator@I@std@@@Z 1002aa60 f i ImfMisc.obj
 0001:00029b50       ??0OpaqueAttribute@Imf@@QAE@QBD@Z 1002ab50 f   ImfOpaqueAttribute.obj
 0001:00029c70       ??0OpaqueAttribute@Imf@@QAE@ABV01@@Z 1002ac70 f   ImfOpaqueAttribute.obj
 0001:00029e30       ??1OpaqueAttribute@Imf@@UAE@XZ 1002ae30 f   ImfOpaqueAttribute.obj
 0001:00029ea0       ?typeName@OpaqueAttribute@Imf@@UBEPBDXZ 1002aea0 f   ImfOpaqueAttribute.obj
 0001:00029ed0       ?copy@OpaqueAttribute@Imf@@UBEPAVAttribute@2@XZ 1002aed0 f   ImfOpaqueAttribute.obj
 0001:00029f60       ?writeValueTo@OpaqueAttribute@Imf@@UBEXAAVOStream@2@H@Z 1002af60 f   ImfOpaqueAttribute.obj
 0001:00029fc0       ?readValueFrom@OpaqueAttribute@Imf@@UAEXAAVIStream@2@HH@Z 1002afc0 f   ImfOpaqueAttribute.obj
 0001:0002a060       ?copyValueFrom@OpaqueAttribute@Imf@@UAEXABVAttribute@2@@Z 1002b060 f   ImfOpaqueAttribute.obj
 0001:0002a360       ??_EOpaqueAttribute@Imf@@UAEPAXI@Z 1002b360 f i ImfOpaqueAttribute.obj
 0001:0002a360       ??_GOpaqueAttribute@Imf@@UAEPAXI@Z 1002b360 f i ImfOpaqueAttribute.obj
 0001:0002a3a0       ??1?$Array@D@Imf@@QAE@XZ   1002b3a0 f i ImfOpaqueAttribute.obj
 0001:0002a3e0       ??0OutSliceInfo@?A0xae07d9b6@Imf@@QAE@W4PixelType@2@PBDIIHH_N@Z 1002b3e0 f   ImfOutputFile.obj
 0001:0002a440       ??0LineBuffer@?A0xae07d9b6@Imf@@QAE@PAVCompressor@2@@Z 1002b440 f   ImfOutputFile.obj
 0001:0002a4f0       ??1LineBuffer@?A0xae07d9b6@Imf@@QAE@XZ 1002b4f0 f   ImfOutputFile.obj
 0001:0002a5c0       ??0Data@OutputFile@Imf@@QAE@_NH@Z 1002b5c0 f   ImfOutputFile.obj
 0001:0002a7a0       ??1Data@OutputFile@Imf@@UAE@XZ 1002b7a0 f   ImfOutputFile.obj
 0001:0002a9e0       ?writeLineOffsets@?A0xae07d9b6@Imf@@YA_KAAVOStream@2@ABV?$vector@_KV?$allocator@_K@std@@@std@@@Z 1002b9e0 f   ImfOutputFile.obj
 0001:0002ab40       ?writePixelData@?A0xae07d9b6@Imf@@YAXPAUData@OutputFile@2@HQBDH@Z 1002bb40 f   ImfOutputFile.obj
 0001:0002acc0       ?convertToXdr@?A0xae07d9b6@Imf@@YAXPAUData@OutputFile@2@AAV?$Array@D@2@HHH@Z 1002bcc0 f   ImfOutputFile.obj
 0001:0002af90       ??0LineBufferTask@?A0xae07d9b6@Imf@@QAE@PAVTaskGroup@IlmThread@@PAUData@OutputFile@2@HHH@Z 1002bf90 f   ImfOutputFile.obj
 0001:0002b160       ??1LineBufferTask@?A0xae07d9b6@Imf@@UAE@XZ 1002c160 f   ImfOutputFile.obj
 0001:0002b1e0       ?execute@LineBufferTask@?A0xae07d9b6@Imf@@UAEXXZ 1002c1e0 f   ImfOutputFile.obj
 0001:0002b760       ??0OutputFile@Imf@@QAE@QBDABVHeader@1@H@Z 1002c760 f   ImfOutputFile.obj
 0001:0002ba40       ??0OutputFile@Imf@@QAE@AAVOStream@1@ABVHeader@1@H@Z 1002ca40 f   ImfOutputFile.obj
 0001:0002bcc0       ?initialize@OutputFile@Imf@@AAEXABVHeader@2@@Z 1002ccc0 f   ImfOutputFile.obj
 0001:0002c1e0       ??1OutputFile@Imf@@UAE@XZ  1002d1e0 f   ImfOutputFile.obj
 0001:0002c320       ?fileName@OutputFile@Imf@@QBEPBDXZ 1002d320 f   ImfOutputFile.obj
 0001:0002c350       ?header@OutputFile@Imf@@QBEABVHeader@2@XZ 1002d350 f   ImfOutputFile.obj
 0001:0002c370       ?setFrameBuffer@OutputFile@Imf@@QAEXABVFrameBuffer@2@@Z 1002d370 f   ImfOutputFile.obj
 0001:0002ca10       ?frameBuffer@OutputFile@Imf@@QBEABVFrameBuffer@2@XZ 1002da10 f   ImfOutputFile.obj
 0001:0002cac0       ?writePixels@OutputFile@Imf@@QAEXH@Z 1002dac0 f   ImfOutputFile.obj
 0001:0002d4a0       ?currentScanLine@OutputFile@Imf@@QBEHXZ 1002e4a0 f   ImfOutputFile.obj
 0001:0002d550       ?copyPixels@OutputFile@Imf@@QAEXAAVInputFile@2@@Z 1002e550 f   ImfOutputFile.obj
 0001:0002de10       ?updatePreviewImage@OutputFile@Imf@@QAEXQBUPreviewRgba@2@@Z 1002ee10 f   ImfOutputFile.obj
 0001:0002e280       ?breakScanLine@OutputFile@Imf@@QAEXHHHD@Z 1002f280 f   ImfOutputFile.obj
 0001:0002e590       ??_GData@OutputFile@Imf@@UAEPAXI@Z 1002f590 f i ImfOutputFile.obj
 0001:0002e590       ??_EData@OutputFile@Imf@@UAEPAXI@Z 1002f590 f i ImfOutputFile.obj
 0001:0002e5d0       ?getLineBuffer@Data@OutputFile@Imf@@QAEPAULineBuffer@?A0xae07d9b6@3@H@Z 1002f5d0 f i ImfOutputFile.obj
 0001:0002e690       ??_ELineBufferTask@?A0xae07d9b6@Imf@@UAEPAXI@Z 1002f690 f i ImfOutputFile.obj
 0001:0002e690       ??_GLineBufferTask@?A0xae07d9b6@Imf@@UAEPAXI@Z 1002f690 f i ImfOutputFile.obj
 0001:0002e6d0       ??_GOutputFile@Imf@@UAEPAXI@Z 1002f6d0 f i ImfOutputFile.obj
 0001:0002e6d0       ??_EOutputFile@Imf@@UAEPAXI@Z 1002f6d0 f i ImfOutputFile.obj
 0001:0002e710       ??_GIoExc@Iex@@UAEPAXI@Z   1002f710 f i ImfOutputFile.obj
 0001:0002e710       ??_EIoExc@Iex@@UAEPAXI@Z   1002f710 f i ImfOutputFile.obj
 0001:0002e750       ??1IoExc@Iex@@UAE@XZ       1002f750 f i ImfOutputFile.obj
 0001:0002e780       ??0IoExc@Iex@@QAE@ABV01@@Z 1002f780 f i ImfOutputFile.obj
 0001:0002e7c0       ??_GLogicExc@Iex@@UAEPAXI@Z 1002f7c0 f i ImfOutputFile.obj
 0001:0002e7c0       ??_ELogicExc@Iex@@UAEPAXI@Z 1002f7c0 f i ImfOutputFile.obj
 0001:0002e800       ??1LogicExc@Iex@@UAE@XZ    1002f800 f i ImfOutputFile.obj
 0001:0002e830       ??0LogicExc@Iex@@QAE@ABV01@@Z 1002f830 f i ImfOutputFile.obj
 0001:0002e870       ??1?$vector@_KV?$allocator@_K@std@@@std@@QAE@XZ 1002f870 f i ImfOutputFile.obj
 0001:0002e8b0       ??1?$vector@IV?$allocator@I@std@@@std@@QAE@XZ 1002f8b0 f i ImfOutputFile.obj
 0001:0002e8f0       ??1?$vector@UOutSliceInfo@?A0xae07d9b6@Imf@@V?$allocator@UOutSliceInfo@?A0xae07d9b6@Imf@@@std@@@std@@QAE@XZ 1002f8f0 f i ImfOutputFile.obj
 0001:0002e930       ??4?$vector@UOutSliceInfo@?A0xae07d9b6@Imf@@V?$allocator@UOutSliceInfo@?A0xae07d9b6@Imf@@@std@@@std@@QAEAAV01@ABV01@@Z 1002f930 f i ImfOutputFile.obj
 0001:0002ef10       ?push_back@?$vector@UOutSliceInfo@?A0xae07d9b6@Imf@@V?$allocator@UOutSliceInfo@?A0xae07d9b6@Imf@@@std@@@std@@QAEXABUOutSliceInfo@?A0xae07d9b6@Imf@@@Z 1002ff10 f i ImfOutputFile.obj
 0001:0002f070       ??1?$vector@PAULineBuffer@?A0xae07d9b6@Imf@@V?$allocator@PAULineBuffer@?A0xae07d9b6@Imf@@@std@@@std@@QAE@XZ 10030070 f i ImfOutputFile.obj
 0001:0002f0b0       ?resize@?$vector@_KV?$allocator@_K@std@@@std@@QAEXI_K@Z 100300b0 f i ImfOutputFile.obj
 0001:0002f2d0       ?_Buy@?$vector@_KV?$allocator@_K@std@@@std@@IAE_NI@Z 100302d0 f i ImfOutputFile.obj
 0001:0002f390       ?_Tidy@?$vector@_KV?$allocator@_K@std@@@std@@IAEXXZ 10030390 f i ImfOutputFile.obj
 0001:0002f460       ?_Buy@?$vector@IV?$allocator@I@std@@@std@@IAE_NI@Z 10030460 f i ImfOutputFile.obj
 0001:0002f520       ?_Tidy@?$vector@IV?$allocator@I@std@@@std@@IAEXXZ 10030520 f i ImfOutputFile.obj
 0001:0002f5f0       ?insert@?$vector@UOutSliceInfo@?A0xae07d9b6@Imf@@V?$allocator@UOutSliceInfo@?A0xae07d9b6@Imf@@@std@@@std@@QAE?AV?$_Vector_iterator@UOutSliceInfo@?A0xae07d9b6@Imf@@V?$allocator@UOutSliceInfo@?A0xae07d9b6@Imf@@@std@@@2@V32@ABUOutSliceInfo@?A0xae07d9b6@Imf@@@Z 100305f0 f i ImfOutputFile.obj
 0001:0002f790       ?clear@?$vector@UOutSliceInfo@?A0xae07d9b6@Imf@@V?$allocator@UOutSliceInfo@?A0xae07d9b6@Imf@@@std@@@std@@QAEXXZ 10030790 f i ImfOutputFile.obj
 0001:0002f870       ?_Buy@?$vector@UOutSliceInfo@?A0xae07d9b6@Imf@@V?$allocator@UOutSliceInfo@?A0xae07d9b6@Imf@@@std@@@std@@IAE_NI@Z 10030870 f i ImfOutputFile.obj
 0001:0002f930       ?_Tidy@?$vector@UOutSliceInfo@?A0xae07d9b6@Imf@@V?$allocator@UOutSliceInfo@?A0xae07d9b6@Imf@@@std@@@std@@IAEXXZ 10030930 f i ImfOutputFile.obj
 0001:0002fa20       ?resize@?$vector@PAULineBuffer@?A0xae07d9b6@Imf@@V?$allocator@PAULineBuffer@?A0xae07d9b6@Imf@@@std@@@std@@QAEXIPAULineBuffer@?A0xae07d9b6@Imf@@@Z 10030a20 f i ImfOutputFile.obj
 0001:0002fc40       ?_Buy@?$vector@PAULineBuffer@?A0xae07d9b6@Imf@@V?$allocator@PAULineBuffer@?A0xae07d9b6@Imf@@@std@@@std@@IAE_NI@Z 10030c40 f i ImfOutputFile.obj
 0001:0002fd00       ?_Tidy@?$vector@PAULineBuffer@?A0xae07d9b6@Imf@@V?$allocator@PAULineBuffer@?A0xae07d9b6@Imf@@@std@@@std@@IAEXXZ 10030d00 f i ImfOutputFile.obj
 0001:0002fdd0       ?erase@?$vector@_KV?$allocator@_K@std@@@std@@QAE?AV?$_Vector_iterator@_KV?$allocator@_K@std@@@2@V32@0@Z 10030dd0 f i ImfOutputFile.obj
 0001:0002fec0       ?_Insert_n@?$vector@_KV?$allocator@_K@std@@@std@@IAEXV?$_Vector_iterator@_KV?$allocator@_K@std@@@2@IAB_K@Z 10030ec0 f i ImfOutputFile.obj
 0001:00030720       ?_Xlen@?$vector@_KV?$allocator@_K@std@@@std@@KAXXZ 10031720 f i ImfOutputFile.obj
 0001:000307f0       ?erase@?$vector@UOutSliceInfo@?A0xae07d9b6@Imf@@V?$allocator@UOutSliceInfo@?A0xae07d9b6@Imf@@@std@@@std@@QAE?AV?$_Vector_iterator@UOutSliceInfo@?A0xae07d9b6@Imf@@V?$allocator@UOutSliceInfo@?A0xae07d9b6@Imf@@@std@@@2@V32@0@Z 100317f0 f i ImfOutputFile.obj
 0001:000308f0       ?_Insert_n@?$vector@UOutSliceInfo@?A0xae07d9b6@Imf@@V?$allocator@UOutSliceInfo@?A0xae07d9b6@Imf@@@std@@@std@@IAEXV?$_Vector_iterator@UOutSliceInfo@?A0xae07d9b6@Imf@@V?$allocator@UOutSliceInfo@?A0xae07d9b6@Imf@@@std@@@2@IABUOutSliceInfo@?A0xae07d9b6@Imf@@@Z 100318f0 f i ImfOutputFile.obj
 0001:000311d0       ?_Xlen@?$vector@UOutSliceInfo@?A0xae07d9b6@Imf@@V?$allocator@UOutSliceInfo@?A0xae07d9b6@Imf@@@std@@@std@@KAXXZ 100321d0 f i ImfOutputFile.obj
 0001:000312a0       ?erase@?$vector@PAULineBuffer@?A0xae07d9b6@Imf@@V?$allocator@PAULineBuffer@?A0xae07d9b6@Imf@@@std@@@std@@QAE?AV?$_Vector_iterator@PAULineBuffer@?A0xae07d9b6@Imf@@V?$allocator@PAULineBuffer@?A0xae07d9b6@Imf@@@std@@@2@V32@0@Z 100322a0 f i ImfOutputFile.obj
 0001:00031390       ?_Insert_n@?$vector@PAULineBuffer@?A0xae07d9b6@Imf@@V?$allocator@PAULineBuffer@?A0xae07d9b6@Imf@@@std@@@std@@IAEXV?$_Vector_iterator@PAULineBuffer@?A0xae07d9b6@Imf@@V?$allocator@PAULineBuffer@?A0xae07d9b6@Imf@@@std@@@2@IABQAULineBuffer@?A0xae07d9b6@Imf@@@Z 10032390 f i ImfOutputFile.obj
 0001:00031be0       ?_Xlen@?$vector@PAULineBuffer@?A0xae07d9b6@Imf@@V?$allocator@PAULineBuffer@?A0xae07d9b6@Imf@@@std@@@std@@KAXXZ 10032be0 f i ImfOutputFile.obj
 0001:00031cb0       ?_Ufill@?$vector@_KV?$allocator@_K@std@@@std@@IAEPA_KPA_KIAB_K@Z 10032cb0 f i ImfOutputFile.obj
 0001:00031d50       ?_Ufill@?$vector@PAULineBuffer@?A0xae07d9b6@Imf@@V?$allocator@PAULineBuffer@?A0xae07d9b6@Imf@@@std@@@std@@IAEPAPAULineBuffer@?A0xae07d9b6@Imf@@PAPAU345@IABQAU345@@Z 10032d50 f i ImfOutputFile.obj
 0001:00031df0       ??Y?$_Vector_const_iterator@UOutSliceInfo@?A0xae07d9b6@Imf@@V?$allocator@UOutSliceInfo@?A0xae07d9b6@Imf@@@std@@@std@@QAEAAV01@H@Z 10032df0 f i ImfOutputFile.obj
 0001:00031e80       ??Y?$_Vector_const_iterator@_KV?$allocator@_K@std@@@std@@QAEAAV01@H@Z 10032e80 f i ImfOutputFile.obj
 0001:00031f10       ??Y?$_Vector_const_iterator@PAULineBuffer@?A0xae07d9b6@Imf@@V?$allocator@PAULineBuffer@?A0xae07d9b6@Imf@@@std@@@std@@QAEAAV01@H@Z 10032f10 f i ImfOutputFile.obj
 0001:00031fa0       ??8?$Box@V?$Vec2@H@Imath@@@Imath@@QBE_NABV01@@Z 10032fa0 f i ImfOutputFile.obj
 0001:00032050       ??$write@UStreamIO@Imf@@VOStream@2@@Xdr@Imf@@YAXAAVOStream@1@_K@Z 10033050 f i ImfOutputFile.obj
 0001:00032140       ??$unchecked_copy@PAUOutSliceInfo@?A0xae07d9b6@Imf@@PAU123@@stdext@@YAPAUOutSliceInfo@?A0xae07d9b6@Imf@@PAU123@00@Z 10033140 f i ImfOutputFile.obj
 0001:00032270       ??$unchecked_copy@PA_KPA_K@stdext@@YAPA_KPA_K00@Z 10033270 f i ImfOutputFile.obj
 0001:00032380       ??$_Unchecked_move_backward@PA_KPA_K@stdext@@YAPA_KPA_K00@Z 10033380 f i ImfOutputFile.obj
 0001:000324c0       ??$_Allocate@_K@std@@YAPA_KIPA_K@Z 100334c0 f i ImfOutputFile.obj
 0001:00032550       ??$_Unchecked_move_backward@PAUOutSliceInfo@?A0xae07d9b6@Imf@@PAU123@@stdext@@YAPAUOutSliceInfo@?A0xae07d9b6@Imf@@PAU123@00@Z 10033550 f i ImfOutputFile.obj
 0001:00032620       ??$_Allocate@UOutSliceInfo@?A0xae07d9b6@Imf@@@std@@YAPAUOutSliceInfo@?A0xae07d9b6@Imf@@IPAU123@@Z 10033620 f i ImfOutputFile.obj
 0001:000326b0       ??$unchecked_copy@PAPAULineBuffer@?A0xae07d9b6@Imf@@PAPAU123@@stdext@@YAPAPAULineBuffer@?A0xae07d9b6@Imf@@PAPAU123@00@Z 100336b0 f i ImfOutputFile.obj
 0001:000327c0       ??$_Unchecked_move_backward@PAPAULineBuffer@?A0xae07d9b6@Imf@@PAPAU123@@stdext@@YAPAPAULineBuffer@?A0xae07d9b6@Imf@@PAPAU123@00@Z 100337c0 f i ImfOutputFile.obj
 0001:00032900       ??$_Allocate@PAULineBuffer@?A0xae07d9b6@Imf@@@std@@YAPAPAULineBuffer@?A0xae07d9b6@Imf@@IPAPAU123@@Z 10033900 f i ImfOutputFile.obj
 0001:00032990       ??$_Copy_opt@PAUOutSliceInfo@?A0xae07d9b6@Imf@@PAU123@@std@@YAPAUOutSliceInfo@?A0xae07d9b6@Imf@@PAU123@00Urandom_access_iterator_tag@0@U_Nonscalar_ptr_iterator_tag@0@U_Range_checked_iterator_tag@0@@Z 10033990 f i ImfOutputFile.obj
 0001:00032a60       ??$unchecked_uninitialized_copy@PAUOutSliceInfo@?A0xae07d9b6@Imf@@PAU123@V?$allocator@UOutSliceInfo@?A0xae07d9b6@Imf@@@std@@@stdext@@YAPAUOutSliceInfo@?A0xae07d9b6@Imf@@PAU123@00AAV?$allocator@UOutSliceInfo@?A0xae07d9b6@Imf@@@std@@@Z 10033a60 f i ImfOutputFile.obj
 0001:00032b20       ??$_Uninit_fill_n@PAUOutSliceInfo@?A0xae07d9b6@Imf@@IU123@V?$allocator@UOutSliceInfo@?A0xae07d9b6@Imf@@@std@@@std@@YAXPAUOutSliceInfo@?A0xae07d9b6@Imf@@IABU123@AAV?$allocator@UOutSliceInfo@?A0xae07d9b6@Imf@@@0@U_Nonscalar_ptr_iterator_tag@0@U_Range_checked_iterator_tag@0@@Z 10033b20 f i ImfOutputFile.obj
 0001:00032c00       ??$_Unchecked_uninitialized_move@PA_KPA_KV?$allocator@_K@std@@@stdext@@YAPA_KPA_K00AAV?$allocator@_K@std@@@Z 10033c00 f i ImfOutputFile.obj
 0001:00032cc0       ??$_Unchecked_uninitialized_move@PAUOutSliceInfo@?A0xae07d9b6@Imf@@PAU123@V?$allocator@UOutSliceInfo@?A0xae07d9b6@Imf@@@std@@@stdext@@YAPAUOutSliceInfo@?A0xae07d9b6@Imf@@PAU123@00AAV?$allocator@UOutSliceInfo@?A0xae07d9b6@Imf@@@std@@@Z 10033cc0 f i ImfOutputFile.obj
 0001:00032df0       ??$_Move_backward_opt@PAUOutSliceInfo@?A0xae07d9b6@Imf@@PAU123@Urandom_access_iterator_tag@std@@U_Undefined_move_tag@5@@std@@YAPAUOutSliceInfo@?A0xae07d9b6@Imf@@PAU123@00Urandom_access_iterator_tag@0@U_Undefined_move_tag@0@U_Range_checked_iterator_tag@0@@Z 10033df0 f i ImfOutputFile.obj
 0001:00032ee0       ??$_Unchecked_uninitialized_move@PAPAULineBuffer@?A0xae07d9b6@Imf@@PAPAU123@V?$allocator@PAULineBuffer@?A0xae07d9b6@Imf@@@std@@@stdext@@YAPAPAULineBuffer@?A0xae07d9b6@Imf@@PAPAU123@00AAV?$allocator@PAULineBuffer@?A0xae07d9b6@Imf@@@std@@@Z 10033ee0 f i ImfOutputFile.obj
 0001:00032fa0       ??$_Uninit_copy@PAUOutSliceInfo@?A0xae07d9b6@Imf@@PAU123@V?$allocator@UOutSliceInfo@?A0xae07d9b6@Imf@@@std@@@std@@YAPAUOutSliceInfo@?A0xae07d9b6@Imf@@PAU123@00AAV?$allocator@UOutSliceInfo@?A0xae07d9b6@Imf@@@0@U_Nonscalar_ptr_iterator_tag@0@U_Range_checked_iterator_tag@0@@Z 10033fa0 f i ImfOutputFile.obj
 0001:00033080       ??$unchecked_fill_n@PA_KI_K@stdext@@YAXPA_KIAB_K@Z 10034080 f i ImfOutputFile.obj
 0001:00033150       ??$unchecked_fill_n@PAPAULineBuffer@?A0xae07d9b6@Imf@@IPAU123@@stdext@@YAXPAPAULineBuffer@?A0xae07d9b6@Imf@@IABQAU123@@Z 10034150 f i ImfOutputFile.obj
 0001:00033210       ??$unchecked_uninitialized_copy@PA_KPA_KV?$allocator@_K@std@@@stdext@@YAPA_KPA_K00AAV?$allocator@_K@std@@@Z 10034210 f i ImfOutputFile.obj
 0001:00033300       ??$unchecked_uninitialized_copy@PAPAULineBuffer@?A0xae07d9b6@Imf@@PAPAU123@V?$allocator@PAULineBuffer@?A0xae07d9b6@Imf@@@std@@@stdext@@YAPAPAULineBuffer@?A0xae07d9b6@Imf@@PAPAU123@00AAV?$allocator@PAULineBuffer@?A0xae07d9b6@Imf@@@std@@@Z 10034300 f i ImfOutputFile.obj
 0001:000333f0       ?bitmapFromData@?A0x7b5a27d6@Imf@@YAXQBGHQAEAAG2@Z 100343f0 f   ImfPizCompressor.obj
 0001:00033500       ?forwardLutFromBitmap@?A0x7b5a27d6@Imf@@YAGQBEQAG@Z 10034500 f   ImfPizCompressor.obj
 0001:00033590       ?reverseLutFromBitmap@?A0x7b5a27d6@Imf@@YAGQBEQAG@Z 10034590 f   ImfPizCompressor.obj
 0001:00033640       ?applyLut@?A0x7b5a27d6@Imf@@YAXQBGQAGH@Z 10034640 f   ImfPizCompressor.obj
 0001:00033690       ?numSamples@?A0x7b5a27d6@Imf@@YAHHHH@Z 10034690 f   ImfPizCompressor.obj
 0001:000336f0       ??0PizCompressor@Imf@@QAE@ABVHeader@1@HH@Z 100346f0 f   ImfPizCompressor.obj
 0001:00033950       ??1PizCompressor@Imf@@UAE@XZ 10034950 f   ImfPizCompressor.obj
 0001:000339d0       ?numScanLines@PizCompressor@Imf@@UBEHXZ 100349d0 f   ImfPizCompressor.obj
 0001:000339f0       ?format@PizCompressor@Imf@@UBE?AW4Format@Compressor@2@XZ 100349f0 f   ImfPizCompressor.obj
 0001:00033a10       ?compress@PizCompressor@Imf@@UAEHPBDHHAAPBD@Z 10034a10 f   ImfPizCompressor.obj
 0001:00033ae0       ?compressTile@PizCompressor@Imf@@UAEHPBDHV?$Box@V?$Vec2@H@Imath@@@Imath@@AAPBD@Z 10034ae0 f   ImfPizCompressor.obj
 0001:00033b70       ?uncompress@PizCompressor@Imf@@UAEHPBDHHAAPBD@Z 10034b70 f   ImfPizCompressor.obj
 0001:00033c40       ?uncompressTile@PizCompressor@Imf@@UAEHPBDHV?$Box@V?$Vec2@H@Imath@@@Imath@@AAPBD@Z 10034c40 f   ImfPizCompressor.obj
 0001:00033cd0       ?compress@PizCompressor@Imf@@AAEHPBDHV?$Box@V?$Vec2@H@Imath@@@Imath@@AAPBD@Z 10034cd0 f   ImfPizCompressor.obj
 0001:000343e0       ?uncompress@PizCompressor@Imf@@AAEHPBDHV?$Box@V?$Vec2@H@Imath@@@Imath@@AAPBD@Z 100353e0 f   ImfPizCompressor.obj
 0001:00034ab0       ??_EPizCompressor@Imf@@UAEPAXI@Z 10035ab0 f i ImfPizCompressor.obj
 0001:00034ab0       ??_GPizCompressor@Imf@@UAEPAXI@Z 10035ab0 f i ImfPizCompressor.obj
 0001:00034af0       ??1?$AutoArray@E$0CAAA@@Imf@@QAE@XZ 10035af0 f i ImfPizCompressor.obj
 0001:00034b30       ??1?$AutoArray@G$0BAAAA@@Imf@@QAE@XZ 10035b30 f i ImfPizCompressor.obj
 0001:00034b70       ??$read@UCharPtrIO@Imf@@PBD@Xdr@Imf@@YAXAAPBDAAH@Z 10035b70 f i ImfPizCompressor.obj
 0001:00034c40       ??$read@UCharPtrIO@Imf@@PBD@Xdr@Imf@@YAXAAPBDAAG@Z 10035c40 f i ImfPizCompressor.obj
 0001:00034cf0       ??$write@UCharPtrIO@Imf@@PAD@Xdr@Imf@@YAXAAPADH@Z 10035cf0 f i ImfPizCompressor.obj
 0001:00034db0       ??$write@UCharPtrIO@Imf@@PAD@Xdr@Imf@@YAXAAPADG@Z 10035db0 f i ImfPizCompressor.obj
 0001:00034e50       ??0PreviewRgba@Imf@@QAE@EEEE@Z 10035e50 f i ImfPreviewImage.obj
 0001:00034e70       ??_FPreviewRgba@Imf@@QAEXXZ 10035e70 f i ImfPreviewImage.obj
 0001:00034e80       ??1PreviewImage@Imf@@QAE@XZ 10035e80 f   ImfPreviewImage.obj
 0001:00034e90       ??0PreviewImage@Imf@@QAE@IIQBUPreviewRgba@1@@Z 10035e90 f   ImfPreviewImage.obj
 0001:00034f80       ??0PreviewImage@Imf@@QAE@ABV01@@Z 10035f80 f   ImfPreviewImage.obj
 0001:00035030       ??4PreviewImage@Imf@@QAEAAV01@ABV01@@Z 10036030 f   ImfPreviewImage.obj
 0001:000350f0       ?width@PreviewImage@Imf@@QBEIXZ 100360f0 f i ImfPreviewImageAttribute.obj
 0001:00035100       ?height@PreviewImage@Imf@@QBEIXZ 10036100 f i ImfPreviewImageAttribute.obj
 0001:00035110       ?pixels@PreviewImage@Imf@@QAEPAUPreviewRgba@2@XZ 10036110 f i ImfPreviewImageAttribute.obj
 0001:00035120       ?pixels@PreviewImage@Imf@@QBEPBUPreviewRgba@2@XZ 10036120 f i ImfPreviewImageAttribute.obj
 0001:00035130       ?staticTypeName@?$TypedAttribute@VPreviewImage@Imf@@@Imf@@SAPBDXZ 10036130 f   ImfPreviewImageAttribute.obj
 0001:00035140       ?writeValueTo@?$TypedAttribute@VPreviewImage@Imf@@@Imf@@UBEXAAVOStream@2@H@Z 10036140 f   ImfPreviewImageAttribute.obj
 0001:00035230       ?readValueFrom@?$TypedAttribute@VPreviewImage@Imf@@@Imf@@UAEXAAVIStream@2@HH@Z 10036230 f   ImfPreviewImageAttribute.obj
 0001:00035360       ??$write@UStreamIO@Imf@@VOStream@2@@Xdr@Imf@@YAXAAVOStream@1@I@Z 10036360 f i ImfPreviewImageAttribute.obj
 0001:000353a0       ?numSamples@?A0xdde4bc13@Imf@@YAHHHH@Z 100363a0 f   ImfPxr24Compressor.obj
 0001:00035400       ?notEnoughData@?A0xdde4bc13@Imf@@YAXXZ 10036400 f   ImfPxr24Compressor.obj
 0001:00035450       ?tooMuchData@?A0xdde4bc13@Imf@@YAXXZ 10036450 f   ImfPxr24Compressor.obj
 0001:000354a0       ??0Pxr24Compressor@Imf@@QAE@ABVHeader@1@HH@Z 100364a0 f   ImfPxr24Compressor.obj
 0001:000355e0       ??1Pxr24Compressor@Imf@@UAE@XZ 100365e0 f   ImfPxr24Compressor.obj
 0001:00035650       ?numScanLines@Pxr24Compressor@Imf@@UBEHXZ 10036650 f   ImfPxr24Compressor.obj
 0001:00035670       ?format@Pxr24Compressor@Imf@@UBE?AW4Format@Compressor@2@XZ 10036670 f   ImfPxr24Compressor.obj
 0001:00035690       ?compress@Pxr24Compressor@Imf@@UAEHPBDHHAAPBD@Z 10036690 f   ImfPxr24Compressor.obj
 0001:00035750       ?compressTile@Pxr24Compressor@Imf@@UAEHPBDHV?$Box@V?$Vec2@H@Imath@@@Imath@@AAPBD@Z 10036750 f   ImfPxr24Compressor.obj
 0001:000357e0       ?uncompress@Pxr24Compressor@Imf@@UAEHPBDHHAAPBD@Z 100367e0 f   ImfPxr24Compressor.obj
 0001:000358a0       ?uncompressTile@Pxr24Compressor@Imf@@UAEHPBDHV?$Box@V?$Vec2@H@Imath@@@Imath@@AAPBD@Z 100368a0 f   ImfPxr24Compressor.obj
 0001:00035930       ?compress@Pxr24Compressor@Imf@@AAEHPBDHV?$Box@V?$Vec2@H@Imath@@@Imath@@AAPBD@Z 10036930 f   ImfPxr24Compressor.obj
 0001:00035ec0       ?uncompress@Pxr24Compressor@Imf@@AAEHPBDHV?$Box@V?$Vec2@H@Imath@@@Imath@@AAPBD@Z 10036ec0 f   ImfPxr24Compressor.obj
 0001:00036430       ??_GPxr24Compressor@Imf@@UAEPAXI@Z 10037430 f i ImfPxr24Compressor.obj
 0001:00036430       ??_EPxr24Compressor@Imf@@UAEPAXI@Z 10037430 f i ImfPxr24Compressor.obj
 0001:00036470       ?floatToFloat24@?A0xdde4bc13@Imf@@YAIM@Z 10037470 f i ImfPxr24Compressor.obj
 0001:00036560       ?insertChannels@?A0x09a9f3d3@Imf@@YAXAAVHeader@2@W4RgbaChannels@2@@Z 10037560 f   ImfRgbaFile.obj
 0001:00036720       ?rgbaChannels@?A0x09a9f3d3@Imf@@YA?AW4RgbaChannels@2@ABVChannelList@2@@Z 10037720 f   ImfRgbaFile.obj
 0001:000367f0       ?ywFromHeader@?A0x09a9f3d3@Imf@@YA?AV?$Vec3@M@Imath@@ABVHeader@2@@Z 100377f0 f   ImfRgbaFile.obj
 0001:000368e0       ??0ToYca@RgbaOutputFile@Imf@@QAE@AAVOutputFile@2@W4RgbaChannels@2@@Z 100378e0 f   ImfRgbaFile.obj
 0001:00036bf0       ??1ToYca@RgbaOutputFile@Imf@@UAE@XZ 10037bf0 f   ImfRgbaFile.obj
 0001:00036c80       ?setYCRounding@ToYca@RgbaOutputFile@Imf@@QAEXII@Z 10037c80 f   ImfRgbaFile.obj
 0001:00036cb0       ?setFrameBuffer@ToYca@RgbaOutputFile@Imf@@QAEXPBURgba@3@II@Z 10037cb0 f   ImfRgbaFile.obj
 0001:00036ec0       ?writePixels@ToYca@RgbaOutputFile@Imf@@QAEXH@Z 10037ec0 f   ImfRgbaFile.obj
 0001:00037560       ?currentScanLine@ToYca@RgbaOutputFile@Imf@@QBEHXZ 10038560 f   ImfRgbaFile.obj
 0001:00037580       ?padTmpBuf@ToYca@RgbaOutputFile@Imf@@AAEXXZ 10038580 f   ImfRgbaFile.obj
 0001:000376f0       ?rotateBuffers@ToYca@RgbaOutputFile@Imf@@AAEXXZ 100386f0 f   ImfRgbaFile.obj
 0001:00037760       ?duplicateLastBuffer@ToYca@RgbaOutputFile@Imf@@AAEXXZ 10038760 f   ImfRgbaFile.obj
 0001:000377b0       ?duplicateSecondToLastBuffer@ToYca@RgbaOutputFile@Imf@@AAEXXZ 100387b0 f   ImfRgbaFile.obj
 0001:00037800       ?decimateChromaVertAndWriteScanLine@ToYca@RgbaOutputFile@Imf@@AAEXXZ 10038800 f   ImfRgbaFile.obj
 0001:000378d0       ??0RgbaOutputFile@Imf@@QAE@QBDABVHeader@1@W4RgbaChannels@1@H@Z 100388d0 f   ImfRgbaFile.obj
 0001:00037a40       ??0RgbaOutputFile@Imf@@QAE@AAVOStream@1@ABVHeader@1@W4RgbaChannels@1@H@Z 10038a40 f   ImfRgbaFile.obj
 0001:00037bb0       ??0RgbaOutputFile@Imf@@QAE@QBDABV?$Box@V?$Vec2@H@Imath@@@Imath@@1W4RgbaChannels@1@MV?$Vec2@M@3@MW4LineOrder@1@W4Compression@1@H@Z 10038bb0 f   ImfRgbaFile.obj
 0001:00037d90       ??0RgbaOutputFile@Imf@@QAE@QBDHHW4RgbaChannels@1@MV?$Vec2@M@Imath@@MW4LineOrder@1@W4Compression@1@H@Z 10038d90 f   ImfRgbaFile.obj
 0001:00037f20       ??1RgbaOutputFile@Imf@@UAE@XZ 10038f20 f   ImfRgbaFile.obj
 0001:00037fd0       ?setFrameBuffer@RgbaOutputFile@Imf@@QAEXPBURgba@2@II@Z 10038fd0 f   ImfRgbaFile.obj
 0001:000381f0       ?writePixels@RgbaOutputFile@Imf@@QAEXH@Z 100391f0 f   ImfRgbaFile.obj
 0001:000382e0       ?currentScanLine@RgbaOutputFile@Imf@@QBEHXZ 100392e0 f   ImfRgbaFile.obj
 0001:000383d0       ?header@RgbaOutputFile@Imf@@QBEABVHeader@2@XZ 100393d0 f   ImfRgbaFile.obj
 0001:00038400       ?frameBuffer@RgbaOutputFile@Imf@@QBEABVFrameBuffer@2@XZ 10039400 f   ImfRgbaFile.obj
 0001:00038430       ?displayWindow@RgbaOutputFile@Imf@@QBEABV?$Box@V?$Vec2@H@Imath@@@Imath@@XZ 10039430 f   ImfRgbaFile.obj
 0001:00038460       ?dataWindow@RgbaOutputFile@Imf@@QBEABV?$Box@V?$Vec2@H@Imath@@@Imath@@XZ 10039460 f   ImfRgbaFile.obj
 0001:00038490       ?pixelAspectRatio@RgbaOutputFile@Imf@@QBEMXZ 10039490 f   ImfRgbaFile.obj
 0001:000384c0       ?screenWindowCenter@RgbaOutputFile@Imf@@QBE?BV?$Vec2@M@Imath@@XZ 100394c0 f   ImfRgbaFile.obj
 0001:00038520       ?screenWindowWidth@RgbaOutputFile@Imf@@QBEMXZ 10039520 f   ImfRgbaFile.obj
 0001:00038550       ?lineOrder@RgbaOutputFile@Imf@@QBE?AW4LineOrder@2@XZ 10039550 f   ImfRgbaFile.obj
 0001:00038580       ?compression@RgbaOutputFile@Imf@@QBE?AW4Compression@2@XZ 10039580 f   ImfRgbaFile.obj
 0001:000385b0       ?channels@RgbaOutputFile@Imf@@QBE?AW4RgbaChannels@2@XZ 100395b0 f   ImfRgbaFile.obj
 0001:000385f0       ?updatePreviewImage@RgbaOutputFile@Imf@@QAEXQBUPreviewRgba@2@@Z 100395f0 f   ImfRgbaFile.obj
 0001:00038620       ?setYCRounding@RgbaOutputFile@Imf@@QAEXII@Z 10039620 f   ImfRgbaFile.obj
 0001:00038700       ?breakScanLine@RgbaOutputFile@Imf@@QAEXHHHD@Z 10039700 f   ImfRgbaFile.obj
 0001:00038740       ??0FromYca@RgbaInputFile@Imf@@QAE@AAVInputFile@2@W4RgbaChannels@2@@Z 10039740 f   ImfRgbaFile.obj
 0001:00038af0       ??1FromYca@RgbaInputFile@Imf@@UAE@XZ 10039af0 f   ImfRgbaFile.obj
 0001:00038bb0       ?setFrameBuffer@FromYca@RgbaInputFile@Imf@@QAEXPAURgba@3@II@Z 10039bb0 f   ImfRgbaFile.obj
 0001:00038dc0       ?readPixels@FromYca@RgbaInputFile@Imf@@QAEXHH@Z 10039dc0 f   ImfRgbaFile.obj
 0001:00038ea0       ?readPixels@FromYca@RgbaInputFile@Imf@@AAEXH@Z 10039ea0 f   ImfRgbaFile.obj
 0001:00039590       ?rotateBuf1@FromYca@RgbaInputFile@Imf@@AAEXH@Z 1003a590 f   ImfRgbaFile.obj
 0001:00039690       ?rotateBuf2@FromYca@RgbaInputFile@Imf@@AAEXH@Z 1003a690 f   ImfRgbaFile.obj
 0001:00039770       ?readYCAScanLine@FromYca@RgbaInputFile@Imf@@AAEXHQAURgba@3@@Z 1003a770 f   ImfRgbaFile.obj
 0001:000398d0       ?padTmpBuf@FromYca@RgbaInputFile@Imf@@AAEXXZ 1003a8d0 f   ImfRgbaFile.obj
 0001:00039a40       ??0RgbaInputFile@Imf@@QAE@QBDH@Z 1003aa40 f   ImfRgbaFile.obj
 0001:00039b60       ??0RgbaInputFile@Imf@@QAE@AAVIStream@1@H@Z 1003ab60 f   ImfRgbaFile.obj
 0001:00039c80       ??1RgbaInputFile@Imf@@UAE@XZ 1003ac80 f   ImfRgbaFile.obj
 0001:00039d30       ?setFrameBuffer@RgbaInputFile@Imf@@QAEXPAURgba@2@II@Z 1003ad30 f   ImfRgbaFile.obj
 0001:00039f50       ?readPixels@RgbaInputFile@Imf@@QAEXHH@Z 1003af50 f   ImfRgbaFile.obj
 0001:0003a050       ?readPixels@RgbaInputFile@Imf@@QAEXH@Z 1003b050 f   ImfRgbaFile.obj
 0001:0003a080       ?isComplete@RgbaInputFile@Imf@@QBE_NXZ 1003b080 f   ImfRgbaFile.obj
 0001:0003a0b0       ?header@RgbaInputFile@Imf@@QBEABVHeader@2@XZ 1003b0b0 f   ImfRgbaFile.obj
 0001:0003a0e0       ?fileName@RgbaInputFile@Imf@@QBEPBDXZ 1003b0e0 f   ImfRgbaFile.obj
 0001:0003a110       ?frameBuffer@RgbaInputFile@Imf@@QBEABVFrameBuffer@2@XZ 1003b110 f   ImfRgbaFile.obj
 0001:0003a140       ?displayWindow@RgbaInputFile@Imf@@QBEABV?$Box@V?$Vec2@H@Imath@@@Imath@@XZ 1003b140 f   ImfRgbaFile.obj
 0001:0003a170       ?dataWindow@RgbaInputFile@Imf@@QBEABV?$Box@V?$Vec2@H@Imath@@@Imath@@XZ 1003b170 f   ImfRgbaFile.obj
 0001:0003a1a0       ?pixelAspectRatio@RgbaInputFile@Imf@@QBEMXZ 1003b1a0 f   ImfRgbaFile.obj
 0001:0003a1d0       ?screenWindowCenter@RgbaInputFile@Imf@@QBE?BV?$Vec2@M@Imath@@XZ 1003b1d0 f   ImfRgbaFile.obj
 0001:0003a230       ?screenWindowWidth@RgbaInputFile@Imf@@QBEMXZ 1003b230 f   ImfRgbaFile.obj
 0001:0003a260       ?lineOrder@RgbaInputFile@Imf@@QBE?AW4LineOrder@2@XZ 1003b260 f   ImfRgbaFile.obj
 0001:0003a290       ?compression@RgbaInputFile@Imf@@QBE?AW4Compression@2@XZ 1003b290 f   ImfRgbaFile.obj
 0001:0003a2c0       ?channels@RgbaInputFile@Imf@@QBE?AW4RgbaChannels@2@XZ 1003b2c0 f   ImfRgbaFile.obj
 0001:0003a300       ?version@RgbaInputFile@Imf@@QBEHXZ 1003b300 f   ImfRgbaFile.obj
 0001:0003a330       ??1ChannelList@Imf@@QAE@XZ 1003b330 f i ImfRgbaFile.obj
 0001:0003a370       ??_GToYca@RgbaOutputFile@Imf@@UAEPAXI@Z 1003b370 f i ImfRgbaFile.obj
 0001:0003a370       ??_EToYca@RgbaOutputFile@Imf@@UAEPAXI@Z 1003b370 f i ImfRgbaFile.obj
 0001:0003a3b0       ??_GRgbaOutputFile@Imf@@UAEPAXI@Z 1003b3b0 f i ImfRgbaFile.obj
 0001:0003a3b0       ??_ERgbaOutputFile@Imf@@UAEPAXI@Z 1003b3b0 f i ImfRgbaFile.obj
 0001:0003a3f0       ??_GFromYca@RgbaInputFile@Imf@@UAEPAXI@Z 1003b3f0 f i ImfRgbaFile.obj
 0001:0003a3f0       ??_EFromYca@RgbaInputFile@Imf@@UAEPAXI@Z 1003b3f0 f i ImfRgbaFile.obj
 0001:0003a430       ??_ERgbaInputFile@Imf@@UAEPAXI@Z 1003b430 f i ImfRgbaFile.obj
 0001:0003a430       ??_GRgbaInputFile@Imf@@UAEPAXI@Z 1003b430 f i ImfRgbaFile.obj
 0001:0003a470       ??0?$_Tree@V?$_Tmap_traits@VName@Imf@@UChannel@2@U?$less@VName@Imf@@@std@@V?$allocator@U?$pair@$$CBVName@Imf@@UChannel@2@@std@@@5@$0A@@std@@@std@@QAE@ABU?$less@VName@Imf@@@1@ABV?$allocator@U?$pair@$$CBVName@Imf@@UChannel@2@@std@@@1@@Z 1003b470 f i ImfRgbaFile.obj
 0001:0003a4c0       ?computeYw@RgbaYca@Imf@@YA?AV?$Vec3@M@Imath@@ABUChromaticities@2@@Z 1003b4c0 f   ImfRgbaYca.obj
 0001:0003a5c0       ?RGBAtoYCA@RgbaYca@Imf@@YAXABV?$Vec3@M@Imath@@H_NQBURgba@2@QAU52@@Z 1003b5c0 f   ImfRgbaYca.obj
 0001:0003aae0       ?decimateChromaHoriz@RgbaYca@Imf@@YAXHQBURgba@2@QAU32@@Z 1003bae0 f   ImfRgbaYca.obj
 0001:0003b0f0       ?decimateChromaVert@RgbaYca@Imf@@YAXHQBQBURgba@2@QAU32@@Z 1003c0f0 f   ImfRgbaYca.obj
 0001:0003b720       ?roundYCA@RgbaYca@Imf@@YAXHIIQBURgba@2@QAU32@@Z 1003c720 f   ImfRgbaYca.obj
 0001:0003b840       ?reconstructChromaHoriz@RgbaYca@Imf@@YAXHQBURgba@2@QAU32@@Z 1003c840 f   ImfRgbaYca.obj
 0001:0003be60       ?reconstructChromaVert@RgbaYca@Imf@@YAXHQBQBURgba@2@QAU32@@Z 1003ce60 f   ImfRgbaYca.obj
 0001:0003c430       ?YCAtoRGBA@RgbaYca@Imf@@YAXABV?$Vec3@M@Imath@@HQBURgba@2@QAU52@@Z 1003d430 f   ImfRgbaYca.obj
 0001:0003c660       ?desaturate@?A0xaaf212b6@RgbaYca@Imf@@YAXABURgba@3@MABV?$Vec3@M@Imath@@AAU43@@Z 1003d660 f   ImfRgbaYca.obj
 0001:0003cb40       ?fixSaturation@RgbaYca@Imf@@YAXABV?$Vec3@M@Imath@@HQBQBURgba@2@QAU52@@Z 1003db40 f   ImfRgbaYca.obj
 0001:0003ce50       ?saturation@?A0xaaf212b6@RgbaYca@Imf@@YAMABURgba@3@@Z 1003de50 f i ImfRgbaYca.obj
 0001:0003cff0       ??K?$Vec3@M@Imath@@QBE?AV01@M@Z 1003dff0 f i ImfRgbaYca.obj
 0001:0003d050       ?rleCompress@?A0xe2edf97d@Imf@@YAHHQBDQAC@Z 1003e050 f   ImfRleCompressor.obj
 0001:0003d1b0       ?rleUncompress@?A0xe2edf97d@Imf@@YAHHHQBCQAD@Z 1003e1b0 f   ImfRleCompressor.obj
 0001:0003d2e0       ??0RleCompressor@Imf@@QAE@ABVHeader@1@H@Z 1003e2e0 f   ImfRleCompressor.obj
 0001:0003d3b0       ??1RleCompressor@Imf@@UAE@XZ 1003e3b0 f   ImfRleCompressor.obj
 0001:0003d420       ?numScanLines@RleCompressor@Imf@@UBEHXZ 1003e420 f   ImfRleCompressor.obj
 0001:0003d440       ?compress@RleCompressor@Imf@@UAEHPBDHHAAPBD@Z 1003e440 f   ImfRleCompressor.obj
 0001:0003d590       ?uncompress@RleCompressor@Imf@@UAEHPBDHHAAPBD@Z 1003e590 f   ImfRleCompressor.obj
 0001:0003d700       ??_ERleCompressor@Imf@@UAEPAXI@Z 1003e700 f i ImfRleCompressor.obj
 0001:0003d700       ??_GRleCompressor@Imf@@UAEPAXI@Z 1003e700 f i ImfRleCompressor.obj
 0001:0003d740       ??DName@Imf@@QBEPBDXZ      1003e740 f i ImfScanLineInputFile.obj
 0001:0003d750       ??0bad_alloc@std@@QAE@PBD@Z 1003e750 f i ImfScanLineInputFile.obj
 0001:0003d770       ??2@YAPAXIPAX@Z            1003e770 f i ImfScanLineInputFile.obj
 0001:0003d780       ??0_Iterator_base@std@@QAE@XZ 1003e780 f i ImfScanLineInputFile.obj
 0001:0003d790       ??1logic_error@std@@UAE@XZ 1003e790 f i ImfScanLineInputFile.obj
 0001:0003d7b0       ??0length_error@std@@QAE@ABV?$basic_string@DU?$char_traits@D@std@@V?$allocator@D@2@@1@@Z 1003e7b0 f i ImfScanLineInputFile.obj
 0001:0003d7d0       ??0out_of_range@std@@QAE@ABV?$basic_string@DU?$char_traits@D@std@@V?$allocator@D@2@@1@@Z 1003e7d0 f i ImfScanLineInputFile.obj
 0001:0003d7f0       ??0ArgExc@Iex@@QAE@AAV?$basic_stringstream@DU?$char_traits@D@std@@V?$allocator@D@2@@std@@@Z 1003e7f0 f i ImfScanLineInputFile.obj
 0001:0003d810       ??0InputExc@Iex@@QAE@PBD@Z 1003e810 f i ImfScanLineInputFile.obj
 0001:0003d830       ??0InputExc@Iex@@QAE@AAV?$basic_stringstream@DU?$char_traits@D@std@@V?$allocator@D@2@@std@@@Z 1003e830 f i ImfScanLineInputFile.obj
 0001:0003d850       ??0IoExc@Iex@@QAE@ABV?$basic_string@DU?$char_traits@D@std@@V?$allocator@D@2@@std@@@Z 1003e850 f i ImfScanLineInputFile.obj
 0001:0003d870       ?modp@Imath@@YAHHH@Z       1003e870 f i ImfScanLineInputFile.obj
 0001:0003d8d0       ??0Lock@IlmThread@@QAE@ABVMutex@1@_N@Z 1003e8d0 f i ImfScanLineInputFile.obj
 0001:0003d900       ??0InSliceInfo@?A0xe06365b4@Imf@@QAE@W4PixelType@2@0PADIIHH_N2N@Z 1003e900 f   ImfScanLineInputFile.obj
 0001:0003d950       ??0LineBuffer@?A0xe06365b4@Imf@@QAE@QAVCompressor@2@@Z 1003e950 f   ImfScanLineInputFile.obj
 0001:0003d9d0       ??1LineBuffer@?A0xe06365b4@Imf@@QAE@XZ 1003e9d0 f   ImfScanLineInputFile.obj
 0001:0003da40       ??0LineBufferTask@?A0xe06365b4@Imf@@QAE@PAVTaskGroup@IlmThread@@PAUData@ScanLineInputFile@2@PAULineBuffer@12@HH@Z 1003ea40 f   ImfScanLineInputFile.obj
 0001:0003da80       ??1LineBufferTask@?A0xe06365b4@Imf@@UAE@XZ 1003ea80 f   ImfScanLineInputFile.obj
 0001:0003dae0       ?fileName@ScanLineInputFile@Imf@@QBEPBDXZ 1003eae0 f   ImfScanLineInputFile.obj
 0001:0003daf0       ?header@ScanLineInputFile@Imf@@QBEABVHeader@2@XZ 1003eaf0 f   ImfScanLineInputFile.obj
 0001:0003db00       ?version@ScanLineInputFile@Imf@@QBEHXZ 1003eb00 f   ImfScanLineInputFile.obj
 0001:0003db10       ?frameBuffer@ScanLineInputFile@Imf@@QBEABVFrameBuffer@2@XZ 1003eb10 f   ImfScanLineInputFile.obj
 0001:0003db30       ?isComplete@ScanLineInputFile@Imf@@QBE_NXZ 1003eb30 f   ImfScanLineInputFile.obj
 0001:0003db40       ??1ScanLineInputFile@Imf@@UAE@XZ 1003eb40 f   ImfScanLineInputFile.obj
 0001:0003dbd0       ?reconstructLineOffsets@?A0xe06365b4@Imf@@YAXAAVIStream@2@W4LineOrder@2@AAV?$vector@_KV?$allocator@_K@std@@@std@@@Z 1003ebd0 f   ImfScanLineInputFile.obj
 0001:0003dd30       ?readLineOffsets@?A0xe06365b4@Imf@@YAXAAVIStream@2@W4LineOrder@2@AAV?$vector@_KV?$allocator@_K@std@@@std@@AA_N@Z 1003ed30 f   ImfScanLineInputFile.obj
 0001:0003de00       ?readPixelData@?A0xe06365b4@Imf@@YAXPAUData@ScanLineInputFile@2@HAAPADAAH@Z 1003ee00 f   ImfScanLineInputFile.obj
 0001:0003e040       ?execute@LineBufferTask@?A0xe06365b4@Imf@@UAEXXZ 1003f040 f   ImfScanLineInputFile.obj
 0001:0003e3c0       ?newLineBufferTask@?A0xe06365b4@Imf@@YAPAVLineBufferTask@12@PAVTaskGroup@IlmThread@@PAUData@ScanLineInputFile@2@HHH@Z 1003f3c0 f   ImfScanLineInputFile.obj
 0001:0003e4f0       ?readPixels@ScanLineInputFile@Imf@@QAEXHH@Z 1003f4f0 f   ImfScanLineInputFile.obj
 0001:0003e7c0       ?readPixels@ScanLineInputFile@Imf@@QAEXH@Z 1003f7c0 f   ImfScanLineInputFile.obj
 0001:0003e7d0       ?rawPixelData@ScanLineInputFile@Imf@@QAEXHAAPBDAAH@Z 1003f7d0 f   ImfScanLineInputFile.obj
 0001:0003e990       ??1Data@ScanLineInputFile@Imf@@UAE@XZ 1003f990 f   ImfScanLineInputFile.obj
 0001:0003eb10       ?setFrameBuffer@ScanLineInputFile@Imf@@QAEXABVFrameBuffer@2@@Z 1003fb10 f   ImfScanLineInputFile.obj
 0001:0003f250       ??0Data@ScanLineInputFile@Imf@@QAE@PAVIStream@2@H@Z 10040250 f   ImfScanLineInputFile.obj
 0001:0003f360       ??0ScanLineInputFile@Imf@@QAE@ABVHeader@1@PAVIStream@1@H@Z 10040360 f   ImfScanLineInputFile.obj
 0001:0003f640       ?wait@LineBuffer@?A0xe06365b4@Imf@@QAEXXZ 10040640 f i ImfScanLineInputFile.obj
 0001:0003f650       ?post@LineBuffer@?A0xe06365b4@Imf@@QAEXXZ 10040650 f i ImfScanLineInputFile.obj
 0001:0003f660       ??_GLineBuffer@?A0xe06365b4@Imf@@QAEPAXI@Z 10040660 f i ImfScanLineInputFile.obj
 0001:0003f680       ?size@?$vector@_KV?$allocator@_K@std@@@std@@QBEIXZ 10040680 f i ImfScanLineInputFile.obj
 0001:0003f6a0       ??A?$vector@_KV?$allocator@_K@std@@@std@@QAEAA_KI@Z 100406a0 f i ImfScanLineInputFile.obj
 0001:0003f6d0       ?size@?$vector@UInSliceInfo@?A0xe06365b4@Imf@@V?$allocator@UInSliceInfo@?A0xe06365b4@Imf@@@std@@@std@@QBEIXZ 100406d0 f i ImfScanLineInputFile.obj
 0001:0003f6f0       ??A?$vector@UInSliceInfo@?A0xe06365b4@Imf@@V?$allocator@UInSliceInfo@?A0xe06365b4@Imf@@@std@@@std@@QAEAAUInSliceInfo@?A0xe06365b4@Imf@@I@Z 100406f0 f i ImfScanLineInputFile.obj
 0001:0003f730       ?size@?$vector@PAULineBuffer@?A0xe06365b4@Imf@@V?$allocator@PAULineBuffer@?A0xe06365b4@Imf@@@std@@@std@@QBEIXZ 10040730 f i ImfScanLineInputFile.obj
 0001:0003f750       ??A?$vector@PAULineBuffer@?A0xe06365b4@Imf@@V?$allocator@PAULineBuffer@?A0xe06365b4@Imf@@@std@@@std@@QAEAAPAULineBuffer@?A0xe06365b4@Imf@@I@Z 10040750 f i ImfScanLineInputFile.obj
 0001:0003f780       ??0?$_Bidit@U?$pair@$$CBVName@Imf@@USlice@2@@std@@HPBU12@ABU12@@std@@QAE@XZ 10040780 f i ImfScanLineInputFile.obj
 0001:0003f790       ??0?$allocator@U?$pair@$$CBVName@Imf@@USlice@2@@std@@@std@@QAE@XZ 10040790 f i ImfScanLineInputFile.obj
 0001:0003f7a0       ??0?$allocator@_K@std@@QAE@XZ 100407a0 f i ImfScanLineInputFile.obj
 0001:0003f7b0       ?size@?$vector@IV?$allocator@I@std@@@std@@QBEIXZ 100407b0 f i ImfScanLineInputFile.obj
 0001:0003f7d0       ??0?$allocator@I@std@@QAE@XZ 100407d0 f i ImfScanLineInputFile.obj
 0001:0003f7e0       ?capacity@?$vector@UInSliceInfo@?A0xe06365b4@Imf@@V?$allocator@UInSliceInfo@?A0xe06365b4@Imf@@@std@@@std@@QBEIXZ 100407e0 f i ImfScanLineInputFile.obj
 0001:0003f800       ??0?$allocator@UInSliceInfo@?A0xe06365b4@Imf@@@std@@QAE@XZ 10040800 f i ImfScanLineInputFile.obj
 0001:0003f810       ?deallocate@?$allocator@UInSliceInfo@?A0xe06365b4@Imf@@@std@@QAEXPAUInSliceInfo@?A0xe06365b4@Imf@@I@Z 10040810 f i ImfScanLineInputFile.obj
 0001:0003f820       ??0?$allocator@PAULineBuffer@?A0xe06365b4@Imf@@@std@@QAE@XZ 10040820 f i ImfScanLineInputFile.obj
 0001:0003f830       ??Bsentry@?$basic_ostream@DU?$char_traits@D@std@@@std@@QBE_NXZ 10040830 f i ImfScanLineInputFile.obj
 0001:0003f840       ?_Isnil@?$_Tree@V?$_Tmap_traits@VName@Imf@@USlice@2@U?$less@VName@Imf@@@std@@V?$allocator@U?$pair@$$CBVName@Imf@@USlice@2@@std@@@5@$0A@@std@@@std@@KAAADPAU_Node@?$_Tree_nod@V?$_Tmap_traits@VName@Imf@@USlice@2@U?$less@VName@Imf@@@std@@V?$allocator@U?$pair@$$CBVName@Imf@@USlice@2@@std@@@5@$0A@@std@@@2@@Z 10040840 f i ImfScanLineInputFile.obj
 0001:0003f850       ?_Left@?$_Tree@V?$_Tmap_traits@VName@Imf@@USlice@2@U?$less@VName@Imf@@@std@@V?$allocator@U?$pair@$$CBVName@Imf@@USlice@2@@std@@@5@$0A@@std@@@std@@KAAAPAU_Node@?$_Tree_nod@V?$_Tmap_traits@VName@Imf@@USlice@2@U?$less@VName@Imf@@@std@@V?$allocator@U?$pair@$$CBVName@Imf@@USlice@2@@std@@@5@$0A@@std@@@2@PAU342@@Z 10040850 f i ImfScanLineInputFile.obj
 0001:0003f860       ?_Parent@?$_Tree@V?$_Tmap_traits@VName@Imf@@USlice@2@U?$less@VName@Imf@@@std@@V?$allocator@U?$pair@$$CBVName@Imf@@USlice@2@@std@@@5@$0A@@std@@@std@@KAAAPAU_Node@?$_Tree_nod@V?$_Tmap_traits@VName@Imf@@USlice@2@U?$less@VName@Imf@@@std@@V?$allocator@U?$pair@$$CBVName@Imf@@USlice@2@@std@@@5@$0A@@std@@@2@PAU342@@Z 10040860 f i ImfScanLineInputFile.obj
 0001:0003f870       ?_Right@?$_Tree@V?$_Tmap_traits@VName@Imf@@USlice@2@U?$less@VName@Imf@@@std@@V?$allocator@U?$pair@$$CBVName@Imf@@USlice@2@@std@@@5@$0A@@std@@@std@@KAAAPAU_Node@?$_Tree_nod@V?$_Tmap_traits@VName@Imf@@USlice@2@U?$less@VName@Imf@@@std@@V?$allocator@U?$pair@$$CBVName@Imf@@USlice@2@@std@@@5@$0A@@std@@@2@PAU342@@Z 10040870 f i ImfScanLineInputFile.obj
 0001:0003f880       ?_Myval@?$_Tree@V?$_Tmap_traits@VName@Imf@@USlice@2@U?$less@VName@Imf@@@std@@V?$allocator@U?$pair@$$CBVName@Imf@@USlice@2@@std@@@5@$0A@@std@@@std@@KAAAU?$pair@$$CBVName@Imf@@USlice@2@@2@PAU_Node@?$_Tree_nod@V?$_Tmap_traits@VName@Imf@@USlice@2@U?$less@VName@Imf@@@std@@V?$allocator@U?$pair@$$CBVName@Imf@@USlice@2@@std@@@5@$0A@@std@@@2@@Z 10040880 f i ImfScanLineInputFile.obj
 0001:0003f890       ?size@?$_Tree@V?$_Tmap_traits@VName@Imf@@USlice@2@U?$less@VName@Imf@@@std@@V?$allocator@U?$pair@$$CBVName@Imf@@USlice@2@@std@@@5@$0A@@std@@@std@@QBEIXZ 10040890 f i ImfScanLineInputFile.obj
 0001:0003f8a0       ?_Lmost@?$_Tree@V?$_Tmap_traits@VName@Imf@@USlice@2@U?$less@VName@Imf@@@std@@V?$allocator@U?$pair@$$CBVName@Imf@@USlice@2@@std@@@5@$0A@@std@@@std@@IBEAAPAU_Node@?$_Tree_nod@V?$_Tmap_traits@VName@Imf@@USlice@2@U?$less@VName@Imf@@@std@@V?$allocator@U?$pair@$$CBVName@Imf@@USlice@2@@std@@@5@$0A@@std@@@2@XZ 100408a0 f i ImfScanLineInputFile.obj
 0001:0003f8b0       ?_Max@?$_Tree@V?$_Tmap_traits@VName@Imf@@USlice@2@U?$less@VName@Imf@@@std@@V?$allocator@U?$pair@$$CBVName@Imf@@USlice@2@@std@@@5@$0A@@std@@@std@@KAPAU_Node@?$_Tree_nod@V?$_Tmap_traits@VName@Imf@@USlice@2@U?$less@VName@Imf@@@std@@V?$allocator@U?$pair@$$CBVName@Imf@@USlice@2@@std@@@5@$0A@@std@@@2@PAU342@@Z 100408b0 f i ImfScanLineInputFile.obj
 0001:0003f8d0       ?_Min@?$_Tree@V?$_Tmap_traits@VName@Imf@@USlice@2@U?$less@VName@Imf@@@std@@V?$allocator@U?$pair@$$CBVName@Imf@@USlice@2@@std@@@5@$0A@@std@@@std@@KAPAU_Node@?$_Tree_nod@V?$_Tmap_traits@VName@Imf@@USlice@2@U?$less@VName@Imf@@@std@@V?$allocator@U?$pair@$$CBVName@Imf@@USlice@2@@std@@@5@$0A@@std@@@2@PAU342@@Z 100408d0 f i ImfScanLineInputFile.obj
 0001:0003f8f0       ?_Rmost@?$_Tree@V?$_Tmap_traits@VName@Imf@@USlice@2@U?$less@VName@Imf@@@std@@V?$allocator@U?$pair@$$CBVName@Imf@@USlice@2@@std@@@5@$0A@@std@@@std@@IBEAAPAU_Node@?$_Tree_nod@V?$_Tmap_traits@VName@Imf@@USlice@2@U?$less@VName@Imf@@@std@@V?$allocator@U?$pair@$$CBVName@Imf@@USlice@2@@std@@@5@$0A@@std@@@2@XZ 100408f0 f i ImfScanLineInputFile.obj
 0001:0003f900       ?_Root@?$_Tree@V?$_Tmap_traits@VName@Imf@@USlice@2@U?$less@VName@Imf@@@std@@V?$allocator@U?$pair@$$CBVName@Imf@@USlice@2@@std@@@5@$0A@@std@@@std@@IBEAAPAU_Node@?$_Tree_nod@V?$_Tmap_traits@VName@Imf@@USlice@2@U?$less@VName@Imf@@@std@@V?$allocator@U?$pair@$$CBVName@Imf@@USlice@2@@std@@@5@$0A@@std@@@2@XZ 10040900 f i ImfScanLineInputFile.obj
 0001:0003f910       ??0?$allocator@U?$pair@$$CBVName@Imf@@USlice@2@@std@@@std@@QAE@ABV01@@Z 10040910 f i ImfScanLineInputFile.obj
 0001:0003f920       ?deallocate@?$allocator@U_Node@?$_Tree_nod@V?$_Tmap_traits@VName@Imf@@USlice@2@U?$less@VName@Imf@@@std@@V?$allocator@U?$pair@$$CBVName@Imf@@USlice@2@@std@@@5@$0A@@std@@@std@@@std@@QAEXPAU_Node@?$_Tree_nod@V?$_Tmap_traits@VName@Imf@@USlice@2@U?$less@VName@Imf@@@std@@V?$allocator@U?$pair@$$CBVName@Imf@@USlice@2@@std@@@5@$0A@@std@@@2@I@Z 10040920 f i ImfScanLineInputFile.obj
 0001:0003f930       ??9const_iterator@?$_Tree@V?$_Tmap_traits@VName@Imf@@USlice@2@U?$less@VName@Imf@@@std@@V?$allocator@U?$pair@$$CBVName@Imf@@USlice@2@@std@@@5@$0A@@std@@@std@@QBE_NABV012@@Z 10040930 f i ImfScanLineInputFile.obj
 0001:0003f960       ?_Isnil@?$_Tree@V?$_Tmap_traits@VName@Imf@@UChannel@2@U?$less@VName@Imf@@@std@@V?$allocator@U?$pair@$$CBVName@Imf@@UChannel@2@@std@@@5@$0A@@std@@@std@@KAAADPAU_Node@?$_Tree_nod@V?$_Tmap_traits@VName@Imf@@UChannel@2@U?$less@VName@Imf@@@std@@V?$allocator@U?$pair@$$CBVName@Imf@@UChannel@2@@std@@@5@$0A@@std@@@2@@Z 10040960 f i ImfScanLineInputFile.obj
 0001:0003f970       ?_Parent@?$_Tree@V?$_Tmap_traits@VName@Imf@@UChannel@2@U?$less@VName@Imf@@@std@@V?$allocator@U?$pair@$$CBVName@Imf@@UChannel@2@@std@@@5@$0A@@std@@@std@@KAAAPAU_Node@?$_Tree_nod@V?$_Tmap_traits@VName@Imf@@UChannel@2@U?$less@VName@Imf@@@std@@V?$allocator@U?$pair@$$CBVName@Imf@@UChannel@2@@std@@@5@$0A@@std@@@2@PAU342@@Z 10040970 f i ImfScanLineInputFile.obj
 0001:0003f980       ?_Right@?$_Tree@V?$_Tmap_traits@VName@Imf@@UChannel@2@U?$less@VName@Imf@@@std@@V?$allocator@U?$pair@$$CBVName@Imf@@UChannel@2@@std@@@5@$0A@@std@@@std@@KAAAPAU_Node@?$_Tree_nod@V?$_Tmap_traits@VName@Imf@@UChannel@2@U?$less@VName@Imf@@@std@@V?$allocator@U?$pair@$$CBVName@Imf@@UChannel@2@@std@@@5@$0A@@std@@@2@PAU342@@Z 10040980 f i ImfScanLineInputFile.obj
 0001:0003f990       ?_Myval@?$_Tree@V?$_Tmap_traits@VName@Imf@@UChannel@2@U?$less@VName@Imf@@@std@@V?$allocator@U?$pair@$$CBVName@Imf@@UChannel@2@@std@@@5@$0A@@std@@@std@@KAAAU?$pair@$$CBVName@Imf@@UChannel@2@@2@PAU_Node@?$_Tree_nod@V?$_Tmap_traits@VName@Imf@@UChannel@2@U?$less@VName@Imf@@@std@@V?$allocator@U?$pair@$$CBVName@Imf@@UChannel@2@@std@@@5@$0A@@std@@@2@@Z 10040990 f i ImfScanLineInputFile.obj
 0001:0003f9a0       ??0?$allocator@_K@std@@QAE@ABV01@@Z 100409a0 f i ImfScanLineInputFile.obj
 0001:0003f9b0       ?deallocate@?$allocator@_K@std@@QAEXPA_KI@Z 100409b0 f i ImfScanLineInputFile.obj
 0001:0003f9c0       ??0?$allocator@I@std@@QAE@ABV01@@Z 100409c0 f i ImfScanLineInputFile.obj
 0001:0003f9d0       ?deallocate@?$allocator@I@std@@QAEXPAII@Z 100409d0 f i ImfScanLineInputFile.obj
 0001:0003f9e0       ?_Xlen@?$vector@UInSliceInfo@?A0xe06365b4@Imf@@V?$allocator@UInSliceInfo@?A0xe06365b4@Imf@@@std@@@std@@KAXXZ 100409e0 f i ImfScanLineInputFile.obj
 0001:0003fa60       ??0?$allocator@UInSliceInfo@?A0xe06365b4@Imf@@@std@@QAE@ABV01@@Z 10040a60 f i ImfScanLineInputFile.obj
 0001:0003fa70       ?_Xlen@?$vector@PAULineBuffer@?A0xe06365b4@Imf@@V?$allocator@PAULineBuffer@?A0xe06365b4@Imf@@@std@@@std@@KAXXZ 10040a70 f i ImfScanLineInputFile.obj
 0001:0003faf0       ??0?$allocator@PAULineBuffer@?A0xe06365b4@Imf@@@std@@QAE@ABV01@@Z 10040af0 f i ImfScanLineInputFile.obj
 0001:0003fb00       ?deallocate@?$allocator@PAULineBuffer@?A0xe06365b4@Imf@@@std@@QAEXPAPAULineBuffer@?A0xe06365b4@Imf@@I@Z 10040b00 f i ImfScanLineInputFile.obj
 0001:0003fb10       ?_Color@?$_Tree@V?$_Tmap_traits@VName@Imf@@USlice@2@U?$less@VName@Imf@@@std@@V?$allocator@U?$pair@$$CBVName@Imf@@USlice@2@@std@@@5@$0A@@std@@@std@@KAAADPAU_Node@?$_Tree_nod@V?$_Tmap_traits@VName@Imf@@USlice@2@U?$less@VName@Imf@@@std@@V?$allocator@U?$pair@$$CBVName@Imf@@USlice@2@@std@@@5@$0A@@std@@@2@@Z 10040b10 f i ImfScanLineInputFile.obj
 0001:0003fb20       ?_Mynode@const_iterator@?$_Tree@V?$_Tmap_traits@VName@Imf@@USlice@2@U?$less@VName@Imf@@@std@@V?$allocator@U?$pair@$$CBVName@Imf@@USlice@2@@std@@@5@$0A@@std@@@std@@QBEPAU_Node@?$_Tree_nod@V?$_Tmap_traits@VName@Imf@@USlice@2@U?$less@VName@Imf@@@std@@V?$allocator@U?$pair@$$CBVName@Imf@@USlice@2@@std@@@5@$0A@@std@@@3@XZ 10040b20 f i ImfScanLineInputFile.obj
 0001:0003fb30       ?_Left@?$_Tree@V?$_Tmap_traits@VName@Imf@@UChannel@2@U?$less@VName@Imf@@@std@@V?$allocator@U?$pair@$$CBVName@Imf@@UChannel@2@@std@@@5@$0A@@std@@@std@@KAAAPAU_Node@?$_Tree_nod@V?$_Tmap_traits@VName@Imf@@UChannel@2@U?$less@VName@Imf@@@std@@V?$allocator@U?$pair@$$CBVName@Imf@@UChannel@2@@std@@@5@$0A@@std@@@2@PAU342@@Z 10040b30 f i ImfScanLineInputFile.obj
 0001:0003fb40       ?capacity@?$vector@_KV?$allocator@_K@std@@@std@@QBEIXZ 10040b40 f i ImfScanLineInputFile.obj
 0001:0003fb60       ?max_size@?$allocator@_K@std@@QBEIXZ 10040b60 f i ImfScanLineInputFile.obj
 0001:0003fb70       ?max_size@?$allocator@I@std@@QBEIXZ 10040b70 f i ImfScanLineInputFile.obj
 0001:0003fb80       ?max_size@?$allocator@UInSliceInfo@?A0xe06365b4@Imf@@@std@@QBEIXZ 10040b80 f i ImfScanLineInputFile.obj
 0001:0003fb90       ?capacity@?$vector@PAULineBuffer@?A0xe06365b4@Imf@@V?$allocator@PAULineBuffer@?A0xe06365b4@Imf@@@std@@@std@@QBEIXZ 10040b90 f i ImfScanLineInputFile.obj
 0001:0003fbb0       ?max_size@?$allocator@PAULineBuffer@?A0xe06365b4@Imf@@@std@@QBEIXZ 10040bb0 f i ImfScanLineInputFile.obj
 0001:0003fbc0       ??G?$_Vector_const_iterator@UInSliceInfo@?A0xe06365b4@Imf@@V?$allocator@UInSliceInfo@?A0xe06365b4@Imf@@@std@@@std@@QBEHABV01@@Z 10040bc0 f i ImfScanLineInputFile.obj
 0001:0003fc00       ??0?$_Ranit@UInSliceInfo@?A0xe06365b4@Imf@@HPBU123@ABU123@@std@@QAE@XZ 10040c00 f i ImfScanLineInputFile.obj
 0001:0003fc10       ??Y?$_Vector_const_iterator@UInSliceInfo@?A0xe06365b4@Imf@@V?$allocator@UInSliceInfo@?A0xe06365b4@Imf@@@std@@@std@@QAEAAV01@H@Z 10040c10 f i ImfScanLineInputFile.obj
 0001:0003fc50       ??8?$_Vector_const_iterator@UInSliceInfo@?A0xe06365b4@Imf@@V?$allocator@UInSliceInfo@?A0xe06365b4@Imf@@@std@@@std@@QBE_NABV01@@Z 10040c50 f i ImfScanLineInputFile.obj
 0001:0003fc80       ??8?$_Vector_const_iterator@_KV?$allocator@_K@std@@@std@@QBE_NABV01@@Z 10040c80 f i ImfScanLineInputFile.obj
 0001:0003fcb0       ??Y?$_Vector_const_iterator@PAULineBuffer@?A0xe06365b4@Imf@@V?$allocator@PAULineBuffer@?A0xe06365b4@Imf@@@std@@@std@@QAEAAV01@H@Z 10040cb0 f i ImfScanLineInputFile.obj
 0001:0003fcf0       ??8?$_Vector_const_iterator@PAULineBuffer@?A0xe06365b4@Imf@@V?$allocator@PAULineBuffer@?A0xe06365b4@Imf@@@std@@@std@@QBE_NABV01@@Z 10040cf0 f i ImfScanLineInputFile.obj
 0001:0003fd20       ??0_Node@?$_Tree_nod@V?$_Tmap_traits@VName@Imf@@USlice@2@U?$less@VName@Imf@@@std@@V?$allocator@U?$pair@$$CBVName@Imf@@USlice@2@@std@@@5@$0A@@std@@@std@@QAE@PAU012@00ABU?$pair@$$CBVName@Imf@@USlice@2@@2@D@Z 10040d20 f i ImfScanLineInputFile.obj
 0001:0003fd60       ??0?$_Ranit@_KHPB_KAB_K@std@@QAE@XZ 10040d60 f i ImfScanLineInputFile.obj
 0001:0003fd70       ??0?$_Ranit@PAULineBuffer@?A0xe06365b4@Imf@@HPBQAU123@ABQAU123@@std@@QAE@XZ 10040d70 f i ImfScanLineInputFile.obj
 0001:0003fd80       ??0?$_Tmap_traits@VName@Imf@@USlice@2@U?$less@VName@Imf@@@std@@V?$allocator@U?$pair@$$CBVName@Imf@@USlice@2@@std@@@5@$0A@@std@@QAE@U?$less@VName@Imf@@@1@@Z 10040d80 f i ImfScanLineInputFile.obj
 0001:0003fd90       ??$max@H@std@@YAABHABH0@Z  10040d90 f i ImfScanLineInputFile.obj
 0001:0003fdb0       ??$swap@D@std@@YAXAAD0@Z   10040db0 f i ImfScanLineInputFile.obj
 0001:0003fdd0       ??$_Destroy@PAU_Node@?$_Tree_nod@V?$_Tmap_traits@VName@Imf@@USlice@2@U?$less@VName@Imf@@@std@@V?$allocator@U?$pair@$$CBVName@Imf@@USlice@2@@std@@@5@$0A@@std@@@std@@@std@@YAXPAPAU_Node@?$_Tree_nod@V?$_Tmap_traits@VName@Imf@@USlice@2@U?$less@VName@Imf@@@std@@V?$allocator@U?$pair@$$CBVName@Imf@@USlice@2@@std@@@5@$0A@@std@@@0@@Z 10040dd0 f i ImfScanLineInputFile.obj
 0001:0003fde0       ??$_Allocate@UInSliceInfo@?A0xe06365b4@Imf@@@std@@YAPAUInSliceInfo@?A0xe06365b4@Imf@@IPAU123@@Z 10040de0 f i ImfScanLineInputFile.obj
 0001:0003fe40       ??$_Allocate@PAULineBuffer@?A0xe06365b4@Imf@@@std@@YAPAPAULineBuffer@?A0xe06365b4@Imf@@IPAPAU123@@Z 10040e40 f i ImfScanLineInputFile.obj
 0001:0003fea0       ??$?0U?$pair@$$CBVName@Imf@@USlice@2@@std@@@?$allocator@PAU_Node@?$_Tree_nod@V?$_Tmap_traits@VName@Imf@@USlice@2@U?$less@VName@Imf@@@std@@V?$allocator@U?$pair@$$CBVName@Imf@@USlice@2@@std@@@5@$0A@@std@@@std@@@std@@QAE@ABV?$allocator@U?$pair@$$CBVName@Imf@@USlice@2@@std@@@1@@Z 10040ea0 f i ImfScanLineInputFile.obj
 0001:0003feb0       ??$_Destroy@U_Node@?$_Tree_nod@V?$_Tmap_traits@VName@Imf@@USlice@2@U?$less@VName@Imf@@@std@@V?$allocator@U?$pair@$$CBVName@Imf@@USlice@2@@std@@@5@$0A@@std@@@std@@@std@@YAXPAU_Node@?$_Tree_nod@V?$_Tmap_traits@VName@Imf@@USlice@2@U?$less@VName@Imf@@@std@@V?$allocator@U?$pair@$$CBVName@Imf@@USlice@2@@std@@@5@$0A@@std@@@0@@Z 10040eb0 f i ImfScanLineInputFile.obj
 0001:0003fec0       ??$?0U?$pair@$$CBVName@Imf@@USlice@2@@std@@@?$allocator@U_Node@?$_Tree_nod@V?$_Tmap_traits@VName@Imf@@USlice@2@U?$less@VName@Imf@@@std@@V?$allocator@U?$pair@$$CBVName@Imf@@USlice@2@@std@@@5@$0A@@std@@@std@@@std@@QAE@ABV?$allocator@U?$pair@$$CBVName@Imf@@USlice@2@@std@@@1@@Z 10040ec0 f i ImfScanLineInputFile.obj
 0001:0003fed0       ??$_Construct@PAU_Node@?$_Tree_nod@V?$_Tmap_traits@VName@Imf@@USlice@2@U?$less@VName@Imf@@@std@@V?$allocator@U?$pair@$$CBVName@Imf@@USlice@2@@std@@@5@$0A@@std@@@std@@PAU123@@std@@YAXPAPAU_Node@?$_Tree_nod@V?$_Tmap_traits@VName@Imf@@USlice@2@U?$less@VName@Imf@@@std@@V?$allocator@U?$pair@$$CBVName@Imf@@USlice@2@@std@@@5@$0A@@std@@@0@ABQAU120@@Z 10040ed0 f i ImfScanLineInputFile.obj
 0001:0003fef0       ??$_Iter_random@PAUInSliceInfo@?A0xe06365b4@Imf@@PAU123@@std@@YA?AUrandom_access_iterator_tag@0@ABQAUInSliceInfo@?A0xe06365b4@Imf@@0@Z 10040ef0 f i ImfScanLineInputFile.obj
 0001:0003ff00       ??$_Ptr_cat@PAUInSliceInfo@?A0xe06365b4@Imf@@PAU123@@std@@YA?AU_Nonscalar_ptr_iterator_tag@0@AAPAUInSliceInfo@?A0xe06365b4@Imf@@0@Z 10040f00 f i ImfScanLineInputFile.obj
 0001:0003ff10       ??$_Iter_random@PA_KPA_K@std@@YA?AUrandom_access_iterator_tag@0@ABQA_K0@Z 10040f10 f i ImfScanLineInputFile.obj
 0001:0003ff20       ??$_Ptr_cat@PA_KPA_K@std@@YA?AU_Scalar_ptr_iterator_tag@0@AAPA_K0@Z 10040f20 f i ImfScanLineInputFile.obj
 0001:0003ff30       ??$_Copy_opt@PA_KPA_KUrandom_access_iterator_tag@std@@@std@@YAPA_KPA_K00Urandom_access_iterator_tag@0@U_Scalar_ptr_iterator_tag@0@U_Range_checked_iterator_tag@0@@Z 10040f30 f i ImfScanLineInputFile.obj
 0001:0003ff70       ??$_Destroy_range@_KV?$allocator@_K@std@@@std@@YAXPA_K0AAV?$allocator@_K@0@U_Scalar_ptr_iterator_tag@0@@Z 10040f70 f i ImfScanLineInputFile.obj
 0001:0003ff80       ??$_Fill@PA_K_K@std@@YAXPA_K0AB_K@Z 10040f80 f i ImfScanLineInputFile.obj
 0001:0003ffb0       ??$_Move_cat@PA_K@std@@YA?AU_Undefined_move_tag@0@ABQA_K@Z 10040fb0 f i ImfScanLineInputFile.obj
 0001:0003ffc0       ??$_Ptr_cat@PAIPAI@std@@YA?AU_Scalar_ptr_iterator_tag@0@AAPAI0@Z 10040fc0 f i ImfScanLineInputFile.obj
 0001:0003ffd0       ??$_Destroy_range@IV?$allocator@I@std@@@std@@YAXPAI0AAV?$allocator@I@0@U_Scalar_ptr_iterator_tag@0@@Z 10040fd0 f i ImfScanLineInputFile.obj
 0001:0003ffe0       ??$_Fill@PAUInSliceInfo@?A0xe06365b4@Imf@@U123@@std@@YAXPAUInSliceInfo@?A0xe06365b4@Imf@@0ABU123@@Z 10040fe0 f i ImfScanLineInputFile.obj
 0001:00040010       ??$_Move_cat@PAUInSliceInfo@?A0xe06365b4@Imf@@@std@@YA?AU_Undefined_move_tag@0@ABQAUInSliceInfo@?A0xe06365b4@Imf@@@Z 10041010 f i ImfScanLineInputFile.obj
 0001:00040020       ??$_Iter_random@PAPAULineBuffer@?A0xe06365b4@Imf@@PAPAU123@@std@@YA?AUrandom_access_iterator_tag@0@ABQAPAULineBuffer@?A0xe06365b4@Imf@@0@Z 10041020 f i ImfScanLineInputFile.obj
 0001:00040030       ??$_Ptr_cat@PAPAULineBuffer@?A0xe06365b4@Imf@@PAPAU123@@std@@YA?AU_Scalar_ptr_iterator_tag@0@AAPAPAULineBuffer@?A0xe06365b4@Imf@@0@Z 10041030 f i ImfScanLineInputFile.obj
 0001:00040040       ??$_Copy_opt@PAPAULineBuffer@?A0xe06365b4@Imf@@PAPAU123@Urandom_access_iterator_tag@std@@@std@@YAPAPAULineBuffer@?A0xe06365b4@Imf@@PAPAU123@00Urandom_access_iterator_tag@0@U_Scalar_ptr_iterator_tag@0@U_Range_checked_iterator_tag@0@@Z 10041040 f i ImfScanLineInputFile.obj
 0001:00040080       ??$_Destroy_range@PAULineBuffer@?A0xe06365b4@Imf@@V?$allocator@PAULineBuffer@?A0xe06365b4@Imf@@@std@@@std@@YAXPAPAULineBuffer@?A0xe06365b4@Imf@@0AAV?$allocator@PAULineBuffer@?A0xe06365b4@Imf@@@0@U_Scalar_ptr_iterator_tag@0@@Z 10041080 f i ImfScanLineInputFile.obj
 0001:00040090       ??$_Fill@PAPAULineBuffer@?A0xe06365b4@Imf@@PAU123@@std@@YAXPAPAULineBuffer@?A0xe06365b4@Imf@@0ABQAU123@@Z 10041090 f i ImfScanLineInputFile.obj
 0001:000400b0       ??$_Move_cat@PAPAULineBuffer@?A0xe06365b4@Imf@@@std@@YA?AU_Undefined_move_tag@0@ABQAPAULineBuffer@?A0xe06365b4@Imf@@@Z 100410b0 f i ImfScanLineInputFile.obj
 0001:000400c0       ??$_Checked_base@PAUInSliceInfo@?A0xe06365b4@Imf@@@std@@YAPAUInSliceInfo@?A0xe06365b4@Imf@@AAPAU123@U_Unchanged_checked_iterator_base_type_tag@0@@Z 100410c0 f i ImfScanLineInputFile.obj
 0001:000400d0       ??$_Copy_opt@PAUInSliceInfo@?A0xe06365b4@Imf@@PAU123@Uforward_iterator_tag@std@@@std@@YAPAUInSliceInfo@?A0xe06365b4@Imf@@PAU123@00Uforward_iterator_tag@0@U_Nonscalar_ptr_iterator_tag@0@U_Range_checked_iterator_tag@0@@Z 100410d0 f i ImfScanLineInputFile.obj
 0001:00040100       ??$_Checked_base@PA_K@std@@YAPA_KAAPA_KU_Unchanged_checked_iterator_base_type_tag@0@@Z 10041100 f i ImfScanLineInputFile.obj
 0001:00040110       ??$_Copy_backward_opt@PA_KPA_KUrandom_access_iterator_tag@std@@@std@@YAPA_KPA_K00Urandom_access_iterator_tag@0@U_Scalar_ptr_iterator_tag@0@U_Range_checked_iterator_tag@0@@Z 10041110 f i ImfScanLineInputFile.obj
 0001:00040140       ??$_Checked_base@PAPAULineBuffer@?A0xe06365b4@Imf@@@std@@YAPAPAULineBuffer@?A0xe06365b4@Imf@@AAPAPAU123@U_Unchanged_checked_iterator_base_type_tag@0@@Z 10041140 f i ImfScanLineInputFile.obj
 0001:00040150       ??$_Copy_backward_opt@PAPAULineBuffer@?A0xe06365b4@Imf@@PAPAU123@Urandom_access_iterator_tag@std@@@std@@YAPAPAULineBuffer@?A0xe06365b4@Imf@@PAPAU123@00Urandom_access_iterator_tag@0@U_Scalar_ptr_iterator_tag@0@U_Range_checked_iterator_tag@0@@Z 10041150 f i ImfScanLineInputFile.obj
 0001:00040180       ??$_Construct@UInSliceInfo@?A0xe06365b4@Imf@@U123@@std@@YAXPAUInSliceInfo@?A0xe06365b4@Imf@@ABU123@@Z 10041180 f i ImfScanLineInputFile.obj
 0001:000401a0       ??$_Destroy@UInSliceInfo@?A0xe06365b4@Imf@@@std@@YAXPAUInSliceInfo@?A0xe06365b4@Imf@@@Z 100411a0 f i ImfScanLineInputFile.obj
 0001:000401b0       ??$_Copy_backward_opt@PAUInSliceInfo@?A0xe06365b4@Imf@@PAU123@Uforward_iterator_tag@std@@@std@@YAPAUInSliceInfo@?A0xe06365b4@Imf@@PAU123@00Uforward_iterator_tag@0@U_Nonscalar_ptr_iterator_tag@0@U_Range_checked_iterator_tag@0@@Z 100411b0 f i ImfScanLineInputFile.obj
 0001:000401e0       ??$_Iter_cat@PA_K@std@@YA?AUrandom_access_iterator_tag@0@ABQA_K@Z 100411e0 f i ImfScanLineInputFile.obj
 0001:000401f0       ??$_Iter_cat@PAPAULineBuffer@?A0xe06365b4@Imf@@@std@@YA?AUrandom_access_iterator_tag@0@ABQAPAULineBuffer@?A0xe06365b4@Imf@@@Z 100411f0 f i ImfScanLineInputFile.obj
 0001:00040200       ??$_Uninit_copy@PA_KPA_KV?$allocator@_K@std@@@std@@YAPA_KPA_K00AAV?$allocator@_K@0@U_Scalar_ptr_iterator_tag@0@U_Range_checked_iterator_tag@0@@Z 10041200 f i ImfScanLineInputFile.obj
 0001:00040230       ??$_Uninit_copy@PAPAULineBuffer@?A0xe06365b4@Imf@@PAPAU123@V?$allocator@PAULineBuffer@?A0xe06365b4@Imf@@@std@@@std@@YAPAPAULineBuffer@?A0xe06365b4@Imf@@PAPAU123@00AAV?$allocator@PAULineBuffer@?A0xe06365b4@Imf@@@0@U_Scalar_ptr_iterator_tag@0@U_Range_checked_iterator_tag@0@@Z 10041230 f i ImfScanLineInputFile.obj
 0001:00040260       ??$_Fill_n@PA_KI_K@std@@YAXPA_KIAB_KU_Range_checked_iterator_tag@0@@Z 10041260 f i ImfScanLineInputFile.obj
 0001:00040290       ??$_Fill_n@PAPAULineBuffer@?A0xe06365b4@Imf@@IPAU123@@std@@YAXPAPAULineBuffer@?A0xe06365b4@Imf@@IABQAU123@U_Range_checked_iterator_tag@0@@Z 10041290 f i ImfScanLineInputFile.obj
 0001:000402c0       ??8Imf@@YA_NABVConstIterator@FrameBuffer@0@0@Z 100412c0 f i ImfScanLineInputFile.obj
 0001:000402f0       ??9Imf@@YA_NABVConstIterator@FrameBuffer@0@0@Z 100412f0 f i ImfScanLineInputFile.obj
 0001:00040320       ??8Imf@@YA_NABVConstIterator@ChannelList@0@0@Z 10041320 f i ImfScanLineInputFile.obj
 0001:00040350       ??9Imf@@YA_NABVConstIterator@ChannelList@0@0@Z 10041350 f i ImfScanLineInputFile.obj
 0001:00040380       ?getLineBuffer@Data@ScanLineInputFile@Imf@@QAEPAULineBuffer@?A0xe06365b4@3@H@Z 10041380 f i ImfScanLineInputFile.obj
 0001:000403e0       ??_ELineBufferTask@?A0xe06365b4@Imf@@UAEPAXI@Z 100413e0 f i ImfScanLineInputFile.obj
 0001:000403e0       ??_GLineBufferTask@?A0xe06365b4@Imf@@UAEPAXI@Z 100413e0 f i ImfScanLineInputFile.obj
 0001:00040400       ??A?$vector@IV?$allocator@I@std@@@std@@QAEAAII@Z 10041400 f i ImfScanLineInputFile.obj
 0001:00040430       ??0?$_Vector_val@_KV?$allocator@_K@std@@@std@@IAE@V?$allocator@_K@1@@Z 10041430 f i ImfScanLineInputFile.obj
 0001:00040440       ??0?$_Vector_val@IV?$allocator@I@std@@@std@@IAE@V?$allocator@I@1@@Z 10041440 f i ImfScanLineInputFile.obj
 0001:00040450       ??0?$_Vector_val@UInSliceInfo@?A0xe06365b4@Imf@@V?$allocator@UInSliceInfo@?A0xe06365b4@Imf@@@std@@@std@@IAE@V?$allocator@UInSliceInfo@?A0xe06365b4@Imf@@@1@@Z 10041450 f i ImfScanLineInputFile.obj
 0001:00040460       ??0?$_Vector_val@PAULineBuffer@?A0xe06365b4@Imf@@V?$allocator@PAULineBuffer@?A0xe06365b4@Imf@@@std@@@std@@IAE@V?$allocator@PAULineBuffer@?A0xe06365b4@Imf@@@1@@Z 10041460 f i ImfScanLineInputFile.obj
 0001:00040470       ?destroy@?$allocator@PAU_Node@?$_Tree_nod@V?$_Tmap_traits@VName@Imf@@USlice@2@U?$less@VName@Imf@@@std@@V?$allocator@U?$pair@$$CBVName@Imf@@USlice@2@@std@@@5@$0A@@std@@@std@@@std@@QAEXPAPAU_Node@?$_Tree_nod@V?$_Tmap_traits@VName@Imf@@USlice@2@U?$less@VName@Imf@@@std@@V?$allocator@U?$pair@$$CBVName@Imf@@USlice@2@@std@@@5@$0A@@std@@@2@@Z 10041470 f i ImfScanLineInputFile.obj
 0001:00040480       ??0iterator@?$_Tree@V?$_Tmap_traits@VName@Imf@@USlice@2@U?$less@VName@Imf@@@std@@V?$allocator@U?$pair@$$CBVName@Imf@@USlice@2@@std@@@5@$0A@@std@@@std@@QAE@PAU_Node@?$_Tree_nod@V?$_Tmap_traits@VName@Imf@@USlice@2@U?$less@VName@Imf@@@std@@V?$allocator@U?$pair@$$CBVName@Imf@@USlice@2@@std@@@5@$0A@@std@@@2@PBV12@@Z 10041480 f i ImfScanLineInputFile.obj
 0001:000404b0       ?_Min@?$_Tree@V?$_Tmap_traits@VName@Imf@@UChannel@2@U?$less@VName@Imf@@@std@@V?$allocator@U?$pair@$$CBVName@Imf@@UChannel@2@@std@@@5@$0A@@std@@@std@@KAPAU_Node@?$_Tree_nod@V?$_Tmap_traits@VName@Imf@@UChannel@2@U?$less@VName@Imf@@@std@@V?$allocator@U?$pair@$$CBVName@Imf@@UChannel@2@@std@@@5@$0A@@std@@@2@PAU342@@Z 100414b0 f i ImfScanLineInputFile.obj
 0001:000404d0       ?max_size@?$vector@_KV?$allocator@_K@std@@@std@@QBEIXZ 100414d0 f i ImfScanLineInputFile.obj
 0001:000404e0       ?allocate@?$allocator@_K@std@@QAEPA_KI@Z 100414e0 f i ImfScanLineInputFile.obj
 0001:00040500       ?max_size@?$vector@IV?$allocator@I@std@@@std@@QBEIXZ 10041500 f i ImfScanLineInputFile.obj
 0001:00040510       ?allocate@?$allocator@I@std@@QAEPAII@Z 10041510 f i ImfScanLineInputFile.obj
 0001:00040530       ?max_size@?$vector@UInSliceInfo@?A0xe06365b4@Imf@@V?$allocator@UInSliceInfo@?A0xe06365b4@Imf@@@std@@@std@@QBEIXZ 10041530 f i ImfScanLineInputFile.obj
 0001:00040540       ?allocate@?$allocator@UInSliceInfo@?A0xe06365b4@Imf@@@std@@QAEPAUInSliceInfo@?A0xe06365b4@Imf@@I@Z 10041540 f i ImfScanLineInputFile.obj
 0001:00040560       ?max_size@?$vector@PAULineBuffer@?A0xe06365b4@Imf@@V?$allocator@PAULineBuffer@?A0xe06365b4@Imf@@@std@@@std@@QBEIXZ 10041560 f i ImfScanLineInputFile.obj
 0001:00040570       ?allocate@?$allocator@PAULineBuffer@?A0xe06365b4@Imf@@@std@@QAEPAPAULineBuffer@?A0xe06365b4@Imf@@I@Z 10041570 f i ImfScanLineInputFile.obj
 0001:00040590       ??G?$_Vector_iterator@UInSliceInfo@?A0xe06365b4@Imf@@V?$allocator@UInSliceInfo@?A0xe06365b4@Imf@@@std@@@std@@QBEHABV?$_Vector_const_iterator@UInSliceInfo@?A0xe06365b4@Imf@@V?$allocator@UInSliceInfo@?A0xe06365b4@Imf@@@std@@@1@@Z 10041590 f i ImfScanLineInputFile.obj
 0001:000405d0       ?destroy@?$allocator@U_Node@?$_Tree_nod@V?$_Tmap_traits@VName@Imf@@USlice@2@U?$less@VName@Imf@@@std@@V?$allocator@U?$pair@$$CBVName@Imf@@USlice@2@@std@@@5@$0A@@std@@@std@@@std@@QAEXPAU_Node@?$_Tree_nod@V?$_Tmap_traits@VName@Imf@@USlice@2@U?$less@VName@Imf@@@std@@V?$allocator@U?$pair@$$CBVName@Imf@@USlice@2@@std@@@5@$0A@@std@@@2@@Z 100415d0 f i ImfScanLineInputFile.obj
 0001:000405e0       ??Y?$_Vector_iterator@UInSliceInfo@?A0xe06365b4@Imf@@V?$allocator@UInSliceInfo@?A0xe06365b4@Imf@@@std@@@std@@QAEAAV01@H@Z 100415e0 f i ImfScanLineInputFile.obj
 0001:00040620       ??0?$_Vector_const_iterator@UInSliceInfo@?A0xe06365b4@Imf@@V?$allocator@UInSliceInfo@?A0xe06365b4@Imf@@@std@@@std@@QAE@PAUInSliceInfo@?A0xe06365b4@Imf@@PBU_Container_base@1@@Z 10041620 f i ImfScanLineInputFile.obj
 0001:00040660       ??9?$_Vector_const_iterator@UInSliceInfo@?A0xe06365b4@Imf@@V?$allocator@UInSliceInfo@?A0xe06365b4@Imf@@@std@@@std@@QBE_NABV01@@Z 10041660 f i ImfScanLineInputFile.obj
 0001:00040690       ??Y?$_Vector_iterator@_KV?$allocator@_K@std@@@std@@QAEAAV01@H@Z 10041690 f i ImfScanLineInputFile.obj
 0001:000406d0       ??9?$_Vector_const_iterator@_KV?$allocator@_K@std@@@std@@QBE_NABV01@@Z 100416d0 f i ImfScanLineInputFile.obj
 0001:00040700       ??Y?$_Vector_iterator@PAULineBuffer@?A0xe06365b4@Imf@@V?$allocator@PAULineBuffer@?A0xe06365b4@Imf@@@std@@@std@@QAEAAV01@H@Z 10041700 f i ImfScanLineInputFile.obj
 0001:00040740       ??9?$_Vector_const_iterator@PAULineBuffer@?A0xe06365b4@Imf@@V?$allocator@PAULineBuffer@?A0xe06365b4@Imf@@@std@@@std@@QBE_NABV01@@Z 10041740 f i ImfScanLineInputFile.obj
 0001:00040770       ??0?$_Tree_nod@V?$_Tmap_traits@VName@Imf@@USlice@2@U?$less@VName@Imf@@@std@@V?$allocator@U?$pair@$$CBVName@Imf@@USlice@2@@std@@@5@$0A@@std@@@std@@IAE@ABU?$less@VName@Imf@@@1@V?$allocator@U?$pair@$$CBVName@Imf@@USlice@2@@std@@@1@@Z 10041770 f i ImfScanLineInputFile.obj
 0001:00040780       ?construct@?$allocator@PAU_Node@?$_Tree_nod@V?$_Tmap_traits@VName@Imf@@USlice@2@U?$less@VName@Imf@@@std@@V?$allocator@U?$pair@$$CBVName@Imf@@USlice@2@@std@@@5@$0A@@std@@@std@@@std@@QAEXPAPAU_Node@?$_Tree_nod@V?$_Tmap_traits@VName@Imf@@USlice@2@U?$less@VName@Imf@@@std@@V?$allocator@U?$pair@$$CBVName@Imf@@USlice@2@@std@@@5@$0A@@std@@@2@ABQAU342@@Z 10041780 f i ImfScanLineInputFile.obj
 0001:000407a0       ??0?$_Vector_const_iterator@_KV?$allocator@_K@std@@@std@@QAE@PA_KPBU_Container_base@1@@Z 100417a0 f i ImfScanLineInputFile.obj
 0001:000407e0       ??0?$_Vector_const_iterator@PAULineBuffer@?A0xe06365b4@Imf@@V?$allocator@PAULineBuffer@?A0xe06365b4@Imf@@@std@@@std@@QAE@PAPAULineBuffer@?A0xe06365b4@Imf@@PBU_Container_base@1@@Z 100417e0 f i ImfScanLineInputFile.obj
 0001:00040820       ??$read@UStreamIO@Imf@@VIStream@2@@Xdr@Imf@@YAXAAVIStream@1@AA_K@Z 10041820 f i ImfScanLineInputFile.obj
 0001:000408d0       ??$_Destroy_range@_KV?$allocator@_K@std@@@std@@YAXPA_K0AAV?$allocator@_K@0@@Z 100418d0 f i ImfScanLineInputFile.obj
 0001:000408e0       ??$_Destroy_range@IV?$allocator@I@std@@@std@@YAXPAI0AAV?$allocator@I@0@@Z 100418e0 f i ImfScanLineInputFile.obj
 0001:000408f0       ??$_Destroy_range@PAULineBuffer@?A0xe06365b4@Imf@@V?$allocator@PAULineBuffer@?A0xe06365b4@Imf@@@std@@@std@@YAXPAPAULineBuffer@?A0xe06365b4@Imf@@0AAV?$allocator@PAULineBuffer@?A0xe06365b4@Imf@@@0@@Z 100418f0 f i ImfScanLineInputFile.obj
 0001:00040900       ??$_Checked_base@PAUInSliceInfo@?A0xe06365b4@Imf@@@std@@YAPAUInSliceInfo@?A0xe06365b4@Imf@@AAPAU123@@Z 10041900 f i ImfScanLineInputFile.obj
 0001:00040910       ??$_Copy_opt@PAUInSliceInfo@?A0xe06365b4@Imf@@PAU123@@std@@YAPAUInSliceInfo@?A0xe06365b4@Imf@@PAU123@00Urandom_access_iterator_tag@0@U_Nonscalar_ptr_iterator_tag@0@U_Range_checked_iterator_tag@0@@Z 10041910 f i ImfScanLineInputFile.obj
 0001:00040960       ??$_Checked_base@PA_K@std@@YAPA_KAAPA_K@Z 10041960 f i ImfScanLineInputFile.obj
 0001:00040970       ??$_Move_backward_opt@PA_KPA_KUrandom_access_iterator_tag@std@@U_Undefined_move_tag@2@@std@@YAPA_KPA_K00Urandom_access_iterator_tag@0@U_Undefined_move_tag@0@U_Range_checked_iterator_tag@0@@Z 10041970 f i ImfScanLineInputFile.obj
 0001:000409a0       ??$_Checked_base@PAPAULineBuffer@?A0xe06365b4@Imf@@@std@@YAPAPAULineBuffer@?A0xe06365b4@Imf@@AAPAPAU123@@Z 100419a0 f i ImfScanLineInputFile.obj
 0001:000409b0       ??$_Move_backward_opt@PAPAULineBuffer@?A0xe06365b4@Imf@@PAPAU123@Urandom_access_iterator_tag@std@@U_Undefined_move_tag@5@@std@@YAPAPAULineBuffer@?A0xe06365b4@Imf@@PAPAU123@00Urandom_access_iterator_tag@0@U_Undefined_move_tag@0@U_Range_checked_iterator_tag@0@@Z 100419b0 f i ImfScanLineInputFile.obj
 0001:000409e0       ?construct@?$allocator@UInSliceInfo@?A0xe06365b4@Imf@@@std@@QAEXPAUInSliceInfo@?A0xe06365b4@Imf@@ABU345@@Z 100419e0 f i ImfScanLineInputFile.obj
 0001:00040a00       ?destroy@?$allocator@UInSliceInfo@?A0xe06365b4@Imf@@@std@@QAEXPAUInSliceInfo@?A0xe06365b4@Imf@@@Z 10041a00 f i ImfScanLineInputFile.obj
 0001:00040a10       ??$_Uninit_copy@PAUInSliceInfo@?A0xe06365b4@Imf@@PAU123@V?$allocator@UInSliceInfo@?A0xe06365b4@Imf@@@std@@@std@@YAPAUInSliceInfo@?A0xe06365b4@Imf@@PAU123@00AAV?$allocator@UInSliceInfo@?A0xe06365b4@Imf@@@0@U_Nonscalar_ptr_iterator_tag@0@U_Range_checked_iterator_tag@0@@Z 10041a10 f i ImfScanLineInputFile.obj
 0001:00040a40       ??$_Copy_backward_opt@PAUInSliceInfo@?A0xe06365b4@Imf@@PAU123@@std@@YAPAUInSliceInfo@?A0xe06365b4@Imf@@PAU123@00Urandom_access_iterator_tag@0@U_Nonscalar_ptr_iterator_tag@0@U_Range_checked_iterator_tag@0@@Z 10041a40 f i ImfScanLineInputFile.obj
 0001:00040aa0       ??$unchecked_uninitialized_copy@PAPAULineBuffer@?A0xe06365b4@Imf@@PAPAU123@V?$allocator@PAULineBuffer@?A0xe06365b4@Imf@@@std@@@stdext@@YAPAPAULineBuffer@?A0xe06365b4@Imf@@PAPAU123@00AAV?$allocator@PAULineBuffer@?A0xe06365b4@Imf@@@std@@@Z 10041aa0 f i ImfScanLineInputFile.obj
 0001:00040ad0       ??$_Fill_n@PA_KI_K@std@@YAXPA_KIAB_KUrandom_access_iterator_tag@0@U_Range_checked_iterator_tag@0@@Z 10041ad0 f i ImfScanLineInputFile.obj
 0001:00040b00       ??$_Fill_n@PAPAULineBuffer@?A0xe06365b4@Imf@@IPAU123@@std@@YAXPAPAULineBuffer@?A0xe06365b4@Imf@@IABQAU123@Urandom_access_iterator_tag@0@U_Range_checked_iterator_tag@0@@Z 10041b00 f i ImfScanLineInputFile.obj
 0001:00040b30       ??_GScanLineInputFile@Imf@@UAEPAXI@Z 10041b30 f i ImfScanLineInputFile.obj
 0001:00040b30       ??_EScanLineInputFile@Imf@@UAEPAXI@Z 10041b30 f i ImfScanLineInputFile.obj
 0001:00040b50       ??Cconst_iterator@?$_Tree@V?$_Tmap_traits@VName@Imf@@USlice@2@U?$less@VName@Imf@@@std@@V?$allocator@U?$pair@$$CBVName@Imf@@USlice@2@@std@@@5@$0A@@std@@@std@@QBEPBU?$pair@$$CBVName@Imf@@USlice@2@@2@XZ 10041b50 f i ImfScanLineInputFile.obj
 0001:00040b80       ??Econst_iterator@?$_Tree@V?$_Tmap_traits@VName@Imf@@USlice@2@U?$less@VName@Imf@@@std@@V?$allocator@U?$pair@$$CBVName@Imf@@USlice@2@@std@@@5@$0A@@std@@@std@@QAEAAV012@XZ 10041b80 f i ImfScanLineInputFile.obj
 0001:00040b90       ??Cconst_iterator@?$_Tree@V?$_Tmap_traits@VName@Imf@@UChannel@2@U?$less@VName@Imf@@@std@@V?$allocator@U?$pair@$$CBVName@Imf@@UChannel@2@@std@@@5@$0A@@std@@@std@@QBEPBU?$pair@$$CBVName@Imf@@UChannel@2@@2@XZ 10041b90 f i ImfScanLineInputFile.obj
 0001:00040bc0       ?begin@?$_Tree@V?$_Tmap_traits@VName@Imf@@USlice@2@U?$less@VName@Imf@@@std@@V?$allocator@U?$pair@$$CBVName@Imf@@USlice@2@@std@@@5@$0A@@std@@@std@@QAE?AViterator@12@XZ 10041bc0 f i ImfScanLineInputFile.obj
 0001:00040be0       ?end@?$_Tree@V?$_Tmap_traits@VName@Imf@@USlice@2@U?$less@VName@Imf@@@std@@V?$allocator@U?$pair@$$CBVName@Imf@@USlice@2@@std@@@5@$0A@@std@@@std@@QAE?AViterator@12@XZ 10041be0 f i ImfScanLineInputFile.obj
 0001:00040bf0       ?_Buy@?$vector@UInSliceInfo@?A0xe06365b4@Imf@@V?$allocator@UInSliceInfo@?A0xe06365b4@Imf@@@std@@@std@@IAE_NI@Z 10041bf0 f i ImfScanLineInputFile.obj
 0001:00040c40       ?_Buy@?$vector@PAULineBuffer@?A0xe06365b4@Imf@@V?$allocator@PAULineBuffer@?A0xe06365b4@Imf@@@std@@@std@@IAE_NI@Z 10041c40 f i ImfScanLineInputFile.obj
 0001:00040c90       ?_Destroy@?$vector@_KV?$allocator@_K@std@@@std@@IAEXPA_K0@Z 10041c90 f i ImfScanLineInputFile.obj
 0001:00040ca0       ?_Destroy@?$vector@IV?$allocator@I@std@@@std@@IAEXPAI0@Z 10041ca0 f i ImfScanLineInputFile.obj
 0001:00040cb0       ?_Destroy@?$vector@PAULineBuffer@?A0xe06365b4@Imf@@V?$allocator@PAULineBuffer@?A0xe06365b4@Imf@@@std@@@std@@IAEXPAPAULineBuffer@?A0xe06365b4@Imf@@0@Z 10041cb0 f i ImfScanLineInputFile.obj
 0001:00040cc0       ??0?$_Vector_iterator@UInSliceInfo@?A0xe06365b4@Imf@@V?$allocator@UInSliceInfo@?A0xe06365b4@Imf@@@std@@@std@@QAE@PAUInSliceInfo@?A0xe06365b4@Imf@@PBU_Container_base@1@@Z 10041cc0 f i ImfScanLineInputFile.obj
 0001:00040d00       ??H?$_Vector_iterator@UInSliceInfo@?A0xe06365b4@Imf@@V?$allocator@UInSliceInfo@?A0xe06365b4@Imf@@@std@@@std@@QBE?AV01@H@Z 10041d00 f i ImfScanLineInputFile.obj
 0001:00040d40       ??H?$_Vector_iterator@_KV?$allocator@_K@std@@@std@@QBE?AV01@H@Z 10041d40 f i ImfScanLineInputFile.obj
 0001:00040d80       ??H?$_Vector_iterator@PAULineBuffer@?A0xe06365b4@Imf@@V?$allocator@PAULineBuffer@?A0xe06365b4@Imf@@@std@@@std@@QBE?AV01@H@Z 10041d80 f i ImfScanLineInputFile.obj
 0001:00040dc0       ??0?$_Tree_ptr@V?$_Tmap_traits@VName@Imf@@USlice@2@U?$less@VName@Imf@@@std@@V?$allocator@U?$pair@$$CBVName@Imf@@USlice@2@@std@@@5@$0A@@std@@@std@@IAE@ABU?$less@VName@Imf@@@1@V?$allocator@U?$pair@$$CBVName@Imf@@USlice@2@@std@@@1@@Z 10041dc0 f i ImfScanLineInputFile.obj
 0001:00040dd0       ??0?$_Vector_iterator@_KV?$allocator@_K@std@@@std@@QAE@PA_KPBU_Container_base@1@@Z 10041dd0 f i ImfScanLineInputFile.obj
 0001:00040e10       ??0?$_Vector_iterator@PAULineBuffer@?A0xe06365b4@Imf@@V?$allocator@PAULineBuffer@?A0xe06365b4@Imf@@@std@@@std@@QAE@PAPAULineBuffer@?A0xe06365b4@Imf@@PBU_Container_base@1@@Z 10041e10 f i ImfScanLineInputFile.obj
 0001:00040e50       ??$unchecked_copy@PAUInSliceInfo@?A0xe06365b4@Imf@@PAU123@@stdext@@YAPAUInSliceInfo@?A0xe06365b4@Imf@@PAU123@00@Z 10041e50 f i ImfScanLineInputFile.obj
 0001:00040e80       ??$fill@PA_K_K@std@@YAXPA_K0AB_K@Z 10041e80 f i ImfScanLineInputFile.obj
 0001:00040eb0       ??$fill@PAUInSliceInfo@?A0xe06365b4@Imf@@U123@@std@@YAXPAUInSliceInfo@?A0xe06365b4@Imf@@0ABU123@@Z 10041eb0 f i ImfScanLineInputFile.obj
 0001:00040ee0       ??$unchecked_copy@PAPAULineBuffer@?A0xe06365b4@Imf@@PAPAU123@@stdext@@YAPAPAULineBuffer@?A0xe06365b4@Imf@@PAPAU123@00@Z 10041ee0 f i ImfScanLineInputFile.obj
 0001:00040f20       ??$fill@PAPAULineBuffer@?A0xe06365b4@Imf@@PAU123@@std@@YAXPAPAULineBuffer@?A0xe06365b4@Imf@@0ABQAU123@@Z 10041f20 f i ImfScanLineInputFile.obj
 0001:00040f40       ??$_Unchecked_move_backward@PAPAULineBuffer@?A0xe06365b4@Imf@@PAPAU123@@stdext@@YAPAPAULineBuffer@?A0xe06365b4@Imf@@PAPAU123@00@Z 10041f40 f i ImfScanLineInputFile.obj
 0001:00040f70       ??$unchecked_uninitialized_copy@PAUInSliceInfo@?A0xe06365b4@Imf@@PAU123@V?$allocator@UInSliceInfo@?A0xe06365b4@Imf@@@std@@@stdext@@YAPAUInSliceInfo@?A0xe06365b4@Imf@@PAU123@00AAV?$allocator@UInSliceInfo@?A0xe06365b4@Imf@@@std@@@Z 10041f70 f i ImfScanLineInputFile.obj
 0001:00040fa0       ??$_Destroy_range@UInSliceInfo@?A0xe06365b4@Imf@@V?$allocator@UInSliceInfo@?A0xe06365b4@Imf@@@std@@@std@@YAXPAUInSliceInfo@?A0xe06365b4@Imf@@0AAV?$allocator@UInSliceInfo@?A0xe06365b4@Imf@@@0@U_Nonscalar_ptr_iterator_tag@0@@Z 10041fa0 f i ImfScanLineInputFile.obj
 0001:00040fb0       ??$_Uninit_fill_n@PAUInSliceInfo@?A0xe06365b4@Imf@@IU123@V?$allocator@UInSliceInfo@?A0xe06365b4@Imf@@@std@@@std@@YAXPAUInSliceInfo@?A0xe06365b4@Imf@@IABU123@AAV?$allocator@UInSliceInfo@?A0xe06365b4@Imf@@@0@U_Nonscalar_ptr_iterator_tag@0@U_Range_checked_iterator_tag@0@@Z 10041fb0 f i ImfScanLineInputFile.obj
 0001:00040fe0       ??$_Move_backward_opt@PAUInSliceInfo@?A0xe06365b4@Imf@@PAU123@Urandom_access_iterator_tag@std@@U_Undefined_move_tag@5@@std@@YAPAUInSliceInfo@?A0xe06365b4@Imf@@PAU123@00Urandom_access_iterator_tag@0@U_Undefined_move_tag@0@U_Range_checked_iterator_tag@0@@Z 10041fe0 f i ImfScanLineInputFile.obj
 0001:00041000       ??$_Uninit_move@PA_KPA_KV?$allocator@_K@std@@U_Undefined_move_tag@2@@std@@YAPA_KPA_K00AAV?$allocator@_K@0@U_Undefined_move_tag@0@U_Range_checked_iterator_tag@0@@Z 10042000 f i ImfScanLineInputFile.obj
 0001:00041030       ??$_Uninit_move@PAUInSliceInfo@?A0xe06365b4@Imf@@PAU123@V?$allocator@UInSliceInfo@?A0xe06365b4@Imf@@@std@@U_Undefined_move_tag@5@@std@@YAPAUInSliceInfo@?A0xe06365b4@Imf@@PAU123@00AAV?$allocator@UInSliceInfo@?A0xe06365b4@Imf@@@0@U_Undefined_move_tag@0@U_Range_checked_iterator_tag@0@@Z 10042030 f i ImfScanLineInputFile.obj
 0001:00041050       ??$_Uninit_move@PAPAULineBuffer@?A0xe06365b4@Imf@@PAPAU123@V?$allocator@PAULineBuffer@?A0xe06365b4@Imf@@@std@@U_Undefined_move_tag@5@@std@@YAPAPAULineBuffer@?A0xe06365b4@Imf@@PAPAU123@00AAV?$allocator@PAULineBuffer@?A0xe06365b4@Imf@@@0@U_Undefined_move_tag@0@U_Range_checked_iterator_tag@0@@Z 10042050 f i ImfScanLineInputFile.obj
 0001:00041080       ??$unchecked_fill_n@PAPAULineBuffer@?A0xe06365b4@Imf@@IPAU123@@stdext@@YAXPAPAULineBuffer@?A0xe06365b4@Imf@@IABQAU123@@Z 10042080 f i ImfScanLineInputFile.obj
 0001:000410b0       ??EConstIterator@FrameBuffer@Imf@@QAEAAV012@XZ 100420b0 f i ImfScanLineInputFile.obj
 0001:000410c0       ??Eiterator@?$_Tree@V?$_Tmap_traits@VName@Imf@@USlice@2@U?$less@VName@Imf@@@std@@V?$allocator@U?$pair@$$CBVName@Imf@@USlice@2@@std@@@5@$0A@@std@@@std@@QAEAAV012@XZ 100420c0 f i ImfScanLineInputFile.obj
 0001:000410d0       ??Econst_iterator@?$_Tree@V?$_Tmap_traits@VName@Imf@@UChannel@2@U?$less@VName@Imf@@@std@@V?$allocator@U?$pair@$$CBVName@Imf@@UChannel@2@@std@@@5@$0A@@std@@@std@@QAEAAV012@XZ 100420d0 f i ImfScanLineInputFile.obj
 0001:000410e0       ??0?$vector@_KV?$allocator@_K@std@@@std@@QAE@XZ 100420e0 f i ImfScanLineInputFile.obj
 0001:000410f0       ??0?$vector@IV?$allocator@I@std@@@std@@QAE@XZ 100420f0 f i ImfScanLineInputFile.obj
 0001:00041100       ??0?$vector@UInSliceInfo@?A0xe06365b4@Imf@@V?$allocator@UInSliceInfo@?A0xe06365b4@Imf@@@std@@@std@@QAE@XZ 10042100 f i ImfScanLineInputFile.obj
 0001:00041110       ??0?$vector@PAULineBuffer@?A0xe06365b4@Imf@@V?$allocator@PAULineBuffer@?A0xe06365b4@Imf@@@std@@@std@@QAE@XZ 10042110 f i ImfScanLineInputFile.obj
 0001:00041120       ?end@?$vector@UInSliceInfo@?A0xe06365b4@Imf@@V?$allocator@UInSliceInfo@?A0xe06365b4@Imf@@@std@@@std@@QAE?AV?$_Vector_iterator@UInSliceInfo@?A0xe06365b4@Imf@@V?$allocator@UInSliceInfo@?A0xe06365b4@Imf@@@std@@@2@XZ 10042120 f i ImfScanLineInputFile.obj
 0001:00041150       ?_Tidy@?$vector@PAULineBuffer@?A0xe06365b4@Imf@@V?$allocator@PAULineBuffer@?A0xe06365b4@Imf@@@std@@@std@@IAEXXZ 10042150 f i ImfScanLineInputFile.obj
 0001:00041180       ??0?$_Tree_val@V?$_Tmap_traits@VName@Imf@@USlice@2@U?$less@VName@Imf@@@std@@V?$allocator@U?$pair@$$CBVName@Imf@@USlice@2@@std@@@5@$0A@@std@@@std@@IAE@ABU?$less@VName@Imf@@@1@V?$allocator@U?$pair@$$CBVName@Imf@@USlice@2@@std@@@1@@Z 10042180 f i ImfScanLineInputFile.obj
 0001:00041190       ??Eiterator@?$_Tree@V?$_Tmap_traits@VName@Imf@@USlice@2@U?$less@VName@Imf@@@std@@V?$allocator@U?$pair@$$CBVName@Imf@@USlice@2@@std@@@5@$0A@@std@@@std@@QAE?AV012@H@Z 10042190 f i ImfScanLineInputFile.obj
 0001:000411b0       ?begin@?$vector@_KV?$allocator@_K@std@@@std@@QAE?AV?$_Vector_iterator@_KV?$allocator@_K@std@@@2@XZ 100421b0 f i ImfScanLineInputFile.obj
 0001:000411e0       ?end@?$vector@_KV?$allocator@_K@std@@@std@@QAE?AV?$_Vector_iterator@_KV?$allocator@_K@std@@@2@XZ 100421e0 f i ImfScanLineInputFile.obj
 0001:00041210       ?begin@?$vector@UInSliceInfo@?A0xe06365b4@Imf@@V?$allocator@UInSliceInfo@?A0xe06365b4@Imf@@@std@@@std@@QAE?AV?$_Vector_iterator@UInSliceInfo@?A0xe06365b4@Imf@@V?$allocator@UInSliceInfo@?A0xe06365b4@Imf@@@std@@@2@XZ 10042210 f i ImfScanLineInputFile.obj
 0001:00041240       ?begin@?$vector@PAULineBuffer@?A0xe06365b4@Imf@@V?$allocator@PAULineBuffer@?A0xe06365b4@Imf@@@std@@@std@@QAE?AV?$_Vector_iterator@PAULineBuffer@?A0xe06365b4@Imf@@V?$allocator@PAULineBuffer@?A0xe06365b4@Imf@@@std@@@2@XZ 10042240 f i ImfScanLineInputFile.obj
 0001:00041270       ?end@?$vector@PAULineBuffer@?A0xe06365b4@Imf@@V?$allocator@PAULineBuffer@?A0xe06365b4@Imf@@@std@@@std@@QAE?AV?$_Vector_iterator@PAULineBuffer@?A0xe06365b4@Imf@@V?$allocator@PAULineBuffer@?A0xe06365b4@Imf@@@std@@@2@XZ 10042270 f i ImfScanLineInputFile.obj
 0001:000412a0       ?erase@?$vector@PAULineBuffer@?A0xe06365b4@Imf@@V?$allocator@PAULineBuffer@?A0xe06365b4@Imf@@@std@@@std@@QAE?AV?$_Vector_iterator@PAULineBuffer@?A0xe06365b4@Imf@@V?$allocator@PAULineBuffer@?A0xe06365b4@Imf@@@std@@@2@V32@0@Z 100422a0 f i ImfScanLineInputFile.obj
 0001:00041300       ??$_Ucopy@PAUInSliceInfo@?A0xe06365b4@Imf@@@?$vector@UInSliceInfo@?A0xe06365b4@Imf@@V?$allocator@UInSliceInfo@?A0xe06365b4@Imf@@@std@@@std@@IAEPAUInSliceInfo@?A0xe06365b4@Imf@@PAU234@00@Z 10042300 f i ImfScanLineInputFile.obj
 0001:00041330       ??$_Destroy_range@UInSliceInfo@?A0xe06365b4@Imf@@V?$allocator@UInSliceInfo@?A0xe06365b4@Imf@@@std@@@std@@YAXPAUInSliceInfo@?A0xe06365b4@Imf@@0AAV?$allocator@UInSliceInfo@?A0xe06365b4@Imf@@@0@@Z 10042330 f i ImfScanLineInputFile.obj
 0001:00041340       ??$unchecked_uninitialized_fill_n@PAUInSliceInfo@?A0xe06365b4@Imf@@IU123@V?$allocator@UInSliceInfo@?A0xe06365b4@Imf@@@std@@@stdext@@YAXPAUInSliceInfo@?A0xe06365b4@Imf@@IABU123@AAV?$allocator@UInSliceInfo@?A0xe06365b4@Imf@@@std@@@Z 10042340 f i ImfScanLineInputFile.obj
 0001:00041370       ??$_Unchecked_move_backward@PAUInSliceInfo@?A0xe06365b4@Imf@@PAU123@@stdext@@YAPAUInSliceInfo@?A0xe06365b4@Imf@@PAU123@00@Z 10042370 f i ImfScanLineInputFile.obj
 0001:000413a0       ??$_Unchecked_uninitialized_move@PAUInSliceInfo@?A0xe06365b4@Imf@@PAU123@V?$allocator@UInSliceInfo@?A0xe06365b4@Imf@@@std@@@stdext@@YAPAUInSliceInfo@?A0xe06365b4@Imf@@PAU123@00AAV?$allocator@UInSliceInfo@?A0xe06365b4@Imf@@@std@@@Z 100423a0 f i ImfScanLineInputFile.obj
 0001:000413d0       ??$_Unchecked_uninitialized_move@PAPAULineBuffer@?A0xe06365b4@Imf@@PAPAU123@V?$allocator@PAULineBuffer@?A0xe06365b4@Imf@@@std@@@stdext@@YAPAPAULineBuffer@?A0xe06365b4@Imf@@PAPAU123@00AAV?$allocator@PAULineBuffer@?A0xe06365b4@Imf@@@std@@@Z 100423d0 f i ImfScanLineInputFile.obj
 0001:00041400       ??$_Uninit_fill_n@PA_KI_KV?$allocator@_K@std@@@std@@YAXPA_KIAB_KAAV?$allocator@_K@0@U_Scalar_ptr_iterator_tag@0@U_Range_checked_iterator_tag@0@@Z 10042400 f i ImfScanLineInputFile.obj
 0001:00041430       ??$_Uninit_fill_n@PAPAULineBuffer@?A0xe06365b4@Imf@@IPAU123@V?$allocator@PAULineBuffer@?A0xe06365b4@Imf@@@std@@@std@@YAXPAPAULineBuffer@?A0xe06365b4@Imf@@IABQAU123@AAV?$allocator@PAULineBuffer@?A0xe06365b4@Imf@@@0@U_Scalar_ptr_iterator_tag@0@U_Range_checked_iterator_tag@0@@Z 10042430 f i ImfScanLineInputFile.obj
 0001:00041460       ??EConstIterator@ChannelList@Imf@@QAEAAV012@XZ 10042460 f i ImfScanLineInputFile.obj
 0001:00041470       ??1?$vector@PAULineBuffer@?A0xe06365b4@Imf@@V?$allocator@PAULineBuffer@?A0xe06365b4@Imf@@@std@@@std@@QAE@XZ 10042470 f i ImfScanLineInputFile.obj
 0001:000414a0       ??0?$_Tree@V?$_Tmap_traits@VName@Imf@@USlice@2@U?$less@VName@Imf@@@std@@V?$allocator@U?$pair@$$CBVName@Imf@@USlice@2@@std@@@5@$0A@@std@@@std@@QAE@ABU?$less@VName@Imf@@@1@ABV?$allocator@U?$pair@$$CBVName@Imf@@USlice@2@@std@@@1@@Z 100424a0 f i ImfScanLineInputFile.obj
 0001:000414d0       ?_Destroy@?$vector@UInSliceInfo@?A0xe06365b4@Imf@@V?$allocator@UInSliceInfo@?A0xe06365b4@Imf@@@std@@@std@@IAEXPAUInSliceInfo@?A0xe06365b4@Imf@@0@Z 100424d0 f i ImfScanLineInputFile.obj
 0001:000414e0       ?_Tidy@?$vector@UInSliceInfo@?A0xe06365b4@Imf@@V?$allocator@UInSliceInfo@?A0xe06365b4@Imf@@@std@@@std@@IAEXXZ 100424e0 f i ImfScanLineInputFile.obj
 0001:00041510       ?_Ufill@?$vector@UInSliceInfo@?A0xe06365b4@Imf@@V?$allocator@UInSliceInfo@?A0xe06365b4@Imf@@@std@@@std@@IAEPAUInSliceInfo@?A0xe06365b4@Imf@@PAU345@IABU345@@Z 10042510 f i ImfScanLineInputFile.obj
 0001:00041550       ?erase@?$vector@UInSliceInfo@?A0xe06365b4@Imf@@V?$allocator@UInSliceInfo@?A0xe06365b4@Imf@@@std@@@std@@QAE?AV?$_Vector_iterator@UInSliceInfo@?A0xe06365b4@Imf@@V?$allocator@UInSliceInfo@?A0xe06365b4@Imf@@@std@@@2@V32@0@Z 10042550 f i ImfScanLineInputFile.obj
 0001:000415b0       ??$_Umove@PA_K@?$vector@_KV?$allocator@_K@std@@@std@@IAEPA_KPA_K00@Z 100425b0 f i ImfScanLineInputFile.obj
 0001:000415f0       ??$_Umove@PAUInSliceInfo@?A0xe06365b4@Imf@@@?$vector@UInSliceInfo@?A0xe06365b4@Imf@@V?$allocator@UInSliceInfo@?A0xe06365b4@Imf@@@std@@@std@@IAEPAUInSliceInfo@?A0xe06365b4@Imf@@PAU234@00@Z 100425f0 f i ImfScanLineInputFile.obj
 0001:00041620       ??$_Umove@PAPAULineBuffer@?A0xe06365b4@Imf@@@?$vector@PAULineBuffer@?A0xe06365b4@Imf@@V?$allocator@PAULineBuffer@?A0xe06365b4@Imf@@@std@@@std@@IAEPAPAULineBuffer@?A0xe06365b4@Imf@@PAPAU234@00@Z 10042620 f i ImfScanLineInputFile.obj
 0001:00041660       ??$unchecked_uninitialized_fill_n@PA_KI_KV?$allocator@_K@std@@@stdext@@YAXPA_KIAB_KAAV?$allocator@_K@std@@@Z 10042660 f i ImfScanLineInputFile.obj
 0001:00041690       ??$unchecked_uninitialized_fill_n@PAPAULineBuffer@?A0xe06365b4@Imf@@IPAU123@V?$allocator@PAULineBuffer@?A0xe06365b4@Imf@@@std@@@stdext@@YAXPAPAULineBuffer@?A0xe06365b4@Imf@@IABQAU123@AAV?$allocator@PAULineBuffer@?A0xe06365b4@Imf@@@std@@@Z 10042690 f i ImfScanLineInputFile.obj
 0001:000416c0       ??1?$_Tree@V?$_Tmap_traits@VName@Imf@@USlice@2@U?$less@VName@Imf@@@std@@V?$allocator@U?$pair@$$CBVName@Imf@@USlice@2@@std@@@5@$0A@@std@@@std@@QAE@XZ 100426c0 f i ImfScanLineInputFile.obj
 0001:00041700       ??1?$vector@UInSliceInfo@?A0xe06365b4@Imf@@V?$allocator@UInSliceInfo@?A0xe06365b4@Imf@@@std@@@std@@QAE@XZ 10042700 f i ImfScanLineInputFile.obj
 0001:00041730       ?clear@?$vector@UInSliceInfo@?A0xe06365b4@Imf@@V?$allocator@UInSliceInfo@?A0xe06365b4@Imf@@@std@@@std@@QAEXXZ 10042730 f i ImfScanLineInputFile.obj
 0001:00041770       ?_Insert_n@?$vector@UInSliceInfo@?A0xe06365b4@Imf@@V?$allocator@UInSliceInfo@?A0xe06365b4@Imf@@@std@@@std@@IAEXV?$_Vector_iterator@UInSliceInfo@?A0xe06365b4@Imf@@V?$allocator@UInSliceInfo@?A0xe06365b4@Imf@@@std@@@2@IABUInSliceInfo@?A0xe06365b4@Imf@@@Z 10042770 f i ImfScanLineInputFile.obj
 0001:00041a20       ?_Ufill@?$vector@PAULineBuffer@?A0xe06365b4@Imf@@V?$allocator@PAULineBuffer@?A0xe06365b4@Imf@@@std@@@std@@IAEPAPAULineBuffer@?A0xe06365b4@Imf@@PAPAU345@IABQAU345@@Z 10042a20 f i ImfScanLineInputFile.obj
 0001:00041a50       ??1?$map@VName@Imf@@USlice@2@U?$less@VName@Imf@@@std@@V?$allocator@U?$pair@$$CBVName@Imf@@USlice@2@@std@@@5@@std@@QAE@XZ 10042a50 f i ImfScanLineInputFile.obj
 0001:00041a90       ??4?$map@VName@Imf@@USlice@2@U?$less@VName@Imf@@@std@@V?$allocator@U?$pair@$$CBVName@Imf@@USlice@2@@std@@@5@@std@@QAEAAV01@ABV01@@Z 10042a90 f i ImfScanLineInputFile.obj
 0001:00041ad0       ??4?$vector@UInSliceInfo@?A0xe06365b4@Imf@@V?$allocator@UInSliceInfo@?A0xe06365b4@Imf@@@std@@@std@@QAEAAV01@ABV01@@Z 10042ad0 f i ImfScanLineInputFile.obj
 0001:00041c30       ?insert@?$vector@UInSliceInfo@?A0xe06365b4@Imf@@V?$allocator@UInSliceInfo@?A0xe06365b4@Imf@@@std@@@std@@QAE?AV?$_Vector_iterator@UInSliceInfo@?A0xe06365b4@Imf@@V?$allocator@UInSliceInfo@?A0xe06365b4@Imf@@@std@@@2@V32@ABUInSliceInfo@?A0xe06365b4@Imf@@@Z 10042c30 f i ImfScanLineInputFile.obj
 0001:00041ce0       ?_Insert_n@?$vector@PAULineBuffer@?A0xe06365b4@Imf@@V?$allocator@PAULineBuffer@?A0xe06365b4@Imf@@@std@@@std@@IAEXV?$_Vector_iterator@PAULineBuffer@?A0xe06365b4@Imf@@V?$allocator@PAULineBuffer@?A0xe06365b4@Imf@@@std@@@2@IABQAULineBuffer@?A0xe06365b4@Imf@@@Z 10042ce0 f i ImfScanLineInputFile.obj
 0001:00041ea0       ??0FrameBuffer@Imf@@QAE@XZ 10042ea0 f i ImfScanLineInputFile.obj
 0001:00041ed0       ??4FrameBuffer@Imf@@QAEAAV01@ABV01@@Z 10042ed0 f i ImfScanLineInputFile.obj
 0001:00041f10       ?push_back@?$vector@UInSliceInfo@?A0xe06365b4@Imf@@V?$allocator@UInSliceInfo@?A0xe06365b4@Imf@@@std@@@std@@QAEXABUInSliceInfo@?A0xe06365b4@Imf@@@Z 10042f10 f i ImfScanLineInputFile.obj
 0001:00041fc0       ?resize@?$vector@PAULineBuffer@?A0xe06365b4@Imf@@V?$allocator@PAULineBuffer@?A0xe06365b4@Imf@@@std@@@std@@QAEXIPAULineBuffer@?A0xe06365b4@Imf@@@Z 10042fc0 f i ImfScanLineInputFile.obj
 0001:00042080       ??_EData@ScanLineInputFile@Imf@@UAEPAXI@Z 10043080 f i ImfScanLineInputFile.obj
 0001:00042080       ??_GData@ScanLineInputFile@Imf@@UAEPAXI@Z 10043080 f i ImfScanLineInputFile.obj
 0001:000420a0       ?resize@?$vector@_KV?$allocator@_K@std@@@std@@QAEXI@Z 100430a0 f i ImfScanLineInputFile.obj
 0001:000420c0       ?resize@?$vector@PAULineBuffer@?A0xe06365b4@Imf@@V?$allocator@PAULineBuffer@?A0xe06365b4@Imf@@@std@@@std@@QAEXI@Z 100430c0 f i ImfScanLineInputFile.obj
 0001:000420d0       ?addChromaticities@Imf@@YAXAAVHeader@1@ABUChromaticities@1@@Z 100430d0 f   ImfStandardAttributes.obj
 0001:00042150       ?hasChromaticities@Imf@@YA_NABVHeader@1@@Z 10043150 f   ImfStandardAttributes.obj
 0001:00042170       ?chromaticitiesAttribute@Imf@@YAABV?$TypedAttribute@UChromaticities@Imf@@@1@ABVHeader@1@@Z 10043170 f   ImfStandardAttributes.obj
 0001:00042190       ?chromaticitiesAttribute@Imf@@YAAAV?$TypedAttribute@UChromaticities@Imf@@@1@AAVHeader@1@@Z 10043190 f   ImfStandardAttributes.obj
 0001:000421b0       ?chromaticities@Imf@@YAABUChromaticities@1@ABVHeader@1@@Z 100431b0 f   ImfStandardAttributes.obj
 0001:000421e0       ?chromaticities@Imf@@YAAAUChromaticities@1@AAVHeader@1@@Z 100431e0 f   ImfStandardAttributes.obj
 0001:00042210       ?addWhiteLuminance@Imf@@YAXAAVHeader@1@ABM@Z 10043210 f   ImfStandardAttributes.obj
 0001:00042290       ?hasWhiteLuminance@Imf@@YA_NABVHeader@1@@Z 10043290 f   ImfStandardAttributes.obj
 0001:000422b0       ?whiteLuminanceAttribute@Imf@@YAABV?$TypedAttribute@M@1@ABVHeader@1@@Z 100432b0 f   ImfStandardAttributes.obj
 0001:000422d0       ?whiteLuminanceAttribute@Imf@@YAAAV?$TypedAttribute@M@1@AAVHeader@1@@Z 100432d0 f   ImfStandardAttributes.obj
 0001:000422f0       ?whiteLuminance@Imf@@YAABMABVHeader@1@@Z 100432f0 f   ImfStandardAttributes.obj
 0001:00042320       ?whiteLuminance@Imf@@YAAAMAAVHeader@1@@Z 10043320 f   ImfStandardAttributes.obj
 0001:00042350       ?addXDensity@Imf@@YAXAAVHeader@1@ABM@Z 10043350 f   ImfStandardAttributes.obj
 0001:000423d0       ?hasXDensity@Imf@@YA_NABVHeader@1@@Z 100433d0 f   ImfStandardAttributes.obj
 0001:000423f0       ?xDensityAttribute@Imf@@YAABV?$TypedAttribute@M@1@ABVHeader@1@@Z 100433f0 f   ImfStandardAttributes.obj
 0001:00042410       ?xDensityAttribute@Imf@@YAAAV?$TypedAttribute@M@1@AAVHeader@1@@Z 10043410 f   ImfStandardAttributes.obj
 0001:00042430       ?xDensity@Imf@@YAABMABVHeader@1@@Z 10043430 f   ImfStandardAttributes.obj
 0001:00042460       ?xDensity@Imf@@YAAAMAAVHeader@1@@Z 10043460 f   ImfStandardAttributes.obj
 0001:00042490       ?addOwner@Imf@@YAXAAVHeader@1@ABV?$basic_string@DU?$char_traits@D@std@@V?$allocator@D@2@@std@@@Z 10043490 f   ImfStandardAttributes.obj
 0001:00042510       ?hasOwner@Imf@@YA_NABVHeader@1@@Z 10043510 f   ImfStandardAttributes.obj
 0001:00042530       ?ownerAttribute@Imf@@YAABV?$TypedAttribute@V?$basic_string@DU?$char_traits@D@std@@V?$allocator@D@2@@std@@@1@ABVHeader@1@@Z 10043530 f   ImfStandardAttributes.obj
 0001:00042550       ?ownerAttribute@Imf@@YAAAV?$TypedAttribute@V?$basic_string@DU?$char_traits@D@std@@V?$allocator@D@2@@std@@@1@AAVHeader@1@@Z 10043550 f   ImfStandardAttributes.obj
 0001:00042570       ?owner@Imf@@YAABV?$basic_string@DU?$char_traits@D@std@@V?$allocator@D@2@@std@@ABVHeader@1@@Z 10043570 f   ImfStandardAttributes.obj
 0001:000425a0       ?owner@Imf@@YAAAV?$basic_string@DU?$char_traits@D@std@@V?$allocator@D@2@@std@@AAVHeader@1@@Z 100435a0 f   ImfStandardAttributes.obj
 0001:000425d0       ?addComments@Imf@@YAXAAVHeader@1@ABV?$basic_string@DU?$char_traits@D@std@@V?$allocator@D@2@@std@@@Z 100435d0 f   ImfStandardAttributes.obj
 0001:00042650       ?hasComments@Imf@@YA_NABVHeader@1@@Z 10043650 f   ImfStandardAttributes.obj
 0001:00042670       ?commentsAttribute@Imf@@YAABV?$TypedAttribute@V?$basic_string@DU?$char_traits@D@std@@V?$allocator@D@2@@std@@@1@ABVHeader@1@@Z 10043670 f   ImfStandardAttributes.obj
 0001:00042690       ?commentsAttribute@Imf@@YAAAV?$TypedAttribute@V?$basic_string@DU?$char_traits@D@std@@V?$allocator@D@2@@std@@@1@AAVHeader@1@@Z 10043690 f   ImfStandardAttributes.obj
 0001:000426b0       ?comments@Imf@@YAABV?$basic_string@DU?$char_traits@D@std@@V?$allocator@D@2@@std@@ABVHeader@1@@Z 100436b0 f   ImfStandardAttributes.obj
 0001:000426e0       ?comments@Imf@@YAAAV?$basic_string@DU?$char_traits@D@std@@V?$allocator@D@2@@std@@AAVHeader@1@@Z 100436e0 f   ImfStandardAttributes.obj
 0001:00042710       ?addCapDate@Imf@@YAXAAVHeader@1@ABV?$basic_string@DU?$char_traits@D@std@@V?$allocator@D@2@@std@@@Z 10043710 f   ImfStandardAttributes.obj
 0001:00042790       ?hasCapDate@Imf@@YA_NABVHeader@1@@Z 10043790 f   ImfStandardAttributes.obj
 0001:000427b0       ?capDateAttribute@Imf@@YAABV?$TypedAttribute@V?$basic_string@DU?$char_traits@D@std@@V?$allocator@D@2@@std@@@1@ABVHeader@1@@Z 100437b0 f   ImfStandardAttributes.obj
 0001:000427d0       ?capDateAttribute@Imf@@YAAAV?$TypedAttribute@V?$basic_string@DU?$char_traits@D@std@@V?$allocator@D@2@@std@@@1@AAVHeader@1@@Z 100437d0 f   ImfStandardAttributes.obj
 0001:000427f0       ?capDate@Imf@@YAABV?$basic_string@DU?$char_traits@D@std@@V?$allocator@D@2@@std@@ABVHeader@1@@Z 100437f0 f   ImfStandardAttributes.obj
 0001:00042820       ?capDate@Imf@@YAAAV?$basic_string@DU?$char_traits@D@std@@V?$allocator@D@2@@std@@AAVHeader@1@@Z 10043820 f   ImfStandardAttributes.obj
 0001:00042850       ?addutcOffset@Imf@@YAXAAVHeader@1@ABM@Z 10043850 f   ImfStandardAttributes.obj
 0001:000428d0       ?hasutcOffset@Imf@@YA_NABVHeader@1@@Z 100438d0 f   ImfStandardAttributes.obj
 0001:000428f0       ?utcOffsetAttribute@Imf@@YAABV?$TypedAttribute@M@1@ABVHeader@1@@Z 100438f0 f   ImfStandardAttributes.obj
 0001:00042910       ?utcOffsetAttribute@Imf@@YAAAV?$TypedAttribute@M@1@AAVHeader@1@@Z 10043910 f   ImfStandardAttributes.obj
 0001:00042930       ?utcOffset@Imf@@YAABMABVHeader@1@@Z 10043930 f   ImfStandardAttributes.obj
 0001:00042960       ?utcOffset@Imf@@YAAAMAAVHeader@1@@Z 10043960 f   ImfStandardAttributes.obj
 0001:00042990       ?addLongitude@Imf@@YAXAAVHeader@1@ABM@Z 10043990 f   ImfStandardAttributes.obj
 0001:00042a10       ?hasLongitude@Imf@@YA_NABVHeader@1@@Z 10043a10 f   ImfStandardAttributes.obj
 0001:00042a30       ?longitudeAttribute@Imf@@YAABV?$TypedAttribute@M@1@ABVHeader@1@@Z 10043a30 f   ImfStandardAttributes.obj
 0001:00042a50       ?longitudeAttribute@Imf@@YAAAV?$TypedAttribute@M@1@AAVHeader@1@@Z 10043a50 f   ImfStandardAttributes.obj
 0001:00042a70       ?longitude@Imf@@YAABMABVHeader@1@@Z 10043a70 f   ImfStandardAttributes.obj
 0001:00042aa0       ?longitude@Imf@@YAAAMAAVHeader@1@@Z 10043aa0 f   ImfStandardAttributes.obj
 0001:00042ad0       ?addLatitude@Imf@@YAXAAVHeader@1@ABM@Z 10043ad0 f   ImfStandardAttributes.obj
 0001:00042b50       ?hasLatitude@Imf@@YA_NABVHeader@1@@Z 10043b50 f   ImfStandardAttributes.obj
 0001:00042b70       ?latitudeAttribute@Imf@@YAABV?$TypedAttribute@M@1@ABVHeader@1@@Z 10043b70 f   ImfStandardAttributes.obj
 0001:00042b90       ?latitudeAttribute@Imf@@YAAAV?$TypedAttribute@M@1@AAVHeader@1@@Z 10043b90 f   ImfStandardAttributes.obj
 0001:00042bb0       ?latitude@Imf@@YAABMABVHeader@1@@Z 10043bb0 f   ImfStandardAttributes.obj
 0001:00042be0       ?latitude@Imf@@YAAAMAAVHeader@1@@Z 10043be0 f   ImfStandardAttributes.obj
 0001:00042c10       ?addAltitude@Imf@@YAXAAVHeader@1@ABM@Z 10043c10 f   ImfStandardAttributes.obj
 0001:00042c90       ?hasAltitude@Imf@@YA_NABVHeader@1@@Z 10043c90 f   ImfStandardAttributes.obj
 0001:00042cb0       ?altitudeAttribute@Imf@@YAABV?$TypedAttribute@M@1@ABVHeader@1@@Z 10043cb0 f   ImfStandardAttributes.obj
 0001:00042cd0       ?altitudeAttribute@Imf@@YAAAV?$TypedAttribute@M@1@AAVHeader@1@@Z 10043cd0 f   ImfStandardAttributes.obj
 0001:00042cf0       ?altitude@Imf@@YAABMABVHeader@1@@Z 10043cf0 f   ImfStandardAttributes.obj
 0001:00042d20       ?altitude@Imf@@YAAAMAAVHeader@1@@Z 10043d20 f   ImfStandardAttributes.obj
 0001:00042d50       ?addFocus@Imf@@YAXAAVHeader@1@ABM@Z 10043d50 f   ImfStandardAttributes.obj
 0001:00042dd0       ?hasFocus@Imf@@YA_NABVHeader@1@@Z 10043dd0 f   ImfStandardAttributes.obj
 0001:00042df0       ?focusAttribute@Imf@@YAABV?$TypedAttribute@M@1@ABVHeader@1@@Z 10043df0 f   ImfStandardAttributes.obj
 0001:00042e10       ?focusAttribute@Imf@@YAAAV?$TypedAttribute@M@1@AAVHeader@1@@Z 10043e10 f   ImfStandardAttributes.obj
 0001:00042e30       ?focus@Imf@@YAABMABVHeader@1@@Z 10043e30 f   ImfStandardAttributes.obj
 0001:00042e60       ?focus@Imf@@YAAAMAAVHeader@1@@Z 10043e60 f   ImfStandardAttributes.obj
 0001:00042e90       ?addExpTime@Imf@@YAXAAVHeader@1@ABM@Z 10043e90 f   ImfStandardAttributes.obj
 0001:00042f10       ?hasExpTime@Imf@@YA_NABVHeader@1@@Z 10043f10 f   ImfStandardAttributes.obj
 0001:00042f30       ?expTimeAttribute@Imf@@YAABV?$TypedAttribute@M@1@ABVHeader@1@@Z 10043f30 f   ImfStandardAttributes.obj
 0001:00042f50       ?expTimeAttribute@Imf@@YAAAV?$TypedAttribute@M@1@AAVHeader@1@@Z 10043f50 f   ImfStandardAttributes.obj
 0001:00042f70       ?expTime@Imf@@YAABMABVHeader@1@@Z 10043f70 f   ImfStandardAttributes.obj
 0001:00042fa0       ?expTime@Imf@@YAAAMAAVHeader@1@@Z 10043fa0 f   ImfStandardAttributes.obj
 0001:00042fd0       ?addAperture@Imf@@YAXAAVHeader@1@ABM@Z 10043fd0 f   ImfStandardAttributes.obj
 0001:00043050       ?hasAperture@Imf@@YA_NABVHeader@1@@Z 10044050 f   ImfStandardAttributes.obj
 0001:00043070       ?apertureAttribute@Imf@@YAABV?$TypedAttribute@M@1@ABVHeader@1@@Z 10044070 f   ImfStandardAttributes.obj
 0001:00043090       ?apertureAttribute@Imf@@YAAAV?$TypedAttribute@M@1@AAVHeader@1@@Z 10044090 f   ImfStandardAttributes.obj
 0001:000430b0       ?aperture@Imf@@YAABMABVHeader@1@@Z 100440b0 f   ImfStandardAttributes.obj
 0001:000430e0       ?aperture@Imf@@YAAAMAAVHeader@1@@Z 100440e0 f   ImfStandardAttributes.obj
 0001:00043110       ?addIsoSpeed@Imf@@YAXAAVHeader@1@ABM@Z 10044110 f   ImfStandardAttributes.obj
 0001:00043190       ?hasIsoSpeed@Imf@@YA_NABVHeader@1@@Z 10044190 f   ImfStandardAttributes.obj
 0001:000431b0       ?isoSpeedAttribute@Imf@@YAABV?$TypedAttribute@M@1@ABVHeader@1@@Z 100441b0 f   ImfStandardAttributes.obj
 0001:000431d0       ?isoSpeedAttribute@Imf@@YAAAV?$TypedAttribute@M@1@AAVHeader@1@@Z 100441d0 f   ImfStandardAttributes.obj
 0001:000431f0       ?isoSpeed@Imf@@YAABMABVHeader@1@@Z 100441f0 f   ImfStandardAttributes.obj
 0001:00043220       ?isoSpeed@Imf@@YAAAMAAVHeader@1@@Z 10044220 f   ImfStandardAttributes.obj
 0001:00043250       ?addEnvmap@Imf@@YAXAAVHeader@1@ABW4Envmap@1@@Z 10044250 f   ImfStandardAttributes.obj
 0001:000432d0       ?hasEnvmap@Imf@@YA_NABVHeader@1@@Z 100442d0 f   ImfStandardAttributes.obj
 0001:000432f0       ?envmapAttribute@Imf@@YAABV?$TypedAttribute@W4Envmap@Imf@@@1@ABVHeader@1@@Z 100442f0 f   ImfStandardAttributes.obj
 0001:00043310       ?envmapAttribute@Imf@@YAAAV?$TypedAttribute@W4Envmap@Imf@@@1@AAVHeader@1@@Z 10044310 f   ImfStandardAttributes.obj
 0001:00043330       ?envmap@Imf@@YAABW4Envmap@1@ABVHeader@1@@Z 10044330 f   ImfStandardAttributes.obj
 0001:00043360       ?envmap@Imf@@YAAAW4Envmap@1@AAVHeader@1@@Z 10044360 f   ImfStandardAttributes.obj
 0001:00043390       ?addKeyCode@Imf@@YAXAAVHeader@1@ABVKeyCode@1@@Z 10044390 f   ImfStandardAttributes.obj
 0001:00043410       ?hasKeyCode@Imf@@YA_NABVHeader@1@@Z 10044410 f   ImfStandardAttributes.obj
 0001:00043430       ?keyCodeAttribute@Imf@@YAABV?$TypedAttribute@VKeyCode@Imf@@@1@ABVHeader@1@@Z 10044430 f   ImfStandardAttributes.obj
 0001:00043450       ?keyCodeAttribute@Imf@@YAAAV?$TypedAttribute@VKeyCode@Imf@@@1@AAVHeader@1@@Z 10044450 f   ImfStandardAttributes.obj
 0001:00043470       ?keyCode@Imf@@YAABVKeyCode@1@ABVHeader@1@@Z 10044470 f   ImfStandardAttributes.obj
 0001:000434a0       ?keyCode@Imf@@YAAAVKeyCode@1@AAVHeader@1@@Z 100444a0 f   ImfStandardAttributes.obj
 0001:000434d0       ?addTimeCode@Imf@@YAXAAVHeader@1@ABVTimeCode@1@@Z 100444d0 f   ImfStandardAttributes.obj
 0001:00043560       ?hasTimeCode@Imf@@YA_NABVHeader@1@@Z 10044560 f   ImfStandardAttributes.obj
 0001:00043580       ?timeCodeAttribute@Imf@@YAABV?$TypedAttribute@VTimeCode@Imf@@@1@ABVHeader@1@@Z 10044580 f   ImfStandardAttributes.obj
 0001:000435a0       ?timeCodeAttribute@Imf@@YAAAV?$TypedAttribute@VTimeCode@Imf@@@1@AAVHeader@1@@Z 100445a0 f   ImfStandardAttributes.obj
 0001:000435c0       ?timeCode@Imf@@YAABVTimeCode@1@ABVHeader@1@@Z 100445c0 f   ImfStandardAttributes.obj
 0001:000435f0       ?timeCode@Imf@@YAAAVTimeCode@1@AAVHeader@1@@Z 100445f0 f   ImfStandardAttributes.obj
 0001:00043620       ?addWrapmodes@Imf@@YAXAAVHeader@1@ABV?$basic_string@DU?$char_traits@D@std@@V?$allocator@D@2@@std@@@Z 10044620 f   ImfStandardAttributes.obj
 0001:000436a0       ?hasWrapmodes@Imf@@YA_NABVHeader@1@@Z 100446a0 f   ImfStandardAttributes.obj
 0001:000436c0       ?wrapmodesAttribute@Imf@@YAABV?$TypedAttribute@V?$basic_string@DU?$char_traits@D@std@@V?$allocator@D@2@@std@@@1@ABVHeader@1@@Z 100446c0 f   ImfStandardAttributes.obj
 0001:000436e0       ?wrapmodesAttribute@Imf@@YAAAV?$TypedAttribute@V?$basic_string@DU?$char_traits@D@std@@V?$allocator@D@2@@std@@@1@AAVHeader@1@@Z 100446e0 f   ImfStandardAttributes.obj
 0001:00043700       ?wrapmodes@Imf@@YAABV?$basic_string@DU?$char_traits@D@std@@V?$allocator@D@2@@std@@ABVHeader@1@@Z 10044700 f   ImfStandardAttributes.obj
 0001:00043730       ?wrapmodes@Imf@@YAAAV?$basic_string@DU?$char_traits@D@std@@V?$allocator@D@2@@std@@AAVHeader@1@@Z 10044730 f   ImfStandardAttributes.obj
 0001:00043760       ??0?$TypedAttribute@UChromaticities@Imf@@@Imf@@QAE@ABUChromaticities@1@@Z 10044760 f i ImfStandardAttributes.obj
 0001:000437f0       ??0?$TypedAttribute@W4Envmap@Imf@@@Imf@@QAE@ABW4Envmap@1@@Z 100447f0 f i ImfStandardAttributes.obj
 0001:00043830       ??0?$TypedAttribute@VKeyCode@Imf@@@Imf@@QAE@ABVKeyCode@1@@Z 10044830 f i ImfStandardAttributes.obj
 0001:000438a0       ??0?$TypedAttribute@VTimeCode@Imf@@@Imf@@QAE@ABVTimeCode@1@@Z 100448a0 f i ImfStandardAttributes.obj
 0001:00043910       ??$findTypedAttribute@V?$TypedAttribute@UChromaticities@Imf@@@Imf@@@Header@Imf@@QBEPBV?$TypedAttribute@UChromaticities@Imf@@@1@QBD@Z 10044910 f i ImfStandardAttributes.obj
 0001:00043a60       ??$typedAttribute@V?$TypedAttribute@UChromaticities@Imf@@@Imf@@@Header@Imf@@QBEABV?$TypedAttribute@UChromaticities@Imf@@@1@QBD@Z 10044a60 f i ImfStandardAttributes.obj
 0001:00043af0       ??$typedAttribute@V?$TypedAttribute@UChromaticities@Imf@@@Imf@@@Header@Imf@@QAEAAV?$TypedAttribute@UChromaticities@Imf@@@1@QBD@Z 10044af0 f i ImfStandardAttributes.obj
 0001:00043b80       ??$findTypedAttribute@V?$TypedAttribute@M@Imf@@@Header@Imf@@QBEPBV?$TypedAttribute@M@1@QBD@Z 10044b80 f i ImfStandardAttributes.obj
 0001:00043cd0       ??$findTypedAttribute@V?$TypedAttribute@V?$basic_string@DU?$char_traits@D@std@@V?$allocator@D@2@@std@@@Imf@@@Header@Imf@@QBEPBV?$TypedAttribute@V?$basic_string@DU?$char_traits@D@std@@V?$allocator@D@2@@std@@@1@QBD@Z 10044cd0 f i ImfStandardAttributes.obj
 0001:00043e20       ??$findTypedAttribute@V?$TypedAttribute@W4Envmap@Imf@@@Imf@@@Header@Imf@@QBEPBV?$TypedAttribute@W4Envmap@Imf@@@1@QBD@Z 10044e20 f i ImfStandardAttributes.obj
 0001:00043f70       ??$typedAttribute@V?$TypedAttribute@W4Envmap@Imf@@@Imf@@@Header@Imf@@QBEABV?$TypedAttribute@W4Envmap@Imf@@@1@QBD@Z 10044f70 f i ImfStandardAttributes.obj
 0001:00044000       ??$typedAttribute@V?$TypedAttribute@W4Envmap@Imf@@@Imf@@@Header@Imf@@QAEAAV?$TypedAttribute@W4Envmap@Imf@@@1@QBD@Z 10045000 f i ImfStandardAttributes.obj
 0001:00044090       ??$findTypedAttribute@V?$TypedAttribute@VKeyCode@Imf@@@Imf@@@Header@Imf@@QBEPBV?$TypedAttribute@VKeyCode@Imf@@@1@QBD@Z 10045090 f i ImfStandardAttributes.obj
 0001:000441e0       ??$typedAttribute@V?$TypedAttribute@VKeyCode@Imf@@@Imf@@@Header@Imf@@QBEABV?$TypedAttribute@VKeyCode@Imf@@@1@QBD@Z 100451e0 f i ImfStandardAttributes.obj
 0001:00044270       ??$typedAttribute@V?$TypedAttribute@VKeyCode@Imf@@@Imf@@@Header@Imf@@QAEAAV?$TypedAttribute@VKeyCode@Imf@@@1@QBD@Z 10045270 f i ImfStandardAttributes.obj
 0001:00044300       ??$findTypedAttribute@V?$TypedAttribute@VTimeCode@Imf@@@Imf@@@Header@Imf@@QBEPBV?$TypedAttribute@VTimeCode@Imf@@@1@QBD@Z 10045300 f i ImfStandardAttributes.obj
 0001:00044450       ??$typedAttribute@V?$TypedAttribute@VTimeCode@Imf@@@Imf@@@Header@Imf@@QBEABV?$TypedAttribute@VTimeCode@Imf@@@1@QBD@Z 10045450 f i ImfStandardAttributes.obj
 0001:000444e0       ??$typedAttribute@V?$TypedAttribute@VTimeCode@Imf@@@Imf@@@Header@Imf@@QAEAAV?$TypedAttribute@VTimeCode@Imf@@@1@QBD@Z 100454e0 f i ImfStandardAttributes.obj
 0001:00044570       ??0ErrnoExc@Iex@@QAE@PBD@Z 10045570 f i ImfStdIO.obj
 0001:00044590       ??1ErrnoExc@Iex@@UAE@XZ    10045590 f i ImfStdIO.obj
 0001:000445a0       ?clearError@?A0x3b65d326@Imf@@YAXXZ 100455a0 f   ImfStdIO.obj
 0001:000445b0       ?checkError@?A0x3b65d326@Imf@@YA_NAAV?$basic_istream@DU?$char_traits@D@std@@@std@@@Z 100455b0 f   ImfStdIO.obj
 0001:00044640       ?checkError@?A0x3b65d326@Imf@@YAXAAV?$basic_ostream@DU?$char_traits@D@std@@@std@@@Z 10045640 f   ImfStdIO.obj
 0001:000446e0       ??0StdIFStream@Imf@@QAE@QBD@Z 100456e0 f   ImfStdIO.obj
 0001:000447c0       ??0StdIFStream@Imf@@QAE@AAV?$basic_ifstream@DU?$char_traits@D@std@@@std@@QBD@Z 100457c0 f   ImfStdIO.obj
 0001:000447f0       ??1StdIFStream@Imf@@UAE@XZ 100457f0 f   ImfStdIO.obj
 0001:00044860       ?read@StdIFStream@Imf@@UAE_NQADH@Z 10045860 f   ImfStdIO.obj
 0001:000448d0       ?clear@StdIFStream@Imf@@UAEXXZ 100458d0 f   ImfStdIO.obj
 0001:000448f0       ??0StdOFStream@Imf@@QAE@QBD@Z 100458f0 f   ImfStdIO.obj
 0001:000449d0       ??0StdOFStream@Imf@@QAE@AAV?$basic_ofstream@DU?$char_traits@D@std@@@std@@QBD@Z 100459d0 f   ImfStdIO.obj
 0001:00044a00       ??1StdOFStream@Imf@@UAE@XZ 10045a00 f   ImfStdIO.obj
 0001:00044a70       ?write@StdOFStream@Imf@@UAEXQBDH@Z 10045a70 f   ImfStdIO.obj
 0001:00044ab0       ??0StdOSStream@Imf@@QAE@XZ 10045ab0 f   ImfStdIO.obj
 0001:00044b10       ?write@StdOSStream@Imf@@UAEXQBDH@Z 10045b10 f   ImfStdIO.obj
 0001:00044b50       ?tellg@StdIFStream@Imf@@UAE_KXZ 10045b50 f   ImfStdIO.obj
 0001:00044b70       ?seekg@StdIFStream@Imf@@UAEX_K@Z 10045b70 f   ImfStdIO.obj
 0001:00044bb0       ?tellp@StdOFStream@Imf@@UAE_KXZ 10045bb0 f   ImfStdIO.obj
 0001:00044bd0       ?seekp@StdOFStream@Imf@@UAEX_K@Z 10045bd0 f   ImfStdIO.obj
 0001:00044c10       ?tellp@StdOSStream@Imf@@UAE_KXZ 10045c10 f   ImfStdIO.obj
 0001:00044c30       ?seekp@StdOSStream@Imf@@UAEX_K@Z 10045c30 f   ImfStdIO.obj
 0001:00044c60       ??0ErrnoExc@Iex@@QAE@ABV01@@Z 10045c60 f i ImfStdIO.obj
 0001:00044c80       ??_G?$basic_ifstream@DU?$char_traits@D@std@@@std@@UAEPAXI@Z 10045c80 f i ImfStdIO.obj
 0001:00044c80       ??_E?$basic_ifstream@DU?$char_traits@D@std@@@std@@UAEPAXI@Z 10045c80 f i ImfStdIO.obj
 0001:00044cb0       ??_E?$basic_ofstream@DU?$char_traits@D@std@@@std@@UAEPAXI@Z 10045cb0 f i ImfStdIO.obj
 0001:00044cb0       ??_G?$basic_ofstream@DU?$char_traits@D@std@@@std@@UAEPAXI@Z 10045cb0 f i ImfStdIO.obj
 0001:00044ce0       ??0?$fpos@H@std@@QAE@J@Z   10045ce0 f i ImfStdIO.obj
 0001:00044d00       ??B?$fpos@H@std@@QBEJXZ    10045d00 f i ImfStdIO.obj
 0001:00044d10       ??_GErrnoExc@Iex@@UAEPAXI@Z 10045d10 f i ImfStdIO.obj
 0001:00044d10       ??_EErrnoExc@Iex@@UAEPAXI@Z 10045d10 f i ImfStdIO.obj
 0001:00044d30       ??_EStdIFStream@Imf@@UAEPAXI@Z 10045d30 f i ImfStdIO.obj
 0001:00044d30       ??_GStdIFStream@Imf@@UAEPAXI@Z 10045d30 f i ImfStdIO.obj
 0001:00044d50       ??_EStdOFStream@Imf@@UAEPAXI@Z 10045d50 f i ImfStdIO.obj
 0001:00044d50       ??_GStdOFStream@Imf@@UAEPAXI@Z 10045d50 f i ImfStdIO.obj
 0001:00044d70       ??_EStdOSStream@Imf@@UAEPAXI@Z 10045d70 f i ImfStdIO.obj
 0001:00044d70       ??_GStdOSStream@Imf@@UAEPAXI@Z 10045d70 f i ImfStdIO.obj
 0001:00044d90       ?staticTypeName@?$TypedAttribute@V?$basic_string@DU?$char_traits@D@std@@V?$allocator@D@2@@std@@@Imf@@SAPBDXZ 10045d90 f   ImfStringAttribute.obj
 0001:00044da0       ?writeValueTo@?$TypedAttribute@V?$basic_string@DU?$char_traits@D@std@@V?$allocator@D@2@@std@@@Imf@@UBEXAAVOStream@2@H@Z 10045da0 f   ImfStringAttribute.obj
 0001:00044e40       ?readValueFrom@?$TypedAttribute@V?$basic_string@DU?$char_traits@D@std@@V?$allocator@D@2@@std@@@Imf@@UAEXAAVIStream@2@HH@Z 10045e40 f   ImfStringAttribute.obj
 0001:00044ee0       ?isTiled@Imf@@YA_NH@Z      10045ee0 f i ImfTestFile.obj
 0001:00044ef0       ??$readSignedChars@UStreamIO@Imf@@VStdIFStream@2@@Xdr@Imf@@YAXAAVStdIFStream@1@QACH@Z 10045ef0 f i ImfTestFile.obj
 0001:00044f10       ??$read@UStreamIO@Imf@@VStdIFStream@2@@Xdr@Imf@@YAXAAVStdIFStream@1@AAH@Z 10045f10 f i ImfTestFile.obj
 0001:00044f50       ?isOpenExrFile@Imf@@YA_NQBDAA_N@Z 10045f50 f   ImfTestFile.obj
 0001:00045040       ?isOpenExrFile@Imf@@YA_NQBD@Z 10046040 f   ImfTestFile.obj
 0001:00045060       ?isTiledOpenExrFile@Imf@@YA_NQBD@Z 10046060 f   ImfTestFile.obj
 0001:00045090       ?isOpenExrFile@Imf@@YA_NAAVIStream@1@AA_N@Z 10046090 f   ImfTestFile.obj
 0001:000451a0       ?isOpenExrFile@Imf@@YA_NAAVIStream@1@@Z 100461a0 f   ImfTestFile.obj
 0001:000451c0       ?isTiledOpenExrFile@Imf@@YA_NAAVIStream@1@@Z 100461c0 f   ImfTestFile.obj
 0001:000451f0       ?globalThreadCount@Imf@@YAHXZ 100461f0 f   ImfThreading.obj
 0001:00045200       ?setGlobalThreadCount@Imf@@YAXH@Z 10046200 f   ImfThreading.obj
 0001:00045220       ?staticTypeName@?$TypedAttribute@VTileDescription@Imf@@@Imf@@SAPBDXZ 10046220 f   ImfTileDescriptionAttribute.obj
 0001:00045230       ?writeValueTo@?$TypedAttribute@VTileDescription@Imf@@@Imf@@UBEXAAVOStream@2@H@Z 10046230 f   ImfTileDescriptionAttribute.obj
 0001:000452c0       ?readValueFrom@?$TypedAttribute@VTileDescription@Imf@@@Imf@@UAEXAAVIStream@2@HH@Z 100462c0 f   ImfTileDescriptionAttribute.obj
 0001:00045360       ??$read@UStreamIO@Imf@@VIStream@2@@Xdr@Imf@@YAXAAVIStream@1@AAI@Z 10046360 f i ImfTileDescriptionAttribute.obj
 0001:000453a0       ??0TileDescription@Imf@@QAE@IIW4LevelMode@1@W4LevelRoundingMode@1@@Z 100463a0 f i ImfTiledInputFile.obj
 0001:000453c0       ??0LogicExc@Iex@@QAE@AAV?$basic_stringstream@DU?$char_traits@D@std@@V?$allocator@D@2@@std@@@Z 100463c0 f i ImfTiledInputFile.obj
 0001:000453e0       ??$size@H@Xdr@Imf@@YAHXZ   100463e0 f i ImfTiledInputFile.obj
 0001:000453f0       ??0TInSliceInfo@?A0xf349abed@Imf@@QAE@W4PixelType@2@0PADII_N2NHH@Z 100463f0 f   ImfTiledInputFile.obj
 0001:00045440       ??0TileBuffer@?A0xf349abed@Imf@@QAE@QAVCompressor@2@@Z 10046440 f   ImfTiledInputFile.obj
 0001:000454c0       ??1TileBuffer@?A0xf349abed@Imf@@QAE@XZ 100464c0 f   ImfTiledInputFile.obj
 0001:00045530       ??0TileBufferTask@?A0xf349abed@Imf@@QAE@PAVTaskGroup@IlmThread@@PAUData@TiledInputFile@2@PAUTileBuffer@12@@Z 10046530 f   ImfTiledInputFile.obj
 0001:00045560       ??1TileBufferTask@?A0xf349abed@Imf@@UAE@XZ 10046560 f   ImfTiledInputFile.obj
 0001:000455c0       ?fileName@TiledInputFile@Imf@@QBEPBDXZ 100465c0 f   ImfTiledInputFile.obj
 0001:000455d0       ?header@TiledInputFile@Imf@@QBEABVHeader@2@XZ 100465d0 f   ImfTiledInputFile.obj
 0001:000455e0       ?version@TiledInputFile@Imf@@QBEHXZ 100465e0 f   ImfTiledInputFile.obj
 0001:000455f0       ?frameBuffer@TiledInputFile@Imf@@QBEABVFrameBuffer@2@XZ 100465f0 f   ImfTiledInputFile.obj
 0001:00045610       ?isComplete@TiledInputFile@Imf@@QBE_NXZ 10046610 f   ImfTiledInputFile.obj
 0001:00045620       ?tileXSize@TiledInputFile@Imf@@QBEIXZ 10046620 f   ImfTiledInputFile.obj
 0001:00045630       ?tileYSize@TiledInputFile@Imf@@QBEIXZ 10046630 f   ImfTiledInputFile.obj
 0001:00045640       ?levelMode@TiledInputFile@Imf@@QBE?AW4LevelMode@2@XZ 10046640 f   ImfTiledInputFile.obj
 0001:00045650       ?levelRoundingMode@TiledInputFile@Imf@@QBE?AW4LevelRoundingMode@2@XZ 10046650 f   ImfTiledInputFile.obj
 0001:00045660       ?numXLevels@TiledInputFile@Imf@@QBEHXZ 10046660 f   ImfTiledInputFile.obj
 0001:00045670       ?numYLevels@TiledInputFile@Imf@@QBEHXZ 10046670 f   ImfTiledInputFile.obj
 0001:00045680       ?isValidLevel@TiledInputFile@Imf@@QBE_NHH@Z 10046680 f   ImfTiledInputFile.obj
 0001:000456c0       ?isValidTile@TiledInputFile@Imf@@ABE_NHHHH@Z 100466c0 f   ImfTiledInputFile.obj
 0001:00045710       ??1TiledInputFile@Imf@@UAE@XZ 10046710 f   ImfTiledInputFile.obj
 0001:000457a0       ?readTileData@?A0xf349abed@Imf@@YAXPAUData@TiledInputFile@2@HHHHAAPADAAH@Z 100467a0 f   ImfTiledInputFile.obj
 0001:00045b50       ?readNextTileData@?A0xf349abed@Imf@@YAXPAUData@TiledInputFile@2@AAH111AAPAD1@Z 10046b50 f   ImfTiledInputFile.obj
 0001:00045cf0       ?execute@TileBufferTask@?A0xf349abed@Imf@@UAEXXZ 10046cf0 f   ImfTiledInputFile.obj
 0001:00045f80       ?newTileBufferTask@?A0xf349abed@Imf@@YAPAVTileBufferTask@12@PAVTaskGroup@IlmThread@@PAUData@TiledInputFile@2@HHHHH@Z 10046f80 f   ImfTiledInputFile.obj
 0001:00046070       ?readTiles@TiledInputFile@Imf@@QAEXHHHHHH@Z 10047070 f   ImfTiledInputFile.obj
 0001:000463f0       ?readTiles@TiledInputFile@Imf@@QAEXHHHHH@Z 100473f0 f   ImfTiledInputFile.obj
 0001:00046420       ?readTile@TiledInputFile@Imf@@QAEXHHHH@Z 10047420 f   ImfTiledInputFile.obj
 0001:00046440       ?readTile@TiledInputFile@Imf@@QAEXHHH@Z 10047440 f   ImfTiledInputFile.obj
 0001:00046460       ?rawTileData@TiledInputFile@Imf@@QAEXAAH000AAPBD0@Z 10047460 f   ImfTiledInputFile.obj
 0001:000465f0       ?numLevels@TiledInputFile@Imf@@QBEHXZ 100475f0 f   ImfTiledInputFile.obj
 0001:000466b0       ?levelWidth@TiledInputFile@Imf@@QBEHH@Z 100476b0 f   ImfTiledInputFile.obj
 0001:000467a0       ?levelHeight@TiledInputFile@Imf@@QBEHH@Z 100477a0 f   ImfTiledInputFile.obj
 0001:00046890       ?numXTiles@TiledInputFile@Imf@@QBEHH@Z 10047890 f   ImfTiledInputFile.obj
 0001:00046960       ?numYTiles@TiledInputFile@Imf@@QBEHH@Z 10047960 f   ImfTiledInputFile.obj
 0001:00046a30       ?dataWindowForLevel@TiledInputFile@Imf@@QBE?AV?$Box@V?$Vec2@H@Imath@@@Imath@@HH@Z 10047a30 f   ImfTiledInputFile.obj
 0001:00046b30       ?dataWindowForTile@TiledInputFile@Imf@@QBE?AV?$Box@V?$Vec2@H@Imath@@@Imath@@HHHH@Z 10047b30 f   ImfTiledInputFile.obj
 0001:00046c90       ?dataWindowForLevel@TiledInputFile@Imf@@QBE?AV?$Box@V?$Vec2@H@Imath@@@Imath@@H@Z 10047c90 f   ImfTiledInputFile.obj
 0001:00046cb0       ?dataWindowForTile@TiledInputFile@Imf@@QBE?AV?$Box@V?$Vec2@H@Imath@@@Imath@@HHH@Z 10047cb0 f   ImfTiledInputFile.obj
 0001:00046ce0       ?setFrameBuffer@TiledInputFile@Imf@@QAEXABVFrameBuffer@2@@Z 10047ce0 f   ImfTiledInputFile.obj
 0001:000474a0       ??1Data@TiledInputFile@Imf@@UAE@XZ 100484a0 f   ImfTiledInputFile.obj
 0001:00047630       ??0Data@TiledInputFile@Imf@@QAE@_NH@Z 10048630 f   ImfTiledInputFile.obj
 0001:00047760       ?initialize@TiledInputFile@Imf@@AAEXXZ 10048760 f   ImfTiledInputFile.obj
 0001:00047a70       ??0TiledInputFile@Imf@@QAE@QBDH@Z 10048a70 f   ImfTiledInputFile.obj
 0001:00047bd0       ??0TiledInputFile@Imf@@QAE@AAVIStream@1@H@Z 10048bd0 f   ImfTiledInputFile.obj
 0001:00047d10       ??0TiledInputFile@Imf@@AAE@ABVHeader@1@PAVIStream@1@HH@Z 10048d10 f   ImfTiledInputFile.obj
 0001:00047db0       ?wait@TileBuffer@?A0xf349abed@Imf@@QAEXXZ 10048db0 f i ImfTiledInputFile.obj
 0001:00047dc0       ?post@TileBuffer@?A0xf349abed@Imf@@QAEXXZ 10048dc0 f i ImfTiledInputFile.obj
 0001:00047dd0       ??_GTileBuffer@?A0xf349abed@Imf@@QAEPAXI@Z 10048dd0 f i ImfTiledInputFile.obj
 0001:00047df0       ?size@?$vector@UTInSliceInfo@?A0xf349abed@Imf@@V?$allocator@UTInSliceInfo@?A0xf349abed@Imf@@@std@@@std@@QBEIXZ 10048df0 f i ImfTiledInputFile.obj
 0001:00047e10       ??A?$vector@UTInSliceInfo@?A0xf349abed@Imf@@V?$allocator@UTInSliceInfo@?A0xf349abed@Imf@@@std@@@std@@QAEAAUTInSliceInfo@?A0xf349abed@Imf@@I@Z 10048e10 f i ImfTiledInputFile.obj
 0001:00047e50       ?size@?$vector@PAUTileBuffer@?A0xf349abed@Imf@@V?$allocator@PAUTileBuffer@?A0xf349abed@Imf@@@std@@@std@@QBEIXZ 10048e50 f i ImfTiledInputFile.obj
 0001:00047e70       ??A?$vector@PAUTileBuffer@?A0xf349abed@Imf@@V?$allocator@PAUTileBuffer@?A0xf349abed@Imf@@@std@@@std@@QAEAAPAUTileBuffer@?A0xf349abed@Imf@@I@Z 10048e70 f i ImfTiledInputFile.obj
 0001:00047ea0       ?capacity@?$vector@V?$vector@V?$vector@_KV?$allocator@_K@std@@@std@@V?$allocator@V?$vector@_KV?$allocator@_K@std@@@std@@@2@@std@@V?$allocator@V?$vector@V?$vector@_KV?$allocator@_K@std@@@std@@V?$allocator@V?$vector@_KV?$allocator@_K@std@@@std@@@2@@std@@@2@@std@@QBEIXZ 10048ea0 f i ImfTiledInputFile.obj
 0001:00047ec0       ?size@?$vector@V?$vector@V?$vector@_KV?$allocator@_K@std@@@std@@V?$allocator@V?$vector@_KV?$allocator@_K@std@@@std@@@2@@std@@V?$allocator@V?$vector@V?$vector@_KV?$allocator@_K@std@@@std@@V?$allocator@V?$vector@_KV?$allocator@_K@std@@@std@@@2@@std@@@2@@std@@QBEIXZ 10048ec0 f i ImfTiledInputFile.obj
 0001:00047ee0       ?deallocate@?$allocator@V?$vector@V?$vector@_KV?$allocator@_K@std@@@std@@V?$allocator@V?$vector@_KV?$allocator@_K@std@@@std@@@2@@std@@@std@@QAEXPAV?$vector@V?$vector@_KV?$allocator@_K@std@@@std@@V?$allocator@V?$vector@_KV?$allocator@_K@std@@@std@@@2@@2@I@Z 10048ee0 f i ImfTiledInputFile.obj
 0001:00047ef0       ?capacity@?$vector@UTInSliceInfo@?A0xf349abed@Imf@@V?$allocator@UTInSliceInfo@?A0xf349abed@Imf@@@std@@@std@@QBEIXZ 10048ef0 f i ImfTiledInputFile.obj
 0001:00047f10       ??0?$allocator@UTInSliceInfo@?A0xf349abed@Imf@@@std@@QAE@XZ 10048f10 f i ImfTiledInputFile.obj
 0001:00047f20       ?deallocate@?$allocator@UTInSliceInfo@?A0xf349abed@Imf@@@std@@QAEXPAUTInSliceInfo@?A0xf349abed@Imf@@I@Z 10048f20 f i ImfTiledInputFile.obj
 0001:00047f30       ??0?$allocator@PAUTileBuffer@?A0xf349abed@Imf@@@std@@QAE@XZ 10048f30 f i ImfTiledInputFile.obj
 0001:00047f40       ?_Xlen@?$vector@V?$vector@V?$vector@_KV?$allocator@_K@std@@@std@@V?$allocator@V?$vector@_KV?$allocator@_K@std@@@std@@@2@@std@@V?$allocator@V?$vector@V?$vector@_KV?$allocator@_K@std@@@std@@V?$allocator@V?$vector@_KV?$allocator@_K@std@@@std@@@2@@std@@@2@@std@@KAXXZ 10048f40 f i ImfTiledInputFile.obj
 0001:00047fc0       ?_Xlen@?$vector@UTInSliceInfo@?A0xf349abed@Imf@@V?$allocator@UTInSliceInfo@?A0xf349abed@Imf@@@std@@@std@@KAXXZ 10048fc0 f i ImfTiledInputFile.obj
 0001:00048040       ??0?$allocator@UTInSliceInfo@?A0xf349abed@Imf@@@std@@QAE@ABV01@@Z 10049040 f i ImfTiledInputFile.obj
 0001:00048050       ?_Xlen@?$vector@PAUTileBuffer@?A0xf349abed@Imf@@V?$allocator@PAUTileBuffer@?A0xf349abed@Imf@@@std@@@std@@KAXXZ 10049050 f i ImfTiledInputFile.obj
 0001:000480d0       ??0?$allocator@PAUTileBuffer@?A0xf349abed@Imf@@@std@@QAE@ABV01@@Z 100490d0 f i ImfTiledInputFile.obj
 0001:000480e0       ?deallocate@?$allocator@PAUTileBuffer@?A0xf349abed@Imf@@@std@@QAEXPAPAUTileBuffer@?A0xf349abed@Imf@@I@Z 100490e0 f i ImfTiledInputFile.obj
 0001:000480f0       ?max_size@?$allocator@V?$vector@V?$vector@_KV?$allocator@_K@std@@@std@@V?$allocator@V?$vector@_KV?$allocator@_K@std@@@std@@@2@@std@@@std@@QBEIXZ 100490f0 f i ImfTiledInputFile.obj
 0001:00048100       ?max_size@?$allocator@UTInSliceInfo@?A0xf349abed@Imf@@@std@@QBEIXZ 10049100 f i ImfTiledInputFile.obj
 0001:00048110       ?capacity@?$vector@PAUTileBuffer@?A0xf349abed@Imf@@V?$allocator@PAUTileBuffer@?A0xf349abed@Imf@@@std@@@std@@QBEIXZ 10049110 f i ImfTiledInputFile.obj
 0001:00048130       ?max_size@?$allocator@PAUTileBuffer@?A0xf349abed@Imf@@@std@@QBEIXZ 10049130 f i ImfTiledInputFile.obj
 0001:00048140       ??G?$_Vector_const_iterator@UTInSliceInfo@?A0xf349abed@Imf@@V?$allocator@UTInSliceInfo@?A0xf349abed@Imf@@@std@@@std@@QBEHABV01@@Z 10049140 f i ImfTiledInputFile.obj
 0001:00048180       ??0?$_Ranit@UTInSliceInfo@?A0xf349abed@Imf@@HPBU123@ABU123@@std@@QAE@XZ 10049180 f i ImfTiledInputFile.obj
 0001:00048190       ??Y?$_Vector_const_iterator@UTInSliceInfo@?A0xf349abed@Imf@@V?$allocator@UTInSliceInfo@?A0xf349abed@Imf@@@std@@@std@@QAEAAV01@H@Z 10049190 f i ImfTiledInputFile.obj
 0001:000481d0       ??8?$_Vector_const_iterator@UTInSliceInfo@?A0xf349abed@Imf@@V?$allocator@UTInSliceInfo@?A0xf349abed@Imf@@@std@@@std@@QBE_NABV01@@Z 100491d0 f i ImfTiledInputFile.obj
 0001:00048200       ??8?$_Vector_const_iterator@V?$vector@V?$vector@_KV?$allocator@_K@std@@@std@@V?$allocator@V?$vector@_KV?$allocator@_K@std@@@std@@@2@@std@@V?$allocator@V?$vector@V?$vector@_KV?$allocator@_K@std@@@std@@V?$allocator@V?$vector@_KV?$allocator@_K@std@@@std@@@2@@std@@@2@@std@@QBE_NABV01@@Z 10049200 f i ImfTiledInputFile.obj
 0001:00048230       ??Y?$_Vector_const_iterator@PAUTileBuffer@?A0xf349abed@Imf@@V?$allocator@PAUTileBuffer@?A0xf349abed@Imf@@@std@@@std@@QAEAAV01@H@Z 10049230 f i ImfTiledInputFile.obj
 0001:00048270       ??8?$_Vector_const_iterator@PAUTileBuffer@?A0xf349abed@Imf@@V?$allocator@PAUTileBuffer@?A0xf349abed@Imf@@@std@@@std@@QBE_NABV01@@Z 10049270 f i ImfTiledInputFile.obj
 0001:000482a0       ??0?$_Ranit@V?$vector@V?$vector@_KV?$allocator@_K@std@@@std@@V?$allocator@V?$vector@_KV?$allocator@_K@std@@@std@@@2@@std@@HPBV12@ABV12@@std@@QAE@XZ 100492a0 f i ImfTiledInputFile.obj
 0001:000482b0       ??0?$_Ranit@PAUTileBuffer@?A0xf349abed@Imf@@HPBQAU123@ABQAU123@@std@@QAE@XZ 100492b0 f i ImfTiledInputFile.obj
 0001:000482c0       ??$swap@H@std@@YAXAAH0@Z   100492c0 f i ImfTiledInputFile.obj
 0001:000482e0       ??$_Allocate@V?$vector@V?$vector@_KV?$allocator@_K@std@@@std@@V?$allocator@V?$vector@_KV?$allocator@_K@std@@@std@@@2@@std@@@std@@YAPAV?$vector@V?$vector@_KV?$allocator@_K@std@@@std@@V?$allocator@V?$vector@_KV?$allocator@_K@std@@@std@@@2@@0@IPAV10@@Z 100492e0 f i ImfTiledInputFile.obj
 0001:00048340       ??$_Allocate@UTInSliceInfo@?A0xf349abed@Imf@@@std@@YAPAUTInSliceInfo@?A0xf349abed@Imf@@IPAU123@@Z 10049340 f i ImfTiledInputFile.obj
 0001:000483a0       ??$_Allocate@PAUTileBuffer@?A0xf349abed@Imf@@@std@@YAPAPAUTileBuffer@?A0xf349abed@Imf@@IPAPAU123@@Z 100493a0 f i ImfTiledInputFile.obj
 0001:00048400       ??$_Iter_random@PAV?$vector@V?$vector@_KV?$allocator@_K@std@@@std@@V?$allocator@V?$vector@_KV?$allocator@_K@std@@@std@@@2@@std@@PAV12@@std@@YA?AUrandom_access_iterator_tag@0@ABQAV?$vector@V?$vector@_KV?$allocator@_K@std@@@std@@V?$allocator@V?$vector@_KV?$allocator@_K@std@@@std@@@2@@0@0@Z 10049400 f i ImfTiledInputFile.obj
 0001:00048410       ??$_Ptr_cat@PAV?$vector@V?$vector@_KV?$allocator@_K@std@@@std@@V?$allocator@V?$vector@_KV?$allocator@_K@std@@@std@@@2@@std@@PAV12@@std@@YA?AU_Nonscalar_ptr_iterator_tag@0@AAPAV?$vector@V?$vector@_KV?$allocator@_K@std@@@std@@V?$allocator@V?$vector@_KV?$allocator@_K@std@@@std@@@2@@0@0@Z 10049410 f i ImfTiledInputFile.obj
 0001:00048420       ??$_Iter_random@PAUTInSliceInfo@?A0xf349abed@Imf@@PAU123@@std@@YA?AUrandom_access_iterator_tag@0@ABQAUTInSliceInfo@?A0xf349abed@Imf@@0@Z 10049420 f i ImfTiledInputFile.obj
 0001:00048430       ??$_Ptr_cat@PAUTInSliceInfo@?A0xf349abed@Imf@@PAU123@@std@@YA?AU_Nonscalar_ptr_iterator_tag@0@AAPAUTInSliceInfo@?A0xf349abed@Imf@@0@Z 10049430 f i ImfTiledInputFile.obj
 0001:00048440       ??$_Fill@PAUTInSliceInfo@?A0xf349abed@Imf@@U123@@std@@YAXPAUTInSliceInfo@?A0xf349abed@Imf@@0ABU123@@Z 10049440 f i ImfTiledInputFile.obj
 0001:00048470       ??$_Move_cat@PAUTInSliceInfo@?A0xf349abed@Imf@@@std@@YA?AU_Undefined_move_tag@0@ABQAUTInSliceInfo@?A0xf349abed@Imf@@@Z 10049470 f i ImfTiledInputFile.obj
 0001:00048480       ??$_Iter_random@PAPAUTileBuffer@?A0xf349abed@Imf@@PAPAU123@@std@@YA?AUrandom_access_iterator_tag@0@ABQAPAUTileBuffer@?A0xf349abed@Imf@@0@Z 10049480 f i ImfTiledInputFile.obj
 0001:00048490       ??$_Ptr_cat@PAPAUTileBuffer@?A0xf349abed@Imf@@PAPAU123@@std@@YA?AU_Scalar_ptr_iterator_tag@0@AAPAPAUTileBuffer@?A0xf349abed@Imf@@0@Z 10049490 f i ImfTiledInputFile.obj
 0001:000484a0       ??$_Copy_opt@PAPAUTileBuffer@?A0xf349abed@Imf@@PAPAU123@Urandom_access_iterator_tag@std@@@std@@YAPAPAUTileBuffer@?A0xf349abed@Imf@@PAPAU123@00Urandom_access_iterator_tag@0@U_Scalar_ptr_iterator_tag@0@U_Range_checked_iterator_tag@0@@Z 100494a0 f i ImfTiledInputFile.obj
 0001:000484e0       ??$_Destroy_range@PAUTileBuffer@?A0xf349abed@Imf@@V?$allocator@PAUTileBuffer@?A0xf349abed@Imf@@@std@@@std@@YAXPAPAUTileBuffer@?A0xf349abed@Imf@@0AAV?$allocator@PAUTileBuffer@?A0xf349abed@Imf@@@0@U_Scalar_ptr_iterator_tag@0@@Z 100494e0 f i ImfTiledInputFile.obj
 0001:000484f0       ??$_Fill@PAPAUTileBuffer@?A0xf349abed@Imf@@PAU123@@std@@YAXPAPAUTileBuffer@?A0xf349abed@Imf@@0ABQAU123@@Z 100494f0 f i ImfTiledInputFile.obj
 0001:00048510       ??$_Move_cat@PAPAUTileBuffer@?A0xf349abed@Imf@@@std@@YA?AU_Undefined_move_tag@0@ABQAPAUTileBuffer@?A0xf349abed@Imf@@@Z 10049510 f i ImfTiledInputFile.obj
 0001:00048520       ??$_Checked_base@PAV?$vector@V?$vector@_KV?$allocator@_K@std@@@std@@V?$allocator@V?$vector@_KV?$allocator@_K@std@@@std@@@2@@std@@@std@@YAPAV?$vector@V?$vector@_KV?$allocator@_K@std@@@std@@V?$allocator@V?$vector@_KV?$allocator@_K@std@@@std@@@2@@0@AAPAV10@U_Unchanged_checked_iterator_base_type_tag@0@@Z 10049520 f i ImfTiledInputFile.obj
 0001:00048530       ??$_Checked_base@PAUTInSliceInfo@?A0xf349abed@Imf@@@std@@YAPAUTInSliceInfo@?A0xf349abed@Imf@@AAPAU123@U_Unchanged_checked_iterator_base_type_tag@0@@Z 10049530 f i ImfTiledInputFile.obj
 0001:00048540       ??$_Copy_opt@PAUTInSliceInfo@?A0xf349abed@Imf@@PAU123@Uforward_iterator_tag@std@@@std@@YAPAUTInSliceInfo@?A0xf349abed@Imf@@PAU123@00Uforward_iterator_tag@0@U_Nonscalar_ptr_iterator_tag@0@U_Range_checked_iterator_tag@0@@Z 10049540 f i ImfTiledInputFile.obj
 0001:00048570       ??$_Checked_base@PAPAUTileBuffer@?A0xf349abed@Imf@@@std@@YAPAPAUTileBuffer@?A0xf349abed@Imf@@AAPAPAU123@U_Unchanged_checked_iterator_base_type_tag@0@@Z 10049570 f i ImfTiledInputFile.obj
 0001:00048580       ??$_Copy_backward_opt@PAPAUTileBuffer@?A0xf349abed@Imf@@PAPAU123@Urandom_access_iterator_tag@std@@@std@@YAPAPAUTileBuffer@?A0xf349abed@Imf@@PAPAU123@00Urandom_access_iterator_tag@0@U_Scalar_ptr_iterator_tag@0@U_Range_checked_iterator_tag@0@@Z 10049580 f i ImfTiledInputFile.obj
 0001:000485b0       ??$_Construct@UTInSliceInfo@?A0xf349abed@Imf@@U123@@std@@YAXPAUTInSliceInfo@?A0xf349abed@Imf@@ABU123@@Z 100495b0 f i ImfTiledInputFile.obj
 0001:000485d0       ??$_Destroy@UTInSliceInfo@?A0xf349abed@Imf@@@std@@YAXPAUTInSliceInfo@?A0xf349abed@Imf@@@Z 100495d0 f i ImfTiledInputFile.obj
 0001:000485e0       ?capacity@?$vector@V?$vector@_KV?$allocator@_K@std@@@std@@V?$allocator@V?$vector@_KV?$allocator@_K@std@@@std@@@2@@std@@QBEIXZ 100495e0 f i ImfTiledInputFile.obj
 0001:00048600       ?size@?$vector@V?$vector@_KV?$allocator@_K@std@@@std@@V?$allocator@V?$vector@_KV?$allocator@_K@std@@@std@@@2@@std@@QBEIXZ 10049600 f i ImfTiledInputFile.obj
 0001:00048620       ?deallocate@?$allocator@V?$vector@_KV?$allocator@_K@std@@@std@@@std@@QAEXPAV?$vector@_KV?$allocator@_K@std@@@2@I@Z 10049620 f i ImfTiledInputFile.obj
 0001:00048630       ?_Xlen@?$vector@V?$vector@_KV?$allocator@_K@std@@@std@@V?$allocator@V?$vector@_KV?$allocator@_K@std@@@std@@@2@@std@@KAXXZ 10049630 f i ImfTiledInputFile.obj
 0001:000486b0       ?max_size@?$allocator@V?$vector@_KV?$allocator@_K@std@@@std@@@std@@QBEIXZ 100496b0 f i ImfTiledInputFile.obj
 0001:000486c0       ??8?$_Vector_const_iterator@V?$vector@_KV?$allocator@_K@std@@@std@@V?$allocator@V?$vector@_KV?$allocator@_K@std@@@std@@@2@@std@@QBE_NABV01@@Z 100496c0 f i ImfTiledInputFile.obj
 0001:000486f0       ??0?$_Ranit@V?$vector@_KV?$allocator@_K@std@@@std@@HPBV12@ABV12@@std@@QAE@XZ 100496f0 f i ImfTiledInputFile.obj
 0001:00048700       ??$_Copy_backward_opt@PAUTInSliceInfo@?A0xf349abed@Imf@@PAU123@Uforward_iterator_tag@std@@@std@@YAPAUTInSliceInfo@?A0xf349abed@Imf@@PAU123@00Uforward_iterator_tag@0@U_Nonscalar_ptr_iterator_tag@0@U_Range_checked_iterator_tag@0@@Z 10049700 f i ImfTiledInputFile.obj
 0001:00048730       ??$_Iter_cat@PAPAUTileBuffer@?A0xf349abed@Imf@@@std@@YA?AUrandom_access_iterator_tag@0@ABQAPAUTileBuffer@?A0xf349abed@Imf@@@Z 10049730 f i ImfTiledInputFile.obj
 0001:00048740       ??$_Allocate@V?$vector@_KV?$allocator@_K@std@@@std@@@std@@YAPAV?$vector@_KV?$allocator@_K@std@@@0@IPAV10@@Z 10049740 f i ImfTiledInputFile.obj
 0001:000487a0       ??0?$allocator@V?$vector@_KV?$allocator@_K@std@@@std@@@std@@QAE@ABV01@@Z 100497a0 f i ImfTiledInputFile.obj
 0001:000487b0       ??$_Uninit_copy@PAPAUTileBuffer@?A0xf349abed@Imf@@PAPAU123@V?$allocator@PAUTileBuffer@?A0xf349abed@Imf@@@std@@@std@@YAPAPAUTileBuffer@?A0xf349abed@Imf@@PAPAU123@00AAV?$allocator@PAUTileBuffer@?A0xf349abed@Imf@@@0@U_Scalar_ptr_iterator_tag@0@U_Range_checked_iterator_tag@0@@Z 100497b0 f i ImfTiledInputFile.obj
 0001:000487e0       ??$_Fill_n@PAPAUTileBuffer@?A0xf349abed@Imf@@IPAU123@@std@@YAXPAPAUTileBuffer@?A0xf349abed@Imf@@IABQAU123@U_Range_checked_iterator_tag@0@@Z 100497e0 f i ImfTiledInputFile.obj
 0001:00048810       ??$_Iter_random@PAV?$vector@_KV?$allocator@_K@std@@@std@@PAV12@@std@@YA?AUrandom_access_iterator_tag@0@ABQAV?$vector@_KV?$allocator@_K@std@@@0@0@Z 10049810 f i ImfTiledInputFile.obj
 0001:00048820       ??$_Ptr_cat@PAV?$vector@_KV?$allocator@_K@std@@@std@@PAV12@@std@@YA?AU_Nonscalar_ptr_iterator_tag@0@AAPAV?$vector@_KV?$allocator@_K@std@@@0@0@Z 10049820 f i ImfTiledInputFile.obj
 0001:00048830       ??$_Checked_base@PAV?$vector@_KV?$allocator@_K@std@@@std@@@std@@YAPAV?$vector@_KV?$allocator@_K@std@@@0@AAPAV10@U_Unchanged_checked_iterator_base_type_tag@0@@Z 10049830 f i ImfTiledInputFile.obj
 0001:00048840       ??$_Ptr_cat@V?$_Vector_const_iterator@V?$vector@_KV?$allocator@_K@std@@@std@@V?$allocator@V?$vector@_KV?$allocator@_K@std@@@std@@@2@@std@@PAV?$vector@_KV?$allocator@_K@std@@@2@@std@@YA?AU_Nonscalar_ptr_iterator_tag@0@AAV?$_Vector_const_iterator@V?$vector@_KV?$allocator@_K@std@@@std@@V?$allocator@V?$vector@_KV?$allocator@_K@std@@@std@@@2@@0@AAPAV?$vector@_KV?$allocator@_K@std@@@0@@Z 10049840 f i ImfTiledInputFile.obj
 0001:00048850       ?_Checked_iterator_base@?$_Vector_const_iterator@V?$vector@_KV?$allocator@_K@std@@@std@@V?$allocator@V?$vector@_KV?$allocator@_K@std@@@std@@@2@@std@@QBEPBV?$vector@_KV?$allocator@_K@std@@@2@XZ 10049850 f i ImfTiledInputFile.obj
 0001:00048860       ??$_Ptr_cat@V?$_Vector_const_iterator@_KV?$allocator@_K@std@@@std@@PA_K@std@@YA?AU_Scalar_ptr_iterator_tag@0@AAV?$_Vector_const_iterator@_KV?$allocator@_K@std@@@0@AAPA_K@Z 10049860 f i ImfTiledInputFile.obj
 0001:00048870       ??$_Uninit_copy@PB_KPA_KV?$allocator@_K@std@@@std@@YAPA_KPB_K0PA_KAAV?$allocator@_K@0@U_Scalar_ptr_iterator_tag@0@U_Range_checked_iterator_tag@0@@Z 10049870 f i ImfTiledInputFile.obj
 0001:000488a0       ?_Checked_iterator_base@?$_Vector_const_iterator@_KV?$allocator@_K@std@@@std@@QBEPB_KXZ 100498a0 f i ImfTiledInputFile.obj
 0001:000488b0       ?getTileBuffer@Data@TiledInputFile@Imf@@QAEPAUTileBuffer@?A0xf349abed@3@H@Z 100498b0 f i ImfTiledInputFile.obj
 0001:00048910       ??_GTileBufferTask@?A0xf349abed@Imf@@UAEPAXI@Z 10049910 f i ImfTiledInputFile.obj
 0001:00048910       ??_ETileBufferTask@?A0xf349abed@Imf@@UAEPAXI@Z 10049910 f i ImfTiledInputFile.obj
 0001:00048930       ??0?$_Vector_val@UTInSliceInfo@?A0xf349abed@Imf@@V?$allocator@UTInSliceInfo@?A0xf349abed@Imf@@@std@@@std@@IAE@V?$allocator@UTInSliceInfo@?A0xf349abed@Imf@@@1@@Z 10049930 f i ImfTiledInputFile.obj
 0001:00048940       ??0?$_Vector_val@PAUTileBuffer@?A0xf349abed@Imf@@V?$allocator@PAUTileBuffer@?A0xf349abed@Imf@@@std@@@std@@IAE@V?$allocator@PAUTileBuffer@?A0xf349abed@Imf@@@1@@Z 10049940 f i ImfTiledInputFile.obj
 0001:00048950       ?max_size@?$vector@V?$vector@V?$vector@_KV?$allocator@_K@std@@@std@@V?$allocator@V?$vector@_KV?$allocator@_K@std@@@std@@@2@@std@@V?$allocator@V?$vector@V?$vector@_KV?$allocator@_K@std@@@std@@V?$allocator@V?$vector@_KV?$allocator@_K@std@@@std@@@2@@std@@@2@@std@@QBEIXZ 10049950 f i ImfTiledInputFile.obj
 0001:00048960       ?allocate@?$allocator@V?$vector@V?$vector@_KV?$allocator@_K@std@@@std@@V?$allocator@V?$vector@_KV?$allocator@_K@std@@@std@@@2@@std@@@std@@QAEPAV?$vector@V?$vector@_KV?$allocator@_K@std@@@std@@V?$allocator@V?$vector@_KV?$allocator@_K@std@@@std@@@2@@2@I@Z 10049960 f i ImfTiledInputFile.obj
 0001:00048980       ?max_size@?$vector@UTInSliceInfo@?A0xf349abed@Imf@@V?$allocator@UTInSliceInfo@?A0xf349abed@Imf@@@std@@@std@@QBEIXZ 10049980 f i ImfTiledInputFile.obj
 0001:00048990       ?allocate@?$allocator@UTInSliceInfo@?A0xf349abed@Imf@@@std@@QAEPAUTInSliceInfo@?A0xf349abed@Imf@@I@Z 10049990 f i ImfTiledInputFile.obj
 0001:000489b0       ?max_size@?$vector@PAUTileBuffer@?A0xf349abed@Imf@@V?$allocator@PAUTileBuffer@?A0xf349abed@Imf@@@std@@@std@@QBEIXZ 100499b0 f i ImfTiledInputFile.obj
 0001:000489c0       ?allocate@?$allocator@PAUTileBuffer@?A0xf349abed@Imf@@@std@@QAEPAPAUTileBuffer@?A0xf349abed@Imf@@I@Z 100499c0 f i ImfTiledInputFile.obj
 0001:000489e0       ??G?$_Vector_iterator@UTInSliceInfo@?A0xf349abed@Imf@@V?$allocator@UTInSliceInfo@?A0xf349abed@Imf@@@std@@@std@@QBEHABV?$_Vector_const_iterator@UTInSliceInfo@?A0xf349abed@Imf@@V?$allocator@UTInSliceInfo@?A0xf349abed@Imf@@@std@@@1@@Z 100499e0 f i ImfTiledInputFile.obj
 0001:00048a20       ??Y?$_Vector_iterator@UTInSliceInfo@?A0xf349abed@Imf@@V?$allocator@UTInSliceInfo@?A0xf349abed@Imf@@@std@@@std@@QAEAAV01@H@Z 10049a20 f i ImfTiledInputFile.obj
 0001:00048a60       ??0?$_Vector_const_iterator@UTInSliceInfo@?A0xf349abed@Imf@@V?$allocator@UTInSliceInfo@?A0xf349abed@Imf@@@std@@@std@@QAE@PAUTInSliceInfo@?A0xf349abed@Imf@@PBU_Container_base@1@@Z 10049a60 f i ImfTiledInputFile.obj
 0001:00048aa0       ??9?$_Vector_const_iterator@UTInSliceInfo@?A0xf349abed@Imf@@V?$allocator@UTInSliceInfo@?A0xf349abed@Imf@@@std@@@std@@QBE_NABV01@@Z 10049aa0 f i ImfTiledInputFile.obj
 0001:00048ad0       ??9?$_Vector_const_iterator@V?$vector@V?$vector@_KV?$allocator@_K@std@@@std@@V?$allocator@V?$vector@_KV?$allocator@_K@std@@@std@@@2@@std@@V?$allocator@V?$vector@V?$vector@_KV?$allocator@_K@std@@@std@@V?$allocator@V?$vector@_KV?$allocator@_K@std@@@std@@@2@@std@@@2@@std@@QBE_NABV01@@Z 10049ad0 f i ImfTiledInputFile.obj
 0001:00048b00       ??Y?$_Vector_iterator@PAUTileBuffer@?A0xf349abed@Imf@@V?$allocator@PAUTileBuffer@?A0xf349abed@Imf@@@std@@@std@@QAEAAV01@H@Z 10049b00 f i ImfTiledInputFile.obj
 0001:00048b40       ??9?$_Vector_const_iterator@PAUTileBuffer@?A0xf349abed@Imf@@V?$allocator@PAUTileBuffer@?A0xf349abed@Imf@@@std@@@std@@QBE_NABV01@@Z 10049b40 f i ImfTiledInputFile.obj
 0001:00048b70       ??0?$_Vector_const_iterator@V?$vector@V?$vector@_KV?$allocator@_K@std@@@std@@V?$allocator@V?$vector@_KV?$allocator@_K@std@@@std@@@2@@std@@V?$allocator@V?$vector@V?$vector@_KV?$allocator@_K@std@@@std@@V?$allocator@V?$vector@_KV?$allocator@_K@std@@@std@@@2@@std@@@2@@std@@QAE@PAV?$vector@V?$vector@_KV?$allocator@_K@std@@@std@@V?$allocator@V?$vector@_KV?$allocator@_K@std@@@std@@@2@@1@PBU_Container_base@1@@Z 10049b70 f i ImfTiledInputFile.obj
 0001:00048bb0       ??0?$_Vector_const_iterator@PAUTileBuffer@?A0xf349abed@Imf@@V?$allocator@PAUTileBuffer@?A0xf349abed@Imf@@@std@@@std@@QAE@PAPAUTileBuffer@?A0xf349abed@Imf@@PBU_Container_base@1@@Z 10049bb0 f i ImfTiledInputFile.obj
 0001:00048bf0       ??$_Destroy_range@PAUTileBuffer@?A0xf349abed@Imf@@V?$allocator@PAUTileBuffer@?A0xf349abed@Imf@@@std@@@std@@YAXPAPAUTileBuffer@?A0xf349abed@Imf@@0AAV?$allocator@PAUTileBuffer@?A0xf349abed@Imf@@@0@@Z 10049bf0 f i ImfTiledInputFile.obj
 0001:00048c00       ??$_Checked_base@PAV?$vector@V?$vector@_KV?$allocator@_K@std@@@std@@V?$allocator@V?$vector@_KV?$allocator@_K@std@@@std@@@2@@std@@@std@@YAPAV?$vector@V?$vector@_KV?$allocator@_K@std@@@std@@V?$allocator@V?$vector@_KV?$allocator@_K@std@@@std@@@2@@0@AAPAV10@@Z 10049c00 f i ImfTiledInputFile.obj
 0001:00048c10       ??$_Checked_base@PAUTInSliceInfo@?A0xf349abed@Imf@@@std@@YAPAUTInSliceInfo@?A0xf349abed@Imf@@AAPAU123@@Z 10049c10 f i ImfTiledInputFile.obj
 0001:00048c20       ??$_Copy_opt@PAUTInSliceInfo@?A0xf349abed@Imf@@PAU123@@std@@YAPAUTInSliceInfo@?A0xf349abed@Imf@@PAU123@00Urandom_access_iterator_tag@0@U_Nonscalar_ptr_iterator_tag@0@U_Range_checked_iterator_tag@0@@Z 10049c20 f i ImfTiledInputFile.obj
 0001:00048c70       ??$_Checked_base@PAPAUTileBuffer@?A0xf349abed@Imf@@@std@@YAPAPAUTileBuffer@?A0xf349abed@Imf@@AAPAPAU123@@Z 10049c70 f i ImfTiledInputFile.obj
 0001:00048c80       ??$_Move_backward_opt@PAPAUTileBuffer@?A0xf349abed@Imf@@PAPAU123@Urandom_access_iterator_tag@std@@U_Undefined_move_tag@5@@std@@YAPAPAUTileBuffer@?A0xf349abed@Imf@@PAPAU123@00Urandom_access_iterator_tag@0@U_Undefined_move_tag@0@U_Range_checked_iterator_tag@0@@Z 10049c80 f i ImfTiledInputFile.obj
 0001:00048cb0       ?construct@?$allocator@UTInSliceInfo@?A0xf349abed@Imf@@@std@@QAEXPAUTInSliceInfo@?A0xf349abed@Imf@@ABU345@@Z 10049cb0 f i ImfTiledInputFile.obj
 0001:00048cd0       ?destroy@?$allocator@UTInSliceInfo@?A0xf349abed@Imf@@@std@@QAEXPAUTInSliceInfo@?A0xf349abed@Imf@@@Z 10049cd0 f i ImfTiledInputFile.obj
 0001:00048ce0       ??$_Uninit_copy@PAUTInSliceInfo@?A0xf349abed@Imf@@PAU123@V?$allocator@UTInSliceInfo@?A0xf349abed@Imf@@@std@@@std@@YAPAUTInSliceInfo@?A0xf349abed@Imf@@PAU123@00AAV?$allocator@UTInSliceInfo@?A0xf349abed@Imf@@@0@U_Nonscalar_ptr_iterator_tag@0@U_Range_checked_iterator_tag@0@@Z 10049ce0 f i ImfTiledInputFile.obj
 0001:00048d10       ??$_Copy_backward_opt@PAUTInSliceInfo@?A0xf349abed@Imf@@PAU123@@std@@YAPAUTInSliceInfo@?A0xf349abed@Imf@@PAU123@00Urandom_access_iterator_tag@0@U_Nonscalar_ptr_iterator_tag@0@U_Range_checked_iterator_tag@0@@Z 10049d10 f i ImfTiledInputFile.obj
 0001:00048d70       ?max_size@?$vector@V?$vector@_KV?$allocator@_K@std@@@std@@V?$allocator@V?$vector@_KV?$allocator@_K@std@@@std@@@2@@std@@QBEIXZ 10049d70 f i ImfTiledInputFile.obj
 0001:00048d80       ?allocate@?$allocator@V?$vector@_KV?$allocator@_K@std@@@std@@@std@@QAEPAV?$vector@_KV?$allocator@_K@std@@@2@I@Z 10049d80 f i ImfTiledInputFile.obj
 0001:00048da0       ??9?$_Vector_const_iterator@V?$vector@_KV?$allocator@_K@std@@@std@@V?$allocator@V?$vector@_KV?$allocator@_K@std@@@std@@@2@@std@@QBE_NABV01@@Z 10049da0 f i ImfTiledInputFile.obj
 0001:00048dd0       ??0?$_Vector_const_iterator@V?$vector@_KV?$allocator@_K@std@@@std@@V?$allocator@V?$vector@_KV?$allocator@_K@std@@@std@@@2@@std@@QAE@PAV?$vector@_KV?$allocator@_K@std@@@1@PBU_Container_base@1@@Z 10049dd0 f i ImfTiledInputFile.obj
 0001:00048e10       ??$unchecked_uninitialized_copy@PAPAUTileBuffer@?A0xf349abed@Imf@@PAPAU123@V?$allocator@PAUTileBuffer@?A0xf349abed@Imf@@@std@@@stdext@@YAPAPAUTileBuffer@?A0xf349abed@Imf@@PAPAU123@00AAV?$allocator@PAUTileBuffer@?A0xf349abed@Imf@@@std@@@Z 10049e10 f i ImfTiledInputFile.obj
 0001:00048e40       ??$_Fill_n@PAPAUTileBuffer@?A0xf349abed@Imf@@IPAU123@@std@@YAXPAPAUTileBuffer@?A0xf349abed@Imf@@IABQAU123@Urandom_access_iterator_tag@0@U_Range_checked_iterator_tag@0@@Z 10049e40 f i ImfTiledInputFile.obj
 0001:00048e70       ?begin@?$vector@V?$vector@_KV?$allocator@_K@std@@@std@@V?$allocator@V?$vector@_KV?$allocator@_K@std@@@std@@@2@@std@@QBE?AV?$_Vector_const_iterator@V?$vector@_KV?$allocator@_K@std@@@std@@V?$allocator@V?$vector@_KV?$allocator@_K@std@@@std@@@2@@2@XZ 10049e70 f i ImfTiledInputFile.obj
 0001:00048ea0       ?end@?$vector@V?$vector@_KV?$allocator@_K@std@@@std@@V?$allocator@V?$vector@_KV?$allocator@_K@std@@@std@@@2@@std@@QBE?AV?$_Vector_const_iterator@V?$vector@_KV?$allocator@_K@std@@@std@@V?$allocator@V?$vector@_KV?$allocator@_K@std@@@std@@@2@@2@XZ 10049ea0 f i ImfTiledInputFile.obj
 0001:00048ed0       ??0?$_Vector_val@V?$vector@_KV?$allocator@_K@std@@@std@@V?$allocator@V?$vector@_KV?$allocator@_K@std@@@std@@@2@@std@@IAE@V?$allocator@V?$vector@_KV?$allocator@_K@std@@@std@@@1@@Z 10049ed0 f i ImfTiledInputFile.obj
 0001:00048ee0       ??$_Checked_base@PAV?$vector@_KV?$allocator@_K@std@@@std@@@std@@YAPAV?$vector@_KV?$allocator@_K@std@@@0@AAPAV10@@Z 10049ee0 f i ImfTiledInputFile.obj
 0001:00048ef0       ?begin@?$vector@_KV?$allocator@_K@std@@@std@@QBE?AV?$_Vector_const_iterator@_KV?$allocator@_K@std@@@2@XZ 10049ef0 f i ImfTiledInputFile.obj
 0001:00048f20       ?end@?$vector@_KV?$allocator@_K@std@@@std@@QBE?AV?$_Vector_const_iterator@_KV?$allocator@_K@std@@@2@XZ 10049f20 f i ImfTiledInputFile.obj
 0001:00048f50       ??$_Checked_base@V?$_Vector_const_iterator@V?$vector@_KV?$allocator@_K@std@@@std@@V?$allocator@V?$vector@_KV?$allocator@_K@std@@@std@@@2@@std@@U_Different_checked_iterator_base_type_tag@2@@std@@YAPBV?$vector@_KV?$allocator@_K@std@@@0@AAV?$_Vector_const_iterator@V?$vector@_KV?$allocator@_K@std@@@std@@V?$allocator@V?$vector@_KV?$allocator@_K@std@@@std@@@2@@0@U_Different_checked_iterator_base_type_tag@0@@Z 10049f50 f i ImfTiledInputFile.obj
 0001:00048f60       ??$_Checked_base@V?$_Vector_const_iterator@_KV?$allocator@_K@std@@@std@@U_Different_checked_iterator_base_type_tag@2@@std@@YAPB_KAAV?$_Vector_const_iterator@_KV?$allocator@_K@std@@@0@U_Different_checked_iterator_base_type_tag@0@@Z 10049f60 f i ImfTiledInputFile.obj
 0001:00048f70       ??_ETiledInputFile@Imf@@UAEPAXI@Z 10049f70 f i ImfTiledInputFile.obj
 0001:00048f70       ??_GTiledInputFile@Imf@@UAEPAXI@Z 10049f70 f i ImfTiledInputFile.obj
 0001:00048f90       ?_Buy@?$vector@V?$vector@V?$vector@_KV?$allocator@_K@std@@@std@@V?$allocator@V?$vector@_KV?$allocator@_K@std@@@std@@@2@@std@@V?$allocator@V?$vector@V?$vector@_KV?$allocator@_K@std@@@std@@V?$allocator@V?$vector@_KV?$allocator@_K@std@@@std@@@2@@std@@@2@@std@@IAE_NI@Z 10049f90 f i ImfTiledInputFile.obj
 0001:00048fe0       ?_Buy@?$vector@UTInSliceInfo@?A0xf349abed@Imf@@V?$allocator@UTInSliceInfo@?A0xf349abed@Imf@@@std@@@std@@IAE_NI@Z 10049fe0 f i ImfTiledInputFile.obj
 0001:00049030       ?_Buy@?$vector@PAUTileBuffer@?A0xf349abed@Imf@@V?$allocator@PAUTileBuffer@?A0xf349abed@Imf@@@std@@@std@@IAE_NI@Z 1004a030 f i ImfTiledInputFile.obj
 0001:00049080       ?_Destroy@?$vector@PAUTileBuffer@?A0xf349abed@Imf@@V?$allocator@PAUTileBuffer@?A0xf349abed@Imf@@@std@@@std@@IAEXPAPAUTileBuffer@?A0xf349abed@Imf@@0@Z 1004a080 f i ImfTiledInputFile.obj
 0001:00049090       ??0?$_Vector_iterator@UTInSliceInfo@?A0xf349abed@Imf@@V?$allocator@UTInSliceInfo@?A0xf349abed@Imf@@@std@@@std@@QAE@PAUTInSliceInfo@?A0xf349abed@Imf@@PBU_Container_base@1@@Z 1004a090 f i ImfTiledInputFile.obj
 0001:000490d0       ??H?$_Vector_iterator@UTInSliceInfo@?A0xf349abed@Imf@@V?$allocator@UTInSliceInfo@?A0xf349abed@Imf@@@std@@@std@@QBE?AV01@H@Z 1004a0d0 f i ImfTiledInputFile.obj
 0001:00049110       ??H?$_Vector_iterator@PAUTileBuffer@?A0xf349abed@Imf@@V?$allocator@PAUTileBuffer@?A0xf349abed@Imf@@@std@@@std@@QBE?AV01@H@Z 1004a110 f i ImfTiledInputFile.obj
 0001:00049150       ??0?$_Vector_iterator@V?$vector@V?$vector@_KV?$allocator@_K@std@@@std@@V?$allocator@V?$vector@_KV?$allocator@_K@std@@@std@@@2@@std@@V?$allocator@V?$vector@V?$vector@_KV?$allocator@_K@std@@@std@@V?$allocator@V?$vector@_KV?$allocator@_K@std@@@std@@@2@@std@@@2@@std@@QAE@PAV?$vector@V?$vector@_KV?$allocator@_K@std@@@std@@V?$allocator@V?$vector@_KV?$allocator@_K@std@@@std@@@2@@1@PBU_Container_base@1@@Z 1004a150 f i ImfTiledInputFile.obj
 0001:00049190       ??0?$_Vector_iterator@PAUTileBuffer@?A0xf349abed@Imf@@V?$allocator@PAUTileBuffer@?A0xf349abed@Imf@@@std@@@std@@QAE@PAPAUTileBuffer@?A0xf349abed@Imf@@PBU_Container_base@1@@Z 1004a190 f i ImfTiledInputFile.obj
 0001:000491d0       ??$unchecked_copy@PAUTInSliceInfo@?A0xf349abed@Imf@@PAU123@@stdext@@YAPAUTInSliceInfo@?A0xf349abed@Imf@@PAU123@00@Z 1004a1d0 f i ImfTiledInputFile.obj
 0001:00049200       ??$fill@PAUTInSliceInfo@?A0xf349abed@Imf@@U123@@std@@YAXPAUTInSliceInfo@?A0xf349abed@Imf@@0ABU123@@Z 1004a200 f i ImfTiledInputFile.obj
 0001:00049230       ??$unchecked_copy@PAPAUTileBuffer@?A0xf349abed@Imf@@PAPAU123@@stdext@@YAPAPAUTileBuffer@?A0xf349abed@Imf@@PAPAU123@00@Z 1004a230 f i ImfTiledInputFile.obj
 0001:00049270       ??$fill@PAPAUTileBuffer@?A0xf349abed@Imf@@PAU123@@std@@YAXPAPAUTileBuffer@?A0xf349abed@Imf@@0ABQAU123@@Z 1004a270 f i ImfTiledInputFile.obj
 0001:00049290       ??$_Unchecked_move_backward@PAPAUTileBuffer@?A0xf349abed@Imf@@PAPAU123@@stdext@@YAPAPAUTileBuffer@?A0xf349abed@Imf@@PAPAU123@00@Z 1004a290 f i ImfTiledInputFile.obj
 0001:000492c0       ??$unchecked_uninitialized_copy@PAUTInSliceInfo@?A0xf349abed@Imf@@PAU123@V?$allocator@UTInSliceInfo@?A0xf349abed@Imf@@@std@@@stdext@@YAPAUTInSliceInfo@?A0xf349abed@Imf@@PAU123@00AAV?$allocator@UTInSliceInfo@?A0xf349abed@Imf@@@std@@@Z 1004a2c0 f i ImfTiledInputFile.obj
 0001:000492f0       ??$_Destroy_range@UTInSliceInfo@?A0xf349abed@Imf@@V?$allocator@UTInSliceInfo@?A0xf349abed@Imf@@@std@@@std@@YAXPAUTInSliceInfo@?A0xf349abed@Imf@@0AAV?$allocator@UTInSliceInfo@?A0xf349abed@Imf@@@0@U_Nonscalar_ptr_iterator_tag@0@@Z 1004a2f0 f i ImfTiledInputFile.obj
 0001:00049300       ??$_Uninit_fill_n@PAUTInSliceInfo@?A0xf349abed@Imf@@IU123@V?$allocator@UTInSliceInfo@?A0xf349abed@Imf@@@std@@@std@@YAXPAUTInSliceInfo@?A0xf349abed@Imf@@IABU123@AAV?$allocator@UTInSliceInfo@?A0xf349abed@Imf@@@0@U_Nonscalar_ptr_iterator_tag@0@U_Range_checked_iterator_tag@0@@Z 1004a300 f i ImfTiledInputFile.obj
 0001:00049330       ??$_Move_backward_opt@PAUTInSliceInfo@?A0xf349abed@Imf@@PAU123@Urandom_access_iterator_tag@std@@U_Undefined_move_tag@5@@std@@YAPAUTInSliceInfo@?A0xf349abed@Imf@@PAU123@00Urandom_access_iterator_tag@0@U_Undefined_move_tag@0@U_Range_checked_iterator_tag@0@@Z 1004a330 f i ImfTiledInputFile.obj
 0001:00049350       ??$_Uninit_move@PAUTInSliceInfo@?A0xf349abed@Imf@@PAU123@V?$allocator@UTInSliceInfo@?A0xf349abed@Imf@@@std@@U_Undefined_move_tag@5@@std@@YAPAUTInSliceInfo@?A0xf349abed@Imf@@PAU123@00AAV?$allocator@UTInSliceInfo@?A0xf349abed@Imf@@@0@U_Undefined_move_tag@0@U_Range_checked_iterator_tag@0@@Z 1004a350 f i ImfTiledInputFile.obj
 0001:00049370       ??$_Uninit_move@PAPAUTileBuffer@?A0xf349abed@Imf@@PAPAU123@V?$allocator@PAUTileBuffer@?A0xf349abed@Imf@@@std@@U_Undefined_move_tag@5@@std@@YAPAPAUTileBuffer@?A0xf349abed@Imf@@PAPAU123@00AAV?$allocator@PAUTileBuffer@?A0xf349abed@Imf@@@0@U_Undefined_move_tag@0@U_Range_checked_iterator_tag@0@@Z 1004a370 f i ImfTiledInputFile.obj
 0001:000493a0       ??$unchecked_fill_n@PAPAUTileBuffer@?A0xf349abed@Imf@@IPAU123@@stdext@@YAXPAPAUTileBuffer@?A0xf349abed@Imf@@IABQAU123@@Z 1004a3a0 f i ImfTiledInputFile.obj
 0001:000493d0       ?_Buy@?$vector@V?$vector@_KV?$allocator@_K@std@@@std@@V?$allocator@V?$vector@_KV?$allocator@_K@std@@@std@@@2@@std@@IAE_NI@Z 1004a3d0 f i ImfTiledInputFile.obj
 0001:00049420       ??0?$_Vector_iterator@V?$vector@_KV?$allocator@_K@std@@@std@@V?$allocator@V?$vector@_KV?$allocator@_K@std@@@std@@@2@@std@@QAE@PAV?$vector@_KV?$allocator@_K@std@@@1@PBU_Container_base@1@@Z 1004a420 f i ImfTiledInputFile.obj
 0001:00049460       ??$_Checked_base@V?$_Vector_const_iterator@V?$vector@_KV?$allocator@_K@std@@@std@@V?$allocator@V?$vector@_KV?$allocator@_K@std@@@std@@@2@@std@@@std@@YAPBV?$vector@_KV?$allocator@_K@std@@@0@AAV?$_Vector_const_iterator@V?$vector@_KV?$allocator@_K@std@@@std@@V?$allocator@V?$vector@_KV?$allocator@_K@std@@@std@@@2@@0@@Z 1004a460 f i ImfTiledInputFile.obj
 0001:00049470       ??$_Ucopy@PA_K@?$vector@_KV?$allocator@_K@std@@@std@@IAEPA_KPA_K00@Z 1004a470 f i ImfTiledInputFile.obj
 0001:000494b0       ??$_Checked_base@V?$_Vector_const_iterator@_KV?$allocator@_K@std@@@std@@@std@@YAPB_KAAV?$_Vector_const_iterator@_KV?$allocator@_K@std@@@0@@Z 1004a4b0 f i ImfTiledInputFile.obj
 0001:000494c0       ??0?$vector@UTInSliceInfo@?A0xf349abed@Imf@@V?$allocator@UTInSliceInfo@?A0xf349abed@Imf@@@std@@@std@@QAE@XZ 1004a4c0 f i ImfTiledInputFile.obj
 0001:000494d0       ??0?$vector@PAUTileBuffer@?A0xf349abed@Imf@@V?$allocator@PAUTileBuffer@?A0xf349abed@Imf@@@std@@@std@@QAE@XZ 1004a4d0 f i ImfTiledInputFile.obj
 0001:000494e0       ?end@?$vector@UTInSliceInfo@?A0xf349abed@Imf@@V?$allocator@UTInSliceInfo@?A0xf349abed@Imf@@@std@@@std@@QAE?AV?$_Vector_iterator@UTInSliceInfo@?A0xf349abed@Imf@@V?$allocator@UTInSliceInfo@?A0xf349abed@Imf@@@std@@@2@XZ 1004a4e0 f i ImfTiledInputFile.obj
 0001:00049510       ?_Tidy@?$vector@PAUTileBuffer@?A0xf349abed@Imf@@V?$allocator@PAUTileBuffer@?A0xf349abed@Imf@@@std@@@std@@IAEXXZ 1004a510 f i ImfTiledInputFile.obj
 0001:00049540       ?begin@?$vector@V?$vector@V?$vector@_KV?$allocator@_K@std@@@std@@V?$allocator@V?$vector@_KV?$allocator@_K@std@@@std@@@2@@std@@V?$allocator@V?$vector@V?$vector@_KV?$allocator@_K@std@@@std@@V?$allocator@V?$vector@_KV?$allocator@_K@std@@@std@@@2@@std@@@2@@std@@QAE?AV?$_Vector_iterator@V?$vector@V?$vector@_KV?$allocator@_K@std@@@std@@V?$allocator@V?$vector@_KV?$allocator@_K@std@@@std@@@2@@std@@V?$allocator@V?$vector@V?$vector@_KV?$allocator@_K@std@@@std@@V?$allocator@V?$vector@_KV?$allocator@_K@std@@@std@@@2@@std@@@2@@2@XZ 1004a540 f i ImfTiledInputFile.obj
 0001:00049570       ?end@?$vector@V?$vector@V?$vector@_KV?$allocator@_K@std@@@std@@V?$allocator@V?$vector@_KV?$allocator@_K@std@@@std@@@2@@std@@V?$allocator@V?$vector@V?$vector@_KV?$allocator@_K@std@@@std@@V?$allocator@V?$vector@_KV?$allocator@_K@std@@@std@@@2@@std@@@2@@std@@QAE?AV?$_Vector_iterator@V?$vector@V?$vector@_KV?$allocator@_K@std@@@std@@V?$allocator@V?$vector@_KV?$allocator@_K@std@@@std@@@2@@std@@V?$allocator@V?$vector@V?$vector@_KV?$allocator@_K@std@@@std@@V?$allocator@V?$vector@_KV?$allocator@_K@std@@@std@@@2@@std@@@2@@2@XZ 1004a570 f i ImfTiledInputFile.obj
 0001:000495a0       ?begin@?$vector@UTInSliceInfo@?A0xf349abed@Imf@@V?$allocator@UTInSliceInfo@?A0xf349abed@Imf@@@std@@@std@@QAE?AV?$_Vector_iterator@UTInSliceInfo@?A0xf349abed@Imf@@V?$allocator@UTInSliceInfo@?A0xf349abed@Imf@@@std@@@2@XZ 1004a5a0 f i ImfTiledInputFile.obj
 0001:000495d0       ?begin@?$vector@PAUTileBuffer@?A0xf349abed@Imf@@V?$allocator@PAUTileBuffer@?A0xf349abed@Imf@@@std@@@std@@QAE?AV?$_Vector_iterator@PAUTileBuffer@?A0xf349abed@Imf@@V?$allocator@PAUTileBuffer@?A0xf349abed@Imf@@@std@@@2@XZ 1004a5d0 f i ImfTiledInputFile.obj
 0001:00049600       ?end@?$vector@PAUTileBuffer@?A0xf349abed@Imf@@V?$allocator@PAUTileBuffer@?A0xf349abed@Imf@@@std@@@std@@QAE?AV?$_Vector_iterator@PAUTileBuffer@?A0xf349abed@Imf@@V?$allocator@PAUTileBuffer@?A0xf349abed@Imf@@@std@@@2@XZ 1004a600 f i ImfTiledInputFile.obj
 0001:00049630       ?erase@?$vector@PAUTileBuffer@?A0xf349abed@Imf@@V?$allocator@PAUTileBuffer@?A0xf349abed@Imf@@@std@@@std@@QAE?AV?$_Vector_iterator@PAUTileBuffer@?A0xf349abed@Imf@@V?$allocator@PAUTileBuffer@?A0xf349abed@Imf@@@std@@@2@V32@0@Z 1004a630 f i ImfTiledInputFile.obj
 0001:00049690       ??$_Ucopy@PAUTInSliceInfo@?A0xf349abed@Imf@@@?$vector@UTInSliceInfo@?A0xf349abed@Imf@@V?$allocator@UTInSliceInfo@?A0xf349abed@Imf@@@std@@@std@@IAEPAUTInSliceInfo@?A0xf349abed@Imf@@PAU234@00@Z 1004a690 f i ImfTiledInputFile.obj
 0001:000496c0       ??$_Destroy_range@UTInSliceInfo@?A0xf349abed@Imf@@V?$allocator@UTInSliceInfo@?A0xf349abed@Imf@@@std@@@std@@YAXPAUTInSliceInfo@?A0xf349abed@Imf@@0AAV?$allocator@UTInSliceInfo@?A0xf349abed@Imf@@@0@@Z 1004a6c0 f i ImfTiledInputFile.obj
 0001:000496d0       ??$unchecked_uninitialized_fill_n@PAUTInSliceInfo@?A0xf349abed@Imf@@IU123@V?$allocator@UTInSliceInfo@?A0xf349abed@Imf@@@std@@@stdext@@YAXPAUTInSliceInfo@?A0xf349abed@Imf@@IABU123@AAV?$allocator@UTInSliceInfo@?A0xf349abed@Imf@@@std@@@Z 1004a6d0 f i ImfTiledInputFile.obj
 0001:00049700       ??$_Unchecked_move_backward@PAUTInSliceInfo@?A0xf349abed@Imf@@PAU123@@stdext@@YAPAUTInSliceInfo@?A0xf349abed@Imf@@PAU123@00@Z 1004a700 f i ImfTiledInputFile.obj
 0001:00049730       ??$_Unchecked_uninitialized_move@PAUTInSliceInfo@?A0xf349abed@Imf@@PAU123@V?$allocator@UTInSliceInfo@?A0xf349abed@Imf@@@std@@@stdext@@YAPAUTInSliceInfo@?A0xf349abed@Imf@@PAU123@00AAV?$allocator@UTInSliceInfo@?A0xf349abed@Imf@@@std@@@Z 1004a730 f i ImfTiledInputFile.obj
 0001:00049760       ??$_Unchecked_uninitialized_move@PAPAUTileBuffer@?A0xf349abed@Imf@@PAPAU123@V?$allocator@PAUTileBuffer@?A0xf349abed@Imf@@@std@@@stdext@@YAPAPAUTileBuffer@?A0xf349abed@Imf@@PAPAU123@00AAV?$allocator@PAUTileBuffer@?A0xf349abed@Imf@@@std@@@Z 1004a760 f i ImfTiledInputFile.obj
 0001:00049790       ??$_Uninit_fill_n@PAPAUTileBuffer@?A0xf349abed@Imf@@IPAU123@V?$allocator@PAUTileBuffer@?A0xf349abed@Imf@@@std@@@std@@YAXPAPAUTileBuffer@?A0xf349abed@Imf@@IABQAU123@AAV?$allocator@PAUTileBuffer@?A0xf349abed@Imf@@@0@U_Scalar_ptr_iterator_tag@0@U_Range_checked_iterator_tag@0@@Z 1004a790 f i ImfTiledInputFile.obj
 0001:000497c0       ?begin@?$vector@V?$vector@_KV?$allocator@_K@std@@@std@@V?$allocator@V?$vector@_KV?$allocator@_K@std@@@std@@@2@@std@@QAE?AV?$_Vector_iterator@V?$vector@_KV?$allocator@_K@std@@@std@@V?$allocator@V?$vector@_KV?$allocator@_K@std@@@std@@@2@@2@XZ 1004a7c0 f i ImfTiledInputFile.obj
 0001:000497f0       ?end@?$vector@V?$vector@_KV?$allocator@_K@std@@@std@@V?$allocator@V?$vector@_KV?$allocator@_K@std@@@std@@@2@@std@@QAE?AV?$_Vector_iterator@V?$vector@_KV?$allocator@_K@std@@@std@@V?$allocator@V?$vector@_KV?$allocator@_K@std@@@std@@@2@@2@XZ 1004a7f0 f i ImfTiledInputFile.obj
 0001:00049820       ??$unchecked_uninitialized_copy@V?$_Vector_const_iterator@_KV?$allocator@_K@std@@@std@@PA_KV?$allocator@_K@2@@stdext@@YAPA_KV?$_Vector_const_iterator@_KV?$allocator@_K@std@@@std@@0PA_KAAV?$allocator@_K@2@@Z 1004a820 f i ImfTiledInputFile.obj
 0001:00049850       ??1?$vector@PAUTileBuffer@?A0xf349abed@Imf@@V?$allocator@PAUTileBuffer@?A0xf349abed@Imf@@@std@@@std@@QAE@XZ 1004a850 f i ImfTiledInputFile.obj
 0001:00049880       ?_Destroy@?$vector@UTInSliceInfo@?A0xf349abed@Imf@@V?$allocator@UTInSliceInfo@?A0xf349abed@Imf@@@std@@@std@@IAEXPAUTInSliceInfo@?A0xf349abed@Imf@@0@Z 1004a880 f i ImfTiledInputFile.obj
 0001:00049890       ?_Tidy@?$vector@UTInSliceInfo@?A0xf349abed@Imf@@V?$allocator@UTInSliceInfo@?A0xf349abed@Imf@@@std@@@std@@IAEXXZ 1004a890 f i ImfTiledInputFile.obj
 0001:000498c0       ?_Ufill@?$vector@UTInSliceInfo@?A0xf349abed@Imf@@V?$allocator@UTInSliceInfo@?A0xf349abed@Imf@@@std@@@std@@IAEPAUTInSliceInfo@?A0xf349abed@Imf@@PAU345@IABU345@@Z 1004a8c0 f i ImfTiledInputFile.obj
 0001:00049900       ?erase@?$vector@UTInSliceInfo@?A0xf349abed@Imf@@V?$allocator@UTInSliceInfo@?A0xf349abed@Imf@@@std@@@std@@QAE?AV?$_Vector_iterator@UTInSliceInfo@?A0xf349abed@Imf@@V?$allocator@UTInSliceInfo@?A0xf349abed@Imf@@@std@@@2@V32@0@Z 1004a900 f i ImfTiledInputFile.obj
 0001:00049960       ??$_Umove@PAUTInSliceInfo@?A0xf349abed@Imf@@@?$vector@UTInSliceInfo@?A0xf349abed@Imf@@V?$allocator@UTInSliceInfo@?A0xf349abed@Imf@@@std@@@std@@IAEPAUTInSliceInfo@?A0xf349abed@Imf@@PAU234@00@Z 1004a960 f i ImfTiledInputFile.obj
 0001:00049990       ??$_Umove@PAPAUTileBuffer@?A0xf349abed@Imf@@@?$vector@PAUTileBuffer@?A0xf349abed@Imf@@V?$allocator@PAUTileBuffer@?A0xf349abed@Imf@@@std@@@std@@IAEPAPAUTileBuffer@?A0xf349abed@Imf@@PAPAU234@00@Z 1004a990 f i ImfTiledInputFile.obj
 0001:000499d0       ??$unchecked_uninitialized_fill_n@PAPAUTileBuffer@?A0xf349abed@Imf@@IPAU123@V?$allocator@PAUTileBuffer@?A0xf349abed@Imf@@@std@@@stdext@@YAXPAPAUTileBuffer@?A0xf349abed@Imf@@IABQAU123@AAV?$allocator@PAUTileBuffer@?A0xf349abed@Imf@@@std@@@Z 1004a9d0 f i ImfTiledInputFile.obj
 0001:00049a00       ??_G?$vector@_KV?$allocator@_K@std@@@std@@QAEPAXI@Z 1004aa00 f i ImfTiledInputFile.obj
 0001:00049a40       ?clear@?$vector@_KV?$allocator@_K@std@@@std@@QAEXXZ 1004aa40 f i ImfTiledInputFile.obj
 0001:00049a80       ??$_Ucopy@V?$_Vector_const_iterator@_KV?$allocator@_K@std@@@std@@@?$vector@_KV?$allocator@_K@std@@@std@@IAEPA_KV?$_Vector_const_iterator@_KV?$allocator@_K@std@@@1@0PA_K@Z 1004aa80 f i ImfTiledInputFile.obj
 0001:00049ac0       ??1?$vector@UTInSliceInfo@?A0xf349abed@Imf@@V?$allocator@UTInSliceInfo@?A0xf349abed@Imf@@@std@@@std@@QAE@XZ 1004aac0 f i ImfTiledInputFile.obj
 0001:00049af0       ?clear@?$vector@UTInSliceInfo@?A0xf349abed@Imf@@V?$allocator@UTInSliceInfo@?A0xf349abed@Imf@@@std@@@std@@QAEXXZ 1004aaf0 f i ImfTiledInputFile.obj
 0001:00049b30       ?_Insert_n@?$vector@UTInSliceInfo@?A0xf349abed@Imf@@V?$allocator@UTInSliceInfo@?A0xf349abed@Imf@@@std@@@std@@IAEXV?$_Vector_iterator@UTInSliceInfo@?A0xf349abed@Imf@@V?$allocator@UTInSliceInfo@?A0xf349abed@Imf@@@std@@@2@IABUTInSliceInfo@?A0xf349abed@Imf@@@Z 1004ab30 f i ImfTiledInputFile.obj
 0001:00049de0       ?_Ufill@?$vector@PAUTileBuffer@?A0xf349abed@Imf@@V?$allocator@PAUTileBuffer@?A0xf349abed@Imf@@@std@@@std@@IAEPAPAUTileBuffer@?A0xf349abed@Imf@@PAPAU345@IABQAU345@@Z 1004ade0 f i ImfTiledInputFile.obj
 0001:00049e10       ??$_Destroy@V?$vector@_KV?$allocator@_K@std@@@std@@@std@@YAXPAV?$vector@_KV?$allocator@_K@std@@@0@@Z 1004ae10 f i ImfTiledInputFile.obj
 0001:00049e40       ??4?$vector@_KV?$allocator@_K@std@@@std@@QAEAAV01@ABV01@@Z 1004ae40 f i ImfTiledInputFile.obj
 0001:00049f70       ??0?$vector@_KV?$allocator@_K@std@@@std@@QAE@ABV01@@Z 1004af70 f i ImfTiledInputFile.obj
 0001:0004a010       ??4?$vector@UTInSliceInfo@?A0xf349abed@Imf@@V?$allocator@UTInSliceInfo@?A0xf349abed@Imf@@@std@@@std@@QAEAAV01@ABV01@@Z 1004b010 f i ImfTiledInputFile.obj
 0001:0004a170       ?insert@?$vector@UTInSliceInfo@?A0xf349abed@Imf@@V?$allocator@UTInSliceInfo@?A0xf349abed@Imf@@@std@@@std@@QAE?AV?$_Vector_iterator@UTInSliceInfo@?A0xf349abed@Imf@@V?$allocator@UTInSliceInfo@?A0xf349abed@Imf@@@std@@@2@V32@ABUTInSliceInfo@?A0xf349abed@Imf@@@Z 1004b170 f i ImfTiledInputFile.obj
 0001:0004a220       ?_Insert_n@?$vector@PAUTileBuffer@?A0xf349abed@Imf@@V?$allocator@PAUTileBuffer@?A0xf349abed@Imf@@@std@@@std@@IAEXV?$_Vector_iterator@PAUTileBuffer@?A0xf349abed@Imf@@V?$allocator@PAUTileBuffer@?A0xf349abed@Imf@@@std@@@2@IABQAUTileBuffer@?A0xf349abed@Imf@@@Z 1004b220 f i ImfTiledInputFile.obj
 0001:0004a3e0       ?destroy@?$allocator@V?$vector@_KV?$allocator@_K@std@@@std@@@std@@QAEXPAV?$vector@_KV?$allocator@_K@std@@@2@@Z 1004b3e0 f i ImfTiledInputFile.obj
 0001:0004a410       ??$_Copy_opt@PAV?$vector@_KV?$allocator@_K@std@@@std@@PAV12@Uforward_iterator_tag@2@@std@@YAPAV?$vector@_KV?$allocator@_K@std@@@0@PAV10@00Uforward_iterator_tag@0@U_Nonscalar_ptr_iterator_tag@0@U_Range_checked_iterator_tag@0@@Z 1004b410 f i ImfTiledInputFile.obj
 0001:0004a450       ??$_Construct@V?$vector@_KV?$allocator@_K@std@@@std@@V12@@std@@YAXPAV?$vector@_KV?$allocator@_K@std@@@0@ABV10@@Z 1004b450 f i ImfTiledInputFile.obj
 0001:0004a4a0       ?push_back@?$vector@UTInSliceInfo@?A0xf349abed@Imf@@V?$allocator@UTInSliceInfo@?A0xf349abed@Imf@@@std@@@std@@QAEXABUTInSliceInfo@?A0xf349abed@Imf@@@Z 1004b4a0 f i ImfTiledInputFile.obj
 0001:0004a550       ?resize@?$vector@PAUTileBuffer@?A0xf349abed@Imf@@V?$allocator@PAUTileBuffer@?A0xf349abed@Imf@@@std@@@std@@QAEXIPAUTileBuffer@?A0xf349abed@Imf@@@Z 1004b550 f i ImfTiledInputFile.obj
 0001:0004a610       ??$_Copy_opt@PAV?$vector@_KV?$allocator@_K@std@@@std@@PAV12@@std@@YAPAV?$vector@_KV?$allocator@_K@std@@@0@PAV10@00Urandom_access_iterator_tag@0@U_Nonscalar_ptr_iterator_tag@0@U_Range_checked_iterator_tag@0@@Z 1004b610 f i ImfTiledInputFile.obj
 0001:0004a650       ??$_Destroy_range@V?$vector@_KV?$allocator@_K@std@@@std@@V?$allocator@V?$vector@_KV?$allocator@_K@std@@@std@@@2@@std@@YAXPAV?$vector@_KV?$allocator@_K@std@@@0@0AAV?$allocator@V?$vector@_KV?$allocator@_K@std@@@std@@@0@U_Nonscalar_ptr_iterator_tag@0@@Z 1004b650 f i ImfTiledInputFile.obj
 0001:0004a690       ?construct@?$allocator@V?$vector@_KV?$allocator@_K@std@@@std@@@std@@QAEXPAV?$vector@_KV?$allocator@_K@std@@@2@ABV32@@Z 1004b690 f i ImfTiledInputFile.obj
 0001:0004a6e0       ??$_Uninit_copy@PBV?$vector@_KV?$allocator@_K@std@@@std@@PAV12@V?$allocator@V?$vector@_KV?$allocator@_K@std@@@std@@@2@@std@@YAPAV?$vector@_KV?$allocator@_K@std@@@0@PBV10@0PAV10@AAV?$allocator@V?$vector@_KV?$allocator@_K@std@@@std@@@0@U_Nonscalar_ptr_iterator_tag@0@U_Range_checked_iterator_tag@0@@Z 1004b6e0 f i ImfTiledInputFile.obj
 0001:0004a780       ?resize@?$vector@PAUTileBuffer@?A0xf349abed@Imf@@V?$allocator@PAUTileBuffer@?A0xf349abed@Imf@@@std@@@std@@QAEXI@Z 1004b780 f i ImfTiledInputFile.obj
 0001:0004a790       ??$unchecked_copy@PAV?$vector@_KV?$allocator@_K@std@@@std@@PAV12@@stdext@@YAPAV?$vector@_KV?$allocator@_K@std@@@std@@PAV12@00@Z 1004b790 f i ImfTiledInputFile.obj
 0001:0004a7d0       ??$_Destroy_range@V?$vector@_KV?$allocator@_K@std@@@std@@V?$allocator@V?$vector@_KV?$allocator@_K@std@@@std@@@2@@std@@YAXPAV?$vector@_KV?$allocator@_K@std@@@0@0AAV?$allocator@V?$vector@_KV?$allocator@_K@std@@@std@@@0@@Z 1004b7d0 f i ImfTiledInputFile.obj
 0001:0004a7f0       ??$_Uninit_copy@PAV?$vector@_KV?$allocator@_K@std@@@std@@PAV12@V?$allocator@V?$vector@_KV?$allocator@_K@std@@@std@@@2@@std@@YAPAV?$vector@_KV?$allocator@_K@std@@@0@PAV10@00AAV?$allocator@V?$vector@_KV?$allocator@_K@std@@@std@@@0@U_Nonscalar_ptr_iterator_tag@0@U_Range_checked_iterator_tag@0@@Z 1004b7f0 f i ImfTiledInputFile.obj
 0001:0004a890       ??$unchecked_uninitialized_copy@V?$_Vector_const_iterator@V?$vector@_KV?$allocator@_K@std@@@std@@V?$allocator@V?$vector@_KV?$allocator@_K@std@@@std@@@2@@std@@PAV?$vector@_KV?$allocator@_K@std@@@2@V?$allocator@V?$vector@_KV?$allocator@_K@std@@@std@@@2@@stdext@@YAPAV?$vector@_KV?$allocator@_K@std@@@std@@V?$_Vector_const_iterator@V?$vector@_KV?$allocator@_K@std@@@std@@V?$allocator@V?$vector@_KV?$allocator@_K@std@@@std@@@2@@2@0PAV12@AAV?$allocator@V?$vector@_KV?$allocator@_K@std@@@std@@@2@@Z 1004b890 f i ImfTiledInputFile.obj
 0001:0004a8c0       ?_Destroy@?$vector@V?$vector@_KV?$allocator@_K@std@@@std@@V?$allocator@V?$vector@_KV?$allocator@_K@std@@@std@@@2@@std@@IAEXPAV?$vector@_KV?$allocator@_K@std@@@2@0@Z 1004b8c0 f i ImfTiledInputFile.obj
 0001:0004a8e0       ?_Tidy@?$vector@V?$vector@_KV?$allocator@_K@std@@@std@@V?$allocator@V?$vector@_KV?$allocator@_K@std@@@std@@@2@@std@@IAEXXZ 1004b8e0 f i ImfTiledInputFile.obj
 0001:0004a920       ?erase@?$vector@V?$vector@_KV?$allocator@_K@std@@@std@@V?$allocator@V?$vector@_KV?$allocator@_K@std@@@std@@@2@@std@@QAE?AV?$_Vector_iterator@V?$vector@_KV?$allocator@_K@std@@@std@@V?$allocator@V?$vector@_KV?$allocator@_K@std@@@std@@@2@@2@V32@0@Z 1004b920 f i ImfTiledInputFile.obj
 0001:0004a980       ??$unchecked_uninitialized_copy@PAV?$vector@_KV?$allocator@_K@std@@@std@@PAV12@V?$allocator@V?$vector@_KV?$allocator@_K@std@@@std@@@2@@stdext@@YAPAV?$vector@_KV?$allocator@_K@std@@@std@@PAV12@00AAV?$allocator@V?$vector@_KV?$allocator@_K@std@@@std@@@2@@Z 1004b980 f i ImfTiledInputFile.obj
 0001:0004a9b0       ??$_Ucopy@V?$_Vector_const_iterator@V?$vector@_KV?$allocator@_K@std@@@std@@V?$allocator@V?$vector@_KV?$allocator@_K@std@@@std@@@2@@std@@@?$vector@V?$vector@_KV?$allocator@_K@std@@@std@@V?$allocator@V?$vector@_KV?$allocator@_K@std@@@std@@@2@@std@@IAEPAV?$vector@_KV?$allocator@_K@std@@@1@V?$_Vector_const_iterator@V?$vector@_KV?$allocator@_K@std@@@std@@V?$allocator@V?$vector@_KV?$allocator@_K@std@@@std@@@2@@1@0PAV21@@Z 1004b9b0 f i ImfTiledInputFile.obj
 0001:0004a9e0       ??1?$vector@V?$vector@_KV?$allocator@_K@std@@@std@@V?$allocator@V?$vector@_KV?$allocator@_K@std@@@std@@@2@@std@@QAE@XZ 1004b9e0 f i ImfTiledInputFile.obj
 0001:0004aa20       ?clear@?$vector@V?$vector@_KV?$allocator@_K@std@@@std@@V?$allocator@V?$vector@_KV?$allocator@_K@std@@@std@@@2@@std@@QAEXXZ 1004ba20 f i ImfTiledInputFile.obj
 0001:0004aa60       ??$_Ucopy@PAV?$vector@_KV?$allocator@_K@std@@@std@@@?$vector@V?$vector@_KV?$allocator@_K@std@@@std@@V?$allocator@V?$vector@_KV?$allocator@_K@std@@@std@@@2@@std@@IAEPAV?$vector@_KV?$allocator@_K@std@@@1@PAV21@00@Z 1004ba60 f i ImfTiledInputFile.obj
 0001:0004aa90       ??0?$vector@V?$vector@_KV?$allocator@_K@std@@@std@@V?$allocator@V?$vector@_KV?$allocator@_K@std@@@std@@@2@@std@@QAE@ABV01@@Z 1004ba90 f i ImfTiledInputFile.obj
 0001:0004ab70       ??_G?$vector@V?$vector@_KV?$allocator@_K@std@@@std@@V?$allocator@V?$vector@_KV?$allocator@_K@std@@@std@@@2@@std@@QAEPAXI@Z 1004bb70 f i ImfTiledInputFile.obj
 0001:0004abd0       ??4?$vector@V?$vector@_KV?$allocator@_K@std@@@std@@V?$allocator@V?$vector@_KV?$allocator@_K@std@@@std@@@2@@std@@QAEAAV01@ABV01@@Z 1004bbd0 f i ImfTiledInputFile.obj
 0001:0004ad20       ??$_Construct@V?$vector@V?$vector@_KV?$allocator@_K@std@@@std@@V?$allocator@V?$vector@_KV?$allocator@_K@std@@@std@@@2@@std@@V12@@std@@YAXPAV?$vector@V?$vector@_KV?$allocator@_K@std@@@std@@V?$allocator@V?$vector@_KV?$allocator@_K@std@@@std@@@2@@0@ABV10@@Z 1004bd20 f i ImfTiledInputFile.obj
 0001:0004ad70       ??$_Copy_opt@PAV?$vector@V?$vector@_KV?$allocator@_K@std@@@std@@V?$allocator@V?$vector@_KV?$allocator@_K@std@@@std@@@2@@std@@PAV12@Uforward_iterator_tag@2@@std@@YAPAV?$vector@V?$vector@_KV?$allocator@_K@std@@@std@@V?$allocator@V?$vector@_KV?$allocator@_K@std@@@std@@@2@@0@PAV10@00Uforward_iterator_tag@0@U_Nonscalar_ptr_iterator_tag@0@U_Range_checked_iterator_tag@0@@Z 1004bd70 f i ImfTiledInputFile.obj
 0001:0004adb0       ??$_Destroy@V?$vector@V?$vector@_KV?$allocator@_K@std@@@std@@V?$allocator@V?$vector@_KV?$allocator@_K@std@@@std@@@2@@std@@@std@@YAXPAV?$vector@V?$vector@_KV?$allocator@_K@std@@@std@@V?$allocator@V?$vector@_KV?$allocator@_K@std@@@std@@@2@@0@@Z 1004bdb0 f i ImfTiledInputFile.obj
 0001:0004adf0       ?construct@?$allocator@V?$vector@V?$vector@_KV?$allocator@_K@std@@@std@@V?$allocator@V?$vector@_KV?$allocator@_K@std@@@std@@@2@@std@@@std@@QAEXPAV?$vector@V?$vector@_KV?$allocator@_K@std@@@std@@V?$allocator@V?$vector@_KV?$allocator@_K@std@@@std@@@2@@2@ABV32@@Z 1004bdf0 f i ImfTiledInputFile.obj
 0001:0004ae40       ??$_Copy_opt@PAV?$vector@V?$vector@_KV?$allocator@_K@std@@@std@@V?$allocator@V?$vector@_KV?$allocator@_K@std@@@std@@@2@@std@@PAV12@@std@@YAPAV?$vector@V?$vector@_KV?$allocator@_K@std@@@std@@V?$allocator@V?$vector@_KV?$allocator@_K@std@@@std@@@2@@0@PAV10@00Urandom_access_iterator_tag@0@U_Nonscalar_ptr_iterator_tag@0@U_Range_checked_iterator_tag@0@@Z 1004be40 f i ImfTiledInputFile.obj
 0001:0004ae80       ?destroy@?$allocator@V?$vector@V?$vector@_KV?$allocator@_K@std@@@std@@V?$allocator@V?$vector@_KV?$allocator@_K@std@@@std@@@2@@std@@@std@@QAEXPAV?$vector@V?$vector@_KV?$allocator@_K@std@@@std@@V?$allocator@V?$vector@_KV?$allocator@_K@std@@@std@@@2@@2@@Z 1004be80 f i ImfTiledInputFile.obj
 0001:0004aed0       ??$_Uninit_copy@PAV?$vector@V?$vector@_KV?$allocator@_K@std@@@std@@V?$allocator@V?$vector@_KV?$allocator@_K@std@@@std@@@2@@std@@PAV12@V?$allocator@V?$vector@V?$vector@_KV?$allocator@_K@std@@@std@@V?$allocator@V?$vector@_KV?$allocator@_K@std@@@std@@@2@@std@@@2@@std@@YAPAV?$vector@V?$vector@_KV?$allocator@_K@std@@@std@@V?$allocator@V?$vector@_KV?$allocator@_K@std@@@std@@@2@@0@PAV10@00AAV?$allocator@V?$vector@V?$vector@_KV?$allocator@_K@std@@@std@@V?$allocator@V?$vector@_KV?$allocator@_K@std@@@std@@@2@@std@@@0@U_Nonscalar_ptr_iterator_tag@0@U_Range_checked_iterator_tag@0@@Z 1004bed0 f i ImfTiledInputFile.obj
 0001:0004af70       ??$unchecked_copy@PAV?$vector@V?$vector@_KV?$allocator@_K@std@@@std@@V?$allocator@V?$vector@_KV?$allocator@_K@std@@@std@@@2@@std@@PAV12@@stdext@@YAPAV?$vector@V?$vector@_KV?$allocator@_K@std@@@std@@V?$allocator@V?$vector@_KV?$allocator@_K@std@@@std@@@2@@std@@PAV12@00@Z 1004bf70 f i ImfTiledInputFile.obj
 0001:0004afb0       ??$unchecked_uninitialized_copy@PAV?$vector@V?$vector@_KV?$allocator@_K@std@@@std@@V?$allocator@V?$vector@_KV?$allocator@_K@std@@@std@@@2@@std@@PAV12@V?$allocator@V?$vector@V?$vector@_KV?$allocator@_K@std@@@std@@V?$allocator@V?$vector@_KV?$allocator@_K@std@@@std@@@2@@std@@@2@@stdext@@YAPAV?$vector@V?$vector@_KV?$allocator@_K@std@@@std@@V?$allocator@V?$vector@_KV?$allocator@_K@std@@@std@@@2@@std@@PAV12@00AAV?$allocator@V?$vector@V?$vector@_KV?$allocator@_K@std@@@std@@V?$allocator@V?$vector@_KV?$allocator@_K@std@@@std@@@2@@std@@@2@@Z 1004bfb0 f i ImfTiledInputFile.obj
 0001:0004afe0       ??$_Destroy_range@V?$vector@V?$vector@_KV?$allocator@_K@std@@@std@@V?$allocator@V?$vector@_KV?$allocator@_K@std@@@std@@@2@@std@@V?$allocator@V?$vector@V?$vector@_KV?$allocator@_K@std@@@std@@V?$allocator@V?$vector@_KV?$allocator@_K@std@@@std@@@2@@std@@@2@@std@@YAXPAV?$vector@V?$vector@_KV?$allocator@_K@std@@@std@@V?$allocator@V?$vector@_KV?$allocator@_K@std@@@std@@@2@@0@0AAV?$allocator@V?$vector@V?$vector@_KV?$allocator@_K@std@@@std@@V?$allocator@V?$vector@_KV?$allocator@_K@std@@@std@@@2@@std@@@0@U_Nonscalar_ptr_iterator_tag@0@@Z 1004bfe0 f i ImfTiledInputFile.obj
 0001:0004b050       ??$_Ucopy@PAV?$vector@V?$vector@_KV?$allocator@_K@std@@@std@@V?$allocator@V?$vector@_KV?$allocator@_K@std@@@std@@@2@@std@@@?$vector@V?$vector@V?$vector@_KV?$allocator@_K@std@@@std@@V?$allocator@V?$vector@_KV?$allocator@_K@std@@@std@@@2@@std@@V?$allocator@V?$vector@V?$vector@_KV?$allocator@_K@std@@@std@@V?$allocator@V?$vector@_KV?$allocator@_K@std@@@std@@@2@@std@@@2@@std@@IAEPAV?$vector@V?$vector@_KV?$allocator@_K@std@@@std@@V?$allocator@V?$vector@_KV?$allocator@_K@std@@@std@@@2@@1@PAV21@00@Z 1004c050 f i ImfTiledInputFile.obj
 0001:0004b080       ??$_Destroy_range@V?$vector@V?$vector@_KV?$allocator@_K@std@@@std@@V?$allocator@V?$vector@_KV?$allocator@_K@std@@@std@@@2@@std@@V?$allocator@V?$vector@V?$vector@_KV?$allocator@_K@std@@@std@@V?$allocator@V?$vector@_KV?$allocator@_K@std@@@std@@@2@@std@@@2@@std@@YAXPAV?$vector@V?$vector@_KV?$allocator@_K@std@@@std@@V?$allocator@V?$vector@_KV?$allocator@_K@std@@@std@@@2@@0@0AAV?$allocator@V?$vector@V?$vector@_KV?$allocator@_K@std@@@std@@V?$allocator@V?$vector@_KV?$allocator@_K@std@@@std@@@2@@std@@@0@@Z 1004c080 f i ImfTiledInputFile.obj
 0001:0004b0a0       ?_Destroy@?$vector@V?$vector@V?$vector@_KV?$allocator@_K@std@@@std@@V?$allocator@V?$vector@_KV?$allocator@_K@std@@@std@@@2@@std@@V?$allocator@V?$vector@V?$vector@_KV?$allocator@_K@std@@@std@@V?$allocator@V?$vector@_KV?$allocator@_K@std@@@std@@@2@@std@@@2@@std@@IAEXPAV?$vector@V?$vector@_KV?$allocator@_K@std@@@std@@V?$allocator@V?$vector@_KV?$allocator@_K@std@@@std@@@2@@2@0@Z 1004c0a0 f i ImfTiledInputFile.obj
 0001:0004b0c0       ?_Tidy@?$vector@V?$vector@V?$vector@_KV?$allocator@_K@std@@@std@@V?$allocator@V?$vector@_KV?$allocator@_K@std@@@std@@@2@@std@@V?$allocator@V?$vector@V?$vector@_KV?$allocator@_K@std@@@std@@V?$allocator@V?$vector@_KV?$allocator@_K@std@@@std@@@2@@std@@@2@@std@@IAEXXZ 1004c0c0 f i ImfTiledInputFile.obj
 0001:0004b100       ?erase@?$vector@V?$vector@V?$vector@_KV?$allocator@_K@std@@@std@@V?$allocator@V?$vector@_KV?$allocator@_K@std@@@std@@@2@@std@@V?$allocator@V?$vector@V?$vector@_KV?$allocator@_K@std@@@std@@V?$allocator@V?$vector@_KV?$allocator@_K@std@@@std@@@2@@std@@@2@@std@@QAE?AV?$_Vector_iterator@V?$vector@V?$vector@_KV?$allocator@_K@std@@@std@@V?$allocator@V?$vector@_KV?$allocator@_K@std@@@std@@@2@@std@@V?$allocator@V?$vector@V?$vector@_KV?$allocator@_K@std@@@std@@V?$allocator@V?$vector@_KV?$allocator@_K@std@@@std@@@2@@std@@@2@@2@V32@0@Z 1004c100 f i ImfTiledInputFile.obj
 0001:0004b160       ??1?$vector@V?$vector@V?$vector@_KV?$allocator@_K@std@@@std@@V?$allocator@V?$vector@_KV?$allocator@_K@std@@@std@@@2@@std@@V?$allocator@V?$vector@V?$vector@_KV?$allocator@_K@std@@@std@@V?$allocator@V?$vector@_KV?$allocator@_K@std@@@std@@@2@@std@@@2@@std@@QAE@XZ 1004c160 f i ImfTiledInputFile.obj
 0001:0004b1a0       ?clear@?$vector@V?$vector@V?$vector@_KV?$allocator@_K@std@@@std@@V?$allocator@V?$vector@_KV?$allocator@_K@std@@@std@@@2@@std@@V?$allocator@V?$vector@V?$vector@_KV?$allocator@_K@std@@@std@@V?$allocator@V?$vector@_KV?$allocator@_K@std@@@std@@@2@@std@@@2@@std@@QAEXXZ 1004c1a0 f i ImfTiledInputFile.obj
 0001:0004b1e0       ??1TileOffsets@Imf@@QAE@XZ 1004c1e0 f i ImfTiledInputFile.obj
 0001:0004b220       ??4?$vector@V?$vector@V?$vector@_KV?$allocator@_K@std@@@std@@V?$allocator@V?$vector@_KV?$allocator@_K@std@@@std@@@2@@std@@V?$allocator@V?$vector@V?$vector@_KV?$allocator@_K@std@@@std@@V?$allocator@V?$vector@_KV?$allocator@_K@std@@@std@@@2@@std@@@2@@std@@QAEAAV01@ABV01@@Z 1004c220 f i ImfTiledInputFile.obj
 0001:0004b370       ??_GData@TiledInputFile@Imf@@UAEPAXI@Z 1004c370 f i ImfTiledInputFile.obj
 0001:0004b370       ??_EData@TiledInputFile@Imf@@UAEPAXI@Z 1004c370 f i ImfTiledInputFile.obj
 0001:0004b390       ??4TileOffsets@Imf@@QAEAAV01@ABV01@@Z 1004c390 f i ImfTiledInputFile.obj
 0001:0004b3c0       ?floorLog2@?A0x2fdeef6b@Imf@@YAHH@Z 1004c3c0 f   ImfTiledMisc.obj
 0001:0004b3e0       ?ceilLog2@?A0x2fdeef6b@Imf@@YAHH@Z 1004c3e0 f   ImfTiledMisc.obj
 0001:0004b410       ?roundLog2@?A0x2fdeef6b@Imf@@YAHHW4LevelRoundingMode@2@@Z 1004c410 f   ImfTiledMisc.obj
 0001:0004b460       ?levelSize@Imf@@YAHHHHW4LevelRoundingMode@1@@Z 1004c460 f   ImfTiledMisc.obj
 0001:0004b4e0       ?calculateNumXLevels@?A0x2fdeef6b@Imf@@YAHABVTileDescription@2@HHHH@Z 1004c4e0 f   ImfTiledMisc.obj
 0001:0004b590       ?calculateNumYLevels@?A0x2fdeef6b@Imf@@YAHABVTileDescription@2@HHHH@Z 1004c590 f   ImfTiledMisc.obj
 0001:0004b640       ?calculateNumTiles@?A0x2fdeef6b@Imf@@YAXPAHHHHHW4LevelRoundingMode@2@@Z 1004c640 f   ImfTiledMisc.obj
 0001:0004b690       ?precalculateTileInfo@Imf@@YAXABVTileDescription@1@HHHHAAPAH1AAH2@Z 1004c690 f   ImfTiledMisc.obj
 0001:0004b760       ?dataWindowForLevel@Imf@@YA?AV?$Box@V?$Vec2@H@Imath@@@Imath@@ABVTileDescription@1@HHHHHH@Z 1004c760 f   ImfTiledMisc.obj
 0001:0004b7c0       ?dataWindowForTile@Imf@@YA?AV?$Box@V?$Vec2@H@Imath@@@Imath@@ABVTileDescription@1@HHHHHHHH@Z 1004c7c0 f   ImfTiledMisc.obj
 0001:0004b880       ?calculateBytesPerPixel@Imf@@YAIABVHeader@1@@Z 1004c880 f   ImfTiledMisc.obj
 0001:0004b920       ??A?$Vec2@H@Imath@@QAEAAHH@Z 1004c920 f i ImfTiledMisc.obj
 0001:0004b930       ??0?$Vec2@H@Imath@@QAE@HH@Z 1004c930 f i ImfTiledMisc.obj
 0001:0004b950       ??H?$Vec2@H@Imath@@QBE?AV01@ABV01@@Z 1004c950 f i ImfTiledMisc.obj
 0001:0004b970       ??0?$Box@V?$Vec2@H@Imath@@@Imath@@QAE@ABV?$Vec2@H@1@0@Z 1004c970 f i ImfTiledMisc.obj
 0001:0004b9a0       ??8TileDescription@Imf@@QBE_NABV01@@Z 1004c9a0 f i ImfTiledOutputFile.obj
 0001:0004b9d0       ??0TOutSliceInfo@?A0xc559f438@Imf@@QAE@W4PixelType@2@PBDII_NHH@Z 1004c9d0 f   ImfTiledOutputFile.obj
 0001:0004ba10       ?nextTileCoord@Data@TiledOutputFile@Imf@@QAE?AUTileCoord@?A0xc559f438@3@ABU453@@Z 1004ca10 f   ImfTiledOutputFile.obj
 0001:0004bb20       ??1TileBufferTask@?A0xc559f438@Imf@@UAE@XZ 1004cb20 f   ImfTiledOutputFile.obj
 0001:0004bb80       ??1TiledOutputFile@Imf@@UAE@XZ 1004cb80 f   ImfTiledOutputFile.obj
 0001:0004bc30       ?fileName@TiledOutputFile@Imf@@QBEPBDXZ 1004cc30 f   ImfTiledOutputFile.obj
 0001:0004bc40       ?header@TiledOutputFile@Imf@@QBEABVHeader@2@XZ 1004cc40 f   ImfTiledOutputFile.obj
 0001:0004bc50       ?frameBuffer@TiledOutputFile@Imf@@QBEABVFrameBuffer@2@XZ 1004cc50 f   ImfTiledOutputFile.obj
 0001:0004bc70       ?tileXSize@TiledOutputFile@Imf@@QBEIXZ 1004cc70 f   ImfTiledOutputFile.obj
 0001:0004bc80       ?tileYSize@TiledOutputFile@Imf@@QBEIXZ 1004cc80 f   ImfTiledOutputFile.obj
 0001:0004bc90       ?levelMode@TiledOutputFile@Imf@@QBE?AW4LevelMode@2@XZ 1004cc90 f   ImfTiledOutputFile.obj
 0001:0004bca0       ?levelRoundingMode@TiledOutputFile@Imf@@QBE?AW4LevelRoundingMode@2@XZ 1004cca0 f   ImfTiledOutputFile.obj
 0001:0004bcb0       ?numXLevels@TiledOutputFile@Imf@@QBEHXZ 1004ccb0 f   ImfTiledOutputFile.obj
 0001:0004bcc0       ?numYLevels@TiledOutputFile@Imf@@QBEHXZ 1004ccc0 f   ImfTiledOutputFile.obj
 0001:0004bcd0       ?isValidLevel@TiledOutputFile@Imf@@QBE_NHH@Z 1004ccd0 f   ImfTiledOutputFile.obj
 0001:0004bd10       ?isValidTile@TiledOutputFile@Imf@@ABE_NHHHH@Z 1004cd10 f   ImfTiledOutputFile.obj
 0001:0004bd60       ??0TileBuffer@?A0xc559f438@Imf@@QAE@PAVCompressor@2@@Z 1004cd60 f   ImfTiledOutputFile.obj
 0001:0004bdd0       ??1TileBuffer@?A0xc559f438@Imf@@QAE@XZ 1004cdd0 f   ImfTiledOutputFile.obj
 0001:0004be40       ?convertToXdr@?A0xc559f438@Imf@@YAXPAUData@TiledOutputFile@2@AAV?$Array@D@2@HH@Z 1004ce40 f   ImfTiledOutputFile.obj
 0001:0004bf10       ??0TileBufferTask@?A0xc559f438@Imf@@QAE@PAVTaskGroup@IlmThread@@PAUData@TiledOutputFile@2@HHHHH@Z 1004cf10 f   ImfTiledOutputFile.obj
 0001:0004bfa0       ?writeTileData@?A0xc559f438@Imf@@YAXPAUData@TiledOutputFile@2@HHHHQBDH@Z 1004cfa0 f   ImfTiledOutputFile.obj
 0001:0004c150       ?execute@TileBufferTask@?A0xc559f438@Imf@@UAEXXZ 1004d150 f   ImfTiledOutputFile.obj
 0001:0004c420       ?numLevels@TiledOutputFile@Imf@@QBEHXZ 1004d420 f   ImfTiledOutputFile.obj
 0001:0004c4e0       ?levelWidth@TiledOutputFile@Imf@@QBEHH@Z 1004d4e0 f   ImfTiledOutputFile.obj
 0001:0004c5d0       ?levelHeight@TiledOutputFile@Imf@@QBEHH@Z 1004d5d0 f   ImfTiledOutputFile.obj
 0001:0004c6c0       ?numXTiles@TiledOutputFile@Imf@@QBEHH@Z 1004d6c0 f   ImfTiledOutputFile.obj
 0001:0004c790       ?numYTiles@TiledOutputFile@Imf@@QBEHH@Z 1004d790 f   ImfTiledOutputFile.obj
 0001:0004c860       ?dataWindowForLevel@TiledOutputFile@Imf@@QBE?AV?$Box@V?$Vec2@H@Imath@@@Imath@@HH@Z 1004d860 f   ImfTiledOutputFile.obj
 0001:0004c960       ?dataWindowForTile@TiledOutputFile@Imf@@QBE?AV?$Box@V?$Vec2@H@Imath@@@Imath@@HHHH@Z 1004d960 f   ImfTiledOutputFile.obj
 0001:0004cac0       ?updatePreviewImage@TiledOutputFile@Imf@@QAEXQBUPreviewRgba@2@@Z 1004dac0 f   ImfTiledOutputFile.obj
 0001:0004cce0       ?breakTile@TiledOutputFile@Imf@@QAEXHHHHHHD@Z 1004dce0 f   ImfTiledOutputFile.obj
 0001:0004ced0       ?copyPixels@TiledOutputFile@Imf@@QAEXAAVTiledInputFile@2@@Z 1004ded0 f   ImfTiledOutputFile.obj
 0001:0004d5c0       ?copyPixels@TiledOutputFile@Imf@@QAEXAAVInputFile@2@@Z 1004e5c0 f   ImfTiledOutputFile.obj
 0001:0004d5e0       ?dataWindowForLevel@TiledOutputFile@Imf@@QBE?AV?$Box@V?$Vec2@H@Imath@@@Imath@@H@Z 1004e5e0 f   ImfTiledOutputFile.obj
 0001:0004d600       ?dataWindowForTile@TiledOutputFile@Imf@@QBE?AV?$Box@V?$Vec2@H@Imath@@@Imath@@HHH@Z 1004e600 f   ImfTiledOutputFile.obj
 0001:0004d630       ?bufferedTileWrite@?A0xc559f438@Imf@@YAXPAUData@TiledOutputFile@2@HHHHQBDH@Z 1004e630 f   ImfTiledOutputFile.obj
 0001:0004daa0       ?writeTiles@TiledOutputFile@Imf@@QAEXHHHHHH@Z 1004eaa0 f   ImfTiledOutputFile.obj
 0001:0004df30       ?writeTiles@TiledOutputFile@Imf@@QAEXHHHHH@Z 1004ef30 f   ImfTiledOutputFile.obj
 0001:0004df60       ?writeTile@TiledOutputFile@Imf@@QAEXHHHH@Z 1004ef60 f   ImfTiledOutputFile.obj
 0001:0004df80       ?writeTile@TiledOutputFile@Imf@@QAEXHHH@Z 1004ef80 f   ImfTiledOutputFile.obj
 0001:0004dfa0       ?setFrameBuffer@TiledOutputFile@Imf@@QAEXABVFrameBuffer@2@@Z 1004efa0 f   ImfTiledOutputFile.obj
 0001:0004e510       ??1Data@TiledOutputFile@Imf@@UAE@XZ 1004f510 f   ImfTiledOutputFile.obj
 0001:0004e790       ??0Data@TiledOutputFile@Imf@@QAE@_NH@Z 1004f790 f   ImfTiledOutputFile.obj
 0001:0004e910       ?initialize@TiledOutputFile@Imf@@AAEXABVHeader@2@@Z 1004f910 f   ImfTiledOutputFile.obj
 0001:0004ec90       ??0TiledOutputFile@Imf@@QAE@QBDABVHeader@1@H@Z 1004fc90 f   ImfTiledOutputFile.obj
 0001:0004edf0       ??0TiledOutputFile@Imf@@QAE@AAVOStream@1@ABVHeader@1@H@Z 1004fdf0 f   ImfTiledOutputFile.obj
 0001:0004ef30       ??0TileCoord@?A0xc559f438@Imf@@QAE@HHHH@Z 1004ff30 f i ImfTiledOutputFile.obj
 0001:0004ef50       ??MTileCoord@?A0xc559f438@Imf@@QBE_NABU012@@Z 1004ff50 f i ImfTiledOutputFile.obj
 0001:0004efa0       ??8TileCoord@?A0xc559f438@Imf@@QBE_NABU012@@Z 1004ffa0 f i ImfTiledOutputFile.obj
 0001:0004efd0       ??0BufferedTile@?A0xc559f438@Imf@@QAE@PBDH@Z 1004ffd0 f i ImfTiledOutputFile.obj
 0001:0004f000       ??1BufferedTile@?A0xc559f438@Imf@@QAE@XZ 10050000 f i ImfTiledOutputFile.obj
 0001:0004f010       ?wait@TileBuffer@?A0xc559f438@Imf@@QAEXXZ 10050010 f i ImfTiledOutputFile.obj
 0001:0004f020       ?post@TileBuffer@?A0xc559f438@Imf@@QAEXXZ 10050020 f i ImfTiledOutputFile.obj
 0001:0004f030       ??_GBufferedTile@?A0xc559f438@Imf@@QAEPAXI@Z 10050030 f i ImfTiledOutputFile.obj
 0001:0004f060       ??0?$Array@D@Imf@@QAE@XZ   10050060 f i ImfTiledOutputFile.obj
 0001:0004f070       ??B?$Array@D@Imf@@QAEPADXZ 10050070 f i ImfTiledOutputFile.obj
 0001:0004f080       ?size@?$vector@UTOutSliceInfo@?A0xc559f438@Imf@@V?$allocator@UTOutSliceInfo@?A0xc559f438@Imf@@@std@@@std@@QBEIXZ 10050080 f i ImfTiledOutputFile.obj
 0001:0004f0b0       ??A?$vector@UTOutSliceInfo@?A0xc559f438@Imf@@V?$allocator@UTOutSliceInfo@?A0xc559f438@Imf@@@std@@@std@@QAEAAUTOutSliceInfo@?A0xc559f438@Imf@@I@Z 100500b0 f i ImfTiledOutputFile.obj
 0001:0004f100       ?size@?$vector@PAUTileBuffer@?A0xc559f438@Imf@@V?$allocator@PAUTileBuffer@?A0xc559f438@Imf@@@std@@@std@@QBEIXZ 10050100 f i ImfTiledOutputFile.obj
 0001:0004f120       ??A?$vector@PAUTileBuffer@?A0xc559f438@Imf@@V?$allocator@PAUTileBuffer@?A0xc559f438@Imf@@@std@@@std@@QAEAAPAUTileBuffer@?A0xc559f438@Imf@@I@Z 10050120 f i ImfTiledOutputFile.obj
 0001:0004f150       ?capacity@?$vector@UTOutSliceInfo@?A0xc559f438@Imf@@V?$allocator@UTOutSliceInfo@?A0xc559f438@Imf@@@std@@@std@@QBEIXZ 10050150 f i ImfTiledOutputFile.obj
 0001:0004f180       ??0?$allocator@UTOutSliceInfo@?A0xc559f438@Imf@@@std@@QAE@XZ 10050180 f i ImfTiledOutputFile.obj
 0001:0004f190       ?deallocate@?$allocator@UTOutSliceInfo@?A0xc559f438@Imf@@@std@@QAEXPAUTOutSliceInfo@?A0xc559f438@Imf@@I@Z 10050190 f i ImfTiledOutputFile.obj
 0001:0004f1a0       ??0?$allocator@PAUTileBuffer@?A0xc559f438@Imf@@@std@@QAE@XZ 100501a0 f i ImfTiledOutputFile.obj
 0001:0004f1b0       ?_Color@?$_Tree@V?$_Tmap_traits@UTileCoord@?A0xc559f438@Imf@@PAUBufferedTile@23@U?$less@UTileCoord@?A0xc559f438@Imf@@@std@@V?$allocator@U?$pair@$$CBUTileCoord@?A0xc559f438@Imf@@PAUBufferedTile@23@@std@@@6@$0A@@std@@@std@@KAAADPAU_Node@?$_Tree_nod@V?$_Tmap_traits@UTileCoord@?A0xc559f438@Imf@@PAUBufferedTile@23@U?$less@UTileCoord@?A0xc559f438@Imf@@@std@@V?$allocator@U?$pair@$$CBUTileCoord@?A0xc559f438@Imf@@PAUBufferedTile@23@@std@@@6@$0A@@std@@@2@@Z 100501b0 f i ImfTiledOutputFile.obj
 0001:0004f1c0       ?_Isnil@?$_Tree@V?$_Tmap_traits@UTileCoord@?A0xc559f438@Imf@@PAUBufferedTile@23@U?$less@UTileCoord@?A0xc559f438@Imf@@@std@@V?$allocator@U?$pair@$$CBUTileCoord@?A0xc559f438@Imf@@PAUBufferedTile@23@@std@@@6@$0A@@std@@@std@@KAAADPAU_Node@?$_Tree_nod@V?$_Tmap_traits@UTileCoord@?A0xc559f438@Imf@@PAUBufferedTile@23@U?$less@UTileCoord@?A0xc559f438@Imf@@@std@@V?$allocator@U?$pair@$$CBUTileCoord@?A0xc559f438@Imf@@PAUBufferedTile@23@@std@@@6@$0A@@std@@@2@@Z 100501c0 f i ImfTiledOutputFile.obj
 0001:0004f1d0       ?_Left@?$_Tree@V?$_Tmap_traits@UTileCoord@?A0xc559f438@Imf@@PAUBufferedTile@23@U?$less@UTileCoord@?A0xc559f438@Imf@@@std@@V?$allocator@U?$pair@$$CBUTileCoord@?A0xc559f438@Imf@@PAUBufferedTile@23@@std@@@6@$0A@@std@@@std@@KAAAPAU_Node@?$_Tree_nod@V?$_Tmap_traits@UTileCoord@?A0xc559f438@Imf@@PAUBufferedTile@23@U?$less@UTileCoord@?A0xc559f438@Imf@@@std@@V?$allocator@U?$pair@$$CBUTileCoord@?A0xc559f438@Imf@@PAUBufferedTile@23@@std@@@6@$0A@@std@@@2@PAU342@@Z 100501d0 f i ImfTiledOutputFile.obj
 0001:0004f1e0       ?_Parent@?$_Tree@V?$_Tmap_traits@UTileCoord@?A0xc559f438@Imf@@PAUBufferedTile@23@U?$less@UTileCoord@?A0xc559f438@Imf@@@std@@V?$allocator@U?$pair@$$CBUTileCoord@?A0xc559f438@Imf@@PAUBufferedTile@23@@std@@@6@$0A@@std@@@std@@KAAAPAU_Node@?$_Tree_nod@V?$_Tmap_traits@UTileCoord@?A0xc559f438@Imf@@PAUBufferedTile@23@U?$less@UTileCoord@?A0xc559f438@Imf@@@std@@V?$allocator@U?$pair@$$CBUTileCoord@?A0xc559f438@Imf@@PAUBufferedTile@23@@std@@@6@$0A@@std@@@2@PAU342@@Z 100501e0 f i ImfTiledOutputFile.obj
 0001:0004f1f0       ?_Right@?$_Tree@V?$_Tmap_traits@UTileCoord@?A0xc559f438@Imf@@PAUBufferedTile@23@U?$less@UTileCoord@?A0xc559f438@Imf@@@std@@V?$allocator@U?$pair@$$CBUTileCoord@?A0xc559f438@Imf@@PAUBufferedTile@23@@std@@@6@$0A@@std@@@std@@KAAAPAU_Node@?$_Tree_nod@V?$_Tmap_traits@UTileCoord@?A0xc559f438@Imf@@PAUBufferedTile@23@U?$less@UTileCoord@?A0xc559f438@Imf@@@std@@V?$allocator@U?$pair@$$CBUTileCoord@?A0xc559f438@Imf@@PAUBufferedTile@23@@std@@@6@$0A@@std@@@2@PAU342@@Z 100501f0 f i ImfTiledOutputFile.obj
 0001:0004f200       ?_Lmost@?$_Tree@V?$_Tmap_traits@UTileCoord@?A0xc559f438@Imf@@PAUBufferedTile@23@U?$less@UTileCoord@?A0xc559f438@Imf@@@std@@V?$allocator@U?$pair@$$CBUTileCoord@?A0xc559f438@Imf@@PAUBufferedTile@23@@std@@@6@$0A@@std@@@std@@IBEAAPAU_Node@?$_Tree_nod@V?$_Tmap_traits@UTileCoord@?A0xc559f438@Imf@@PAUBufferedTile@23@U?$less@UTileCoord@?A0xc559f438@Imf@@@std@@V?$allocator@U?$pair@$$CBUTileCoord@?A0xc559f438@Imf@@PAUBufferedTile@23@@std@@@6@$0A@@std@@@2@XZ 10050200 f i ImfTiledOutputFile.obj
 0001:0004f210       ?_Max@?$_Tree@V?$_Tmap_traits@UTileCoord@?A0xc559f438@Imf@@PAUBufferedTile@23@U?$less@UTileCoord@?A0xc559f438@Imf@@@std@@V?$allocator@U?$pair@$$CBUTileCoord@?A0xc559f438@Imf@@PAUBufferedTile@23@@std@@@6@$0A@@std@@@std@@KAPAU_Node@?$_Tree_nod@V?$_Tmap_traits@UTileCoord@?A0xc559f438@Imf@@PAUBufferedTile@23@U?$less@UTileCoord@?A0xc559f438@Imf@@@std@@V?$allocator@U?$pair@$$CBUTileCoord@?A0xc559f438@Imf@@PAUBufferedTile@23@@std@@@6@$0A@@std@@@2@PAU342@@Z 10050210 f i ImfTiledOutputFile.obj
 0001:0004f230       ?_Min@?$_Tree@V?$_Tmap_traits@UTileCoord@?A0xc559f438@Imf@@PAUBufferedTile@23@U?$less@UTileCoord@?A0xc559f438@Imf@@@std@@V?$allocator@U?$pair@$$CBUTileCoord@?A0xc559f438@Imf@@PAUBufferedTile@23@@std@@@6@$0A@@std@@@std@@KAPAU_Node@?$_Tree_nod@V?$_Tmap_traits@UTileCoord@?A0xc559f438@Imf@@PAUBufferedTile@23@U?$less@UTileCoord@?A0xc559f438@Imf@@@std@@V?$allocator@U?$pair@$$CBUTileCoord@?A0xc559f438@Imf@@PAUBufferedTile@23@@std@@@6@$0A@@std@@@2@PAU342@@Z 10050230 f i ImfTiledOutputFile.obj
 0001:0004f250       ?_Rmost@?$_Tree@V?$_Tmap_traits@UTileCoord@?A0xc559f438@Imf@@PAUBufferedTile@23@U?$less@UTileCoord@?A0xc559f438@Imf@@@std@@V?$allocator@U?$pair@$$CBUTileCoord@?A0xc559f438@Imf@@PAUBufferedTile@23@@std@@@6@$0A@@std@@@std@@IBEAAPAU_Node@?$_Tree_nod@V?$_Tmap_traits@UTileCoord@?A0xc559f438@Imf@@PAUBufferedTile@23@U?$less@UTileCoord@?A0xc559f438@Imf@@@std@@V?$allocator@U?$pair@$$CBUTileCoord@?A0xc559f438@Imf@@PAUBufferedTile@23@@std@@@6@$0A@@std@@@2@XZ 10050250 f i ImfTiledOutputFile.obj
 0001:0004f260       ?_Root@?$_Tree@V?$_Tmap_traits@UTileCoord@?A0xc559f438@Imf@@PAUBufferedTile@23@U?$less@UTileCoord@?A0xc559f438@Imf@@@std@@V?$allocator@U?$pair@$$CBUTileCoord@?A0xc559f438@Imf@@PAUBufferedTile@23@@std@@@6@$0A@@std@@@std@@IBEAAPAU_Node@?$_Tree_nod@V?$_Tmap_traits@UTileCoord@?A0xc559f438@Imf@@PAUBufferedTile@23@U?$less@UTileCoord@?A0xc559f438@Imf@@@std@@V?$allocator@U?$pair@$$CBUTileCoord@?A0xc559f438@Imf@@PAUBufferedTile@23@@std@@@6@$0A@@std@@@2@XZ 10050260 f i ImfTiledOutputFile.obj
 0001:0004f270       ?_Rrotate@?$_Tree@V?$_Tmap_traits@UTileCoord@?A0xc559f438@Imf@@PAUBufferedTile@23@U?$less@UTileCoord@?A0xc559f438@Imf@@@std@@V?$allocator@U?$pair@$$CBUTileCoord@?A0xc559f438@Imf@@PAUBufferedTile@23@@std@@@6@$0A@@std@@@std@@IAEXPAU_Node@?$_Tree_nod@V?$_Tmap_traits@UTileCoord@?A0xc559f438@Imf@@PAUBufferedTile@23@U?$less@UTileCoord@?A0xc559f438@Imf@@@std@@V?$allocator@U?$pair@$$CBUTileCoord@?A0xc559f438@Imf@@PAUBufferedTile@23@@std@@@6@$0A@@std@@@2@@Z 10050270 f i ImfTiledOutputFile.obj
 0001:0004f2d0       ??0?$allocator@U?$pair@$$CBUTileCoord@?A0xc559f438@Imf@@PAUBufferedTile@23@@std@@@std@@QAE@XZ 100502d0 f i ImfTiledOutputFile.obj
 0001:0004f2e0       ??R?$less@UTileCoord@?A0xc559f438@Imf@@@std@@QBE_NABUTileCoord@?A0xc559f438@Imf@@0@Z 100502e0 f i ImfTiledOutputFile.obj
 0001:0004f330       ?deallocate@?$allocator@U_Node@?$_Tree_nod@V?$_Tmap_traits@UTileCoord@?A0xc559f438@Imf@@PAUBufferedTile@23@U?$less@UTileCoord@?A0xc559f438@Imf@@@std@@V?$allocator@U?$pair@$$CBUTileCoord@?A0xc559f438@Imf@@PAUBufferedTile@23@@std@@@6@$0A@@std@@@std@@@std@@QAEXPAU_Node@?$_Tree_nod@V?$_Tmap_traits@UTileCoord@?A0xc559f438@Imf@@PAUBufferedTile@23@U?$less@UTileCoord@?A0xc559f438@Imf@@@std@@V?$allocator@U?$pair@$$CBUTileCoord@?A0xc559f438@Imf@@PAUBufferedTile@23@@std@@@6@$0A@@std@@@2@I@Z 10050330 f i ImfTiledOutputFile.obj
 0001:0004f340       ??8const_iterator@?$_Tree@V?$_Tmap_traits@UTileCoord@?A0xc559f438@Imf@@PAUBufferedTile@23@U?$less@UTileCoord@?A0xc559f438@Imf@@@std@@V?$allocator@U?$pair@$$CBUTileCoord@?A0xc559f438@Imf@@PAUBufferedTile@23@@std@@@6@$0A@@std@@@std@@QBE_NABV012@@Z 10050340 f i ImfTiledOutputFile.obj
 0001:0004f370       ?_Mynode@const_iterator@?$_Tree@V?$_Tmap_traits@UTileCoord@?A0xc559f438@Imf@@PAUBufferedTile@23@U?$less@UTileCoord@?A0xc559f438@Imf@@@std@@V?$allocator@U?$pair@$$CBUTileCoord@?A0xc559f438@Imf@@PAUBufferedTile@23@@std@@@6@$0A@@std@@@std@@QBEPAU_Node@?$_Tree_nod@V?$_Tmap_traits@UTileCoord@?A0xc559f438@Imf@@PAUBufferedTile@23@U?$less@UTileCoord@?A0xc559f438@Imf@@@std@@V?$allocator@U?$pair@$$CBUTileCoord@?A0xc559f438@Imf@@PAUBufferedTile@23@@std@@@6@$0A@@std@@@3@XZ 10050370 f i ImfTiledOutputFile.obj
 0001:0004f380       ??0?$pair@$$CBUTileCoord@?A0xc559f438@Imf@@PAUBufferedTile@23@@std@@QAE@ABUTileCoord@?A0xc559f438@Imf@@ABQAUBufferedTile@34@@Z 10050380 f i ImfTiledOutputFile.obj
 0001:0004f3b0       ?_Xlen@?$vector@UTOutSliceInfo@?A0xc559f438@Imf@@V?$allocator@UTOutSliceInfo@?A0xc559f438@Imf@@@std@@@std@@KAXXZ 100503b0 f i ImfTiledOutputFile.obj
 0001:0004f430       ??0?$allocator@UTOutSliceInfo@?A0xc559f438@Imf@@@std@@QAE@ABV01@@Z 10050430 f i ImfTiledOutputFile.obj
 0001:0004f440       ?_Xlen@?$vector@PAUTileBuffer@?A0xc559f438@Imf@@V?$allocator@PAUTileBuffer@?A0xc559f438@Imf@@@std@@@std@@KAXXZ 10050440 f i ImfTiledOutputFile.obj
 0001:0004f4c0       ??0?$allocator@PAUTileBuffer@?A0xc559f438@Imf@@@std@@QAE@ABV01@@Z 100504c0 f i ImfTiledOutputFile.obj
 0001:0004f4d0       ?deallocate@?$allocator@PAUTileBuffer@?A0xc559f438@Imf@@@std@@QAEXPAPAUTileBuffer@?A0xc559f438@Imf@@I@Z 100504d0 f i ImfTiledOutputFile.obj
 0001:0004f4e0       ?_Myval@?$_Tree@V?$_Tmap_traits@UTileCoord@?A0xc559f438@Imf@@PAUBufferedTile@23@U?$less@UTileCoord@?A0xc559f438@Imf@@@std@@V?$allocator@U?$pair@$$CBUTileCoord@?A0xc559f438@Imf@@PAUBufferedTile@23@@std@@@6@$0A@@std@@@std@@KAAAU?$pair@$$CBUTileCoord@?A0xc559f438@Imf@@PAUBufferedTile@23@@2@PAU_Node@?$_Tree_nod@V?$_Tmap_traits@UTileCoord@?A0xc559f438@Imf@@PAUBufferedTile@23@U?$less@UTileCoord@?A0xc559f438@Imf@@@std@@V?$allocator@U?$pair@$$CBUTileCoord@?A0xc559f438@Imf@@PAUBufferedTile@23@@std@@@6@$0A@@std@@@2@@Z 100504e0 f i ImfTiledOutputFile.obj
 0001:0004f4f0       ?size@?$_Tree@V?$_Tmap_traits@UTileCoord@?A0xc559f438@Imf@@PAUBufferedTile@23@U?$less@UTileCoord@?A0xc559f438@Imf@@@std@@V?$allocator@U?$pair@$$CBUTileCoord@?A0xc559f438@Imf@@PAUBufferedTile@23@@std@@@6@$0A@@std@@@std@@QBEIXZ 100504f0 f i ImfTiledOutputFile.obj
 0001:0004f500       ?_Kfn@?$_Tmap_traits@UTileCoord@?A0xc559f438@Imf@@PAUBufferedTile@23@U?$less@UTileCoord@?A0xc559f438@Imf@@@std@@V?$allocator@U?$pair@$$CBUTileCoord@?A0xc559f438@Imf@@PAUBufferedTile@23@@std@@@6@$0A@@std@@SAABUTileCoord@?A0xc559f438@Imf@@ABU?$pair@$$CBUTileCoord@?A0xc559f438@Imf@@PAUBufferedTile@23@@2@@Z 10050500 f i ImfTiledOutputFile.obj
 0001:0004f510       ??0?$allocator@U?$pair@$$CBUTileCoord@?A0xc559f438@Imf@@PAUBufferedTile@23@@std@@@std@@QAE@ABV01@@Z 10050510 f i ImfTiledOutputFile.obj
 0001:0004f520       ??Dconst_iterator@?$_Tree@V?$_Tmap_traits@UTileCoord@?A0xc559f438@Imf@@PAUBufferedTile@23@U?$less@UTileCoord@?A0xc559f438@Imf@@@std@@V?$allocator@U?$pair@$$CBUTileCoord@?A0xc559f438@Imf@@PAUBufferedTile@23@@std@@@6@$0A@@std@@@std@@QBEABU?$pair@$$CBUTileCoord@?A0xc559f438@Imf@@PAUBufferedTile@23@@2@XZ 10050520 f i ImfTiledOutputFile.obj
 0001:0004f550       ?_Inc@const_iterator@?$_Tree@V?$_Tmap_traits@UTileCoord@?A0xc559f438@Imf@@PAUBufferedTile@23@U?$less@UTileCoord@?A0xc559f438@Imf@@@std@@V?$allocator@U?$pair@$$CBUTileCoord@?A0xc559f438@Imf@@PAUBufferedTile@23@@std@@@6@$0A@@std@@@std@@QAEXXZ 10050550 f i ImfTiledOutputFile.obj
 0001:0004f5c0       ??0?$_Bidit@U?$pair@$$CBUTileCoord@?A0xc559f438@Imf@@PAUBufferedTile@23@@std@@HPBU12@ABU12@@std@@QAE@XZ 100505c0 f i ImfTiledOutputFile.obj
 0001:0004f5d0       ?max_size@?$allocator@UTOutSliceInfo@?A0xc559f438@Imf@@@std@@QBEIXZ 100505d0 f i ImfTiledOutputFile.obj
 0001:0004f5e0       ?capacity@?$vector@PAUTileBuffer@?A0xc559f438@Imf@@V?$allocator@PAUTileBuffer@?A0xc559f438@Imf@@@std@@@std@@QBEIXZ 100505e0 f i ImfTiledOutputFile.obj
 0001:0004f600       ?max_size@?$allocator@PAUTileBuffer@?A0xc559f438@Imf@@@std@@QBEIXZ 10050600 f i ImfTiledOutputFile.obj
 0001:0004f610       ??0const_iterator@?$_Tree@V?$_Tmap_traits@UTileCoord@?A0xc559f438@Imf@@PAUBufferedTile@23@U?$less@UTileCoord@?A0xc559f438@Imf@@@std@@V?$allocator@U?$pair@$$CBUTileCoord@?A0xc559f438@Imf@@PAUBufferedTile@23@@std@@@6@$0A@@std@@@std@@QAE@XZ 10050610 f i ImfTiledOutputFile.obj
 0001:0004f620       ??G?$_Vector_const_iterator@UTOutSliceInfo@?A0xc559f438@Imf@@V?$allocator@UTOutSliceInfo@?A0xc559f438@Imf@@@std@@@std@@QBEHABV01@@Z 10050620 f i ImfTiledOutputFile.obj
 0001:0004f660       ??0?$pair@Viterator@?$_Tree@V?$_Tmap_traits@UTileCoord@?A0xc559f438@Imf@@PAUBufferedTile@23@U?$less@UTileCoord@?A0xc559f438@Imf@@@std@@V?$allocator@U?$pair@$$CBUTileCoord@?A0xc559f438@Imf@@PAUBufferedTile@23@@std@@@6@$0A@@std@@@std@@_N@std@@QAE@ABViterator@?$_Tree@V?$_Tmap_traits@UTileCoord@?A0xc559f438@Imf@@PAUBufferedTile@23@U?$less@UTileCoord@?A0xc559f438@Imf@@@std@@V?$allocator@U?$pair@$$CBUTileCoord@?A0xc559f438@Imf@@PAUBufferedTile@23@@std@@@6@$0A@@std@@@1@AB_N@Z 10050660 f i ImfTiledOutputFile.obj
 0001:0004f680       ??0?$_Ranit@UTOutSliceInfo@?A0xc559f438@Imf@@HPBU123@ABU123@@std@@QAE@XZ 10050680 f i ImfTiledOutputFile.obj
 0001:0004f690       ?max_size@?$allocator@U?$pair@$$CBUTileCoord@?A0xc559f438@Imf@@PAUBufferedTile@23@@std@@@std@@QBEIXZ 10050690 f i ImfTiledOutputFile.obj
 0001:0004f6a0       ?_Dec@const_iterator@?$_Tree@V?$_Tmap_traits@UTileCoord@?A0xc559f438@Imf@@PAUBufferedTile@23@U?$less@UTileCoord@?A0xc559f438@Imf@@@std@@V?$allocator@U?$pair@$$CBUTileCoord@?A0xc559f438@Imf@@PAUBufferedTile@23@@std@@@6@$0A@@std@@@std@@QAEXXZ 100506a0 f i ImfTiledOutputFile.obj
 0001:0004f730       ??Y?$_Vector_const_iterator@UTOutSliceInfo@?A0xc559f438@Imf@@V?$allocator@UTOutSliceInfo@?A0xc559f438@Imf@@@std@@@std@@QAEAAV01@H@Z 10050730 f i ImfTiledOutputFile.obj
 0001:0004f780       ??8?$_Vector_const_iterator@UTOutSliceInfo@?A0xc559f438@Imf@@V?$allocator@UTOutSliceInfo@?A0xc559f438@Imf@@@std@@@std@@QBE_NABV01@@Z 10050780 f i ImfTiledOutputFile.obj
 0001:0004f7b0       ??Y?$_Vector_const_iterator@PAUTileBuffer@?A0xc559f438@Imf@@V?$allocator@PAUTileBuffer@?A0xc559f438@Imf@@@std@@@std@@QAEAAV01@H@Z 100507b0 f i ImfTiledOutputFile.obj
 0001:0004f7f0       ??8?$_Vector_const_iterator@PAUTileBuffer@?A0xc559f438@Imf@@V?$allocator@PAUTileBuffer@?A0xc559f438@Imf@@@std@@@std@@QBE_NABV01@@Z 100507f0 f i ImfTiledOutputFile.obj
 0001:0004f820       ??0_Node@?$_Tree_nod@V?$_Tmap_traits@UTileCoord@?A0xc559f438@Imf@@PAUBufferedTile@23@U?$less@UTileCoord@?A0xc559f438@Imf@@@std@@V?$allocator@U?$pair@$$CBUTileCoord@?A0xc559f438@Imf@@PAUBufferedTile@23@@std@@@6@$0A@@std@@@std@@QAE@PAU012@00ABU?$pair@$$CBUTileCoord@?A0xc559f438@Imf@@PAUBufferedTile@23@@2@D@Z 10050820 f i ImfTiledOutputFile.obj
 0001:0004f870       ??0?$_Ranit@PAUTileBuffer@?A0xc559f438@Imf@@HPBQAU123@ABQAU123@@std@@QAE@XZ 10050870 f i ImfTiledOutputFile.obj
 0001:0004f880       ??0?$_Tmap_traits@UTileCoord@?A0xc559f438@Imf@@PAUBufferedTile@23@U?$less@UTileCoord@?A0xc559f438@Imf@@@std@@V?$allocator@U?$pair@$$CBUTileCoord@?A0xc559f438@Imf@@PAUBufferedTile@23@@std@@@6@$0A@@std@@QAE@U?$less@UTileCoord@?A0xc559f438@Imf@@@1@@Z 10050880 f i ImfTiledOutputFile.obj
 0001:0004f890       ?value@?$TypedAttribute@VPreviewImage@Imf@@@Imf@@QAEAAVPreviewImage@2@XZ 10050890 f i ImfTiledOutputFile.obj
 0001:0004f8a0       ?resizeErase@?$Array@D@Imf@@QAEXJ@Z 100508a0 f i ImfTiledOutputFile.obj
 0001:0004f8d0       ??$_Destroy@U_Node@?$_Tree_nod@V?$_Tmap_traits@UTileCoord@?A0xc559f438@Imf@@PAUBufferedTile@23@U?$less@UTileCoord@?A0xc559f438@Imf@@@std@@V?$allocator@U?$pair@$$CBUTileCoord@?A0xc559f438@Imf@@PAUBufferedTile@23@@std@@@6@$0A@@std@@@std@@@std@@YAXPAU_Node@?$_Tree_nod@V?$_Tmap_traits@UTileCoord@?A0xc559f438@Imf@@PAUBufferedTile@23@U?$less@UTileCoord@?A0xc559f438@Imf@@@std@@V?$allocator@U?$pair@$$CBUTileCoord@?A0xc559f438@Imf@@PAUBufferedTile@23@@std@@@6@$0A@@std@@@0@@Z 100508d0 f i ImfTiledOutputFile.obj
 0001:0004f8e0       ??$_Allocate@UTOutSliceInfo@?A0xc559f438@Imf@@@std@@YAPAUTOutSliceInfo@?A0xc559f438@Imf@@IPAU123@@Z 100508e0 f i ImfTiledOutputFile.obj
 0001:0004f950       ??$_Allocate@PAUTileBuffer@?A0xc559f438@Imf@@@std@@YAPAPAUTileBuffer@?A0xc559f438@Imf@@IPAPAU123@@Z 10050950 f i ImfTiledOutputFile.obj
 0001:0004f9b0       ??$_Destroy@PAU_Node@?$_Tree_nod@V?$_Tmap_traits@UTileCoord@?A0xc559f438@Imf@@PAUBufferedTile@23@U?$less@UTileCoord@?A0xc559f438@Imf@@@std@@V?$allocator@U?$pair@$$CBUTileCoord@?A0xc559f438@Imf@@PAUBufferedTile@23@@std@@@6@$0A@@std@@@std@@@std@@YAXPAPAU_Node@?$_Tree_nod@V?$_Tmap_traits@UTileCoord@?A0xc559f438@Imf@@PAUBufferedTile@23@U?$less@UTileCoord@?A0xc559f438@Imf@@@std@@V?$allocator@U?$pair@$$CBUTileCoord@?A0xc559f438@Imf@@PAUBufferedTile@23@@std@@@6@$0A@@std@@@0@@Z 100509b0 f i ImfTiledOutputFile.obj
 0001:0004f9c0       ??$?0U?$pair@$$CBUTileCoord@?A0xc559f438@Imf@@PAUBufferedTile@23@@std@@@?$allocator@PAU_Node@?$_Tree_nod@V?$_Tmap_traits@UTileCoord@?A0xc559f438@Imf@@PAUBufferedTile@23@U?$less@UTileCoord@?A0xc559f438@Imf@@@std@@V?$allocator@U?$pair@$$CBUTileCoord@?A0xc559f438@Imf@@PAUBufferedTile@23@@std@@@6@$0A@@std@@@std@@@std@@QAE@ABV?$allocator@U?$pair@$$CBUTileCoord@?A0xc559f438@Imf@@PAUBufferedTile@23@@std@@@1@@Z 100509c0 f i ImfTiledOutputFile.obj
 0001:0004f9d0       ??$?0U?$pair@$$CBUTileCoord@?A0xc559f438@Imf@@PAUBufferedTile@23@@std@@@?$allocator@U_Node@?$_Tree_nod@V?$_Tmap_traits@UTileCoord@?A0xc559f438@Imf@@PAUBufferedTile@23@U?$less@UTileCoord@?A0xc559f438@Imf@@@std@@V?$allocator@U?$pair@$$CBUTileCoord@?A0xc559f438@Imf@@PAUBufferedTile@23@@std@@@6@$0A@@std@@@std@@@std@@QAE@ABV?$allocator@U?$pair@$$CBUTileCoord@?A0xc559f438@Imf@@PAUBufferedTile@23@@std@@@1@@Z 100509d0 f i ImfTiledOutputFile.obj
 0001:0004f9e0       ??$_Allocate@U_Node@?$_Tree_nod@V?$_Tmap_traits@UTileCoord@?A0xc559f438@Imf@@PAUBufferedTile@23@U?$less@UTileCoord@?A0xc559f438@Imf@@@std@@V?$allocator@U?$pair@$$CBUTileCoord@?A0xc559f438@Imf@@PAUBufferedTile@23@@std@@@6@$0A@@std@@@std@@@std@@YAPAU_Node@?$_Tree_nod@V?$_Tmap_traits@UTileCoord@?A0xc559f438@Imf@@PAUBufferedTile@23@U?$less@UTileCoord@?A0xc559f438@Imf@@@std@@V?$allocator@U?$pair@$$CBUTileCoord@?A0xc559f438@Imf@@PAUBufferedTile@23@@std@@@6@$0A@@std@@@0@IPAU120@@Z 100509e0 f i ImfTiledOutputFile.obj
 0001:0004fa40       ??$_Construct@PAU_Node@?$_Tree_nod@V?$_Tmap_traits@UTileCoord@?A0xc559f438@Imf@@PAUBufferedTile@23@U?$less@UTileCoord@?A0xc559f438@Imf@@@std@@V?$allocator@U?$pair@$$CBUTileCoord@?A0xc559f438@Imf@@PAUBufferedTile@23@@std@@@6@$0A@@std@@@std@@PAU123@@std@@YAXPAPAU_Node@?$_Tree_nod@V?$_Tmap_traits@UTileCoord@?A0xc559f438@Imf@@PAUBufferedTile@23@U?$less@UTileCoord@?A0xc559f438@Imf@@@std@@V?$allocator@U?$pair@$$CBUTileCoord@?A0xc559f438@Imf@@PAUBufferedTile@23@@std@@@6@$0A@@std@@@0@ABQAU120@@Z 10050a40 f i ImfTiledOutputFile.obj
 0001:0004fa60       ??$?8H@?$Vec2@H@Imath@@QBE_NABV01@@Z 10050a60 f i ImfTiledOutputFile.obj
 0001:0004fa80       ??$_Iter_random@PAUTOutSliceInfo@?A0xc559f438@Imf@@PAU123@@std@@YA?AUrandom_access_iterator_tag@0@ABQAUTOutSliceInfo@?A0xc559f438@Imf@@0@Z 10050a80 f i ImfTiledOutputFile.obj
 0001:0004fa90       ??$_Ptr_cat@PAUTOutSliceInfo@?A0xc559f438@Imf@@PAU123@@std@@YA?AU_Nonscalar_ptr_iterator_tag@0@AAPAUTOutSliceInfo@?A0xc559f438@Imf@@0@Z 10050a90 f i ImfTiledOutputFile.obj
 0001:0004faa0       ??$_Fill@PAUTOutSliceInfo@?A0xc559f438@Imf@@U123@@std@@YAXPAUTOutSliceInfo@?A0xc559f438@Imf@@0ABU123@@Z 10050aa0 f i ImfTiledOutputFile.obj
 0001:0004fad0       ??$_Move_cat@PAUTOutSliceInfo@?A0xc559f438@Imf@@@std@@YA?AU_Undefined_move_tag@0@ABQAUTOutSliceInfo@?A0xc559f438@Imf@@@Z 10050ad0 f i ImfTiledOutputFile.obj
 0001:0004fae0       ??$_Iter_random@PAPAUTileBuffer@?A0xc559f438@Imf@@PAPAU123@@std@@YA?AUrandom_access_iterator_tag@0@ABQAPAUTileBuffer@?A0xc559f438@Imf@@0@Z 10050ae0 f i ImfTiledOutputFile.obj
 0001:0004faf0       ??$_Ptr_cat@PAPAUTileBuffer@?A0xc559f438@Imf@@PAPAU123@@std@@YA?AU_Scalar_ptr_iterator_tag@0@AAPAPAUTileBuffer@?A0xc559f438@Imf@@0@Z 10050af0 f i ImfTiledOutputFile.obj
 0001:0004fb00       ??$_Copy_opt@PAPAUTileBuffer@?A0xc559f438@Imf@@PAPAU123@Urandom_access_iterator_tag@std@@@std@@YAPAPAUTileBuffer@?A0xc559f438@Imf@@PAPAU123@00Urandom_access_iterator_tag@0@U_Scalar_ptr_iterator_tag@0@U_Range_checked_iterator_tag@0@@Z 10050b00 f i ImfTiledOutputFile.obj
 0001:0004fb40       ??$_Destroy_range@PAUTileBuffer@?A0xc559f438@Imf@@V?$allocator@PAUTileBuffer@?A0xc559f438@Imf@@@std@@@std@@YAXPAPAUTileBuffer@?A0xc559f438@Imf@@0AAV?$allocator@PAUTileBuffer@?A0xc559f438@Imf@@@0@U_Scalar_ptr_iterator_tag@0@@Z 10050b40 f i ImfTiledOutputFile.obj
 0001:0004fb50       ??$_Fill@PAPAUTileBuffer@?A0xc559f438@Imf@@PAU123@@std@@YAXPAPAUTileBuffer@?A0xc559f438@Imf@@0ABQAU123@@Z 10050b50 f i ImfTiledOutputFile.obj
 0001:0004fb70       ??$_Move_cat@PAPAUTileBuffer@?A0xc559f438@Imf@@@std@@YA?AU_Undefined_move_tag@0@ABQAPAUTileBuffer@?A0xc559f438@Imf@@@Z 10050b70 f i ImfTiledOutputFile.obj
 0001:0004fb80       ??$_Checked_base@PAUTOutSliceInfo@?A0xc559f438@Imf@@@std@@YAPAUTOutSliceInfo@?A0xc559f438@Imf@@AAPAU123@U_Unchanged_checked_iterator_base_type_tag@0@@Z 10050b80 f i ImfTiledOutputFile.obj
 0001:0004fb90       ??$_Copy_opt@PAUTOutSliceInfo@?A0xc559f438@Imf@@PAU123@Uforward_iterator_tag@std@@@std@@YAPAUTOutSliceInfo@?A0xc559f438@Imf@@PAU123@00Uforward_iterator_tag@0@U_Nonscalar_ptr_iterator_tag@0@U_Range_checked_iterator_tag@0@@Z 10050b90 f i ImfTiledOutputFile.obj
 0001:0004fbc0       ??$_Checked_base@PAPAUTileBuffer@?A0xc559f438@Imf@@@std@@YAPAPAUTileBuffer@?A0xc559f438@Imf@@AAPAPAU123@U_Unchanged_checked_iterator_base_type_tag@0@@Z 10050bc0 f i ImfTiledOutputFile.obj
 0001:0004fbd0       ??$_Copy_backward_opt@PAPAUTileBuffer@?A0xc559f438@Imf@@PAPAU123@Urandom_access_iterator_tag@std@@@std@@YAPAPAUTileBuffer@?A0xc559f438@Imf@@PAPAU123@00Urandom_access_iterator_tag@0@U_Scalar_ptr_iterator_tag@0@U_Range_checked_iterator_tag@0@@Z 10050bd0 f i ImfTiledOutputFile.obj
 0001:0004fc00       ??$_Construct@UTOutSliceInfo@?A0xc559f438@Imf@@U123@@std@@YAXPAUTOutSliceInfo@?A0xc559f438@Imf@@ABU123@@Z 10050c00 f i ImfTiledOutputFile.obj
 0001:0004fc20       ??$_Destroy@UTOutSliceInfo@?A0xc559f438@Imf@@@std@@YAXPAUTOutSliceInfo@?A0xc559f438@Imf@@@Z 10050c20 f i ImfTiledOutputFile.obj
 0001:0004fc30       ??$_Copy_backward_opt@PAUTOutSliceInfo@?A0xc559f438@Imf@@PAU123@Uforward_iterator_tag@std@@@std@@YAPAUTOutSliceInfo@?A0xc559f438@Imf@@PAU123@00Uforward_iterator_tag@0@U_Nonscalar_ptr_iterator_tag@0@U_Range_checked_iterator_tag@0@@Z 10050c30 f i ImfTiledOutputFile.obj
 0001:0004fc60       ??$_Iter_cat@PAPAUTileBuffer@?A0xc559f438@Imf@@@std@@YA?AUrandom_access_iterator_tag@0@ABQAPAUTileBuffer@?A0xc559f438@Imf@@@Z 10050c60 f i ImfTiledOutputFile.obj
 0001:0004fc70       ??$_Uninit_copy@PAPAUTileBuffer@?A0xc559f438@Imf@@PAPAU123@V?$allocator@PAUTileBuffer@?A0xc559f438@Imf@@@std@@@std@@YAPAPAUTileBuffer@?A0xc559f438@Imf@@PAPAU123@00AAV?$allocator@PAUTileBuffer@?A0xc559f438@Imf@@@0@U_Scalar_ptr_iterator_tag@0@U_Range_checked_iterator_tag@0@@Z 10050c70 f i ImfTiledOutputFile.obj
 0001:0004fca0       ??$_Fill_n@PAPAUTileBuffer@?A0xc559f438@Imf@@IPAU123@@std@@YAXPAPAUTileBuffer@?A0xc559f438@Imf@@IABQAU123@U_Range_checked_iterator_tag@0@@Z 10050ca0 f i ImfTiledOutputFile.obj
 0001:0004fcd0       ??_GTileBuffer@?A0xc559f438@Imf@@QAEPAXI@Z 10050cd0 f i ImfTiledOutputFile.obj
 0001:0004fcf0       ?getTileBuffer@Data@TiledOutputFile@Imf@@QAEPAUTileBuffer@?A0xc559f438@3@H@Z 10050cf0 f i ImfTiledOutputFile.obj
 0001:0004fd50       ??_GTileBufferTask@?A0xc559f438@Imf@@UAEPAXI@Z 10050d50 f i ImfTiledOutputFile.obj
 0001:0004fd50       ??_ETileBufferTask@?A0xc559f438@Imf@@UAEPAXI@Z 10050d50 f i ImfTiledOutputFile.obj
 0001:0004fd70       ??_GTiledOutputFile@Imf@@UAEPAXI@Z 10050d70 f i ImfTiledOutputFile.obj
 0001:0004fd70       ??_ETiledOutputFile@Imf@@UAEPAXI@Z 10050d70 f i ImfTiledOutputFile.obj
 0001:0004fd90       ??9const_iterator@?$_Tree@V?$_Tmap_traits@UTileCoord@?A0xc559f438@Imf@@PAUBufferedTile@23@U?$less@UTileCoord@?A0xc559f438@Imf@@@std@@V?$allocator@U?$pair@$$CBUTileCoord@?A0xc559f438@Imf@@PAUBufferedTile@23@@std@@@6@$0A@@std@@@std@@QBE_NABV012@@Z 10050d90 f i ImfTiledOutputFile.obj
 0001:0004fdc0       ??0?$_Vector_val@UTOutSliceInfo@?A0xc559f438@Imf@@V?$allocator@UTOutSliceInfo@?A0xc559f438@Imf@@@std@@@std@@IAE@V?$allocator@UTOutSliceInfo@?A0xc559f438@Imf@@@1@@Z 10050dc0 f i ImfTiledOutputFile.obj
 0001:0004fdd0       ??0?$_Vector_val@PAUTileBuffer@?A0xc559f438@Imf@@V?$allocator@PAUTileBuffer@?A0xc559f438@Imf@@@std@@@std@@IAE@V?$allocator@PAUTileBuffer@?A0xc559f438@Imf@@@1@@Z 10050dd0 f i ImfTiledOutputFile.obj
 0001:0004fde0       ?_Key@?$_Tree@V?$_Tmap_traits@UTileCoord@?A0xc559f438@Imf@@PAUBufferedTile@23@U?$less@UTileCoord@?A0xc559f438@Imf@@@std@@V?$allocator@U?$pair@$$CBUTileCoord@?A0xc559f438@Imf@@PAUBufferedTile@23@@std@@@6@$0A@@std@@@std@@KAABUTileCoord@?A0xc559f438@Imf@@PAU_Node@?$_Tree_nod@V?$_Tmap_traits@UTileCoord@?A0xc559f438@Imf@@PAUBufferedTile@23@U?$less@UTileCoord@?A0xc559f438@Imf@@@std@@V?$allocator@U?$pair@$$CBUTileCoord@?A0xc559f438@Imf@@PAUBufferedTile@23@@std@@@6@$0A@@std@@@2@@Z 10050de0 f i ImfTiledOutputFile.obj
 0001:0004fdf0       ?_Lrotate@?$_Tree@V?$_Tmap_traits@UTileCoord@?A0xc559f438@Imf@@PAUBufferedTile@23@U?$less@UTileCoord@?A0xc559f438@Imf@@@std@@V?$allocator@U?$pair@$$CBUTileCoord@?A0xc559f438@Imf@@PAUBufferedTile@23@@std@@@6@$0A@@std@@@std@@IAEXPAU_Node@?$_Tree_nod@V?$_Tmap_traits@UTileCoord@?A0xc559f438@Imf@@PAUBufferedTile@23@U?$less@UTileCoord@?A0xc559f438@Imf@@@std@@V?$allocator@U?$pair@$$CBUTileCoord@?A0xc559f438@Imf@@PAUBufferedTile@23@@std@@@6@$0A@@std@@@2@@Z 10050df0 f i ImfTiledOutputFile.obj
 0001:0004fe40       ?destroy@?$allocator@U_Node@?$_Tree_nod@V?$_Tmap_traits@UTileCoord@?A0xc559f438@Imf@@PAUBufferedTile@23@U?$less@UTileCoord@?A0xc559f438@Imf@@@std@@V?$allocator@U?$pair@$$CBUTileCoord@?A0xc559f438@Imf@@PAUBufferedTile@23@@std@@@6@$0A@@std@@@std@@@std@@QAEXPAU_Node@?$_Tree_nod@V?$_Tmap_traits@UTileCoord@?A0xc559f438@Imf@@PAUBufferedTile@23@U?$less@UTileCoord@?A0xc559f438@Imf@@@std@@V?$allocator@U?$pair@$$CBUTileCoord@?A0xc559f438@Imf@@PAUBufferedTile@23@@std@@@6@$0A@@std@@@2@@Z 10050e40 f i ImfTiledOutputFile.obj
 0001:0004fe50       ??Diterator@?$_Tree@V?$_Tmap_traits@UTileCoord@?A0xc559f438@Imf@@PAUBufferedTile@23@U?$less@UTileCoord@?A0xc559f438@Imf@@@std@@V?$allocator@U?$pair@$$CBUTileCoord@?A0xc559f438@Imf@@PAUBufferedTile@23@@std@@@6@$0A@@std@@@std@@QBEAAU?$pair@$$CBUTileCoord@?A0xc559f438@Imf@@PAUBufferedTile@23@@2@XZ 10050e50 f i ImfTiledOutputFile.obj
 0001:0004fe80       ??Econst_iterator@?$_Tree@V?$_Tmap_traits@UTileCoord@?A0xc559f438@Imf@@PAUBufferedTile@23@U?$less@UTileCoord@?A0xc559f438@Imf@@@std@@V?$allocator@U?$pair@$$CBUTileCoord@?A0xc559f438@Imf@@PAUBufferedTile@23@@std@@@6@$0A@@std@@@std@@QAEAAV012@XZ 10050e80 f i ImfTiledOutputFile.obj
 0001:0004fe90       ?max_size@?$vector@UTOutSliceInfo@?A0xc559f438@Imf@@V?$allocator@UTOutSliceInfo@?A0xc559f438@Imf@@@std@@@std@@QBEIXZ 10050e90 f i ImfTiledOutputFile.obj
 0001:0004fea0       ?allocate@?$allocator@UTOutSliceInfo@?A0xc559f438@Imf@@@std@@QAEPAUTOutSliceInfo@?A0xc559f438@Imf@@I@Z 10050ea0 f i ImfTiledOutputFile.obj
 0001:0004fec0       ?max_size@?$vector@PAUTileBuffer@?A0xc559f438@Imf@@V?$allocator@PAUTileBuffer@?A0xc559f438@Imf@@@std@@@std@@QBEIXZ 10050ec0 f i ImfTiledOutputFile.obj
 0001:0004fed0       ?allocate@?$allocator@PAUTileBuffer@?A0xc559f438@Imf@@@std@@QAEPAPAUTileBuffer@?A0xc559f438@Imf@@I@Z 10050ed0 f i ImfTiledOutputFile.obj
 0001:0004fef0       ?_Lbound@?$_Tree@V?$_Tmap_traits@UTileCoord@?A0xc559f438@Imf@@PAUBufferedTile@23@U?$less@UTileCoord@?A0xc559f438@Imf@@@std@@V?$allocator@U?$pair@$$CBUTileCoord@?A0xc559f438@Imf@@PAUBufferedTile@23@@std@@@6@$0A@@std@@@std@@IBEPAU_Node@?$_Tree_nod@V?$_Tmap_traits@UTileCoord@?A0xc559f438@Imf@@PAUBufferedTile@23@U?$less@UTileCoord@?A0xc559f438@Imf@@@std@@V?$allocator@U?$pair@$$CBUTileCoord@?A0xc559f438@Imf@@PAUBufferedTile@23@@std@@@6@$0A@@std@@@2@ABUTileCoord@?A0xc559f438@Imf@@@Z 10050ef0 f i ImfTiledOutputFile.obj
 0001:0004ff50       ?destroy@?$allocator@PAU_Node@?$_Tree_nod@V?$_Tmap_traits@UTileCoord@?A0xc559f438@Imf@@PAUBufferedTile@23@U?$less@UTileCoord@?A0xc559f438@Imf@@@std@@V?$allocator@U?$pair@$$CBUTileCoord@?A0xc559f438@Imf@@PAUBufferedTile@23@@std@@@6@$0A@@std@@@std@@@std@@QAEXPAPAU_Node@?$_Tree_nod@V?$_Tmap_traits@UTileCoord@?A0xc559f438@Imf@@PAUBufferedTile@23@U?$less@UTileCoord@?A0xc559f438@Imf@@@std@@V?$allocator@U?$pair@$$CBUTileCoord@?A0xc559f438@Imf@@PAUBufferedTile@23@@std@@@6@$0A@@std@@@2@@Z 10050f50 f i ImfTiledOutputFile.obj
 0001:0004ff60       ??0iterator@?$_Tree@V?$_Tmap_traits@UTileCoord@?A0xc559f438@Imf@@PAUBufferedTile@23@U?$less@UTileCoord@?A0xc559f438@Imf@@@std@@V?$allocator@U?$pair@$$CBUTileCoord@?A0xc559f438@Imf@@PAUBufferedTile@23@@std@@@6@$0A@@std@@@std@@QAE@XZ 10050f60 f i ImfTiledOutputFile.obj
 0001:0004ff70       ??0const_iterator@?$_Tree@V?$_Tmap_traits@UTileCoord@?A0xc559f438@Imf@@PAUBufferedTile@23@U?$less@UTileCoord@?A0xc559f438@Imf@@@std@@V?$allocator@U?$pair@$$CBUTileCoord@?A0xc559f438@Imf@@PAUBufferedTile@23@@std@@@6@$0A@@std@@@std@@QAE@PAU_Node@?$_Tree_nod@V?$_Tmap_traits@UTileCoord@?A0xc559f438@Imf@@PAUBufferedTile@23@U?$less@UTileCoord@?A0xc559f438@Imf@@@std@@V?$allocator@U?$pair@$$CBUTileCoord@?A0xc559f438@Imf@@PAUBufferedTile@23@@std@@@6@$0A@@std@@@2@PBV12@@Z 10050f70 f i ImfTiledOutputFile.obj
 0001:0004ffa0       ??G?$_Vector_iterator@UTOutSliceInfo@?A0xc559f438@Imf@@V?$allocator@UTOutSliceInfo@?A0xc559f438@Imf@@@std@@@std@@QBEHABV?$_Vector_const_iterator@UTOutSliceInfo@?A0xc559f438@Imf@@V?$allocator@UTOutSliceInfo@?A0xc559f438@Imf@@@std@@@1@@Z 10050fa0 f i ImfTiledOutputFile.obj
 0001:0004ffe0       ?max_size@?$_Tree@V?$_Tmap_traits@UTileCoord@?A0xc559f438@Imf@@PAUBufferedTile@23@U?$less@UTileCoord@?A0xc559f438@Imf@@@std@@V?$allocator@U?$pair@$$CBUTileCoord@?A0xc559f438@Imf@@PAUBufferedTile@23@@std@@@6@$0A@@std@@@std@@QBEIXZ 10050fe0 f i ImfTiledOutputFile.obj
 0001:0004fff0       ??Fconst_iterator@?$_Tree@V?$_Tmap_traits@UTileCoord@?A0xc559f438@Imf@@PAUBufferedTile@23@U?$less@UTileCoord@?A0xc559f438@Imf@@@std@@V?$allocator@U?$pair@$$CBUTileCoord@?A0xc559f438@Imf@@PAUBufferedTile@23@@std@@@6@$0A@@std@@@std@@QAEAAV012@XZ 10050ff0 f i ImfTiledOutputFile.obj
 0001:00050000       ??Y?$_Vector_iterator@UTOutSliceInfo@?A0xc559f438@Imf@@V?$allocator@UTOutSliceInfo@?A0xc559f438@Imf@@@std@@@std@@QAEAAV01@H@Z 10051000 f i ImfTiledOutputFile.obj
 0001:00050050       ??0?$_Vector_const_iterator@UTOutSliceInfo@?A0xc559f438@Imf@@V?$allocator@UTOutSliceInfo@?A0xc559f438@Imf@@@std@@@std@@QAE@PAUTOutSliceInfo@?A0xc559f438@Imf@@PBU_Container_base@1@@Z 10051050 f i ImfTiledOutputFile.obj
 0001:00050090       ??9?$_Vector_const_iterator@UTOutSliceInfo@?A0xc559f438@Imf@@V?$allocator@UTOutSliceInfo@?A0xc559f438@Imf@@@std@@@std@@QBE_NABV01@@Z 10051090 f i ImfTiledOutputFile.obj
 0001:000500c0       ??Y?$_Vector_iterator@PAUTileBuffer@?A0xc559f438@Imf@@V?$allocator@PAUTileBuffer@?A0xc559f438@Imf@@@std@@@std@@QAEAAV01@H@Z 100510c0 f i ImfTiledOutputFile.obj
 0001:00050100       ??9?$_Vector_const_iterator@PAUTileBuffer@?A0xc559f438@Imf@@V?$allocator@PAUTileBuffer@?A0xc559f438@Imf@@@std@@@std@@QBE_NABV01@@Z 10051100 f i ImfTiledOutputFile.obj
 0001:00050130       ?_Erase@?$_Tree@V?$_Tmap_traits@UTileCoord@?A0xc559f438@Imf@@PAUBufferedTile@23@U?$less@UTileCoord@?A0xc559f438@Imf@@@std@@V?$allocator@U?$pair@$$CBUTileCoord@?A0xc559f438@Imf@@PAUBufferedTile@23@@std@@@6@$0A@@std@@@std@@IAEXPAU_Node@?$_Tree_nod@V?$_Tmap_traits@UTileCoord@?A0xc559f438@Imf@@PAUBufferedTile@23@U?$less@UTileCoord@?A0xc559f438@Imf@@@std@@V?$allocator@U?$pair@$$CBUTileCoord@?A0xc559f438@Imf@@PAUBufferedTile@23@@std@@@6@$0A@@std@@@2@@Z 10051130 f i ImfTiledOutputFile.obj
 0001:00050170       ??0?$_Tree_nod@V?$_Tmap_traits@UTileCoord@?A0xc559f438@Imf@@PAUBufferedTile@23@U?$less@UTileCoord@?A0xc559f438@Imf@@@std@@V?$allocator@U?$pair@$$CBUTileCoord@?A0xc559f438@Imf@@PAUBufferedTile@23@@std@@@6@$0A@@std@@@std@@IAE@ABU?$less@UTileCoord@?A0xc559f438@Imf@@@1@V?$allocator@U?$pair@$$CBUTileCoord@?A0xc559f438@Imf@@PAUBufferedTile@23@@std@@@1@@Z 10051170 f i ImfTiledOutputFile.obj
 0001:00050180       ?allocate@?$allocator@U_Node@?$_Tree_nod@V?$_Tmap_traits@UTileCoord@?A0xc559f438@Imf@@PAUBufferedTile@23@U?$less@UTileCoord@?A0xc559f438@Imf@@@std@@V?$allocator@U?$pair@$$CBUTileCoord@?A0xc559f438@Imf@@PAUBufferedTile@23@@std@@@6@$0A@@std@@@std@@@std@@QAEPAU_Node@?$_Tree_nod@V?$_Tmap_traits@UTileCoord@?A0xc559f438@Imf@@PAUBufferedTile@23@U?$less@UTileCoord@?A0xc559f438@Imf@@@std@@V?$allocator@U?$pair@$$CBUTileCoord@?A0xc559f438@Imf@@PAUBufferedTile@23@@std@@@6@$0A@@std@@@2@I@Z 10051180 f i ImfTiledOutputFile.obj
 0001:000501a0       ?construct@?$allocator@PAU_Node@?$_Tree_nod@V?$_Tmap_traits@UTileCoord@?A0xc559f438@Imf@@PAUBufferedTile@23@U?$less@UTileCoord@?A0xc559f438@Imf@@@std@@V?$allocator@U?$pair@$$CBUTileCoord@?A0xc559f438@Imf@@PAUBufferedTile@23@@std@@@6@$0A@@std@@@std@@@std@@QAEXPAPAU_Node@?$_Tree_nod@V?$_Tmap_traits@UTileCoord@?A0xc559f438@Imf@@PAUBufferedTile@23@U?$less@UTileCoord@?A0xc559f438@Imf@@@std@@V?$allocator@U?$pair@$$CBUTileCoord@?A0xc559f438@Imf@@PAUBufferedTile@23@@std@@@6@$0A@@std@@@2@ABQAU342@@Z 100511a0 f i ImfTiledOutputFile.obj
 0001:000501c0       ??0?$_Vector_const_iterator@PAUTileBuffer@?A0xc559f438@Imf@@V?$allocator@PAUTileBuffer@?A0xc559f438@Imf@@@std@@@std@@QAE@PAPAUTileBuffer@?A0xc559f438@Imf@@PBU_Container_base@1@@Z 100511c0 f i ImfTiledOutputFile.obj
 0001:00050200       ??$_Destroy_range@PAUTileBuffer@?A0xc559f438@Imf@@V?$allocator@PAUTileBuffer@?A0xc559f438@Imf@@@std@@@std@@YAXPAPAUTileBuffer@?A0xc559f438@Imf@@0AAV?$allocator@PAUTileBuffer@?A0xc559f438@Imf@@@0@@Z 10051200 f i ImfTiledOutputFile.obj
 0001:00050210       ??$_Checked_base@PAUTOutSliceInfo@?A0xc559f438@Imf@@@std@@YAPAUTOutSliceInfo@?A0xc559f438@Imf@@AAPAU123@@Z 10051210 f i ImfTiledOutputFile.obj
 0001:00050220       ??$_Copy_opt@PAUTOutSliceInfo@?A0xc559f438@Imf@@PAU123@@std@@YAPAUTOutSliceInfo@?A0xc559f438@Imf@@PAU123@00Urandom_access_iterator_tag@0@U_Nonscalar_ptr_iterator_tag@0@U_Range_checked_iterator_tag@0@@Z 10051220 f i ImfTiledOutputFile.obj
 0001:00050280       ??$_Checked_base@PAPAUTileBuffer@?A0xc559f438@Imf@@@std@@YAPAPAUTileBuffer@?A0xc559f438@Imf@@AAPAPAU123@@Z 10051280 f i ImfTiledOutputFile.obj
 0001:00050290       ??$_Move_backward_opt@PAPAUTileBuffer@?A0xc559f438@Imf@@PAPAU123@Urandom_access_iterator_tag@std@@U_Undefined_move_tag@5@@std@@YAPAPAUTileBuffer@?A0xc559f438@Imf@@PAPAU123@00Urandom_access_iterator_tag@0@U_Undefined_move_tag@0@U_Range_checked_iterator_tag@0@@Z 10051290 f i ImfTiledOutputFile.obj
 0001:000502c0       ?construct@?$allocator@UTOutSliceInfo@?A0xc559f438@Imf@@@std@@QAEXPAUTOutSliceInfo@?A0xc559f438@Imf@@ABU345@@Z 100512c0 f i ImfTiledOutputFile.obj
 0001:000502e0       ?destroy@?$allocator@UTOutSliceInfo@?A0xc559f438@Imf@@@std@@QAEXPAUTOutSliceInfo@?A0xc559f438@Imf@@@Z 100512e0 f i ImfTiledOutputFile.obj
 0001:000502f0       ??$_Uninit_copy@PAUTOutSliceInfo@?A0xc559f438@Imf@@PAU123@V?$allocator@UTOutSliceInfo@?A0xc559f438@Imf@@@std@@@std@@YAPAUTOutSliceInfo@?A0xc559f438@Imf@@PAU123@00AAV?$allocator@UTOutSliceInfo@?A0xc559f438@Imf@@@0@U_Nonscalar_ptr_iterator_tag@0@U_Range_checked_iterator_tag@0@@Z 100512f0 f i ImfTiledOutputFile.obj
 0001:00050320       ??$_Copy_backward_opt@PAUTOutSliceInfo@?A0xc559f438@Imf@@PAU123@@std@@YAPAUTOutSliceInfo@?A0xc559f438@Imf@@PAU123@00Urandom_access_iterator_tag@0@U_Nonscalar_ptr_iterator_tag@0@U_Range_checked_iterator_tag@0@@Z 10051320 f i ImfTiledOutputFile.obj
 0001:00050380       ??$unchecked_uninitialized_copy@PAPAUTileBuffer@?A0xc559f438@Imf@@PAPAU123@V?$allocator@PAUTileBuffer@?A0xc559f438@Imf@@@std@@@stdext@@YAPAPAUTileBuffer@?A0xc559f438@Imf@@PAPAU123@00AAV?$allocator@PAUTileBuffer@?A0xc559f438@Imf@@@std@@@Z 10051380 f i ImfTiledOutputFile.obj
 0001:000503b0       ??$_Fill_n@PAPAUTileBuffer@?A0xc559f438@Imf@@IPAU123@@std@@YAXPAPAUTileBuffer@?A0xc559f438@Imf@@IABQAU123@Urandom_access_iterator_tag@0@U_Range_checked_iterator_tag@0@@Z 100513b0 f i ImfTiledOutputFile.obj
 0001:000503e0       ??Citerator@?$_Tree@V?$_Tmap_traits@UTileCoord@?A0xc559f438@Imf@@PAUBufferedTile@23@U?$less@UTileCoord@?A0xc559f438@Imf@@@std@@V?$allocator@U?$pair@$$CBUTileCoord@?A0xc559f438@Imf@@PAUBufferedTile@23@@std@@@6@$0A@@std@@@std@@QBEPAU?$pair@$$CBUTileCoord@?A0xc559f438@Imf@@PAUBufferedTile@23@@2@XZ 100513e0 f i ImfTiledOutputFile.obj
 0001:00050410       ??Eiterator@?$_Tree@V?$_Tmap_traits@UTileCoord@?A0xc559f438@Imf@@PAUBufferedTile@23@U?$less@UTileCoord@?A0xc559f438@Imf@@@std@@V?$allocator@U?$pair@$$CBUTileCoord@?A0xc559f438@Imf@@PAUBufferedTile@23@@std@@@6@$0A@@std@@@std@@QAEAAV012@XZ 10051410 f i ImfTiledOutputFile.obj
 0001:00050420       ?_Buy@?$vector@UTOutSliceInfo@?A0xc559f438@Imf@@V?$allocator@UTOutSliceInfo@?A0xc559f438@Imf@@@std@@@std@@IAE_NI@Z 10051420 f i ImfTiledOutputFile.obj
 0001:00050480       ?_Buy@?$vector@PAUTileBuffer@?A0xc559f438@Imf@@V?$allocator@PAUTileBuffer@?A0xc559f438@Imf@@@std@@@std@@IAE_NI@Z 10051480 f i ImfTiledOutputFile.obj
 0001:000504d0       ??0iterator@?$_Tree@V?$_Tmap_traits@UTileCoord@?A0xc559f438@Imf@@PAUBufferedTile@23@U?$less@UTileCoord@?A0xc559f438@Imf@@@std@@V?$allocator@U?$pair@$$CBUTileCoord@?A0xc559f438@Imf@@PAUBufferedTile@23@@std@@@6@$0A@@std@@@std@@QAE@PAU_Node@?$_Tree_nod@V?$_Tmap_traits@UTileCoord@?A0xc559f438@Imf@@PAUBufferedTile@23@U?$less@UTileCoord@?A0xc559f438@Imf@@@std@@V?$allocator@U?$pair@$$CBUTileCoord@?A0xc559f438@Imf@@PAUBufferedTile@23@@std@@@6@$0A@@std@@@2@PBV12@@Z 100514d0 f i ImfTiledOutputFile.obj
 0001:00050500       ?_Destroy@?$vector@PAUTileBuffer@?A0xc559f438@Imf@@V?$allocator@PAUTileBuffer@?A0xc559f438@Imf@@@std@@@std@@IAEXPAPAUTileBuffer@?A0xc559f438@Imf@@0@Z 10051500 f i ImfTiledOutputFile.obj
 0001:00050510       ??Fiterator@?$_Tree@V?$_Tmap_traits@UTileCoord@?A0xc559f438@Imf@@PAUBufferedTile@23@U?$less@UTileCoord@?A0xc559f438@Imf@@@std@@V?$allocator@U?$pair@$$CBUTileCoord@?A0xc559f438@Imf@@PAUBufferedTile@23@@std@@@6@$0A@@std@@@std@@QAEAAV012@XZ 10051510 f i ImfTiledOutputFile.obj
 0001:00050520       ??0?$_Vector_iterator@UTOutSliceInfo@?A0xc559f438@Imf@@V?$allocator@UTOutSliceInfo@?A0xc559f438@Imf@@@std@@@std@@QAE@PAUTOutSliceInfo@?A0xc559f438@Imf@@PBU_Container_base@1@@Z 10051520 f i ImfTiledOutputFile.obj
 0001:00050560       ??H?$_Vector_iterator@UTOutSliceInfo@?A0xc559f438@Imf@@V?$allocator@UTOutSliceInfo@?A0xc559f438@Imf@@@std@@@std@@QBE?AV01@H@Z 10051560 f i ImfTiledOutputFile.obj
 0001:000505a0       ??H?$_Vector_iterator@PAUTileBuffer@?A0xc559f438@Imf@@V?$allocator@PAUTileBuffer@?A0xc559f438@Imf@@@std@@@std@@QBE?AV01@H@Z 100515a0 f i ImfTiledOutputFile.obj
 0001:000505e0       ?clear@?$_Tree@V?$_Tmap_traits@UTileCoord@?A0xc559f438@Imf@@PAUBufferedTile@23@U?$less@UTileCoord@?A0xc559f438@Imf@@@std@@V?$allocator@U?$pair@$$CBUTileCoord@?A0xc559f438@Imf@@PAUBufferedTile@23@@std@@@6@$0A@@std@@@std@@QAEXXZ 100515e0 f i ImfTiledOutputFile.obj
 0001:00050610       ?_Buynode@?$_Tree@V?$_Tmap_traits@UTileCoord@?A0xc559f438@Imf@@PAUBufferedTile@23@U?$less@UTileCoord@?A0xc559f438@Imf@@@std@@V?$allocator@U?$pair@$$CBUTileCoord@?A0xc559f438@Imf@@PAUBufferedTile@23@@std@@@6@$0A@@std@@@std@@IAEPAU_Node@?$_Tree_nod@V?$_Tmap_traits@UTileCoord@?A0xc559f438@Imf@@PAUBufferedTile@23@U?$less@UTileCoord@?A0xc559f438@Imf@@@std@@V?$allocator@U?$pair@$$CBUTileCoord@?A0xc559f438@Imf@@PAUBufferedTile@23@@std@@@6@$0A@@std@@@2@XZ 10051610 f i ImfTiledOutputFile.obj
 0001:00050650       ?_Buynode@?$_Tree@V?$_Tmap_traits@UTileCoord@?A0xc559f438@Imf@@PAUBufferedTile@23@U?$less@UTileCoord@?A0xc559f438@Imf@@@std@@V?$allocator@U?$pair@$$CBUTileCoord@?A0xc559f438@Imf@@PAUBufferedTile@23@@std@@@6@$0A@@std@@@std@@IAEPAU_Node@?$_Tree_nod@V?$_Tmap_traits@UTileCoord@?A0xc559f438@Imf@@PAUBufferedTile@23@U?$less@UTileCoord@?A0xc559f438@Imf@@@std@@V?$allocator@U?$pair@$$CBUTileCoord@?A0xc559f438@Imf@@PAUBufferedTile@23@@std@@@6@$0A@@std@@@2@PAU342@00ABU?$pair@$$CBUTileCoord@?A0xc559f438@Imf@@PAUBufferedTile@23@@2@D@Z 10051650 f i ImfTiledOutputFile.obj
 0001:000506b0       ??0?$_Tree_ptr@V?$_Tmap_traits@UTileCoord@?A0xc559f438@Imf@@PAUBufferedTile@23@U?$less@UTileCoord@?A0xc559f438@Imf@@@std@@V?$allocator@U?$pair@$$CBUTileCoord@?A0xc559f438@Imf@@PAUBufferedTile@23@@std@@@6@$0A@@std@@@std@@IAE@ABU?$less@UTileCoord@?A0xc559f438@Imf@@@1@V?$allocator@U?$pair@$$CBUTileCoord@?A0xc559f438@Imf@@PAUBufferedTile@23@@std@@@1@@Z 100516b0 f i ImfTiledOutputFile.obj
 0001:000506c0       ??Eiterator@?$_Tree@V?$_Tmap_traits@UTileCoord@?A0xc559f438@Imf@@PAUBufferedTile@23@U?$less@UTileCoord@?A0xc559f438@Imf@@@std@@V?$allocator@U?$pair@$$CBUTileCoord@?A0xc559f438@Imf@@PAUBufferedTile@23@@std@@@6@$0A@@std@@@std@@QAE?AV012@H@Z 100516c0 f i ImfTiledOutputFile.obj
 0001:000506e0       ??0?$_Vector_iterator@PAUTileBuffer@?A0xc559f438@Imf@@V?$allocator@PAUTileBuffer@?A0xc559f438@Imf@@@std@@@std@@QAE@PAPAUTileBuffer@?A0xc559f438@Imf@@PBU_Container_base@1@@Z 100516e0 f i ImfTiledOutputFile.obj
 0001:00050720       ??$unchecked_copy@PAUTOutSliceInfo@?A0xc559f438@Imf@@PAU123@@stdext@@YAPAUTOutSliceInfo@?A0xc559f438@Imf@@PAU123@00@Z 10051720 f i ImfTiledOutputFile.obj
 0001:00050750       ??$fill@PAUTOutSliceInfo@?A0xc559f438@Imf@@U123@@std@@YAXPAUTOutSliceInfo@?A0xc559f438@Imf@@0ABU123@@Z 10051750 f i ImfTiledOutputFile.obj
 0001:00050780       ??$unchecked_copy@PAPAUTileBuffer@?A0xc559f438@Imf@@PAPAU123@@stdext@@YAPAPAUTileBuffer@?A0xc559f438@Imf@@PAPAU123@00@Z 10051780 f i ImfTiledOutputFile.obj
 0001:000507c0       ??$fill@PAPAUTileBuffer@?A0xc559f438@Imf@@PAU123@@std@@YAXPAPAUTileBuffer@?A0xc559f438@Imf@@0ABQAU123@@Z 100517c0 f i ImfTiledOutputFile.obj
 0001:000507e0       ??$_Unchecked_move_backward@PAPAUTileBuffer@?A0xc559f438@Imf@@PAPAU123@@stdext@@YAPAPAUTileBuffer@?A0xc559f438@Imf@@PAPAU123@00@Z 100517e0 f i ImfTiledOutputFile.obj
 0001:00050810       ??$unchecked_uninitialized_copy@PAUTOutSliceInfo@?A0xc559f438@Imf@@PAU123@V?$allocator@UTOutSliceInfo@?A0xc559f438@Imf@@@std@@@stdext@@YAPAUTOutSliceInfo@?A0xc559f438@Imf@@PAU123@00AAV?$allocator@UTOutSliceInfo@?A0xc559f438@Imf@@@std@@@Z 10051810 f i ImfTiledOutputFile.obj
 0001:00050840       ??$_Destroy_range@UTOutSliceInfo@?A0xc559f438@Imf@@V?$allocator@UTOutSliceInfo@?A0xc559f438@Imf@@@std@@@std@@YAXPAUTOutSliceInfo@?A0xc559f438@Imf@@0AAV?$allocator@UTOutSliceInfo@?A0xc559f438@Imf@@@0@U_Nonscalar_ptr_iterator_tag@0@@Z 10051840 f i ImfTiledOutputFile.obj
 0001:00050850       ??$_Uninit_fill_n@PAUTOutSliceInfo@?A0xc559f438@Imf@@IU123@V?$allocator@UTOutSliceInfo@?A0xc559f438@Imf@@@std@@@std@@YAXPAUTOutSliceInfo@?A0xc559f438@Imf@@IABU123@AAV?$allocator@UTOutSliceInfo@?A0xc559f438@Imf@@@0@U_Nonscalar_ptr_iterator_tag@0@U_Range_checked_iterator_tag@0@@Z 10051850 f i ImfTiledOutputFile.obj
 0001:00050880       ??$_Move_backward_opt@PAUTOutSliceInfo@?A0xc559f438@Imf@@PAU123@Urandom_access_iterator_tag@std@@U_Undefined_move_tag@5@@std@@YAPAUTOutSliceInfo@?A0xc559f438@Imf@@PAU123@00Urandom_access_iterator_tag@0@U_Undefined_move_tag@0@U_Range_checked_iterator_tag@0@@Z 10051880 f i ImfTiledOutputFile.obj
 0001:000508a0       ??$_Uninit_move@PAUTOutSliceInfo@?A0xc559f438@Imf@@PAU123@V?$allocator@UTOutSliceInfo@?A0xc559f438@Imf@@@std@@U_Undefined_move_tag@5@@std@@YAPAUTOutSliceInfo@?A0xc559f438@Imf@@PAU123@00AAV?$allocator@UTOutSliceInfo@?A0xc559f438@Imf@@@0@U_Undefined_move_tag@0@U_Range_checked_iterator_tag@0@@Z 100518a0 f i ImfTiledOutputFile.obj
 0001:000508c0       ??$_Uninit_move@PAPAUTileBuffer@?A0xc559f438@Imf@@PAPAU123@V?$allocator@PAUTileBuffer@?A0xc559f438@Imf@@@std@@U_Undefined_move_tag@5@@std@@YAPAPAUTileBuffer@?A0xc559f438@Imf@@PAPAU123@00AAV?$allocator@PAUTileBuffer@?A0xc559f438@Imf@@@0@U_Undefined_move_tag@0@U_Range_checked_iterator_tag@0@@Z 100518c0 f i ImfTiledOutputFile.obj
 0001:000508f0       ??$unchecked_fill_n@PAPAUTileBuffer@?A0xc559f438@Imf@@IPAU123@@stdext@@YAXPAPAUTileBuffer@?A0xc559f438@Imf@@IABQAU123@@Z 100518f0 f i ImfTiledOutputFile.obj
 0001:00050920       ??0?$vector@UTOutSliceInfo@?A0xc559f438@Imf@@V?$allocator@UTOutSliceInfo@?A0xc559f438@Imf@@@std@@@std@@QAE@XZ 10051920 f i ImfTiledOutputFile.obj
 0001:00050930       ??0?$vector@PAUTileBuffer@?A0xc559f438@Imf@@V?$allocator@PAUTileBuffer@?A0xc559f438@Imf@@@std@@@std@@QAE@XZ 10051930 f i ImfTiledOutputFile.obj
 0001:00050940       ?begin@?$_Tree@V?$_Tmap_traits@UTileCoord@?A0xc559f438@Imf@@PAUBufferedTile@23@U?$less@UTileCoord@?A0xc559f438@Imf@@@std@@V?$allocator@U?$pair@$$CBUTileCoord@?A0xc559f438@Imf@@PAUBufferedTile@23@@std@@@6@$0A@@std@@@std@@QAE?AViterator@12@XZ 10051940 f i ImfTiledOutputFile.obj
 0001:00050960       ?end@?$_Tree@V?$_Tmap_traits@UTileCoord@?A0xc559f438@Imf@@PAUBufferedTile@23@U?$less@UTileCoord@?A0xc559f438@Imf@@@std@@V?$allocator@U?$pair@$$CBUTileCoord@?A0xc559f438@Imf@@PAUBufferedTile@23@@std@@@6@$0A@@std@@@std@@QAE?AViterator@12@XZ 10051960 f i ImfTiledOutputFile.obj
 0001:00050970       ?erase@?$_Tree@V?$_Tmap_traits@UTileCoord@?A0xc559f438@Imf@@PAUBufferedTile@23@U?$less@UTileCoord@?A0xc559f438@Imf@@@std@@V?$allocator@U?$pair@$$CBUTileCoord@?A0xc559f438@Imf@@PAUBufferedTile@23@@std@@@6@$0A@@std@@@std@@QAE?AViterator@12@V312@@Z 10051970 f i ImfTiledOutputFile.obj
 0001:00050c30       ?end@?$vector@UTOutSliceInfo@?A0xc559f438@Imf@@V?$allocator@UTOutSliceInfo@?A0xc559f438@Imf@@@std@@@std@@QAE?AV?$_Vector_iterator@UTOutSliceInfo@?A0xc559f438@Imf@@V?$allocator@UTOutSliceInfo@?A0xc559f438@Imf@@@std@@@2@XZ 10051c30 f i ImfTiledOutputFile.obj
 0001:00050c60       ?_Tidy@?$vector@PAUTileBuffer@?A0xc559f438@Imf@@V?$allocator@PAUTileBuffer@?A0xc559f438@Imf@@@std@@@std@@IAEXXZ 10051c60 f i ImfTiledOutputFile.obj
 0001:00050c90       ?lower_bound@?$_Tree@V?$_Tmap_traits@UTileCoord@?A0xc559f438@Imf@@PAUBufferedTile@23@U?$less@UTileCoord@?A0xc559f438@Imf@@@std@@V?$allocator@U?$pair@$$CBUTileCoord@?A0xc559f438@Imf@@PAUBufferedTile@23@@std@@@6@$0A@@std@@@std@@QAE?AViterator@12@ABUTileCoord@?A0xc559f438@Imf@@@Z 10051c90 f i ImfTiledOutputFile.obj
 0001:00050cc0       ?begin@?$vector@UTOutSliceInfo@?A0xc559f438@Imf@@V?$allocator@UTOutSliceInfo@?A0xc559f438@Imf@@@std@@@std@@QAE?AV?$_Vector_iterator@UTOutSliceInfo@?A0xc559f438@Imf@@V?$allocator@UTOutSliceInfo@?A0xc559f438@Imf@@@std@@@2@XZ 10051cc0 f i ImfTiledOutputFile.obj
 0001:00050cf0       ?begin@?$vector@PAUTileBuffer@?A0xc559f438@Imf@@V?$allocator@PAUTileBuffer@?A0xc559f438@Imf@@@std@@@std@@QAE?AV?$_Vector_iterator@PAUTileBuffer@?A0xc559f438@Imf@@V?$allocator@PAUTileBuffer@?A0xc559f438@Imf@@@std@@@2@XZ 10051cf0 f i ImfTiledOutputFile.obj
 0001:00050d20       ?end@?$vector@PAUTileBuffer@?A0xc559f438@Imf@@V?$allocator@PAUTileBuffer@?A0xc559f438@Imf@@@std@@@std@@QAE?AV?$_Vector_iterator@PAUTileBuffer@?A0xc559f438@Imf@@V?$allocator@PAUTileBuffer@?A0xc559f438@Imf@@@std@@@2@XZ 10051d20 f i ImfTiledOutputFile.obj
 0001:00050d50       ?erase@?$vector@PAUTileBuffer@?A0xc559f438@Imf@@V?$allocator@PAUTileBuffer@?A0xc559f438@Imf@@@std@@@std@@QAE?AV?$_Vector_iterator@PAUTileBuffer@?A0xc559f438@Imf@@V?$allocator@PAUTileBuffer@?A0xc559f438@Imf@@@std@@@2@V32@0@Z 10051d50 f i ImfTiledOutputFile.obj
 0001:00050db0       ?erase@?$_Tree@V?$_Tmap_traits@UTileCoord@?A0xc559f438@Imf@@PAUBufferedTile@23@U?$less@UTileCoord@?A0xc559f438@Imf@@@std@@V?$allocator@U?$pair@$$CBUTileCoord@?A0xc559f438@Imf@@PAUBufferedTile@23@@std@@@6@$0A@@std@@@std@@QAE?AViterator@12@V312@0@Z 10051db0 f i ImfTiledOutputFile.obj
 0001:00050e80       ?_Init@?$_Tree@V?$_Tmap_traits@UTileCoord@?A0xc559f438@Imf@@PAUBufferedTile@23@U?$less@UTileCoord@?A0xc559f438@Imf@@@std@@V?$allocator@U?$pair@$$CBUTileCoord@?A0xc559f438@Imf@@PAUBufferedTile@23@@std@@@6@$0A@@std@@@std@@IAEXXZ 10051e80 f i ImfTiledOutputFile.obj
 0001:00050eb0       ?_Insert@?$_Tree@V?$_Tmap_traits@UTileCoord@?A0xc559f438@Imf@@PAUBufferedTile@23@U?$less@UTileCoord@?A0xc559f438@Imf@@@std@@V?$allocator@U?$pair@$$CBUTileCoord@?A0xc559f438@Imf@@PAUBufferedTile@23@@std@@@6@$0A@@std@@@std@@IAE?AViterator@12@_NPAU_Node@?$_Tree_nod@V?$_Tmap_traits@UTileCoord@?A0xc559f438@Imf@@PAUBufferedTile@23@U?$less@UTileCoord@?A0xc559f438@Imf@@@std@@V?$allocator@U?$pair@$$CBUTileCoord@?A0xc559f438@Imf@@PAUBufferedTile@23@@std@@@6@$0A@@std@@@2@ABU?$pair@$$CBUTileCoord@?A0xc559f438@Imf@@PAUBufferedTile@23@@2@@Z 10051eb0 f i ImfTiledOutputFile.obj
 0001:000510b0       ??0?$_Tree_val@V?$_Tmap_traits@UTileCoord@?A0xc559f438@Imf@@PAUBufferedTile@23@U?$less@UTileCoord@?A0xc559f438@Imf@@@std@@V?$allocator@U?$pair@$$CBUTileCoord@?A0xc559f438@Imf@@PAUBufferedTile@23@@std@@@6@$0A@@std@@@std@@IAE@ABU?$less@UTileCoord@?A0xc559f438@Imf@@@1@V?$allocator@U?$pair@$$CBUTileCoord@?A0xc559f438@Imf@@PAUBufferedTile@23@@std@@@1@@Z 100520b0 f i ImfTiledOutputFile.obj
 0001:000510c0       ??$_Ucopy@PAUTOutSliceInfo@?A0xc559f438@Imf@@@?$vector@UTOutSliceInfo@?A0xc559f438@Imf@@V?$allocator@UTOutSliceInfo@?A0xc559f438@Imf@@@std@@@std@@IAEPAUTOutSliceInfo@?A0xc559f438@Imf@@PAU234@00@Z 100520c0 f i ImfTiledOutputFile.obj
 0001:000510f0       ??$_Destroy_range@UTOutSliceInfo@?A0xc559f438@Imf@@V?$allocator@UTOutSliceInfo@?A0xc559f438@Imf@@@std@@@std@@YAXPAUTOutSliceInfo@?A0xc559f438@Imf@@0AAV?$allocator@UTOutSliceInfo@?A0xc559f438@Imf@@@0@@Z 100520f0 f i ImfTiledOutputFile.obj
 0001:00051100       ??$unchecked_uninitialized_fill_n@PAUTOutSliceInfo@?A0xc559f438@Imf@@IU123@V?$allocator@UTOutSliceInfo@?A0xc559f438@Imf@@@std@@@stdext@@YAXPAUTOutSliceInfo@?A0xc559f438@Imf@@IABU123@AAV?$allocator@UTOutSliceInfo@?A0xc559f438@Imf@@@std@@@Z 10052100 f i ImfTiledOutputFile.obj
 0001:00051130       ??$_Unchecked_move_backward@PAUTOutSliceInfo@?A0xc559f438@Imf@@PAU123@@stdext@@YAPAUTOutSliceInfo@?A0xc559f438@Imf@@PAU123@00@Z 10052130 f i ImfTiledOutputFile.obj
 0001:00051160       ??$_Unchecked_uninitialized_move@PAUTOutSliceInfo@?A0xc559f438@Imf@@PAU123@V?$allocator@UTOutSliceInfo@?A0xc559f438@Imf@@@std@@@stdext@@YAPAUTOutSliceInfo@?A0xc559f438@Imf@@PAU123@00AAV?$allocator@UTOutSliceInfo@?A0xc559f438@Imf@@@std@@@Z 10052160 f i ImfTiledOutputFile.obj
 0001:00051190       ??$_Unchecked_uninitialized_move@PAPAUTileBuffer@?A0xc559f438@Imf@@PAPAU123@V?$allocator@PAUTileBuffer@?A0xc559f438@Imf@@@std@@@stdext@@YAPAPAUTileBuffer@?A0xc559f438@Imf@@PAPAU123@00AAV?$allocator@PAUTileBuffer@?A0xc559f438@Imf@@@std@@@Z 10052190 f i ImfTiledOutputFile.obj
 0001:000511c0       ??$_Uninit_fill_n@PAPAUTileBuffer@?A0xc559f438@Imf@@IPAU123@V?$allocator@PAUTileBuffer@?A0xc559f438@Imf@@@std@@@std@@YAXPAPAUTileBuffer@?A0xc559f438@Imf@@IABQAU123@AAV?$allocator@PAUTileBuffer@?A0xc559f438@Imf@@@0@U_Scalar_ptr_iterator_tag@0@U_Range_checked_iterator_tag@0@@Z 100521c0 f i ImfTiledOutputFile.obj
 0001:000511f0       ??1?$vector@PAUTileBuffer@?A0xc559f438@Imf@@V?$allocator@PAUTileBuffer@?A0xc559f438@Imf@@@std@@@std@@QAE@XZ 100521f0 f i ImfTiledOutputFile.obj
 0001:00051220       ?find@?$_Tree@V?$_Tmap_traits@UTileCoord@?A0xc559f438@Imf@@PAUBufferedTile@23@U?$less@UTileCoord@?A0xc559f438@Imf@@@std@@V?$allocator@U?$pair@$$CBUTileCoord@?A0xc559f438@Imf@@PAUBufferedTile@23@@std@@@6@$0A@@std@@@std@@QAE?AViterator@12@ABUTileCoord@?A0xc559f438@Imf@@@Z 10052220 f i ImfTiledOutputFile.obj
 0001:00051290       ?_Destroy@?$vector@UTOutSliceInfo@?A0xc559f438@Imf@@V?$allocator@UTOutSliceInfo@?A0xc559f438@Imf@@@std@@@std@@IAEXPAUTOutSliceInfo@?A0xc559f438@Imf@@0@Z 10052290 f i ImfTiledOutputFile.obj
 0001:000512a0       ?_Tidy@?$vector@UTOutSliceInfo@?A0xc559f438@Imf@@V?$allocator@UTOutSliceInfo@?A0xc559f438@Imf@@@std@@@std@@IAEXXZ 100522a0 f i ImfTiledOutputFile.obj
 0001:000512d0       ?_Ufill@?$vector@UTOutSliceInfo@?A0xc559f438@Imf@@V?$allocator@UTOutSliceInfo@?A0xc559f438@Imf@@@std@@@std@@IAEPAUTOutSliceInfo@?A0xc559f438@Imf@@PAU345@IABU345@@Z 100522d0 f i ImfTiledOutputFile.obj
 0001:00051310       ??0?$_Tree@V?$_Tmap_traits@UTileCoord@?A0xc559f438@Imf@@PAUBufferedTile@23@U?$less@UTileCoord@?A0xc559f438@Imf@@@std@@V?$allocator@U?$pair@$$CBUTileCoord@?A0xc559f438@Imf@@PAUBufferedTile@23@@std@@@6@$0A@@std@@@std@@QAE@ABU?$less@UTileCoord@?A0xc559f438@Imf@@@1@ABV?$allocator@U?$pair@$$CBUTileCoord@?A0xc559f438@Imf@@PAUBufferedTile@23@@std@@@1@@Z 10052310 f i ImfTiledOutputFile.obj
 0001:00051340       ?_Tidy@?$_Tree@V?$_Tmap_traits@UTileCoord@?A0xc559f438@Imf@@PAUBufferedTile@23@U?$less@UTileCoord@?A0xc559f438@Imf@@@std@@V?$allocator@U?$pair@$$CBUTileCoord@?A0xc559f438@Imf@@PAUBufferedTile@23@@std@@@6@$0A@@std@@@std@@IAEXXZ 10052340 f i ImfTiledOutputFile.obj
 0001:00051380       ?erase@?$vector@UTOutSliceInfo@?A0xc559f438@Imf@@V?$allocator@UTOutSliceInfo@?A0xc559f438@Imf@@@std@@@std@@QAE?AV?$_Vector_iterator@UTOutSliceInfo@?A0xc559f438@Imf@@V?$allocator@UTOutSliceInfo@?A0xc559f438@Imf@@@std@@@2@V32@0@Z 10052380 f i ImfTiledOutputFile.obj
 0001:000513e0       ?insert@?$_Tree@V?$_Tmap_traits@UTileCoord@?A0xc559f438@Imf@@PAUBufferedTile@23@U?$less@UTileCoord@?A0xc559f438@Imf@@@std@@V?$allocator@U?$pair@$$CBUTileCoord@?A0xc559f438@Imf@@PAUBufferedTile@23@@std@@@6@$0A@@std@@@std@@QAE?AU?$pair@Viterator@?$_Tree@V?$_Tmap_traits@UTileCoord@?A0xc559f438@Imf@@PAUBufferedTile@23@U?$less@UTileCoord@?A0xc559f438@Imf@@@std@@V?$allocator@U?$pair@$$CBUTileCoord@?A0xc559f438@Imf@@PAUBufferedTile@23@@std@@@6@$0A@@std@@@std@@_N@2@ABU?$pair@$$CBUTileCoord@?A0xc559f438@Imf@@PAUBufferedTile@23@@2@@Z 100523e0 f i ImfTiledOutputFile.obj
 0001:000514e0       ??$_Umove@PAUTOutSliceInfo@?A0xc559f438@Imf@@@?$vector@UTOutSliceInfo@?A0xc559f438@Imf@@V?$allocator@UTOutSliceInfo@?A0xc559f438@Imf@@@std@@@std@@IAEPAUTOutSliceInfo@?A0xc559f438@Imf@@PAU234@00@Z 100524e0 f i ImfTiledOutputFile.obj
 0001:00051510       ??$_Umove@PAPAUTileBuffer@?A0xc559f438@Imf@@@?$vector@PAUTileBuffer@?A0xc559f438@Imf@@V?$allocator@PAUTileBuffer@?A0xc559f438@Imf@@@std@@@std@@IAEPAPAUTileBuffer@?A0xc559f438@Imf@@PAPAU234@00@Z 10052510 f i ImfTiledOutputFile.obj
 0001:00051550       ??$unchecked_uninitialized_fill_n@PAPAUTileBuffer@?A0xc559f438@Imf@@IPAU123@V?$allocator@PAUTileBuffer@?A0xc559f438@Imf@@@std@@@stdext@@YAXPAPAUTileBuffer@?A0xc559f438@Imf@@IABQAU123@AAV?$allocator@PAUTileBuffer@?A0xc559f438@Imf@@@std@@@Z 10052550 f i ImfTiledOutputFile.obj
 0001:00051580       ??1?$vector@UTOutSliceInfo@?A0xc559f438@Imf@@V?$allocator@UTOutSliceInfo@?A0xc559f438@Imf@@@std@@@std@@QAE@XZ 10052580 f i ImfTiledOutputFile.obj
 0001:000515b0       ??1?$_Tree@V?$_Tmap_traits@UTileCoord@?A0xc559f438@Imf@@PAUBufferedTile@23@U?$less@UTileCoord@?A0xc559f438@Imf@@@std@@V?$allocator@U?$pair@$$CBUTileCoord@?A0xc559f438@Imf@@PAUBufferedTile@23@@std@@@6@$0A@@std@@@std@@QAE@XZ 100525b0 f i ImfTiledOutputFile.obj
 0001:000515f0       ?clear@?$vector@UTOutSliceInfo@?A0xc559f438@Imf@@V?$allocator@UTOutSliceInfo@?A0xc559f438@Imf@@@std@@@std@@QAEXXZ 100525f0 f i ImfTiledOutputFile.obj
 0001:00051630       ?insert@?$_Tree@V?$_Tmap_traits@UTileCoord@?A0xc559f438@Imf@@PAUBufferedTile@23@U?$less@UTileCoord@?A0xc559f438@Imf@@@std@@V?$allocator@U?$pair@$$CBUTileCoord@?A0xc559f438@Imf@@PAUBufferedTile@23@@std@@@6@$0A@@std@@@std@@QAE?AViterator@12@V312@ABU?$pair@$$CBUTileCoord@?A0xc559f438@Imf@@PAUBufferedTile@23@@2@@Z 10052630 f i ImfTiledOutputFile.obj
 0001:00051830       ?_Insert_n@?$vector@UTOutSliceInfo@?A0xc559f438@Imf@@V?$allocator@UTOutSliceInfo@?A0xc559f438@Imf@@@std@@@std@@IAEXV?$_Vector_iterator@UTOutSliceInfo@?A0xc559f438@Imf@@V?$allocator@UTOutSliceInfo@?A0xc559f438@Imf@@@std@@@2@IABUTOutSliceInfo@?A0xc559f438@Imf@@@Z 10052830 f i ImfTiledOutputFile.obj
 0001:00051b00       ?_Ufill@?$vector@PAUTileBuffer@?A0xc559f438@Imf@@V?$allocator@PAUTileBuffer@?A0xc559f438@Imf@@@std@@@std@@IAEPAPAUTileBuffer@?A0xc559f438@Imf@@PAPAU345@IABQAU345@@Z 10052b00 f i ImfTiledOutputFile.obj
 0001:00051b30       ??1?$map@UTileCoord@?A0xc559f438@Imf@@PAUBufferedTile@23@U?$less@UTileCoord@?A0xc559f438@Imf@@@std@@V?$allocator@U?$pair@$$CBUTileCoord@?A0xc559f438@Imf@@PAUBufferedTile@23@@std@@@6@@std@@QAE@XZ 10052b30 f i ImfTiledOutputFile.obj
 0001:00051b70       ??4?$vector@UTOutSliceInfo@?A0xc559f438@Imf@@V?$allocator@UTOutSliceInfo@?A0xc559f438@Imf@@@std@@@std@@QAEAAV01@ABV01@@Z 10052b70 f i ImfTiledOutputFile.obj
 0001:00051d00       ??0?$map@UTileCoord@?A0xc559f438@Imf@@PAUBufferedTile@23@U?$less@UTileCoord@?A0xc559f438@Imf@@@std@@V?$allocator@U?$pair@$$CBUTileCoord@?A0xc559f438@Imf@@PAUBufferedTile@23@@std@@@6@@std@@QAE@XZ 10052d00 f i ImfTiledOutputFile.obj
 0001:00051d30       ??A?$map@UTileCoord@?A0xc559f438@Imf@@PAUBufferedTile@23@U?$less@UTileCoord@?A0xc559f438@Imf@@@std@@V?$allocator@U?$pair@$$CBUTileCoord@?A0xc559f438@Imf@@PAUBufferedTile@23@@std@@@6@@std@@QAEAAPAUBufferedTile@?A0xc559f438@Imf@@ABUTileCoord@34@@Z 10052d30 f i ImfTiledOutputFile.obj
 0001:00051dc0       ?insert@?$vector@UTOutSliceInfo@?A0xc559f438@Imf@@V?$allocator@UTOutSliceInfo@?A0xc559f438@Imf@@@std@@@std@@QAE?AV?$_Vector_iterator@UTOutSliceInfo@?A0xc559f438@Imf@@V?$allocator@UTOutSliceInfo@?A0xc559f438@Imf@@@std@@@2@V32@ABUTOutSliceInfo@?A0xc559f438@Imf@@@Z 10052dc0 f i ImfTiledOutputFile.obj
 0001:00051e80       ?_Insert_n@?$vector@PAUTileBuffer@?A0xc559f438@Imf@@V?$allocator@PAUTileBuffer@?A0xc559f438@Imf@@@std@@@std@@IAEXV?$_Vector_iterator@PAUTileBuffer@?A0xc559f438@Imf@@V?$allocator@PAUTileBuffer@?A0xc559f438@Imf@@@std@@@2@IABQAUTileBuffer@?A0xc559f438@Imf@@@Z 10052e80 f i ImfTiledOutputFile.obj
 0001:00052040       ?push_back@?$vector@UTOutSliceInfo@?A0xc559f438@Imf@@V?$allocator@UTOutSliceInfo@?A0xc559f438@Imf@@@std@@@std@@QAEXABUTOutSliceInfo@?A0xc559f438@Imf@@@Z 10053040 f i ImfTiledOutputFile.obj
 0001:000520f0       ?resize@?$vector@PAUTileBuffer@?A0xc559f438@Imf@@V?$allocator@PAUTileBuffer@?A0xc559f438@Imf@@@std@@@std@@QAEXIPAUTileBuffer@?A0xc559f438@Imf@@@Z 100530f0 f i ImfTiledOutputFile.obj
 0001:000521b0       ?resize@?$vector@PAUTileBuffer@?A0xc559f438@Imf@@V?$allocator@PAUTileBuffer@?A0xc559f438@Imf@@@std@@@std@@QAEXI@Z 100531b0 f i ImfTiledOutputFile.obj
 0001:000521c0       ??_EData@TiledOutputFile@Imf@@UAEPAXI@Z 100531c0 f i ImfTiledOutputFile.obj
 0001:000521c0       ??_GData@TiledOutputFile@Imf@@UAEPAXI@Z 100531c0 f i ImfTiledOutputFile.obj
 0001:000521e0       ??4half@@QAEAAV0@V0@@Z     100531e0 f i ImfTiledRgbaFile.obj
 0001:000521f0       ??4half@@QAEAAV0@M@Z       100531f0 f i ImfTiledRgbaFile.obj
 0001:00052210       ??0Rgba@Imf@@QAE@XZ        10053210 f i ImfTiledRgbaFile.obj
 0001:00052220       ??4Rgba@Imf@@QAEAAU01@ABU01@@Z 10053220 f i ImfTiledRgbaFile.obj
 0001:00052250       ?rgbaChannels@?A0xc07b59fb@Imf@@YA?AW4RgbaChannels@2@ABVChannelList@2@@Z 10053250 f   ImfTiledRgbaFile.obj
 0001:000522c0       ?setFrameBuffer@ToYa@TiledRgbaOutputFile@Imf@@QAEXPBURgba@3@II@Z 100532c0 f   ImfTiledRgbaFile.obj
 0001:000522e0       ??1TiledRgbaOutputFile@Imf@@UAE@XZ 100532e0 f   ImfTiledRgbaFile.obj
 0001:00052310       ?header@TiledRgbaOutputFile@Imf@@QBEABVHeader@2@XZ 10053310 f   ImfTiledRgbaFile.obj
 0001:00052320       ?frameBuffer@TiledRgbaOutputFile@Imf@@QBEABVFrameBuffer@2@XZ 10053320 f   ImfTiledRgbaFile.obj
 0001:00052330       ?displayWindow@TiledRgbaOutputFile@Imf@@QBEABV?$Box@V?$Vec2@H@Imath@@@Imath@@XZ 10053330 f   ImfTiledRgbaFile.obj
 0001:00052340       ?dataWindow@TiledRgbaOutputFile@Imf@@QBEABV?$Box@V?$Vec2@H@Imath@@@Imath@@XZ 10053340 f   ImfTiledRgbaFile.obj
 0001:00052350       ?pixelAspectRatio@TiledRgbaOutputFile@Imf@@QBEMXZ 10053350 f   ImfTiledRgbaFile.obj
 0001:00052370       ?screenWindowWidth@TiledRgbaOutputFile@Imf@@QBEMXZ 10053370 f   ImfTiledRgbaFile.obj
 0001:00052390       ?lineOrder@TiledRgbaOutputFile@Imf@@QBE?AW4LineOrder@2@XZ 10053390 f   ImfTiledRgbaFile.obj
 0001:000523b0       ?compression@TiledRgbaOutputFile@Imf@@QBE?AW4Compression@2@XZ 100533b0 f   ImfTiledRgbaFile.obj
 0001:000523d0       ?channels@TiledRgbaOutputFile@Imf@@QBE?AW4RgbaChannels@2@XZ 100533d0 f   ImfTiledRgbaFile.obj
 0001:000523f0       ?tileXSize@TiledRgbaOutputFile@Imf@@QBEIXZ 100533f0 f   ImfTiledRgbaFile.obj
 0001:00052400       ?tileYSize@TiledRgbaOutputFile@Imf@@QBEIXZ 10053400 f   ImfTiledRgbaFile.obj
 0001:00052410       ?levelMode@TiledRgbaOutputFile@Imf@@QBE?AW4LevelMode@2@XZ 10053410 f   ImfTiledRgbaFile.obj
 0001:00052420       ?levelRoundingMode@TiledRgbaOutputFile@Imf@@QBE?AW4LevelRoundingMode@2@XZ 10053420 f   ImfTiledRgbaFile.obj
 0001:00052430       ?numLevels@TiledRgbaOutputFile@Imf@@QBEHXZ 10053430 f   ImfTiledRgbaFile.obj
 0001:00052440       ?numXLevels@TiledRgbaOutputFile@Imf@@QBEHXZ 10053440 f   ImfTiledRgbaFile.obj
 0001:00052450       ?numYLevels@TiledRgbaOutputFile@Imf@@QBEHXZ 10053450 f   ImfTiledRgbaFile.obj
 0001:00052460       ?isValidLevel@TiledRgbaOutputFile@Imf@@QBE_NHH@Z 10053460 f   ImfTiledRgbaFile.obj
 0001:00052470       ?levelWidth@TiledRgbaOutputFile@Imf@@QBEHH@Z 10053470 f   ImfTiledRgbaFile.obj
 0001:00052480       ?levelHeight@TiledRgbaOutputFile@Imf@@QBEHH@Z 10053480 f   ImfTiledRgbaFile.obj
 0001:00052490       ?numXTiles@TiledRgbaOutputFile@Imf@@QBEHH@Z 10053490 f   ImfTiledRgbaFile.obj
 0001:000524a0       ?numYTiles@TiledRgbaOutputFile@Imf@@QBEHH@Z 100534a0 f   ImfTiledRgbaFile.obj
 0001:000524b0       ?dataWindowForLevel@TiledRgbaOutputFile@Imf@@QBE?AV?$Box@V?$Vec2@H@Imath@@@Imath@@H@Z 100534b0 f   ImfTiledRgbaFile.obj
 0001:000524d0       ?dataWindowForLevel@TiledRgbaOutputFile@Imf@@QBE?AV?$Box@V?$Vec2@H@Imath@@@Imath@@HH@Z 100534d0 f   ImfTiledRgbaFile.obj
 0001:000524f0       ?dataWindowForTile@TiledRgbaOutputFile@Imf@@QBE?AV?$Box@V?$Vec2@H@Imath@@@Imath@@HHH@Z 100534f0 f   ImfTiledRgbaFile.obj
 0001:00052520       ?dataWindowForTile@TiledRgbaOutputFile@Imf@@QBE?AV?$Box@V?$Vec2@H@Imath@@@Imath@@HHHH@Z 10053520 f   ImfTiledRgbaFile.obj
 0001:00052550       ?setFrameBuffer@FromYa@TiledRgbaInputFile@Imf@@QAEXPAURgba@3@II@Z 10053550 f   ImfTiledRgbaFile.obj
 0001:00052570       ??1TiledRgbaInputFile@Imf@@UAE@XZ 10053570 f   ImfTiledRgbaFile.obj
 0001:000525a0       ?header@TiledRgbaInputFile@Imf@@QBEABVHeader@2@XZ 100535a0 f   ImfTiledRgbaFile.obj
 0001:000525b0       ?fileName@TiledRgbaInputFile@Imf@@QBEPBDXZ 100535b0 f   ImfTiledRgbaFile.obj
 0001:000525c0       ?frameBuffer@TiledRgbaInputFile@Imf@@QBEABVFrameBuffer@2@XZ 100535c0 f   ImfTiledRgbaFile.obj
 0001:000525d0       ?displayWindow@TiledRgbaInputFile@Imf@@QBEABV?$Box@V?$Vec2@H@Imath@@@Imath@@XZ 100535d0 f   ImfTiledRgbaFile.obj
 0001:000525e0       ?dataWindow@TiledRgbaInputFile@Imf@@QBEABV?$Box@V?$Vec2@H@Imath@@@Imath@@XZ 100535e0 f   ImfTiledRgbaFile.obj
 0001:000525f0       ?pixelAspectRatio@TiledRgbaInputFile@Imf@@QBEMXZ 100535f0 f   ImfTiledRgbaFile.obj
 0001:00052610       ?screenWindowWidth@TiledRgbaInputFile@Imf@@QBEMXZ 10053610 f   ImfTiledRgbaFile.obj
 0001:00052630       ?lineOrder@TiledRgbaInputFile@Imf@@QBE?AW4LineOrder@2@XZ 10053630 f   ImfTiledRgbaFile.obj
 0001:00052650       ?compression@TiledRgbaInputFile@Imf@@QBE?AW4Compression@2@XZ 10053650 f   ImfTiledRgbaFile.obj
 0001:00052670       ?channels@TiledRgbaInputFile@Imf@@QBE?AW4RgbaChannels@2@XZ 10053670 f   ImfTiledRgbaFile.obj
 0001:00052690       ?version@TiledRgbaInputFile@Imf@@QBEHXZ 10053690 f   ImfTiledRgbaFile.obj
 0001:000526a0       ?isComplete@TiledRgbaInputFile@Imf@@QBE_NXZ 100536a0 f   ImfTiledRgbaFile.obj
 0001:000526b0       ?tileXSize@TiledRgbaInputFile@Imf@@QBEIXZ 100536b0 f   ImfTiledRgbaFile.obj
 0001:000526c0       ?tileYSize@TiledRgbaInputFile@Imf@@QBEIXZ 100536c0 f   ImfTiledRgbaFile.obj
 0001:000526d0       ?levelMode@TiledRgbaInputFile@Imf@@QBE?AW4LevelMode@2@XZ 100536d0 f   ImfTiledRgbaFile.obj
 0001:000526e0       ?levelRoundingMode@TiledRgbaInputFile@Imf@@QBE?AW4LevelRoundingMode@2@XZ 100536e0 f   ImfTiledRgbaFile.obj
 0001:000526f0       ?numLevels@TiledRgbaInputFile@Imf@@QBEHXZ 100536f0 f   ImfTiledRgbaFile.obj
 0001:00052700       ?numXLevels@TiledRgbaInputFile@Imf@@QBEHXZ 10053700 f   ImfTiledRgbaFile.obj
 0001:00052710       ?numYLevels@TiledRgbaInputFile@Imf@@QBEHXZ 10053710 f   ImfTiledRgbaFile.obj
 0001:00052720       ?isValidLevel@TiledRgbaInputFile@Imf@@QBE_NHH@Z 10053720 f   ImfTiledRgbaFile.obj
 0001:00052730       ?levelWidth@TiledRgbaInputFile@Imf@@QBEHH@Z 10053730 f   ImfTiledRgbaFile.obj
 0001:00052740       ?levelHeight@TiledRgbaInputFile@Imf@@QBEHH@Z 10053740 f   ImfTiledRgbaFile.obj
 0001:00052750       ?numXTiles@TiledRgbaInputFile@Imf@@QBEHH@Z 10053750 f   ImfTiledRgbaFile.obj
 0001:00052760       ?numYTiles@TiledRgbaInputFile@Imf@@QBEHH@Z 10053760 f   ImfTiledRgbaFile.obj
 0001:00052770       ?dataWindowForLevel@TiledRgbaInputFile@Imf@@QBE?AV?$Box@V?$Vec2@H@Imath@@@Imath@@H@Z 10053770 f   ImfTiledRgbaFile.obj
 0001:00052790       ?dataWindowForLevel@TiledRgbaInputFile@Imf@@QBE?AV?$Box@V?$Vec2@H@Imath@@@Imath@@HH@Z 10053790 f   ImfTiledRgbaFile.obj
 0001:000527b0       ?dataWindowForTile@TiledRgbaInputFile@Imf@@QBE?AV?$Box@V?$Vec2@H@Imath@@@Imath@@HHH@Z 100537b0 f   ImfTiledRgbaFile.obj
 0001:000527e0       ?dataWindowForTile@TiledRgbaInputFile@Imf@@QBE?AV?$Box@V?$Vec2@H@Imath@@@Imath@@HHHH@Z 100537e0 f   ImfTiledRgbaFile.obj
 0001:00052810       ?updatePreviewImage@TiledRgbaOutputFile@Imf@@QAEXQBUPreviewRgba@2@@Z 10053810 f   ImfTiledRgbaFile.obj
 0001:00052820       ?breakTile@TiledRgbaOutputFile@Imf@@QAEXHHHHHHD@Z 10053820 f   ImfTiledRgbaFile.obj
 0001:00052830       ?screenWindowCenter@TiledRgbaOutputFile@Imf@@QBE?BV?$Vec2@M@Imath@@XZ 10053830 f   ImfTiledRgbaFile.obj
 0001:00052860       ?screenWindowCenter@TiledRgbaInputFile@Imf@@QBE?BV?$Vec2@M@Imath@@XZ 10053860 f   ImfTiledRgbaFile.obj
 0001:00052890       ?ywFromHeader@?A0xc07b59fb@Imf@@YA?AV?$Vec3@M@Imath@@ABVHeader@2@@Z 10053890 f   ImfTiledRgbaFile.obj
 0001:00052970       ??0ToYa@TiledRgbaOutputFile@Imf@@QAE@AAVTiledOutputFile@2@W4RgbaChannels@2@@Z 10053970 f   ImfTiledRgbaFile.obj
 0001:00052a50       ??0FromYa@TiledRgbaInputFile@Imf@@QAE@AAVTiledInputFile@2@@Z 10053a50 f   ImfTiledRgbaFile.obj
 0001:00052b30       ??0TiledRgbaInputFile@Imf@@QAE@QBDH@Z 10053b30 f   ImfTiledRgbaFile.obj
 0001:00052bf0       ??0TiledRgbaInputFile@Imf@@QAE@AAVIStream@1@H@Z 10053bf0 f   ImfTiledRgbaFile.obj
 0001:00052cb0       ?insertChannels@?A0xc07b59fb@Imf@@YAXAAVHeader@2@W4RgbaChannels@2@QBD@Z 10053cb0 f   ImfTiledRgbaFile.obj
 0001:00052ec0       ??0TiledRgbaOutputFile@Imf@@QAE@QBDABVHeader@1@W4RgbaChannels@1@HHW4LevelMode@1@W4LevelRoundingMode@1@H@Z 10053ec0 f   ImfTiledRgbaFile.obj
 0001:00052fe0       ??0TiledRgbaOutputFile@Imf@@QAE@AAVOStream@1@ABVHeader@1@W4RgbaChannels@1@HHW4LevelMode@1@W4LevelRoundingMode@1@H@Z 10053fe0 f   ImfTiledRgbaFile.obj
 0001:00053100       ??0TiledRgbaOutputFile@Imf@@QAE@QBDHHW4LevelMode@1@W4LevelRoundingMode@1@ABV?$Box@V?$Vec2@H@Imath@@@Imath@@3W4RgbaChannels@1@MV?$Vec2@M@5@MW4LineOrder@1@W4Compression@1@H@Z 10054100 f   ImfTiledRgbaFile.obj
 0001:00053270       ??0TiledRgbaOutputFile@Imf@@QAE@QBDHHHHW4LevelMode@1@W4LevelRoundingMode@1@W4RgbaChannels@1@MV?$Vec2@M@Imath@@MW4LineOrder@1@W4Compression@1@H@Z 10054270 f   ImfTiledRgbaFile.obj
 0001:000533b0       ?setFrameBuffer@TiledRgbaOutputFile@Imf@@QAEXPBURgba@2@II@Z 100543b0 f   ImfTiledRgbaFile.obj
 0001:00053570       ?readTile@FromYa@TiledRgbaInputFile@Imf@@QAEXHHHH@Z 10054570 f   ImfTiledRgbaFile.obj
 0001:00053890       ?setFrameBuffer@TiledRgbaInputFile@Imf@@QAEXPAURgba@2@II@Z 10054890 f   ImfTiledRgbaFile.obj
 0001:00053a50       ?readTile@TiledRgbaInputFile@Imf@@QAEXHHH@Z 10054a50 f   ImfTiledRgbaFile.obj
 0001:00053af0       ?readTile@TiledRgbaInputFile@Imf@@QAEXHHHH@Z 10054af0 f   ImfTiledRgbaFile.obj
 0001:00053ba0       ?readTiles@TiledRgbaInputFile@Imf@@QAEXHHHHHH@Z 10054ba0 f   ImfTiledRgbaFile.obj
 0001:00053c90       ?readTiles@TiledRgbaInputFile@Imf@@QAEXHHHHH@Z 10054c90 f   ImfTiledRgbaFile.obj
 0001:00053cc0       ?writeTile@ToYa@TiledRgbaOutputFile@Imf@@QAEXHHHH@Z 10054cc0 f   ImfTiledRgbaFile.obj
 0001:00053fd0       ?writeTile@TiledRgbaOutputFile@Imf@@QAEXHHH@Z 10054fd0 f   ImfTiledRgbaFile.obj
 0001:00054070       ?writeTile@TiledRgbaOutputFile@Imf@@QAEXHHHH@Z 10055070 f   ImfTiledRgbaFile.obj
 0001:00054120       ?writeTiles@TiledRgbaOutputFile@Imf@@QAEXHHHHHH@Z 10055120 f   ImfTiledRgbaFile.obj
 0001:00054210       ?writeTiles@TiledRgbaOutputFile@Imf@@QAEXHHHHH@Z 10055210 f   ImfTiledRgbaFile.obj
 0001:00054240       ??0?$_Bidit@U?$pair@$$CBVName@Imf@@UChannel@2@@std@@HPBU12@ABU12@@std@@QAE@XZ 10055240 f i ImfTiledRgbaFile.obj
 0001:00054250       ??0?$allocator@U?$pair@$$CBVName@Imf@@UChannel@2@@std@@@std@@QAE@XZ 10055250 f i ImfTiledRgbaFile.obj
 0001:00054260       ?size@?$_Tree@V?$_Tmap_traits@VName@Imf@@UChannel@2@U?$less@VName@Imf@@@std@@V?$allocator@U?$pair@$$CBVName@Imf@@UChannel@2@@std@@@5@$0A@@std@@@std@@QBEIXZ 10055260 f i ImfTiledRgbaFile.obj
 0001:00054270       ?_Lmost@?$_Tree@V?$_Tmap_traits@VName@Imf@@UChannel@2@U?$less@VName@Imf@@@std@@V?$allocator@U?$pair@$$CBVName@Imf@@UChannel@2@@std@@@5@$0A@@std@@@std@@IBEAAPAU_Node@?$_Tree_nod@V?$_Tmap_traits@VName@Imf@@UChannel@2@U?$less@VName@Imf@@@std@@V?$allocator@U?$pair@$$CBVName@Imf@@UChannel@2@@std@@@5@$0A@@std@@@2@XZ 10055270 f i ImfTiledRgbaFile.obj
 0001:00054280       ?_Max@?$_Tree@V?$_Tmap_traits@VName@Imf@@UChannel@2@U?$less@VName@Imf@@@std@@V?$allocator@U?$pair@$$CBVName@Imf@@UChannel@2@@std@@@5@$0A@@std@@@std@@KAPAU_Node@?$_Tree_nod@V?$_Tmap_traits@VName@Imf@@UChannel@2@U?$less@VName@Imf@@@std@@V?$allocator@U?$pair@$$CBVName@Imf@@UChannel@2@@std@@@5@$0A@@std@@@2@PAU342@@Z 10055280 f i ImfTiledRgbaFile.obj
 0001:000542a0       ?_Rmost@?$_Tree@V?$_Tmap_traits@VName@Imf@@UChannel@2@U?$less@VName@Imf@@@std@@V?$allocator@U?$pair@$$CBVName@Imf@@UChannel@2@@std@@@5@$0A@@std@@@std@@IBEAAPAU_Node@?$_Tree_nod@V?$_Tmap_traits@VName@Imf@@UChannel@2@U?$less@VName@Imf@@@std@@V?$allocator@U?$pair@$$CBVName@Imf@@UChannel@2@@std@@@5@$0A@@std@@@2@XZ 100552a0 f i ImfTiledRgbaFile.obj
 0001:000542b0       ?_Root@?$_Tree@V?$_Tmap_traits@VName@Imf@@UChannel@2@U?$less@VName@Imf@@@std@@V?$allocator@U?$pair@$$CBVName@Imf@@UChannel@2@@std@@@5@$0A@@std@@@std@@IBEAAPAU_Node@?$_Tree_nod@V?$_Tmap_traits@VName@Imf@@UChannel@2@U?$less@VName@Imf@@@std@@V?$allocator@U?$pair@$$CBVName@Imf@@UChannel@2@@std@@@5@$0A@@std@@@2@XZ 100552b0 f i ImfTiledRgbaFile.obj
 0001:000542c0       ??0?$allocator@U?$pair@$$CBVName@Imf@@UChannel@2@@std@@@std@@QAE@ABV01@@Z 100552c0 f i ImfTiledRgbaFile.obj
 0001:000542d0       ?deallocate@?$allocator@U_Node@?$_Tree_nod@V?$_Tmap_traits@VName@Imf@@UChannel@2@U?$less@VName@Imf@@@std@@V?$allocator@U?$pair@$$CBVName@Imf@@UChannel@2@@std@@@5@$0A@@std@@@std@@@std@@QAEXPAU_Node@?$_Tree_nod@V?$_Tmap_traits@VName@Imf@@UChannel@2@U?$less@VName@Imf@@@std@@V?$allocator@U?$pair@$$CBVName@Imf@@UChannel@2@@std@@@5@$0A@@std@@@2@I@Z 100552d0 f i ImfTiledRgbaFile.obj
 0001:000542e0       ??9const_iterator@?$_Tree@V?$_Tmap_traits@VName@Imf@@UChannel@2@U?$less@VName@Imf@@@std@@V?$allocator@U?$pair@$$CBVName@Imf@@UChannel@2@@std@@@5@$0A@@std@@@std@@QBE_NABV012@@Z 100552e0 f i ImfTiledRgbaFile.obj
 0001:00054310       ?_Color@?$_Tree@V?$_Tmap_traits@VName@Imf@@UChannel@2@U?$less@VName@Imf@@@std@@V?$allocator@U?$pair@$$CBVName@Imf@@UChannel@2@@std@@@5@$0A@@std@@@std@@KAAADPAU_Node@?$_Tree_nod@V?$_Tmap_traits@VName@Imf@@UChannel@2@U?$less@VName@Imf@@@std@@V?$allocator@U?$pair@$$CBVName@Imf@@UChannel@2@@std@@@5@$0A@@std@@@2@@Z 10055310 f i ImfTiledRgbaFile.obj
 0001:00054320       ?_Mynode@const_iterator@?$_Tree@V?$_Tmap_traits@VName@Imf@@UChannel@2@U?$less@VName@Imf@@@std@@V?$allocator@U?$pair@$$CBVName@Imf@@UChannel@2@@std@@@5@$0A@@std@@@std@@QBEPAU_Node@?$_Tree_nod@V?$_Tmap_traits@VName@Imf@@UChannel@2@U?$less@VName@Imf@@@std@@V?$allocator@U?$pair@$$CBVName@Imf@@UChannel@2@@std@@@5@$0A@@std@@@3@XZ 10055320 f i ImfTiledRgbaFile.obj
 0001:00054330       ??0_Node@?$_Tree_nod@V?$_Tmap_traits@VName@Imf@@UChannel@2@U?$less@VName@Imf@@@std@@V?$allocator@U?$pair@$$CBVName@Imf@@UChannel@2@@std@@@5@$0A@@std@@@std@@QAE@PAU012@00ABU?$pair@$$CBVName@Imf@@UChannel@2@@2@D@Z 10055330 f i ImfTiledRgbaFile.obj
 0001:00054370       ??0?$_Tmap_traits@VName@Imf@@UChannel@2@U?$less@VName@Imf@@@std@@V?$allocator@U?$pair@$$CBVName@Imf@@UChannel@2@@std@@@5@$0A@@std@@QAE@U?$less@VName@Imf@@@1@@Z 10055370 f i ImfTiledRgbaFile.obj
 0001:00054380       ??0?$Vec3@M@Imath@@QAE@XZ  10055380 f i ImfTiledRgbaFile.obj
 0001:00054390       ??4?$Vec3@M@Imath@@QAEABV01@ABV01@@Z 10055390 f i ImfTiledRgbaFile.obj
 0001:000543b0       ??0?$Array2D@URgba@Imf@@@Imf@@QAE@XZ 100553b0 f i ImfTiledRgbaFile.obj
 0001:000543c0       ??1?$Array2D@URgba@Imf@@@Imf@@QAE@XZ 100553c0 f i ImfTiledRgbaFile.obj
 0001:000543d0       ??A?$Array2D@URgba@Imf@@@Imf@@QAEPAURgba@1@J@Z 100553d0 f i ImfTiledRgbaFile.obj
 0001:000543e0       ??$_Destroy@PAU_Node@?$_Tree_nod@V?$_Tmap_traits@VName@Imf@@UChannel@2@U?$less@VName@Imf@@@std@@V?$allocator@U?$pair@$$CBVName@Imf@@UChannel@2@@std@@@5@$0A@@std@@@std@@@std@@YAXPAPAU_Node@?$_Tree_nod@V?$_Tmap_traits@VName@Imf@@UChannel@2@U?$less@VName@Imf@@@std@@V?$allocator@U?$pair@$$CBVName@Imf@@UChannel@2@@std@@@5@$0A@@std@@@0@@Z 100553e0 f i ImfTiledRgbaFile.obj
 0001:000543f0       ??$?0U?$pair@$$CBVName@Imf@@UChannel@2@@std@@@?$allocator@PAU_Node@?$_Tree_nod@V?$_Tmap_traits@VName@Imf@@UChannel@2@U?$less@VName@Imf@@@std@@V?$allocator@U?$pair@$$CBVName@Imf@@UChannel@2@@std@@@5@$0A@@std@@@std@@@std@@QAE@ABV?$allocator@U?$pair@$$CBVName@Imf@@UChannel@2@@std@@@1@@Z 100553f0 f i ImfTiledRgbaFile.obj
 0001:00054400       ??$_Destroy@U_Node@?$_Tree_nod@V?$_Tmap_traits@VName@Imf@@UChannel@2@U?$less@VName@Imf@@@std@@V?$allocator@U?$pair@$$CBVName@Imf@@UChannel@2@@std@@@5@$0A@@std@@@std@@@std@@YAXPAU_Node@?$_Tree_nod@V?$_Tmap_traits@VName@Imf@@UChannel@2@U?$less@VName@Imf@@@std@@V?$allocator@U?$pair@$$CBVName@Imf@@UChannel@2@@std@@@5@$0A@@std@@@0@@Z 10055400 f i ImfTiledRgbaFile.obj
 0001:00054410       ??$?0U?$pair@$$CBVName@Imf@@UChannel@2@@std@@@?$allocator@U_Node@?$_Tree_nod@V?$_Tmap_traits@VName@Imf@@UChannel@2@U?$less@VName@Imf@@@std@@V?$allocator@U?$pair@$$CBVName@Imf@@UChannel@2@@std@@@5@$0A@@std@@@std@@@std@@QAE@ABV?$allocator@U?$pair@$$CBVName@Imf@@UChannel@2@@std@@@1@@Z 10055410 f i ImfTiledRgbaFile.obj
 0001:00054420       ??$_Construct@PAU_Node@?$_Tree_nod@V?$_Tmap_traits@VName@Imf@@UChannel@2@U?$less@VName@Imf@@@std@@V?$allocator@U?$pair@$$CBVName@Imf@@UChannel@2@@std@@@5@$0A@@std@@@std@@PAU123@@std@@YAXPAPAU_Node@?$_Tree_nod@V?$_Tmap_traits@VName@Imf@@UChannel@2@U?$less@VName@Imf@@@std@@V?$allocator@U?$pair@$$CBVName@Imf@@UChannel@2@@std@@@5@$0A@@std@@@0@ABQAU120@@Z 10055420 f i ImfTiledRgbaFile.obj
 0001:00054440       ?dimensions@?$Vec2@H@Imath@@SAIXZ 10055440 f i ImfTiledRgbaFile.obj
 0001:00054450       ??A?$Vec2@H@Imath@@QBEABHH@Z 10055450 f i ImfTiledRgbaFile.obj
 0001:00054460       ??_ETiledRgbaOutputFile@Imf@@UAEPAXI@Z 10055460 f i ImfTiledRgbaFile.obj
 0001:00054460       ??_GTiledRgbaOutputFile@Imf@@UAEPAXI@Z 10055460 f i ImfTiledRgbaFile.obj
 0001:000544a0       ??_GTiledRgbaInputFile@Imf@@UAEPAXI@Z 100554a0 f i ImfTiledRgbaFile.obj
 0001:000544a0       ??_ETiledRgbaInputFile@Imf@@UAEPAXI@Z 100554a0 f i ImfTiledRgbaFile.obj
 0001:000544e0       ?destroy@?$allocator@PAU_Node@?$_Tree_nod@V?$_Tmap_traits@VName@Imf@@UChannel@2@U?$less@VName@Imf@@@std@@V?$allocator@U?$pair@$$CBVName@Imf@@UChannel@2@@std@@@5@$0A@@std@@@std@@@std@@QAEXPAPAU_Node@?$_Tree_nod@V?$_Tmap_traits@VName@Imf@@UChannel@2@U?$less@VName@Imf@@@std@@V?$allocator@U?$pair@$$CBVName@Imf@@UChannel@2@@std@@@5@$0A@@std@@@2@@Z 100554e0 f i ImfTiledRgbaFile.obj
 0001:000544f0       ??0iterator@?$_Tree@V?$_Tmap_traits@VName@Imf@@UChannel@2@U?$less@VName@Imf@@@std@@V?$allocator@U?$pair@$$CBVName@Imf@@UChannel@2@@std@@@5@$0A@@std@@@std@@QAE@PAU_Node@?$_Tree_nod@V?$_Tmap_traits@VName@Imf@@UChannel@2@U?$less@VName@Imf@@@std@@V?$allocator@U?$pair@$$CBVName@Imf@@UChannel@2@@std@@@5@$0A@@std@@@2@PBV12@@Z 100554f0 f i ImfTiledRgbaFile.obj
 0001:00054520       ?destroy@?$allocator@U_Node@?$_Tree_nod@V?$_Tmap_traits@VName@Imf@@UChannel@2@U?$less@VName@Imf@@@std@@V?$allocator@U?$pair@$$CBVName@Imf@@UChannel@2@@std@@@5@$0A@@std@@@std@@@std@@QAEXPAU_Node@?$_Tree_nod@V?$_Tmap_traits@VName@Imf@@UChannel@2@U?$less@VName@Imf@@@std@@V?$allocator@U?$pair@$$CBVName@Imf@@UChannel@2@@std@@@5@$0A@@std@@@2@@Z 10055520 f i ImfTiledRgbaFile.obj
 0001:00054530       ??0?$_Tree_nod@V?$_Tmap_traits@VName@Imf@@UChannel@2@U?$less@VName@Imf@@@std@@V?$allocator@U?$pair@$$CBVName@Imf@@UChannel@2@@std@@@5@$0A@@std@@@std@@IAE@ABU?$less@VName@Imf@@@1@V?$allocator@U?$pair@$$CBVName@Imf@@UChannel@2@@std@@@1@@Z 10055530 f i ImfTiledRgbaFile.obj
 0001:00054540       ?construct@?$allocator@PAU_Node@?$_Tree_nod@V?$_Tmap_traits@VName@Imf@@UChannel@2@U?$less@VName@Imf@@@std@@V?$allocator@U?$pair@$$CBVName@Imf@@UChannel@2@@std@@@5@$0A@@std@@@std@@@std@@QAEXPAPAU_Node@?$_Tree_nod@V?$_Tmap_traits@VName@Imf@@UChannel@2@U?$less@VName@Imf@@@std@@V?$allocator@U?$pair@$$CBVName@Imf@@UChannel@2@@std@@@5@$0A@@std@@@2@ABQAU342@@Z 10055540 f i ImfTiledRgbaFile.obj
 0001:00054560       ?isEmpty@?$Box@V?$Vec2@H@Imath@@@Imath@@QBE_NXZ 10055560 f i ImfTiledRgbaFile.obj
 0001:00054580       ?resizeErase@?$Array2D@URgba@Imf@@@Imf@@QAEXJJ@Z 10055580 f i ImfTiledRgbaFile.obj
 0001:000545c0       ??1ToYa@TiledRgbaOutputFile@Imf@@UAE@XZ 100555c0 f i ImfTiledRgbaFile.obj
 0001:000545e0       ??_EToYa@TiledRgbaOutputFile@Imf@@UAEPAXI@Z 100555e0 f i ImfTiledRgbaFile.obj
 0001:000545e0       ??_GToYa@TiledRgbaOutputFile@Imf@@UAEPAXI@Z 100555e0 f i ImfTiledRgbaFile.obj
 0001:00054610       ??1FromYa@TiledRgbaInputFile@Imf@@UAE@XZ 10055610 f i ImfTiledRgbaFile.obj
 0001:00054630       ??_GFromYa@TiledRgbaInputFile@Imf@@UAEPAXI@Z 10055630 f i ImfTiledRgbaFile.obj
 0001:00054630       ??_EFromYa@TiledRgbaInputFile@Imf@@UAEPAXI@Z 10055630 f i ImfTiledRgbaFile.obj
 0001:00054660       ?begin@?$_Tree@V?$_Tmap_traits@VName@Imf@@UChannel@2@U?$less@VName@Imf@@@std@@V?$allocator@U?$pair@$$CBVName@Imf@@UChannel@2@@std@@@5@$0A@@std@@@std@@QAE?AViterator@12@XZ 10055660 f i ImfTiledRgbaFile.obj
 0001:00054680       ?end@?$_Tree@V?$_Tmap_traits@VName@Imf@@UChannel@2@U?$less@VName@Imf@@@std@@V?$allocator@U?$pair@$$CBVName@Imf@@UChannel@2@@std@@@5@$0A@@std@@@std@@QAE?AViterator@12@XZ 10055680 f i ImfTiledRgbaFile.obj
 0001:00054690       ??0?$_Tree_ptr@V?$_Tmap_traits@VName@Imf@@UChannel@2@U?$less@VName@Imf@@@std@@V?$allocator@U?$pair@$$CBVName@Imf@@UChannel@2@@std@@@5@$0A@@std@@@std@@IAE@ABU?$less@VName@Imf@@@1@V?$allocator@U?$pair@$$CBVName@Imf@@UChannel@2@@std@@@1@@Z 10055690 f i ImfTiledRgbaFile.obj
 0001:000546a0       ??Eiterator@?$_Tree@V?$_Tmap_traits@VName@Imf@@UChannel@2@U?$less@VName@Imf@@@std@@V?$allocator@U?$pair@$$CBVName@Imf@@UChannel@2@@std@@@5@$0A@@std@@@std@@QAEAAV012@XZ 100556a0 f i ImfTiledRgbaFile.obj
 0001:000546b0       ??0?$_Tree_val@V?$_Tmap_traits@VName@Imf@@UChannel@2@U?$less@VName@Imf@@@std@@V?$allocator@U?$pair@$$CBVName@Imf@@UChannel@2@@std@@@5@$0A@@std@@@std@@IAE@ABU?$less@VName@Imf@@@1@V?$allocator@U?$pair@$$CBVName@Imf@@UChannel@2@@std@@@1@@Z 100556b0 f i ImfTiledRgbaFile.obj
 0001:000546c0       ??Eiterator@?$_Tree@V?$_Tmap_traits@VName@Imf@@UChannel@2@U?$less@VName@Imf@@@std@@V?$allocator@U?$pair@$$CBVName@Imf@@UChannel@2@@std@@@5@$0A@@std@@@std@@QAE?AV012@H@Z 100556c0 f i ImfTiledRgbaFile.obj
 0001:000546e0       ??1?$_Tree@V?$_Tmap_traits@VName@Imf@@UChannel@2@U?$less@VName@Imf@@@std@@V?$allocator@U?$pair@$$CBVName@Imf@@UChannel@2@@std@@@5@$0A@@std@@@std@@QAE@XZ 100556e0 f i ImfTiledRgbaFile.obj
 0001:00054720       ??1?$map@VName@Imf@@UChannel@2@U?$less@VName@Imf@@@std@@V?$allocator@U?$pair@$$CBVName@Imf@@UChannel@2@@std@@@5@@std@@QAE@XZ 10055720 f i ImfTiledRgbaFile.obj
 0001:00054760       ??4?$map@VName@Imf@@UChannel@2@U?$less@VName@Imf@@@std@@V?$allocator@U?$pair@$$CBVName@Imf@@UChannel@2@@std@@@5@@std@@QAEAAV01@ABV01@@Z 10055760 f i ImfTiledRgbaFile.obj
 0001:000547a0       ??0?$map@VName@Imf@@UChannel@2@U?$less@VName@Imf@@@std@@V?$allocator@U?$pair@$$CBVName@Imf@@UChannel@2@@std@@@5@@std@@QAE@XZ 100557a0 f i ImfTiledRgbaFile.obj
 0001:000547d0       ??0ChannelList@Imf@@QAE@XZ 100557d0 f i ImfTiledRgbaFile.obj
 0001:00054800       ??4ChannelList@Imf@@QAEAAV01@ABV01@@Z 10055800 f i ImfTiledRgbaFile.obj
 0001:00054840       ??A?$vector@V?$vector@V?$vector@_KV?$allocator@_K@std@@@std@@V?$allocator@V?$vector@_KV?$allocator@_K@std@@@std@@@2@@std@@V?$allocator@V?$vector@V?$vector@_KV?$allocator@_K@std@@@std@@V?$allocator@V?$vector@_KV?$allocator@_K@std@@@std@@@2@@std@@@2@@std@@QBEABV?$vector@V?$vector@_KV?$allocator@_K@std@@@std@@V?$allocator@V?$vector@_KV?$allocator@_K@std@@@std@@@2@@1@I@Z 10055840 f i ImfTileOffsets.obj
 0001:00054870       ??A?$vector@V?$vector@V?$vector@_KV?$allocator@_K@std@@@std@@V?$allocator@V?$vector@_KV?$allocator@_K@std@@@std@@@2@@std@@V?$allocator@V?$vector@V?$vector@_KV?$allocator@_K@std@@@std@@V?$allocator@V?$vector@_KV?$allocator@_K@std@@@std@@@2@@std@@@2@@std@@QAEAAV?$vector@V?$vector@_KV?$allocator@_K@std@@@std@@V?$allocator@V?$vector@_KV?$allocator@_K@std@@@std@@@2@@1@I@Z 10055870 f i ImfTileOffsets.obj
 0001:000548a0       ??A?$vector@V?$vector@_KV?$allocator@_K@std@@@std@@V?$allocator@V?$vector@_KV?$allocator@_K@std@@@std@@@2@@std@@QBEABV?$vector@_KV?$allocator@_K@std@@@1@I@Z 100558a0 f i ImfTileOffsets.obj
 0001:000548d0       ??A?$vector@V?$vector@_KV?$allocator@_K@std@@@std@@V?$allocator@V?$vector@_KV?$allocator@_K@std@@@std@@@2@@std@@QAEAAV?$vector@_KV?$allocator@_K@std@@@1@I@Z 100558d0 f i ImfTileOffsets.obj
 0001:00054900       ??A?$vector@_KV?$allocator@_K@std@@@std@@QBEAB_KI@Z 10055900 f i ImfTileOffsets.obj
 0001:00054930       ??0?$allocator@V?$vector@V?$vector@_KV?$allocator@_K@std@@@std@@V?$allocator@V?$vector@_KV?$allocator@_K@std@@@std@@@2@@std@@@std@@QAE@XZ 10055930 f i ImfTileOffsets.obj
 0001:00054940       ??0?$allocator@V?$vector@V?$vector@_KV?$allocator@_K@std@@@std@@V?$allocator@V?$vector@_KV?$allocator@_K@std@@@std@@@2@@std@@@std@@QAE@ABV01@@Z 10055940 f i ImfTileOffsets.obj
 0001:00054950       ??0?$allocator@V?$vector@_KV?$allocator@_K@std@@@std@@@std@@QAE@XZ 10055950 f i ImfTileOffsets.obj
 0001:00054960       ??Y?$_Vector_const_iterator@V?$vector@V?$vector@_KV?$allocator@_K@std@@@std@@V?$allocator@V?$vector@_KV?$allocator@_K@std@@@std@@@2@@std@@V?$allocator@V?$vector@V?$vector@_KV?$allocator@_K@std@@@std@@V?$allocator@V?$vector@_KV?$allocator@_K@std@@@std@@@2@@std@@@2@@std@@QAEAAV01@H@Z 10055960 f i ImfTileOffsets.obj
 0001:000549a0       ??Y?$_Vector_const_iterator@V?$vector@_KV?$allocator@_K@std@@@std@@V?$allocator@V?$vector@_KV?$allocator@_K@std@@@std@@@2@@std@@QAEAAV01@H@Z 100559a0 f i ImfTileOffsets.obj
 0001:000549e0       ??$_Move_cat@PAV?$vector@V?$vector@_KV?$allocator@_K@std@@@std@@V?$allocator@V?$vector@_KV?$allocator@_K@std@@@std@@@2@@std@@@std@@YA?AU_Swap_move_tag@0@ABQAV?$vector@V?$vector@_KV?$allocator@_K@std@@@std@@V?$allocator@V?$vector@_KV?$allocator@_K@std@@@std@@@2@@0@@Z 100559e0 f i ImfTileOffsets.obj
 0001:000549f0       ??$_Move_cat@PAV?$vector@_KV?$allocator@_K@std@@@std@@@std@@YA?AU_Swap_move_tag@0@ABQAV?$vector@_KV?$allocator@_K@std@@@0@@Z 100559f0 f i ImfTileOffsets.obj
 0001:00054a00       ??$?8V?$vector@_KV?$allocator@_K@std@@@std@@V01@@std@@YA_NABV?$allocator@V?$vector@_KV?$allocator@_K@std@@@std@@@0@0@Z 10055a00 f i ImfTileOffsets.obj
 0001:00054a10       ??$swap@PAV?$vector@_KV?$allocator@_K@std@@@std@@@std@@YAXAAPAV?$vector@_KV?$allocator@_K@std@@@0@0@Z 10055a10 f i ImfTileOffsets.obj
 0001:00054a30       ??$?8_K_K@std@@YA_NABV?$allocator@_K@0@0@Z 10055a30 f i ImfTileOffsets.obj
 0001:00054a40       ??$swap@PA_K@std@@YAXAAPA_K0@Z 10055a40 f i ImfTileOffsets.obj
 0001:00054a60       ?anyOffsetsAreInvalid@TileOffsets@Imf@@ABE_NXZ 10055a60 f   ImfTileOffsets.obj
 0001:00054bf0       ?isEmpty@TileOffsets@Imf@@QBE_NXZ 10055bf0 f   ImfTileOffsets.obj
 0001:00054d70       ?isValidTile@TileOffsets@Imf@@ABE_NHHHH@Z 10055d70 f   ImfTileOffsets.obj
 0001:00054ec0       ??RTileOffsets@Imf@@QAEAA_KHHHH@Z 10055ec0 f   ImfTileOffsets.obj
 0001:00055010       ??RTileOffsets@Imf@@QAEAA_KHHH@Z 10056010 f   ImfTileOffsets.obj
 0001:00055030       ??RTileOffsets@Imf@@QBEAB_KHHHH@Z 10056030 f   ImfTileOffsets.obj
 0001:00055180       ??RTileOffsets@Imf@@QBEAB_KHHH@Z 10056180 f   ImfTileOffsets.obj
 0001:000551a0       ?findTiles@TileOffsets@Imf@@AAEXAAVIStream@2@@Z 100561a0 f   ImfTileOffsets.obj
 0001:00055420       ?reconstructFromFile@TileOffsets@Imf@@AAEXAAVIStream@2@@Z 10056420 f   ImfTileOffsets.obj
 0001:000554b0       ?readFrom@TileOffsets@Imf@@QAEXAAVIStream@2@AA_N@Z 100564b0 f   ImfTileOffsets.obj
 0001:00055660       ?writeTo@TileOffsets@Imf@@QBE_KAAVOStream@2@@Z 10056660 f   ImfTileOffsets.obj
 0001:000558c0       ??0TileOffsets@Imf@@QAE@W4LevelMode@1@HHPBH1@Z 100568c0 f   ImfTileOffsets.obj
 0001:00055be0       ??0?$_Vector_val@V?$vector@V?$vector@_KV?$allocator@_K@std@@@std@@V?$allocator@V?$vector@_KV?$allocator@_K@std@@@std@@@2@@std@@V?$allocator@V?$vector@V?$vector@_KV?$allocator@_K@std@@@std@@V?$allocator@V?$vector@_KV?$allocator@_K@std@@@std@@@2@@std@@@2@@std@@IAE@V?$allocator@V?$vector@V?$vector@_KV?$allocator@_K@std@@@std@@V?$allocator@V?$vector@_KV?$allocator@_K@std@@@std@@@2@@std@@@1@@Z 10056be0 f i ImfTileOffsets.obj
 0001:00055bf0       ??Y?$_Vector_iterator@V?$vector@V?$vector@_KV?$allocator@_K@std@@@std@@V?$allocator@V?$vector@_KV?$allocator@_K@std@@@std@@@2@@std@@V?$allocator@V?$vector@V?$vector@_KV?$allocator@_K@std@@@std@@V?$allocator@V?$vector@_KV?$allocator@_K@std@@@std@@@2@@std@@@2@@std@@QAEAAV01@H@Z 10056bf0 f i ImfTileOffsets.obj
 0001:00055c30       ??Y?$_Vector_iterator@V?$vector@_KV?$allocator@_K@std@@@std@@V?$allocator@V?$vector@_KV?$allocator@_K@std@@@std@@@2@@std@@QAEAAV01@H@Z 10056c30 f i ImfTileOffsets.obj
 0001:00055c70       ??H?$_Vector_iterator@V?$vector@V?$vector@_KV?$allocator@_K@std@@@std@@V?$allocator@V?$vector@_KV?$allocator@_K@std@@@std@@@2@@std@@V?$allocator@V?$vector@V?$vector@_KV?$allocator@_K@std@@@std@@V?$allocator@V?$vector@_KV?$allocator@_K@std@@@std@@@2@@std@@@2@@std@@QBE?AV01@H@Z 10056c70 f i ImfTileOffsets.obj
 0001:00055cb0       ??H?$_Vector_iterator@V?$vector@_KV?$allocator@_K@std@@@std@@V?$allocator@V?$vector@_KV?$allocator@_K@std@@@std@@@2@@std@@QBE?AV01@H@Z 10056cb0 f i ImfTileOffsets.obj
 0001:00055cf0       ??0?$vector@V?$vector@V?$vector@_KV?$allocator@_K@std@@@std@@V?$allocator@V?$vector@_KV?$allocator@_K@std@@@std@@@2@@std@@V?$allocator@V?$vector@V?$vector@_KV?$allocator@_K@std@@@std@@V?$allocator@V?$vector@_KV?$allocator@_K@std@@@std@@@2@@std@@@2@@std@@QAE@XZ 10056cf0 f i ImfTileOffsets.obj
 0001:00055d00       ??0?$vector@V?$vector@_KV?$allocator@_K@std@@@std@@V?$allocator@V?$vector@_KV?$allocator@_K@std@@@std@@@2@@std@@QAE@XZ 10056d00 f i ImfTileOffsets.obj
 0001:00055d10       ??$_Fill@PAV?$vector@_KV?$allocator@_K@std@@@std@@V12@@std@@YAXPAV?$vector@_KV?$allocator@_K@std@@@0@0ABV10@@Z 10056d10 f i ImfTileOffsets.obj
 0001:00055d40       ?swap@?$vector@_KV?$allocator@_K@std@@@std@@QAEXAAV12@@Z 10056d40 f i ImfTileOffsets.obj
 0001:00055d70       ??$fill@PAV?$vector@_KV?$allocator@_K@std@@@std@@V12@@std@@YAXPAV?$vector@_KV?$allocator@_K@std@@@0@0ABV10@@Z 10056d70 f i ImfTileOffsets.obj
 0001:00055da0       ??$swap@_KV?$allocator@_K@std@@@std@@YAXAAV?$vector@_KV?$allocator@_K@std@@@0@0@Z 10056da0 f i ImfTileOffsets.obj
 0001:00055dd0       ??$_Uninit_fill_n@PAV?$vector@_KV?$allocator@_K@std@@@std@@IV12@V?$allocator@V?$vector@_KV?$allocator@_K@std@@@std@@@2@@std@@YAXPAV?$vector@_KV?$allocator@_K@std@@@0@IABV10@AAV?$allocator@V?$vector@_KV?$allocator@_K@std@@@std@@@0@U_Nonscalar_ptr_iterator_tag@0@U_Range_checked_iterator_tag@0@@Z 10056dd0 f i ImfTileOffsets.obj
 0001:00055e70       ??$_Uninit_move@PAV?$vector@_KV?$allocator@_K@std@@@std@@PAV12@V?$allocator@V?$vector@_KV?$allocator@_K@std@@@std@@@2@@std@@YAPAV?$vector@_KV?$allocator@_K@std@@@0@PAV10@00AAV?$allocator@V?$vector@_KV?$allocator@_K@std@@@std@@@0@U_Swap_move_tag@0@U_Range_checked_iterator_tag@0@@Z 10056e70 f i ImfTileOffsets.obj
 0001:00055f50       ??$_Move_backward_opt@PAV?$vector@_KV?$allocator@_K@std@@@std@@PAV12@Uforward_iterator_tag@2@@std@@YAPAV?$vector@_KV?$allocator@_K@std@@@0@PAV10@00Uforward_iterator_tag@0@U_Swap_move_tag@0@U_Range_checked_iterator_tag@0@@Z 10056f50 f i ImfTileOffsets.obj
 0001:00055fa0       ??$unchecked_uninitialized_fill_n@PAV?$vector@_KV?$allocator@_K@std@@@std@@IV12@V?$allocator@V?$vector@_KV?$allocator@_K@std@@@std@@@2@@stdext@@YAXPAV?$vector@_KV?$allocator@_K@std@@@std@@IABV12@AAV?$allocator@V?$vector@_KV?$allocator@_K@std@@@std@@@2@@Z 10056fa0 f i ImfTileOffsets.obj
 0001:00055fd0       ??$_Unchecked_uninitialized_move@PAV?$vector@_KV?$allocator@_K@std@@@std@@PAV12@V?$allocator@V?$vector@_KV?$allocator@_K@std@@@std@@@2@@stdext@@YAPAV?$vector@_KV?$allocator@_K@std@@@std@@PAV12@00AAV?$allocator@V?$vector@_KV?$allocator@_K@std@@@std@@@2@@Z 10056fd0 f i ImfTileOffsets.obj
 0001:00056000       ??$_Move_backward_opt@PAV?$vector@_KV?$allocator@_K@std@@@std@@PAV12@@std@@YAPAV?$vector@_KV?$allocator@_K@std@@@0@PAV10@00Urandom_access_iterator_tag@0@U_Swap_move_tag@0@U_Range_checked_iterator_tag@0@@Z 10057000 f i ImfTileOffsets.obj
 0001:00056040       ?_Ufill@?$vector@V?$vector@_KV?$allocator@_K@std@@@std@@V?$allocator@V?$vector@_KV?$allocator@_K@std@@@std@@@2@@std@@IAEPAV?$vector@_KV?$allocator@_K@std@@@2@PAV32@IABV32@@Z 10057040 f i ImfTileOffsets.obj
 0001:00056080       ??$_Umove@PAV?$vector@_KV?$allocator@_K@std@@@std@@@?$vector@V?$vector@_KV?$allocator@_K@std@@@std@@V?$allocator@V?$vector@_KV?$allocator@_K@std@@@std@@@2@@std@@IAEPAV?$vector@_KV?$allocator@_K@std@@@1@PAV21@00@Z 10057080 f i ImfTileOffsets.obj
 0001:000560b0       ??$_Unchecked_move_backward@PAV?$vector@_KV?$allocator@_K@std@@@std@@PAV12@@stdext@@YAPAV?$vector@_KV?$allocator@_K@std@@@std@@PAV12@00@Z 100570b0 f i ImfTileOffsets.obj
 0001:000560f0       ?_Insert_n@?$vector@V?$vector@_KV?$allocator@_K@std@@@std@@V?$allocator@V?$vector@_KV?$allocator@_K@std@@@std@@@2@@std@@IAEXV?$_Vector_iterator@V?$vector@_KV?$allocator@_K@std@@@std@@V?$allocator@V?$vector@_KV?$allocator@_K@std@@@std@@@2@@2@IABV?$vector@_KV?$allocator@_K@std@@@2@@Z 100570f0 f i ImfTileOffsets.obj
 0001:00056370       ?resize@?$vector@V?$vector@_KV?$allocator@_K@std@@@std@@V?$allocator@V?$vector@_KV?$allocator@_K@std@@@std@@@2@@std@@QAEXIV?$vector@_KV?$allocator@_K@std@@@2@@Z 10057370 f i ImfTileOffsets.obj
 0001:00056460       ?swap@?$vector@V?$vector@_KV?$allocator@_K@std@@@std@@V?$allocator@V?$vector@_KV?$allocator@_K@std@@@std@@@2@@std@@QAEXAAV12@@Z 10057460 f i ImfTileOffsets.obj
 0001:00056490       ?resize@?$vector@V?$vector@_KV?$allocator@_K@std@@@std@@V?$allocator@V?$vector@_KV?$allocator@_K@std@@@std@@@2@@std@@QAEXI@Z 10057490 f i ImfTileOffsets.obj
 0001:000564c0       ??$_Fill@PAV?$vector@V?$vector@_KV?$allocator@_K@std@@@std@@V?$allocator@V?$vector@_KV?$allocator@_K@std@@@std@@@2@@std@@V12@@std@@YAXPAV?$vector@V?$vector@_KV?$allocator@_K@std@@@std@@V?$allocator@V?$vector@_KV?$allocator@_K@std@@@std@@@2@@0@0ABV10@@Z 100574c0 f i ImfTileOffsets.obj
 0001:000564f0       ??$swap@V?$vector@_KV?$allocator@_K@std@@@std@@V?$allocator@V?$vector@_KV?$allocator@_K@std@@@std@@@2@@std@@YAXAAV?$vector@V?$vector@_KV?$allocator@_K@std@@@std@@V?$allocator@V?$vector@_KV?$allocator@_K@std@@@std@@@2@@0@0@Z 100574f0 f i ImfTileOffsets.obj
 0001:00056520       ??$fill@PAV?$vector@V?$vector@_KV?$allocator@_K@std@@@std@@V?$allocator@V?$vector@_KV?$allocator@_K@std@@@std@@@2@@std@@V12@@std@@YAXPAV?$vector@V?$vector@_KV?$allocator@_K@std@@@std@@V?$allocator@V?$vector@_KV?$allocator@_K@std@@@std@@@2@@0@0ABV10@@Z 10057520 f i ImfTileOffsets.obj
 0001:00056550       ??$_Uninit_move@PAV?$vector@V?$vector@_KV?$allocator@_K@std@@@std@@V?$allocator@V?$vector@_KV?$allocator@_K@std@@@std@@@2@@std@@PAV12@V?$allocator@V?$vector@V?$vector@_KV?$allocator@_K@std@@@std@@V?$allocator@V?$vector@_KV?$allocator@_K@std@@@std@@@2@@std@@@2@@std@@YAPAV?$vector@V?$vector@_KV?$allocator@_K@std@@@std@@V?$allocator@V?$vector@_KV?$allocator@_K@std@@@std@@@2@@0@PAV10@00AAV?$allocator@V?$vector@V?$vector@_KV?$allocator@_K@std@@@std@@V?$allocator@V?$vector@_KV?$allocator@_K@std@@@std@@@2@@std@@@0@U_Swap_move_tag@0@U_Range_checked_iterator_tag@0@@Z 10057550 f i ImfTileOffsets.obj
 0001:00056660       ??$_Move_backward_opt@PAV?$vector@V?$vector@_KV?$allocator@_K@std@@@std@@V?$allocator@V?$vector@_KV?$allocator@_K@std@@@std@@@2@@std@@PAV12@Uforward_iterator_tag@2@@std@@YAPAV?$vector@V?$vector@_KV?$allocator@_K@std@@@std@@V?$allocator@V?$vector@_KV?$allocator@_K@std@@@std@@@2@@0@PAV10@00Uforward_iterator_tag@0@U_Swap_move_tag@0@U_Range_checked_iterator_tag@0@@Z 10057660 f i ImfTileOffsets.obj
 0001:000566b0       ??$_Unchecked_uninitialized_move@PAV?$vector@V?$vector@_KV?$allocator@_K@std@@@std@@V?$allocator@V?$vector@_KV?$allocator@_K@std@@@std@@@2@@std@@PAV12@V?$allocator@V?$vector@V?$vector@_KV?$allocator@_K@std@@@std@@V?$allocator@V?$vector@_KV?$allocator@_K@std@@@std@@@2@@std@@@2@@stdext@@YAPAV?$vector@V?$vector@_KV?$allocator@_K@std@@@std@@V?$allocator@V?$vector@_KV?$allocator@_K@std@@@std@@@2@@std@@PAV12@00AAV?$allocator@V?$vector@V?$vector@_KV?$allocator@_K@std@@@std@@V?$allocator@V?$vector@_KV?$allocator@_K@std@@@std@@@2@@std@@@2@@Z 100576b0 f i ImfTileOffsets.obj
 0001:000566e0       ??$_Move_backward_opt@PAV?$vector@V?$vector@_KV?$allocator@_K@std@@@std@@V?$allocator@V?$vector@_KV?$allocator@_K@std@@@std@@@2@@std@@PAV12@@std@@YAPAV?$vector@V?$vector@_KV?$allocator@_K@std@@@std@@V?$allocator@V?$vector@_KV?$allocator@_K@std@@@std@@@2@@0@PAV10@00Urandom_access_iterator_tag@0@U_Swap_move_tag@0@U_Range_checked_iterator_tag@0@@Z 100576e0 f i ImfTileOffsets.obj
 0001:00056720       ??$_Uninit_fill_n@PAV?$vector@V?$vector@_KV?$allocator@_K@std@@@std@@V?$allocator@V?$vector@_KV?$allocator@_K@std@@@std@@@2@@std@@IV12@V?$allocator@V?$vector@V?$vector@_KV?$allocator@_K@std@@@std@@V?$allocator@V?$vector@_KV?$allocator@_K@std@@@std@@@2@@std@@@2@@std@@YAXPAV?$vector@V?$vector@_KV?$allocator@_K@std@@@std@@V?$allocator@V?$vector@_KV?$allocator@_K@std@@@std@@@2@@0@IABV10@AAV?$allocator@V?$vector@V?$vector@_KV?$allocator@_K@std@@@std@@V?$allocator@V?$vector@_KV?$allocator@_K@std@@@std@@@2@@std@@@0@U_Nonscalar_ptr_iterator_tag@0@U_Range_checked_iterator_tag@0@@Z 10057720 f i ImfTileOffsets.obj
 0001:000567c0       ??$_Umove@PAV?$vector@V?$vector@_KV?$allocator@_K@std@@@std@@V?$allocator@V?$vector@_KV?$allocator@_K@std@@@std@@@2@@std@@@?$vector@V?$vector@V?$vector@_KV?$allocator@_K@std@@@std@@V?$allocator@V?$vector@_KV?$allocator@_K@std@@@std@@@2@@std@@V?$allocator@V?$vector@V?$vector@_KV?$allocator@_K@std@@@std@@V?$allocator@V?$vector@_KV?$allocator@_K@std@@@std@@@2@@std@@@2@@std@@IAEPAV?$vector@V?$vector@_KV?$allocator@_K@std@@@std@@V?$allocator@V?$vector@_KV?$allocator@_K@std@@@std@@@2@@1@PAV21@00@Z 100577c0 f i ImfTileOffsets.obj
 0001:000567f0       ??$_Unchecked_move_backward@PAV?$vector@V?$vector@_KV?$allocator@_K@std@@@std@@V?$allocator@V?$vector@_KV?$allocator@_K@std@@@std@@@2@@std@@PAV12@@stdext@@YAPAV?$vector@V?$vector@_KV?$allocator@_K@std@@@std@@V?$allocator@V?$vector@_KV?$allocator@_K@std@@@std@@@2@@std@@PAV12@00@Z 100577f0 f i ImfTileOffsets.obj
 0001:00056830       ??$unchecked_uninitialized_fill_n@PAV?$vector@V?$vector@_KV?$allocator@_K@std@@@std@@V?$allocator@V?$vector@_KV?$allocator@_K@std@@@std@@@2@@std@@IV12@V?$allocator@V?$vector@V?$vector@_KV?$allocator@_K@std@@@std@@V?$allocator@V?$vector@_KV?$allocator@_K@std@@@std@@@2@@std@@@2@@stdext@@YAXPAV?$vector@V?$vector@_KV?$allocator@_K@std@@@std@@V?$allocator@V?$vector@_KV?$allocator@_K@std@@@std@@@2@@std@@IABV12@AAV?$allocator@V?$vector@V?$vector@_KV?$allocator@_K@std@@@std@@V?$allocator@V?$vector@_KV?$allocator@_K@std@@@std@@@2@@std@@@2@@Z 10057830 f i ImfTileOffsets.obj
 0001:00056860       ?_Ufill@?$vector@V?$vector@V?$vector@_KV?$allocator@_K@std@@@std@@V?$allocator@V?$vector@_KV?$allocator@_K@std@@@std@@@2@@std@@V?$allocator@V?$vector@V?$vector@_KV?$allocator@_K@std@@@std@@V?$allocator@V?$vector@_KV?$allocator@_K@std@@@std@@@2@@std@@@2@@std@@IAEPAV?$vector@V?$vector@_KV?$allocator@_K@std@@@std@@V?$allocator@V?$vector@_KV?$allocator@_K@std@@@std@@@2@@2@PAV32@IABV32@@Z 10057860 f i ImfTileOffsets.obj
 0001:000568a0       ?_Insert_n@?$vector@V?$vector@V?$vector@_KV?$allocator@_K@std@@@std@@V?$allocator@V?$vector@_KV?$allocator@_K@std@@@std@@@2@@std@@V?$allocator@V?$vector@V?$vector@_KV?$allocator@_K@std@@@std@@V?$allocator@V?$vector@_KV?$allocator@_K@std@@@std@@@2@@std@@@2@@std@@IAEXV?$_Vector_iterator@V?$vector@V?$vector@_KV?$allocator@_K@std@@@std@@V?$allocator@V?$vector@_KV?$allocator@_K@std@@@std@@@2@@std@@V?$allocator@V?$vector@V?$vector@_KV?$allocator@_K@std@@@std@@V?$allocator@V?$vector@_KV?$allocator@_K@std@@@std@@@2@@std@@@2@@2@IABV?$vector@V?$vector@_KV?$allocator@_K@std@@@std@@V?$allocator@V?$vector@_KV?$allocator@_K@std@@@std@@@2@@2@@Z 100578a0 f i ImfTileOffsets.obj
 0001:00056b40       ?resize@?$vector@V?$vector@V?$vector@_KV?$allocator@_K@std@@@std@@V?$allocator@V?$vector@_KV?$allocator@_K@std@@@std@@@2@@std@@V?$allocator@V?$vector@V?$vector@_KV?$allocator@_K@std@@@std@@V?$allocator@V?$vector@_KV?$allocator@_K@std@@@std@@@2@@std@@@2@@std@@QAEXIV?$vector@V?$vector@_KV?$allocator@_K@std@@@std@@V?$allocator@V?$vector@_KV?$allocator@_K@std@@@std@@@2@@2@@Z 10057b40 f i ImfTileOffsets.obj
 0001:00056c40       ?resize@?$vector@V?$vector@V?$vector@_KV?$allocator@_K@std@@@std@@V?$allocator@V?$vector@_KV?$allocator@_K@std@@@std@@@2@@std@@V?$allocator@V?$vector@V?$vector@_KV?$allocator@_K@std@@@std@@V?$allocator@V?$vector@_KV?$allocator@_K@std@@@std@@@2@@std@@@2@@std@@QAEXI@Z 10057c40 f i ImfTileOffsets.obj
 0001:00056c70       ??0TimeCode@Imf@@QAE@XZ    10057c70 f   ImfTimeCode.obj
 0001:00056c80       ??0TimeCode@Imf@@QAE@ABV01@@Z 10057c80 f   ImfTimeCode.obj
 0001:00056ca0       ??4TimeCode@Imf@@QAEAAV01@ABV01@@Z 10057ca0 f   ImfTimeCode.obj
 0001:00056cc0       ?bitField@?A0x6579a903@Imf@@YAIIHH@Z 10057cc0 f   ImfTimeCode.obj
 0001:00056ce0       ?setBitField@?A0x6579a903@Imf@@YAXAAIHHI@Z 10057ce0 f   ImfTimeCode.obj
 0001:00056d10       ?bcdToBinary@?A0x6579a903@Imf@@YAHI@Z 10057d10 f   ImfTimeCode.obj
 0001:00056d30       ?binaryToBcd@?A0x6579a903@Imf@@YAIH@Z 10057d30 f   ImfTimeCode.obj
 0001:00056d60       ?hours@TimeCode@Imf@@QBEHXZ 10057d60 f   ImfTimeCode.obj
 0001:00056d80       ?setHours@TimeCode@Imf@@QAEXH@Z 10057d80 f   ImfTimeCode.obj
 0001:00056df0       ?minutes@TimeCode@Imf@@QBEHXZ 10057df0 f   ImfTimeCode.obj
 0001:00056e10       ?setMinutes@TimeCode@Imf@@QAEXH@Z 10057e10 f   ImfTimeCode.obj
 0001:00056e80       ?seconds@TimeCode@Imf@@QBEHXZ 10057e80 f   ImfTimeCode.obj
 0001:00056ea0       ?setSeconds@TimeCode@Imf@@QAEXH@Z 10057ea0 f   ImfTimeCode.obj
 0001:00056f10       ?frame@TimeCode@Imf@@QBEHXZ 10057f10 f   ImfTimeCode.obj
 0001:00056f30       ?setFrame@TimeCode@Imf@@QAEXH@Z 10057f30 f   ImfTimeCode.obj
 0001:00056fa0       ?dropFrame@TimeCode@Imf@@QBE_NXZ 10057fa0 f   ImfTimeCode.obj
 0001:00056fb0       ?setDropFrame@TimeCode@Imf@@QAEX_N@Z 10057fb0 f   ImfTimeCode.obj
 0001:00056fd0       ?colorFrame@TimeCode@Imf@@QBE_NXZ 10057fd0 f   ImfTimeCode.obj
 0001:00056fe0       ?setColorFrame@TimeCode@Imf@@QAEX_N@Z 10057fe0 f   ImfTimeCode.obj
 0001:00057000       ?fieldPhase@TimeCode@Imf@@QBE_NXZ 10058000 f   ImfTimeCode.obj
 0001:00057010       ?setFieldPhase@TimeCode@Imf@@QAEX_N@Z 10058010 f   ImfTimeCode.obj
 0001:00057030       ?bgf0@TimeCode@Imf@@QBE_NXZ 10058030 f   ImfTimeCode.obj
 0001:00057040       ?setBgf0@TimeCode@Imf@@QAEX_N@Z 10058040 f   ImfTimeCode.obj
 0001:00057060       ?bgf1@TimeCode@Imf@@QBE_NXZ 10058060 f   ImfTimeCode.obj
 0001:00057070       ?setBgf1@TimeCode@Imf@@QAEX_N@Z 10058070 f   ImfTimeCode.obj
 0001:00057090       ?bgf2@TimeCode@Imf@@QBE_NXZ 10058090 f   ImfTimeCode.obj
 0001:000570a0       ?setBgf2@TimeCode@Imf@@QAEX_N@Z 100580a0 f   ImfTimeCode.obj
 0001:000570c0       ?binaryGroup@TimeCode@Imf@@QBEHH@Z 100580c0 f   ImfTimeCode.obj
 0001:00057110       ?setBinaryGroup@TimeCode@Imf@@QAEXHH@Z 10058110 f   ImfTimeCode.obj
 0001:00057170       ?timeAndFlags@TimeCode@Imf@@QBEIW4Packing@12@@Z 10058170 f   ImfTimeCode.obj
 0001:000571b0       ?setTimeAndFlags@TimeCode@Imf@@QAEXIW4Packing@12@@Z 100581b0 f   ImfTimeCode.obj
 0001:00057220       ?userData@TimeCode@Imf@@QBEIXZ 10058220 f   ImfTimeCode.obj
 0001:00057230       ?setUserData@TimeCode@Imf@@QAEXI@Z 10058230 f   ImfTimeCode.obj
 0001:00057240       ??0TimeCode@Imf@@QAE@HHHH_N00000HHHHHHHH@Z 10058240 f   ImfTimeCode.obj
 0001:00057360       ??0TimeCode@Imf@@QAE@IIW4Packing@01@@Z 10058360 f   ImfTimeCode.obj
 0001:00057380       ?staticTypeName@?$TypedAttribute@VTimeCode@Imf@@@Imf@@SAPBDXZ 10058380 f   ImfTimeCodeAttribute.obj
 0001:00057390       ?writeValueTo@?$TypedAttribute@VTimeCode@Imf@@@Imf@@UBEXAAVOStream@2@H@Z 10058390 f   ImfTimeCodeAttribute.obj
 0001:00057410       ?readValueFrom@?$TypedAttribute@VTimeCode@Imf@@@Imf@@UAEXAAVIStream@2@HH@Z 10058410 f   ImfTimeCodeAttribute.obj
 0001:000574a0       ?staticTypeName@?$TypedAttribute@V?$Vec2@H@Imath@@@Imf@@SAPBDXZ 100584a0 f   ImfVecAttribute.obj
 0001:000574b0       ?writeValueTo@?$TypedAttribute@V?$Vec2@H@Imath@@@Imf@@UBEXAAVOStream@2@H@Z 100584b0 f   ImfVecAttribute.obj
 0001:00057500       ?readValueFrom@?$TypedAttribute@V?$Vec2@H@Imath@@@Imf@@UAEXAAVIStream@2@HH@Z 10058500 f   ImfVecAttribute.obj
 0001:00057550       ?staticTypeName@?$TypedAttribute@V?$Vec2@M@Imath@@@Imf@@SAPBDXZ 10058550 f   ImfVecAttribute.obj
 0001:00057560       ?writeValueTo@?$TypedAttribute@V?$Vec2@M@Imath@@@Imf@@UBEXAAVOStream@2@H@Z 10058560 f   ImfVecAttribute.obj
 0001:000575b0       ?readValueFrom@?$TypedAttribute@V?$Vec2@M@Imath@@@Imf@@UAEXAAVIStream@2@HH@Z 100585b0 f   ImfVecAttribute.obj
 0001:00057600       ?staticTypeName@?$TypedAttribute@V?$Vec3@H@Imath@@@Imf@@SAPBDXZ 10058600 f   ImfVecAttribute.obj
 0001:00057610       ?writeValueTo@?$TypedAttribute@V?$Vec3@H@Imath@@@Imf@@UBEXAAVOStream@2@H@Z 10058610 f   ImfVecAttribute.obj
 0001:00057670       ?readValueFrom@?$TypedAttribute@V?$Vec3@H@Imath@@@Imf@@UAEXAAVIStream@2@HH@Z 10058670 f   ImfVecAttribute.obj
 0001:000576d0       ?staticTypeName@?$TypedAttribute@V?$Vec3@M@Imath@@@Imf@@SAPBDXZ 100586d0 f   ImfVecAttribute.obj
 0001:000576e0       ?writeValueTo@?$TypedAttribute@V?$Vec3@M@Imath@@@Imf@@UBEXAAVOStream@2@H@Z 100586e0 f   ImfVecAttribute.obj
 0001:00057740       ?readValueFrom@?$TypedAttribute@V?$Vec3@M@Imath@@@Imf@@UAEXAAVIStream@2@HH@Z 10058740 f   ImfVecAttribute.obj
 0001:000577a0       ?isImfMagic@Imf@@YA_NQBD@Z 100587a0 f   ImfVersion.obj
 0001:00057800       ?wav2Encode@Imf@@YAXPAGHHHHG@Z 10058800 f   ImfWav.obj
 0001:00058050       ?wav2Decode@Imf@@YAXPAGHHHHG@Z 10059050 f   ImfWav.obj
 0001:000588f0       ??0ZipCompressor@Imf@@QAE@ABVHeader@1@HH@Z 100598f0 f   ImfZipCompressor.obj
 0001:000589f0       ??1ZipCompressor@Imf@@UAE@XZ 100599f0 f   ImfZipCompressor.obj
 0001:00058a60       ?numScanLines@ZipCompressor@Imf@@UBEHXZ 10059a60 f   ImfZipCompressor.obj
 0001:00058a80       ?compress@ZipCompressor@Imf@@UAEHPBDHHAAPBD@Z 10059a80 f   ImfZipCompressor.obj
 0001:00058c50       ?uncompress@ZipCompressor@Imf@@UAEHPBDHHAAPBD@Z 10059c50 f   ImfZipCompressor.obj
 0001:00058df0       ??_GZipCompressor@Imf@@UAEPAXI@Z 10059df0 f i ImfZipCompressor.obj
 0001:00058df0       ??_EZipCompressor@Imf@@UAEPAXI@Z 10059df0 f i ImfZipCompressor.obj
 0001:00058e2e       ??0BaseExc@Iex@@QAE@AAV?$basic_stringstream@DU?$char_traits@D@std@@V?$allocator@D@2@@std@@@Z 10059e2e f   Iex_dll:Iex_dll.dll
 0001:00058e34       ?what@BaseExc@Iex@@UBEPBDXZ 10059e34 f   Iex_dll:Iex_dll.dll
 0001:00058e3a       ??0BaseExc@Iex@@QAE@ABV01@@Z 10059e3a f   Iex_dll:Iex_dll.dll
 0001:00058e40       ??1BaseExc@Iex@@UAE@XZ     10059e40 f   Iex_dll:Iex_dll.dll
 0001:00058e46       ??0BaseExc@Iex@@QAE@PBD@Z  10059e46 f   Iex_dll:Iex_dll.dll
 0001:00058e4c       ?assign@BaseExc@Iex@@QAEAAV12@AAV?$basic_stringstream@DU?$char_traits@D@std@@V?$allocator@D@2@@std@@@Z 10059e4c f   Iex_dll:Iex_dll.dll
 0001:00058e52       ?throwErrnoExc@Iex@@YAXABV?$basic_string@DU?$char_traits@D@std@@V?$allocator@D@2@@std@@@Z 10059e52 f   Iex_dll:Iex_dll.dll
 0001:00058e58       ??0BaseExc@Iex@@QAE@ABV?$basic_string@DU?$char_traits@D@std@@V?$allocator@D@2@@std@@@Z 10059e58 f   Iex_dll:Iex_dll.dll
 0001:00058e5e       ?convert@half@@CAFH@Z      10059e5e f   Half_dll:Half_dll.dll
 0001:00058e64       ?_eLut@@3PAGA              10059e64 f   Half_dll:Half_dll.dll
 0001:00058e6a       ?_toFloat@@3PATuif@half@@A 10059e6a f   Half_dll:Half_dll.dll
 0001:00058e70       _compress                  10059e70 f   zlib1:zlib1.dll
 0001:00058e76       _uncompress                10059e76 f   zlib1:zlib1.dll
 0001:00058e7c       ?unlock@Mutex@IlmThread@@ABEXXZ 10059e7c f   ilmthread_dll:IlmThread_dll.dll
 0001:00058e82       ?lock@Mutex@IlmThread@@ABEXXZ 10059e82 f   ilmthread_dll:IlmThread_dll.dll
 0001:00058e88       ??0Mutex@IlmThread@@QAE@XZ 10059e88 f   ilmthread_dll:IlmThread_dll.dll
 0001:00058e8e       ??1Mutex@IlmThread@@UAE@XZ 10059e8e f   ilmthread_dll:IlmThread_dll.dll
 0001:00058e94       ??0Semaphore@IlmThread@@QAE@I@Z 10059e94 f   ilmthread_dll:IlmThread_dll.dll
 0001:00058e9a       ??1Semaphore@IlmThread@@UAE@XZ 10059e9a f   ilmthread_dll:IlmThread_dll.dll
 0001:00058ea0       ??1Task@IlmThread@@UAE@XZ  10059ea0 f   ilmthread_dll:IlmThread_dll.dll
 0001:00058ea6       ?wait@Semaphore@IlmThread@@QAEXXZ 10059ea6 f   ilmthread_dll:IlmThread_dll.dll
 0001:00058eac       ??0Task@IlmThread@@QAE@PAVTaskGroup@1@@Z 10059eac f   ilmthread_dll:IlmThread_dll.dll
 0001:00058eb2       ?post@Semaphore@IlmThread@@QAEXXZ 10059eb2 f   ilmthread_dll:IlmThread_dll.dll
 0001:00058eb8       ??1TaskGroup@IlmThread@@QAE@XZ 10059eb8 f   ilmthread_dll:IlmThread_dll.dll
 0001:00058ebe       ?addGlobalTask@ThreadPool@IlmThread@@SAXPAVTask@2@@Z 10059ebe f   ilmthread_dll:IlmThread_dll.dll
 0001:00058ec4       ??0TaskGroup@IlmThread@@QAE@XZ 10059ec4 f   ilmthread_dll:IlmThread_dll.dll
 0001:00058eca       ?numThreads@ThreadPool@IlmThread@@QBEHXZ 10059eca f   ilmthread_dll:IlmThread_dll.dll
 0001:00058ed0       ?globalThreadPool@ThreadPool@IlmThread@@SAAAV12@XZ 10059ed0 f   ilmthread_dll:IlmThread_dll.dll
 0001:00058ed6       ?setNumThreads@ThreadPool@IlmThread@@QAEXH@Z 10059ed6 f   ilmthread_dll:IlmThread_dll.dll
 0001:00058edc       ??_D?$basic_stringstream@DU?$char_traits@D@std@@V?$allocator@D@2@@std@@QAEXXZ 10059edc f   msvcprt:MSVCP80.dll
 0001:00058ee2       ??0?$basic_stringstream@DU?$char_traits@D@std@@V?$allocator@D@2@@std@@QAE@H@Z 10059ee2 f   msvcprt:MSVCP80.dll
 0001:00058ee8       ??0?$basic_string@DU?$char_traits@D@std@@V?$allocator@D@2@@std@@QAE@ABV01@@Z 10059ee8 f   msvcprt:MSVCP80.dll
 0001:00058eee       ??0?$_String_val@DV?$allocator@D@std@@@std@@QAE@ABV01@@Z 10059eee f   msvcprt:MSVCP80.dll
 0001:00058ef4       ??1?$basic_string@DU?$char_traits@D@std@@V?$allocator@D@2@@std@@QAE@XZ 10059ef4 f   msvcprt:MSVCP80.dll
 0001:00058efa       ??0?$basic_string@DU?$char_traits@D@std@@V?$allocator@D@2@@std@@QAE@PBD@Z 10059efa f   msvcprt:MSVCP80.dll
 0001:00058f00       ?c_str@?$basic_string@DU?$char_traits@D@std@@V?$allocator@D@2@@std@@QBEPBDXZ 10059f00 f   msvcprt:MSVCP80.dll
 0001:00058f06       ?_Osfx@?$basic_ostream@DU?$char_traits@D@std@@@std@@QAEXXZ 10059f06 f   msvcprt:MSVCP80.dll
 0001:00058f0c       ?uncaught_exception@std@@YA_NXZ 10059f0c f   msvcprt:MSVCP80.dll
 0001:00058f12       ?setstate@?$basic_ios@DU?$char_traits@D@std@@@std@@QAEXH_N@Z 10059f12 f   msvcprt:MSVCP80.dll
 0001:00058f18       ?width@ios_base@std@@QAEHH@Z 10059f18 f   msvcprt:MSVCP80.dll
 0001:00058f1e       ?sputn@?$basic_streambuf@DU?$char_traits@D@std@@@std@@QAEHPBDH@Z 10059f1e f   msvcprt:MSVCP80.dll
 0001:00058f24       ?eq_int_type@?$char_traits@D@std@@SA_NABH0@Z 10059f24 f   msvcprt:MSVCP80.dll
 0001:00058f2a       ?eof@?$char_traits@D@std@@SAHXZ 10059f2a f   msvcprt:MSVCP80.dll
 0001:00058f30       ?sputc@?$basic_streambuf@DU?$char_traits@D@std@@@std@@QAEHD@Z 10059f30 f   msvcprt:MSVCP80.dll
 0001:00058f36       ?rdbuf@?$basic_ios@DU?$char_traits@D@std@@@std@@QBEPAV?$basic_streambuf@DU?$char_traits@D@std@@@2@XZ 10059f36 f   msvcprt:MSVCP80.dll
 0001:00058f3c       ?fill@?$basic_ios@DU?$char_traits@D@std@@@std@@QBEDXZ 10059f3c f   msvcprt:MSVCP80.dll
 0001:00058f42       ?flags@ios_base@std@@QBEHXZ 10059f42 f   msvcprt:MSVCP80.dll
 0001:00058f48       ?width@ios_base@std@@QBEHXZ 10059f48 f   msvcprt:MSVCP80.dll
 0001:00058f4e       ?length@?$char_traits@D@std@@SAIPBD@Z 10059f4e f   msvcprt:MSVCP80.dll
 0001:00058f54       ?flush@?$basic_ostream@DU?$char_traits@D@std@@@std@@QAEAAV12@XZ 10059f54 f   msvcprt:MSVCP80.dll
 0001:00058f5a       ?tie@?$basic_ios@DU?$char_traits@D@std@@@std@@QBEPAV?$basic_ostream@DU?$char_traits@D@std@@@2@XZ 10059f5a f   msvcprt:MSVCP80.dll
 0001:00058f60       ?good@ios_base@std@@QBE_NXZ 10059f60 f   msvcprt:MSVCP80.dll
 0001:00058f66       ?_Lock@?$basic_streambuf@DU?$char_traits@D@std@@@std@@QAEXXZ 10059f66 f   msvcprt:MSVCP80.dll
 0001:00058f6c       ?_Unlock@?$basic_streambuf@DU?$char_traits@D@std@@@std@@QAEXXZ 10059f6c f   msvcprt:MSVCP80.dll
 0001:00058f72       ?erase@?$basic_string@DU?$char_traits@D@std@@V?$allocator@D@2@@std@@QAEAAV12@II@Z 10059f72 f   msvcprt:MSVCP80.dll
 0001:00058f78       ?size@?$basic_string@DU?$char_traits@D@std@@V?$allocator@D@2@@std@@QBEIXZ 10059f78 f   msvcprt:MSVCP80.dll
 0001:00058f7e       ?rfind@?$basic_string@DU?$char_traits@D@std@@V?$allocator@D@2@@std@@QBEIDI@Z 10059f7e f   msvcprt:MSVCP80.dll
 0001:00058f84       ??$?HDU?$char_traits@D@std@@V?$allocator@D@1@@std@@YA?AV?$basic_string@DU?$char_traits@D@std@@V?$allocator@D@2@@0@ABV10@D@Z 10059f84 f   msvcprt:MSVCP80.dll
 0001:00058f8a       ??$?MDU?$char_traits@D@std@@V?$allocator@D@1@@std@@YA_NABV?$basic_string@DU?$char_traits@D@std@@V?$allocator@D@2@@0@0@Z 10059f8a f   msvcprt:MSVCP80.dll
 0001:00058f90       ??4?$basic_string@DU?$char_traits@D@std@@V?$allocator@D@2@@std@@QAEAAV01@PBD@Z 10059f90 f   msvcprt:MSVCP80.dll
 0001:00058f96       ??4?$basic_string@DU?$char_traits@D@std@@V?$allocator@D@2@@std@@QAEAAV01@ABV01@@Z 10059f96 f   msvcprt:MSVCP80.dll
 0001:00058f9c       ??0?$basic_string@DU?$char_traits@D@std@@V?$allocator@D@2@@std@@QAE@XZ 10059f9c f   msvcprt:MSVCP80.dll
 0001:00058fa2       ??_D?$basic_ostringstream@DU?$char_traits@D@std@@V?$allocator@D@2@@std@@QAEXXZ 10059fa2 f   msvcprt:MSVCP80.dll
 0001:00058fa8       ?data@?$basic_string@DU?$char_traits@D@std@@V?$allocator@D@2@@std@@QBEPBDXZ 10059fa8 f   msvcprt:MSVCP80.dll
 0001:00058fae       ?length@?$basic_string@DU?$char_traits@D@std@@V?$allocator@D@2@@std@@QBEIXZ 10059fae f   msvcprt:MSVCP80.dll
 0001:00058fb4       ?str@?$basic_ostringstream@DU?$char_traits@D@std@@V?$allocator@D@2@@std@@QBE?AV?$basic_string@DU?$char_traits@D@std@@V?$allocator@D@2@@2@XZ 10059fb4 f   msvcprt:MSVCP80.dll
 0001:00058fba       ??6?$basic_ostream@DU?$char_traits@D@std@@@std@@QAEAAV01@H@Z 10059fba f   msvcprt:MSVCP80.dll
 0001:00058fc0       ??_U@YAPAXI@Z              10059fc0 f   msvcprt:newaop_s.obj
 0001:00058fc6       ??$?6DU?$char_traits@D@std@@V?$allocator@D@1@@std@@YAAAV?$basic_ostream@DU?$char_traits@D@std@@@0@AAV10@ABV?$basic_string@DU?$char_traits@D@std@@V?$allocator@D@2@@0@@Z 10059fc6 f   msvcprt:MSVCP80.dll
 0001:00058fcc       ?_Lock@_Mutex@std@@QAEXXZ  10059fcc f   msvcprt:MSVCP80.dll
 0001:00058fd2       ?_Unlock@_Mutex@std@@QAEXXZ 10059fd2 f   msvcprt:MSVCP80.dll
 0001:00058fd8       ??0?$basic_ifstream@DU?$char_traits@D@std@@@std@@QAE@PBDHH@Z 10059fd8 f   msvcprt:MSVCP80.dll
 0001:00058fde       ??_D?$basic_ifstream@DU?$char_traits@D@std@@@std@@QAEXXZ 10059fde f   msvcprt:MSVCP80.dll
 0001:00058fe4       ?read@?$basic_istream@DU?$char_traits@D@std@@@std@@QAEAAV12@PADH@Z 10059fe4 f   msvcprt:MSVCP80.dll
 0001:00058fea       ?clear@?$basic_ios@DU?$char_traits@D@std@@@std@@QAEXH_N@Z 10059fea f   msvcprt:MSVCP80.dll
 0001:00058ff0       ??0?$basic_ofstream@DU?$char_traits@D@std@@@std@@QAE@PBDHH@Z 10059ff0 f   msvcprt:MSVCP80.dll
 0001:00058ff6       ??_D?$basic_ofstream@DU?$char_traits@D@std@@@std@@QAEXXZ 10059ff6 f   msvcprt:MSVCP80.dll
 0001:00058ffc       ?write@?$basic_ostream@DU?$char_traits@D@std@@@std@@QAEAAV12@PBDH@Z 10059ffc f   msvcprt:MSVCP80.dll
 0001:00059002       ??0?$basic_ostringstream@DU?$char_traits@D@std@@V?$allocator@D@2@@std@@QAE@H@Z 1005a002 f   msvcprt:MSVCP80.dll
 0001:00059008       ?tellg@?$basic_istream@DU?$char_traits@D@std@@@std@@QAE?AV?$fpos@H@2@XZ 1005a008 f   msvcprt:MSVCP80.dll
 0001:0005900e       ?seekg@?$basic_istream@DU?$char_traits@D@std@@@std@@QAEAAV12@V?$fpos@H@2@@Z 1005a00e f   msvcprt:MSVCP80.dll
 0001:00059014       ?tellp@?$basic_ostream@DU?$char_traits@D@std@@@std@@QAE?AV?$fpos@H@2@XZ 1005a014 f   msvcprt:MSVCP80.dll
 0001:0005901a       ?seekp@?$basic_ostream@DU?$char_traits@D@std@@@std@@QAEAAV12@V?$fpos@H@2@@Z 1005a01a f   msvcprt:MSVCP80.dll
 0001:00059020       ??A?$basic_string@DU?$char_traits@D@std@@V?$allocator@D@2@@std@@QBEABDI@Z 1005a020 f   msvcprt:MSVCP80.dll
 0001:00059026       ??A?$basic_string@DU?$char_traits@D@std@@V?$allocator@D@2@@std@@QAEAADI@Z 1005a026 f   msvcprt:MSVCP80.dll
 0001:0005902c       ?resize@?$basic_string@DU?$char_traits@D@std@@V?$allocator@D@2@@std@@QAEXI@Z 1005a02c f   msvcprt:MSVCP80.dll
 0001:00059032       __RTC_InitBase             1005a032 f   MSVCRT:init.obj
 0001:00059058       __RTC_Shutdown             1005a058 f   MSVCRT:init.obj
 0001:0005906a       ??0type_info@@AAE@ABV0@@Z  1005a06a f   MSVCRT:ti_inst.obj
 0001:00059075       ??_Etype_info@@UAEPAXI@Z   1005a075 f i MSVCRT:ti_inst.obj
 0001:000590be       ??4type_info@@AAEAAV0@ABV0@@Z 1005a0be f   MSVCRT:ti_inst.obj
 0001:000590c4       __purecall                 1005a0c4 f   MSVCRT:MSVCR80.dll
 0001:000590ca       ??3@YAXPAX@Z               1005a0ca f   MSVCRT:MSVCR80.dll
 0001:000590d0       __RTC_CheckEsp             1005a0d0 f   MSVCRT:stack.obj
 0001:000590f3       @_RTC_CheckStackVars@8     1005a0f3 f   MSVCRT:stack.obj
 0001:0005914d       @_RTC_AllocaHelper@12      1005a14d f   MSVCRT:stack.obj
 0001:0005917a       @_RTC_CheckStackVars2@12   1005a17a f   MSVCRT:stack.obj
 0001:0005922e       ??2@YAPAXI@Z               1005a22e f   MSVCRT:MSVCR80.dll
 0001:00059234       __onexit                   1005a234 f   MSVCRT:atonexit.obj
 0001:000592d3       _atexit                    1005a2d3 f   MSVCRT:atonexit.obj
 0001:000592e6       ___CxxFrameHandler3        1005a2e6 f   MSVCRT:MSVCR80.dll
 0001:000592ec       __invalid_parameter_noinfo 1005a2ec f   MSVCRT:MSVCR80.dll
 0001:000592f2       __CxxThrowException@8      1005a2f2 f   MSVCRT:MSVCR80.dll
 0001:000592f8       ??0exception@std@@QAE@ABV01@@Z 1005a2f8 f   MSVCRT:MSVCR80.dll
 0001:000592fe       ??1exception@std@@UAE@XZ   1005a2fe f   MSVCRT:MSVCR80.dll
 0001:00059304       ??0exception@std@@QAE@XZ   1005a304 f   MSVCRT:MSVCR80.dll
 0001:00059310       ___RTDynamicCast           1005a310 f   MSVCRT:MSVCR80.dll
 0001:00059316       ??0exception@std@@QAE@ABQBD@Z 1005a316 f   MSVCRT:MSVCR80.dll
 0001:0005931c       ?what@exception@std@@UBEPBDXZ 1005a31c f   MSVCRT:MSVCR80.dll
 0001:00059330       __aullshr                  1005a330 f   MSVCRT:ullshr.obj
 0001:00059350       __allshl                   1005a350 f   MSVCRT:llshl.obj
 0001:00059370       _strncpy                   1005a370 f   MSVCRT:MSVCR80.dll
 0001:00059376       _strncmp                   1005a376 f   MSVCRT:MSVCR80.dll
 0001:00059380       __ftol2_sse                1005a380 f   MSVCRT:ftol2.obj
 0001:00059389       __ftol2_pentium4           1005a389 f   MSVCRT:ftol2.obj
 0001:0005939c       __ftol2_sse_excpt          1005a39c f   MSVCRT:ftol2.obj
 0001:000593b6       __ftol2                    1005a3b6 f   MSVCRT:ftol2.obj
 0001:0005942c       __CIacos                   1005a42c f   MSVCRT:MSVCR80.dll
 0001:00059432       __CIasin                   1005a432 f   MSVCRT:MSVCR80.dll
 0001:00059438       __CIatan2                  1005a438 f   MSVCRT:MSVCR80.dll
 0001:0005943e       __CIcos                    1005a43e f   MSVCRT:MSVCR80.dll
 0001:00059444       __CIsin                    1005a444 f   MSVCRT:MSVCR80.dll
 0001:0005944a       __CIsqrt                   1005a44a f   MSVCRT:MSVCR80.dll
 0001:00059450       __allmul                   1005a450 f   MSVCRT:llmul.obj
 0001:00059484       ??_V@YAXPAX@Z              1005a484 f   MSVCRT:MSVCR80.dll
 0001:0005948a       _memcpy                    1005a48a f   MSVCRT:MSVCR80.dll
 0001:00059490       _memset                    1005a490 f   MSVCRT:MSVCR80.dll
 0001:00059496       __CIlog                    1005a496 f   MSVCRT:MSVCR80.dll
 0001:0005949c       __CIpow                    1005a49c f   MSVCRT:MSVCR80.dll
 0001:00059554       _DebuggerKnownHandle       1005a554 f   MSVCRT:error.obj
 0001:0005974c       ?_RTC_Failure@@YAXPAXH@Z   1005a74c f   MSVCRT:error.obj
 0001:00059784       ?_RTC_StackFailure@@YAXPAXPBD@Z 1005a784 f   MSVCRT:error.obj
 0001:000598da       ?_RTC_AllocaFailure@@YAXPAXPAU_RTC_ALLOCA_NODE@@H@Z 1005a8da f   MSVCRT:error.obj
 0001:000599f7       __RTC_UninitUse            1005a9f7 f   MSVCRT:error.obj
 0001:00059ad8       _memmove_s                 1005aad8 f   MSVCRT:MSVCR80.dll
 0001:00059ade       _ceil                      1005aade f   MSVCRT:MSVCR80.dll
 0001:00059ae4       __errno                    1005aae4 f   MSVCRT:MSVCR80.dll
 0001:00059aea       _NtCurrentTeb              1005aaea f i MSVCRT:crtdll.obj
 0001:00059b3e       __CRT_INIT@12              1005ab3e f   MSVCRT:crtdll.obj
 0001:00059df3       __DllMainCRTStartup@12     1005adf3 f   MSVCRT:crtdll.obj
 0001:00059e14       __RTC_NumErrors            1005ae14 f   MSVCRT:userapi.obj
 0001:00059e18       __RTC_GetErrDesc           1005ae18 f   MSVCRT:userapi.obj
 0001:00059e2c       __RTC_SetErrorType         1005ae2c f   MSVCRT:userapi.obj
 0001:00059e49       __RTC_SetErrorFunc         1005ae49 f   MSVCRT:userapi.obj
 0001:00059e60       __RTC_SetErrorFuncW        1005ae60 f   MSVCRT:userapi.obj
 0001:00059e77       ?_RTC_GetErrorFunc@@YAP6AHHPBDH00ZZPBX@Z 1005ae77 f   MSVCRT:userapi.obj
 0001:00059e7d       ?_RTC_GetErrorFuncW@@YAP6AHHPB_WH00ZZPBX@Z 1005ae7d f   MSVCRT:userapi.obj
 0001:00059e84       __CRT_RTC_INITW            1005ae84 f   MSVCRT:MSVCR80.dll
 0001:00059e9c       ?__ArrayUnwind@@YGXPAXIHP6EX0@Z@Z 1005ae9c f   MSVCRT:ehvecdtr.obj
 0001:00059efa       ??_M@YGXPAXIHP6EX0@Z@Z     1005aefa f   MSVCRT:ehvecdtr.obj
 0001:00059f5e       __unlock                   1005af5e f   MSVCRT:MSVCR80.dll
 0001:00059f64       __encode_pointer           1005af64 f   MSVCRT:MSVCR80.dll
 0001:00059f6a       ___dllonexit               1005af6a f   MSVCRT:MSVCR80.dll
 0001:00059f70       __lock                     1005af70 f   MSVCRT:MSVCR80.dll
 0001:00059f76       __decode_pointer           1005af76 f   MSVCRT:MSVCR80.dll
 0001:00059f7c       __SEH_prolog4              1005af7c f   MSVCRT:sehprolg4.obj
 0001:00059fc1       __SEH_epilog4              1005afc1 f   MSVCRT:sehprolg4.obj
 0001:00059fd5       __except_handler4          1005afd5 f   MSVCRT:chandler4gs.obj
 0001:0005a048       __get_sse2_info            1005b048 f   MSVCRT:cpu_disp.obj
 0001:0005a0a8       ___sse2_available_init     1005b0a8 f   MSVCRT:cpu_disp.obj
 0001:0005a20c       ?_RTC_GetSrcLine@@YAHPAEPA_WKPAH1K@Z 1005b20c f   MSVCRT:pdblkup.obj
 0001:0005a482       @__security_check_cookie@4 1005b482 f   MSVCRT:secchk.obj
 0001:0005a491       ___clean_type_info_names   1005b491 f   MSVCRT:tncleanup.obj
 0001:0005a49d       __RTC_Initialize           1005b49d f   MSVCRT:initsect.obj
 0001:0005a4c1       __RTC_Terminate            1005b4c1 f   MSVCRT:initsect.obj
 0001:0005a4e6       __malloc_crt               1005b4e6 f   MSVCRT:MSVCR80.dll
 0001:0005a4ec       __encoded_null             1005b4ec f   MSVCRT:MSVCR80.dll
 0001:0005a4f2       _free                      1005b4f2 f   MSVCRT:MSVCR80.dll
 0001:0005a500       __ValidateImageBase        1005b500 f   MSVCRT:pesect.obj
 0001:0005a530       __FindPESection            1005b530 f   MSVCRT:pesect.obj
 0001:0005a572       __IsNonwritableInCurrentImage 1005b572 f   MSVCRT:pesect.obj
 0001:0005a5de       __initterm                 1005b5de f   MSVCRT:MSVCR80.dll
 0001:0005a5e4       __initterm_e               1005b5e4 f   MSVCRT:MSVCR80.dll
 0001:0005a5ea       __amsg_exit                1005b5ea f   MSVCRT:MSVCR80.dll
 0001:0005a5f0       ___CppXcptFilter           1005b5f0 f   MSVCRT:MSVCR80.dll
 0001:0005a5f6       _DllMain@12                1005b5f6 f   MSVCRT:dllmain.obj
 0001:0005a616       ___security_init_cookie    1005b616 f   MSVCRT:gs_support.obj
 0001:0005a6aa       ?terminate@@YAXXZ          1005b6aa f   MSVCRT:MSVCR80.dll
 0001:0005a6b0       ?_type_info_dtor_internal_method@type_info@@QAEXXZ 1005b6b0 f   MSVCRT:MSVCR80.dll
 0001:0005a6b0       ??1type_info@@UAE@XZ       1005b6b0 f   MSVCRT:MSVCR80.dll
 0001:0005a6b6       __except_handler4_common   1005b6b6 f   MSVCRT:MSVCR80.dll
 0001:0005a6bc       ___report_gsfailure        1005b6bc f   MSVCRT:gs_report.obj
 0001:0005a7c0       ___clean_type_info_names_internal 1005b7c0 f   MSVCRT:MSVCR80.dll
 0001:0005a7c6       __crt_debugger_hook        1005b7c6 f   MSVCRT:MSVCR80.dll
 0001:0005a7cc       _RaiseException@16         1005b7cc f   kernel32:KERNEL32.dll
 0001:0005a7d2       _DebugBreak@0              1005b7d2 f   kernel32:KERNEL32.dll
 0001:0005a7d8       _WideCharToMultiByte@32    1005b7d8 f   kernel32:KERNEL32.dll
 0001:0005a7de       _IsDebuggerPresent@0       1005b7de f   kernel32:KERNEL32.dll
 0001:0005a7e4       _MultiByteToWideChar@24    1005b7e4 f   kernel32:KERNEL32.dll
 0001:0005a7ea       _lstrlenA@4                1005b7ea f   kernel32:KERNEL32.dll
 0001:0005a7f0       _GetProcAddress@8          1005b7f0 f   kernel32:KERNEL32.dll
 0001:0005a7f6       _LoadLibraryA@4            1005b7f6 f   kernel32:KERNEL32.dll
 0001:0005a7fc       _InterlockedExchange@8     1005b7fc f   kernel32:KERNEL32.dll
 0001:0005a802       _Sleep@4                   1005b802 f   kernel32:KERNEL32.dll
 0001:0005a808       _InterlockedCompareExchange@12 1005b808 f   kernel32:KERNEL32.dll
 0001:0005a80e       _FreeLibrary@4             1005b80e f   kernel32:KERNEL32.dll
 0001:0005a814       _HeapFree@12               1005b814 f   kernel32:KERNEL32.dll
 0001:0005a81a       _HeapAlloc@12              1005b81a f   kernel32:KERNEL32.dll
 0001:0005a820       _GetProcessHeap@0          1005b820 f   kernel32:KERNEL32.dll
 0001:0005a826       _GetModuleFileNameW@12     1005b826 f   kernel32:KERNEL32.dll
 0001:0005a82c       _VirtualQuery@12           1005b82c f   kernel32:KERNEL32.dll
 0001:0005a832       _DisableThreadLibraryCalls@4 1005b832 f   kernel32:KERNEL32.dll
 0001:0005a838       _QueryPerformanceCounter@4 1005b838 f   kernel32:KERNEL32.dll
 0001:0005a83e       _GetTickCount@0            1005b83e f   kernel32:KERNEL32.dll
 0001:0005a844       _GetCurrentThreadId@0      1005b844 f   kernel32:KERNEL32.dll
 0001:0005a84a       _GetCurrentProcessId@0     1005b84a f   kernel32:KERNEL32.dll
 0001:0005a850       _GetSystemTimeAsFileTime@4 1005b850 f   kernel32:KERNEL32.dll
 0001:0005a856       _TerminateProcess@8        1005b856 f   kernel32:KERNEL32.dll
 0001:0005a85c       _GetCurrentProcess@0       1005b85c f   kernel32:KERNEL32.dll
 0001:0005a862       _UnhandledExceptionFilter@4 1005b862 f   kernel32:KERNEL32.dll
 0001:0005a868       _SetUnhandledExceptionFilter@4 1005b868 f   kernel32:KERNEL32.dll
 0002:00000000       __imp_?_eLut@@3PAGA        1005f000     Half_dll:Half_dll.dll
 0002:00000004       __imp_?convert@half@@CAFH@Z 1005f004     Half_dll:Half_dll.dll
 0002:00000008       __imp_?_toFloat@@3PATuif@half@@A 1005f008     Half_dll:Half_dll.dll
 0002:0000000c       \177Half_dll_NULL_THUNK_DATA 1005f00c     Half_dll:Half_dll.dll
 0002:00000010       __imp_?assign@BaseExc@Iex@@QAEAAV12@AAV?$basic_stringstream@DU?$char_traits@D@std@@V?$allocator@D@2@@std@@@Z 1005f010     Iex_dll:Iex_dll.dll
 0002:00000014       __imp_??1BaseExc@Iex@@UAE@XZ 1005f014     Iex_dll:Iex_dll.dll
 0002:00000018       __imp_??0BaseExc@Iex@@QAE@ABV?$basic_string@DU?$char_traits@D@std@@V?$allocator@D@2@@std@@@Z 1005f018     Iex_dll:Iex_dll.dll
 0002:0000001c       __imp_??0BaseExc@Iex@@QAE@ABV01@@Z 1005f01c     Iex_dll:Iex_dll.dll
 0002:00000020       __imp_?what@BaseExc@Iex@@UBEPBDXZ 1005f020     Iex_dll:Iex_dll.dll
 0002:00000024       __imp_?throwErrnoExc@Iex@@YAXABV?$basic_string@DU?$char_traits@D@std@@V?$allocator@D@2@@std@@@Z 1005f024     Iex_dll:Iex_dll.dll
 0002:00000028       __imp_??0BaseExc@Iex@@QAE@PBD@Z 1005f028     Iex_dll:Iex_dll.dll
 0002:0000002c       __imp_??0BaseExc@Iex@@QAE@AAV?$basic_stringstream@DU?$char_traits@D@std@@V?$allocator@D@2@@std@@@Z 1005f02c     Iex_dll:Iex_dll.dll
 0002:00000030       \177Iex_dll_NULL_THUNK_DATA 1005f030     Iex_dll:Iex_dll.dll
 0002:00000034       __imp_?setNumThreads@ThreadPool@IlmThread@@QAEXH@Z 1005f034     ilmthread_dll:IlmThread_dll.dll
 0002:00000038       __imp_?globalThreadPool@ThreadPool@IlmThread@@SAAAV12@XZ 1005f038     ilmthread_dll:IlmThread_dll.dll
 0002:0000003c       __imp_?numThreads@ThreadPool@IlmThread@@QBEHXZ 1005f03c     ilmthread_dll:IlmThread_dll.dll
 0002:00000040       __imp_?unlock@Mutex@IlmThread@@ABEXXZ 1005f040     ilmthread_dll:IlmThread_dll.dll
 0002:00000044       __imp_?lock@Mutex@IlmThread@@ABEXXZ 1005f044     ilmthread_dll:IlmThread_dll.dll
 0002:00000048       __imp_??0Mutex@IlmThread@@QAE@XZ 1005f048     ilmthread_dll:IlmThread_dll.dll
 0002:0000004c       __imp_??1Mutex@IlmThread@@UAE@XZ 1005f04c     ilmthread_dll:IlmThread_dll.dll
 0002:00000050       __imp_??0Semaphore@IlmThread@@QAE@I@Z 1005f050     ilmthread_dll:IlmThread_dll.dll
 0002:00000054       __imp_??1Semaphore@IlmThread@@UAE@XZ 1005f054     ilmthread_dll:IlmThread_dll.dll
 0002:00000058       __imp_??1Task@IlmThread@@UAE@XZ 1005f058     ilmthread_dll:IlmThread_dll.dll
 0002:0000005c       __imp_?wait@Semaphore@IlmThread@@QAEXXZ 1005f05c     ilmthread_dll:IlmThread_dll.dll
 0002:00000060       __imp_??0Task@IlmThread@@QAE@PAVTaskGroup@1@@Z 1005f060     ilmthread_dll:IlmThread_dll.dll
 0002:00000064       __imp_?post@Semaphore@IlmThread@@QAEXXZ 1005f064     ilmthread_dll:IlmThread_dll.dll
 0002:00000068       __imp_??1TaskGroup@IlmThread@@QAE@XZ 1005f068     ilmthread_dll:IlmThread_dll.dll
 0002:0000006c       __imp_?addGlobalTask@ThreadPool@IlmThread@@SAXPAVTask@2@@Z 1005f06c     ilmthread_dll:IlmThread_dll.dll
 0002:00000070       __imp_??0TaskGroup@IlmThread@@QAE@XZ 1005f070     ilmthread_dll:IlmThread_dll.dll
 0002:00000074       \177IlmThread_dll_NULL_THUNK_DATA 1005f074     ilmthread_dll:IlmThread_dll.dll
 0002:00000078       __imp__SetUnhandledExceptionFilter@4 1005f078     kernel32:KERNEL32.dll
 0002:0000007c       __imp__UnhandledExceptionFilter@4 1005f07c     kernel32:KERNEL32.dll
 0002:00000080       __imp__GetCurrentProcess@0 1005f080     kernel32:KERNEL32.dll
 0002:00000084       __imp__TerminateProcess@8  1005f084     kernel32:KERNEL32.dll
 0002:00000088       __imp__GetSystemTimeAsFileTime@4 1005f088     kernel32:KERNEL32.dll
 0002:0000008c       __imp__GetCurrentProcessId@0 1005f08c     kernel32:KERNEL32.dll
 0002:00000090       __imp__GetCurrentThreadId@0 1005f090     kernel32:KERNEL32.dll
 0002:00000094       __imp__GetTickCount@0      1005f094     kernel32:KERNEL32.dll
 0002:00000098       __imp__QueryPerformanceCounter@4 1005f098     kernel32:KERNEL32.dll
 0002:0000009c       __imp__DisableThreadLibraryCalls@4 1005f09c     kernel32:KERNEL32.dll
 0002:000000a0       __imp__VirtualQuery@12     1005f0a0     kernel32:KERNEL32.dll
 0002:000000a4       __imp__GetModuleFileNameW@12 1005f0a4     kernel32:KERNEL32.dll
 0002:000000a8       __imp__GetProcessHeap@0    1005f0a8     kernel32:KERNEL32.dll
 0002:000000ac       __imp__HeapAlloc@12        1005f0ac     kernel32:KERNEL32.dll
 0002:000000b0       __imp__HeapFree@12         1005f0b0     kernel32:KERNEL32.dll
 0002:000000b4       __imp__FreeLibrary@4       1005f0b4     kernel32:KERNEL32.dll
 0002:000000b8       __imp__InterlockedCompareExchange@12 1005f0b8     kernel32:KERNEL32.dll
 0002:000000bc       __imp__Sleep@4             1005f0bc     kernel32:KERNEL32.dll
 0002:000000c0       __imp__InterlockedExchange@8 1005f0c0     kernel32:KERNEL32.dll
 0002:000000c4       __imp__LoadLibraryA@4      1005f0c4     kernel32:KERNEL32.dll
 0002:000000c8       __imp__GetProcAddress@8    1005f0c8     kernel32:KERNEL32.dll
 0002:000000cc       __imp__lstrlenA@4          1005f0cc     kernel32:KERNEL32.dll
 0002:000000d0       __imp__MultiByteToWideChar@24 1005f0d0     kernel32:KERNEL32.dll
 0002:000000d4       __imp__IsDebuggerPresent@0 1005f0d4     kernel32:KERNEL32.dll
 0002:000000d8       __imp__WideCharToMultiByte@32 1005f0d8     kernel32:KERNEL32.dll
 0002:000000dc       __imp__DebugBreak@0        1005f0dc     kernel32:KERNEL32.dll
 0002:000000e0       __imp__RaiseException@16   1005f0e0     kernel32:KERNEL32.dll
 0002:000000e4       \177KERNEL32_NULL_THUNK_DATA 1005f0e4     kernel32:KERNEL32.dll
 0002:000000e8       __imp_?erase@?$basic_string@DU?$char_traits@D@std@@V?$allocator@D@2@@std@@QAEAAV12@II@Z 1005f0e8     msvcprt:MSVCP80.dll
 0002:000000ec       __imp_?size@?$basic_string@DU?$char_traits@D@std@@V?$allocator@D@2@@std@@QBEIXZ 1005f0ec     msvcprt:MSVCP80.dll
 0002:000000f0       __imp_?rfind@?$basic_string@DU?$char_traits@D@std@@V?$allocator@D@2@@std@@QBEIDI@Z 1005f0f0     msvcprt:MSVCP80.dll
 0002:000000f4       __imp_?npos@?$basic_string@DU?$char_traits@D@std@@V?$allocator@D@2@@std@@2IB 1005f0f4     msvcprt:MSVCP80.dll
 0002:000000f8       __imp_??$?HDU?$char_traits@D@std@@V?$allocator@D@1@@std@@YA?AV?$basic_string@DU?$char_traits@D@std@@V?$allocator@D@2@@0@ABV10@D@Z 1005f0f8     msvcprt:MSVCP80.dll
 0002:000000fc       __imp_??$?MDU?$char_traits@D@std@@V?$allocator@D@1@@std@@YA_NABV?$basic_string@DU?$char_traits@D@std@@V?$allocator@D@2@@0@0@Z 1005f0fc     msvcprt:MSVCP80.dll
 0002:00000100       __imp_??4?$basic_string@DU?$char_traits@D@std@@V?$allocator@D@2@@std@@QAEAAV01@PBD@Z 1005f100     msvcprt:MSVCP80.dll
 0002:00000104       __imp_??4?$basic_string@DU?$char_traits@D@std@@V?$allocator@D@2@@std@@QAEAAV01@ABV01@@Z 1005f104     msvcprt:MSVCP80.dll
 0002:00000108       __imp_??0?$basic_string@DU?$char_traits@D@std@@V?$allocator@D@2@@std@@QAE@XZ 1005f108     msvcprt:MSVCP80.dll
 0002:0000010c       __imp_??_D?$basic_ostringstream@DU?$char_traits@D@std@@V?$allocator@D@2@@std@@QAEXXZ 1005f10c     msvcprt:MSVCP80.dll
 0002:00000110       __imp_?data@?$basic_string@DU?$char_traits@D@std@@V?$allocator@D@2@@std@@QBEPBDXZ 1005f110     msvcprt:MSVCP80.dll
 0002:00000114       __imp_?length@?$basic_string@DU?$char_traits@D@std@@V?$allocator@D@2@@std@@QBEIXZ 1005f114     msvcprt:MSVCP80.dll
 0002:00000118       __imp_?str@?$basic_ostringstream@DU?$char_traits@D@std@@V?$allocator@D@2@@std@@QBE?AV?$basic_string@DU?$char_traits@D@std@@V?$allocator@D@2@@2@XZ 1005f118     msvcprt:MSVCP80.dll
 0002:0000011c       __imp_??6?$basic_ostream@DU?$char_traits@D@std@@@std@@QAEAAV01@H@Z 1005f11c     msvcprt:MSVCP80.dll
 0002:00000120       __imp_??$?6DU?$char_traits@D@std@@V?$allocator@D@1@@std@@YAAAV?$basic_ostream@DU?$char_traits@D@std@@@0@AAV10@ABV?$basic_string@DU?$char_traits@D@std@@V?$allocator@D@2@@0@@Z 1005f120     msvcprt:MSVCP80.dll
 0002:00000124       __imp_?_Lock@_Mutex@std@@QAEXXZ 1005f124     msvcprt:MSVCP80.dll
 0002:00000128       __imp_?_Unlock@_Mutex@std@@QAEXXZ 1005f128     msvcprt:MSVCP80.dll
 0002:0000012c       __imp_??0?$basic_ifstream@DU?$char_traits@D@std@@@std@@QAE@PBDHH@Z 1005f12c     msvcprt:MSVCP80.dll
 0002:00000130       __imp_??_D?$basic_ifstream@DU?$char_traits@D@std@@@std@@QAEXXZ 1005f130     msvcprt:MSVCP80.dll
 0002:00000134       __imp_?read@?$basic_istream@DU?$char_traits@D@std@@@std@@QAEAAV12@PADH@Z 1005f134     msvcprt:MSVCP80.dll
 0002:00000138       __imp_?clear@?$basic_ios@DU?$char_traits@D@std@@@std@@QAEXH_N@Z 1005f138     msvcprt:MSVCP80.dll
 0002:0000013c       __imp_??0?$basic_ofstream@DU?$char_traits@D@std@@@std@@QAE@PBDHH@Z 1005f13c     msvcprt:MSVCP80.dll
 0002:00000140       __imp_??_D?$basic_ofstream@DU?$char_traits@D@std@@@std@@QAEXXZ 1005f140     msvcprt:MSVCP80.dll
 0002:00000144       __imp_?write@?$basic_ostream@DU?$char_traits@D@std@@@std@@QAEAAV12@PBDH@Z 1005f144     msvcprt:MSVCP80.dll
 0002:00000148       __imp_??0?$basic_ostringstream@DU?$char_traits@D@std@@V?$allocator@D@2@@std@@QAE@H@Z 1005f148     msvcprt:MSVCP80.dll
 0002:0000014c       __imp_?tellg@?$basic_istream@DU?$char_traits@D@std@@@std@@QAE?AV?$fpos@H@2@XZ 1005f14c     msvcprt:MSVCP80.dll
 0002:00000150       __imp_?_Unlock@?$basic_streambuf@DU?$char_traits@D@std@@@std@@QAEXXZ 1005f150     msvcprt:MSVCP80.dll
 0002:00000154       __imp_?tellp@?$basic_ostream@DU?$char_traits@D@std@@@std@@QAE?AV?$fpos@H@2@XZ 1005f154     msvcprt:MSVCP80.dll
 0002:00000158       __imp_?seekp@?$basic_ostream@DU?$char_traits@D@std@@@std@@QAEAAV12@V?$fpos@H@2@@Z 1005f158     msvcprt:MSVCP80.dll
 0002:0000015c       __imp_??A?$basic_string@DU?$char_traits@D@std@@V?$allocator@D@2@@std@@QBEABDI@Z 1005f15c     msvcprt:MSVCP80.dll
 0002:00000160       __imp_??A?$basic_string@DU?$char_traits@D@std@@V?$allocator@D@2@@std@@QAEAADI@Z 1005f160     msvcprt:MSVCP80.dll
 0002:00000164       __imp_?resize@?$basic_string@DU?$char_traits@D@std@@V?$allocator@D@2@@std@@QAEXI@Z 1005f164     msvcprt:MSVCP80.dll
 0002:00000168       __imp_??_D?$basic_stringstream@DU?$char_traits@D@std@@V?$allocator@D@2@@std@@QAEXXZ 1005f168     msvcprt:MSVCP80.dll
 0002:0000016c       __imp_??0?$basic_stringstream@DU?$char_traits@D@std@@V?$allocator@D@2@@std@@QAE@H@Z 1005f16c     msvcprt:MSVCP80.dll
 0002:00000170       __imp_??0?$basic_string@DU?$char_traits@D@std@@V?$allocator@D@2@@std@@QAE@ABV01@@Z 1005f170     msvcprt:MSVCP80.dll
 0002:00000174       __imp_??0?$_String_val@DV?$allocator@D@std@@@std@@QAE@ABV01@@Z 1005f174     msvcprt:MSVCP80.dll
 0002:00000178       __imp_??1?$basic_string@DU?$char_traits@D@std@@V?$allocator@D@2@@std@@QAE@XZ 1005f178     msvcprt:MSVCP80.dll
 0002:0000017c       __imp_??0?$basic_string@DU?$char_traits@D@std@@V?$allocator@D@2@@std@@QAE@PBD@Z 1005f17c     msvcprt:MSVCP80.dll
 0002:00000180       __imp_?c_str@?$basic_string@DU?$char_traits@D@std@@V?$allocator@D@2@@std@@QBEPBDXZ 1005f180     msvcprt:MSVCP80.dll
 0002:00000184       __imp_?_Osfx@?$basic_ostream@DU?$char_traits@D@std@@@std@@QAEXXZ 1005f184     msvcprt:MSVCP80.dll
 0002:00000188       __imp_?uncaught_exception@std@@YA_NXZ 1005f188     msvcprt:MSVCP80.dll
 0002:0000018c       __imp_?setstate@?$basic_ios@DU?$char_traits@D@std@@@std@@QAEXH_N@Z 1005f18c     msvcprt:MSVCP80.dll
 0002:00000190       __imp_?width@ios_base@std@@QAEHH@Z 1005f190     msvcprt:MSVCP80.dll
 0002:00000194       __imp_?sputn@?$basic_streambuf@DU?$char_traits@D@std@@@std@@QAEHPBDH@Z 1005f194     msvcprt:MSVCP80.dll
 0002:00000198       __imp_?eq_int_type@?$char_traits@D@std@@SA_NABH0@Z 1005f198     msvcprt:MSVCP80.dll
 0002:0000019c       __imp_?eof@?$char_traits@D@std@@SAHXZ 1005f19c     msvcprt:MSVCP80.dll
 0002:000001a0       __imp_?sputc@?$basic_streambuf@DU?$char_traits@D@std@@@std@@QAEHD@Z 1005f1a0     msvcprt:MSVCP80.dll
 0002:000001a4       __imp_?rdbuf@?$basic_ios@DU?$char_traits@D@std@@@std@@QBEPAV?$basic_streambuf@DU?$char_traits@D@std@@@2@XZ 1005f1a4     msvcprt:MSVCP80.dll
 0002:000001a8       __imp_?fill@?$basic_ios@DU?$char_traits@D@std@@@std@@QBEDXZ 1005f1a8     msvcprt:MSVCP80.dll
 0002:000001ac       __imp_?flags@ios_base@std@@QBEHXZ 1005f1ac     msvcprt:MSVCP80.dll
 0002:000001b0       __imp_?width@ios_base@std@@QBEHXZ 1005f1b0     msvcprt:MSVCP80.dll
 0002:000001b4       __imp_?length@?$char_traits@D@std@@SAIPBD@Z 1005f1b4     msvcprt:MSVCP80.dll
 0002:000001b8       __imp_?flush@?$basic_ostream@DU?$char_traits@D@std@@@std@@QAEAAV12@XZ 1005f1b8     msvcprt:MSVCP80.dll
 0002:000001bc       __imp_?tie@?$basic_ios@DU?$char_traits@D@std@@@std@@QBEPAV?$basic_ostream@DU?$char_traits@D@std@@@2@XZ 1005f1bc     msvcprt:MSVCP80.dll
 0002:000001c0       __imp_?seekg@?$basic_istream@DU?$char_traits@D@std@@@std@@QAEAAV12@V?$fpos@H@2@@Z 1005f1c0     msvcprt:MSVCP80.dll
 0002:000001c4       __imp_?good@ios_base@std@@QBE_NXZ 1005f1c4     msvcprt:MSVCP80.dll
 0002:000001c8       __imp_?_Lock@?$basic_streambuf@DU?$char_traits@D@std@@@std@@QAEXXZ 1005f1c8     msvcprt:MSVCP80.dll
 0002:000001cc       \177MSVCP80_NULL_THUNK_DATA 1005f1cc     msvcprt:MSVCP80.dll
 0002:000001d0       __imp__memmove_s           1005f1d0     MSVCRT:MSVCR80.dll
 0002:000001d4       __imp__ceil                1005f1d4     MSVCRT:MSVCR80.dll
 0002:000001d8       __imp___errno              1005f1d8     MSVCRT:MSVCR80.dll
 0002:000001dc       __imp___CRT_RTC_INITW      1005f1dc     MSVCRT:MSVCR80.dll
 0002:000001e0       __imp___unlock             1005f1e0     MSVCRT:MSVCR80.dll
 0002:000001e4       __imp___encode_pointer     1005f1e4     MSVCRT:MSVCR80.dll
 0002:000001e8       __imp____dllonexit         1005f1e8     MSVCRT:MSVCR80.dll
 0002:000001ec       __imp___lock               1005f1ec     MSVCRT:MSVCR80.dll
 0002:000001f0       __imp___onexit             1005f1f0     MSVCRT:MSVCR80.dll
 0002:000001f4       __imp___decode_pointer     1005f1f4     MSVCRT:MSVCR80.dll
 0002:000001f8       __imp___malloc_crt         1005f1f8     MSVCRT:MSVCR80.dll
 0002:000001fc       __imp___encoded_null       1005f1fc     MSVCRT:MSVCR80.dll
 0002:00000200       __imp__free                1005f200     MSVCRT:MSVCR80.dll
 0002:00000204       __imp___initterm           1005f204     MSVCRT:MSVCR80.dll
 0002:00000208       __imp___initterm_e         1005f208     MSVCRT:MSVCR80.dll
 0002:0000020c       __imp___amsg_exit          1005f20c     MSVCRT:MSVCR80.dll
 0002:00000210       __imp___adjust_fdiv        1005f210     MSVCRT:MSVCR80.dll
 0002:00000214       __imp____CppXcptFilter     1005f214     MSVCRT:MSVCR80.dll
 0002:00000218       __imp_?terminate@@YAXXZ    1005f218     MSVCRT:MSVCR80.dll
 0002:0000021c       __imp_?_type_info_dtor_internal_method@type_info@@QAEXXZ 1005f21c     MSVCRT:MSVCR80.dll
 0002:00000220       __imp___except_handler4_common 1005f220     MSVCRT:MSVCR80.dll
 0002:00000224       __imp____clean_type_info_names_internal 1005f224     MSVCRT:MSVCR80.dll
 0002:00000228       __imp___crt_debugger_hook  1005f228     MSVCRT:MSVCR80.dll
 0002:0000022c       __imp___CIpow              1005f22c     MSVCRT:MSVCR80.dll
 0002:00000230       __imp___CIlog              1005f230     MSVCRT:MSVCR80.dll
 0002:00000234       __imp__memcpy              1005f234     MSVCRT:MSVCR80.dll
 0002:00000238       __imp_??_V@YAXPAX@Z        1005f238     MSVCRT:MSVCR80.dll
 0002:0000023c       __imp___CIsqrt             1005f23c     MSVCRT:MSVCR80.dll
 0002:00000240       __imp___CIsin              1005f240     MSVCRT:MSVCR80.dll
 0002:00000244       __imp___CIcos              1005f244     MSVCRT:MSVCR80.dll
 0002:00000248       __imp___CIatan2            1005f248     MSVCRT:MSVCR80.dll
 0002:0000024c       __imp___CIasin             1005f24c     MSVCRT:MSVCR80.dll
 0002:00000250       __imp___CIacos             1005f250     MSVCRT:MSVCR80.dll
 0002:00000254       __imp__strncmp             1005f254     MSVCRT:MSVCR80.dll
 0002:00000258       __imp__strncpy             1005f258     MSVCRT:MSVCR80.dll
 0002:0000025c       __imp_?what@exception@std@@UBEPBDXZ 1005f25c     MSVCRT:MSVCR80.dll
 0002:00000260       __imp_??0exception@std@@QAE@ABQBD@Z 1005f260     MSVCRT:MSVCR80.dll
 0002:00000264       __imp____RTDynamicCast     1005f264     MSVCRT:MSVCR80.dll
 0002:00000268       __imp_??0exception@std@@QAE@XZ 1005f268     MSVCRT:MSVCR80.dll
 0002:0000026c       __imp_??1exception@std@@UAE@XZ 1005f26c     MSVCRT:MSVCR80.dll
 0002:00000270       __imp_??0exception@std@@QAE@ABV01@@Z 1005f270     MSVCRT:MSVCR80.dll
 0002:00000274       __imp___CxxThrowException@8 1005f274     MSVCRT:MSVCR80.dll
 0002:00000278       __imp___invalid_parameter_noinfo 1005f278     MSVCRT:MSVCR80.dll
 0002:0000027c       __imp____CxxFrameHandler3  1005f27c     MSVCRT:MSVCR80.dll
 0002:00000280       __imp_??2@YAPAXI@Z         1005f280     MSVCRT:MSVCR80.dll
 0002:00000284       __imp_??3@YAXPAX@Z         1005f284     MSVCRT:MSVCR80.dll
 0002:00000288       __imp___purecall           1005f288     MSVCRT:MSVCR80.dll
 0002:0000028c       __imp__memset              1005f28c     MSVCRT:MSVCR80.dll
 0002:00000290       \177MSVCR80_NULL_THUNK_DATA 1005f290     MSVCRT:MSVCR80.dll
 0002:00000294       __imp__compress            1005f294     zlib1:zlib1.dll
 0002:00000298       __imp__uncompress          1005f298     zlib1:zlib1.dll
 0002:0000029c       \177zlib1_NULL_THUNK_DATA  1005f29c     zlib1:zlib1.dll
 0002:000002a0       ___xc_a                    1005f2a0     MSVCRT:cinitexe.obj
 0002:000002a4       ___xc_z                    1005f2a4     MSVCRT:cinitexe.obj
 0002:000002a8       ___xi_a                    1005f2a8     MSVCRT:cinitexe.obj
 0002:000002b4       ___xi_z                    1005f2b4     MSVCRT:cinitexe.obj
 0002:000002b8       ??_C@_0P@GHFPNOJB@bad?5allocation?$AA@ 1005f2b8     ImfAttribute.obj
 0002:000002c8       ?collate@?$_Locbase@H@std@@2HB 1005f2c8     ImfAttribute.obj
 0002:000002cc       ?ctype@?$_Locbase@H@std@@2HB 1005f2cc     ImfAttribute.obj
 0002:000002d0       ?monetary@?$_Locbase@H@std@@2HB 1005f2d0     ImfAttribute.obj
 0002:000002d4       ?numeric@?$_Locbase@H@std@@2HB 1005f2d4     ImfAttribute.obj
 0002:000002d8       ?time@?$_Locbase@H@std@@2HB 1005f2d8     ImfAttribute.obj
 0002:000002dc       ?messages@?$_Locbase@H@std@@2HB 1005f2dc     ImfAttribute.obj
 0002:000002e0       ?all@?$_Locbase@H@std@@2HB 1005f2e0     ImfAttribute.obj
 0002:000002e4       ?none@?$_Locbase@H@std@@2HB 1005f2e4     ImfAttribute.obj
 0002:000002e8       ?skipws@?$_Iosb@H@std@@2W4_Fmtflags@12@B 1005f2e8     ImfAttribute.obj
 0002:000002ec       ?unitbuf@?$_Iosb@H@std@@2W4_Fmtflags@12@B 1005f2ec     ImfAttribute.obj
 0002:000002f0       ?uppercase@?$_Iosb@H@std@@2W4_Fmtflags@12@B 1005f2f0     ImfAttribute.obj
 0002:000002f4       ?showbase@?$_Iosb@H@std@@2W4_Fmtflags@12@B 1005f2f4     ImfAttribute.obj
 0002:000002f8       ?showpoint@?$_Iosb@H@std@@2W4_Fmtflags@12@B 1005f2f8     ImfAttribute.obj
 0002:000002fc       ?showpos@?$_Iosb@H@std@@2W4_Fmtflags@12@B 1005f2fc     ImfAttribute.obj
 0002:00000300       ?left@?$_Iosb@H@std@@2W4_Fmtflags@12@B 1005f300     ImfAttribute.obj
 0002:00000304       ?right@?$_Iosb@H@std@@2W4_Fmtflags@12@B 1005f304     ImfAttribute.obj
 0002:00000308       ?internal@?$_Iosb@H@std@@2W4_Fmtflags@12@B 1005f308     ImfAttribute.obj
 0002:0000030c       ?dec@?$_Iosb@H@std@@2W4_Fmtflags@12@B 1005f30c     ImfAttribute.obj
 0002:00000310       ?oct@?$_Iosb@H@std@@2W4_Fmtflags@12@B 1005f310     ImfAttribute.obj
 0002:00000314       ?hex@?$_Iosb@H@std@@2W4_Fmtflags@12@B 1005f314     ImfAttribute.obj
 0002:00000318       ?scientific@?$_Iosb@H@std@@2W4_Fmtflags@12@B 1005f318     ImfAttribute.obj
 0002:0000031c       ?fixed@?$_Iosb@H@std@@2W4_Fmtflags@12@B 1005f31c     ImfAttribute.obj
 0002:00000320       ?boolalpha@?$_Iosb@H@std@@2W4_Fmtflags@12@B 1005f320     ImfAttribute.obj
 0002:00000324       ?_Stdio@?$_Iosb@H@std@@2W4_Fmtflags@12@B 1005f324     ImfAttribute.obj
 0002:00000328       ?adjustfield@?$_Iosb@H@std@@2W4_Fmtflags@12@B 1005f328     ImfAttribute.obj
 0002:0000032c       ?basefield@?$_Iosb@H@std@@2W4_Fmtflags@12@B 1005f32c     ImfAttribute.obj
 0002:00000330       ?floatfield@?$_Iosb@H@std@@2W4_Fmtflags@12@B 1005f330     ImfAttribute.obj
 0002:00000334       ?goodbit@?$_Iosb@H@std@@2W4_Iostate@12@B 1005f334     ImfAttribute.obj
 0002:00000338       ?eofbit@?$_Iosb@H@std@@2W4_Iostate@12@B 1005f338     ImfAttribute.obj
 0002:0000033c       ?failbit@?$_Iosb@H@std@@2W4_Iostate@12@B 1005f33c     ImfAttribute.obj
 0002:00000340       ?badbit@?$_Iosb@H@std@@2W4_Iostate@12@B 1005f340     ImfAttribute.obj
 0002:00000344       ?_Hardfail@?$_Iosb@H@std@@2W4_Iostate@12@B 1005f344     ImfAttribute.obj
 0002:00000348       ?in@?$_Iosb@H@std@@2W4_Openmode@12@B 1005f348     ImfAttribute.obj
 0002:0000034c       ?out@?$_Iosb@H@std@@2W4_Openmode@12@B 1005f34c     ImfAttribute.obj
 0002:00000350       ?ate@?$_Iosb@H@std@@2W4_Openmode@12@B 1005f350     ImfAttribute.obj
 0002:00000354       ?app@?$_Iosb@H@std@@2W4_Openmode@12@B 1005f354     ImfAttribute.obj
 0002:00000358       ?trunc@?$_Iosb@H@std@@2W4_Openmode@12@B 1005f358     ImfAttribute.obj
 0002:0000035c       ?_Nocreate@?$_Iosb@H@std@@2W4_Openmode@12@B 1005f35c     ImfAttribute.obj
 0002:00000360       ?_Noreplace@?$_Iosb@H@std@@2W4_Openmode@12@B 1005f360     ImfAttribute.obj
 0002:00000364       ?binary@?$_Iosb@H@std@@2W4_Openmode@12@B 1005f364     ImfAttribute.obj
 0002:00000368       ?beg@?$_Iosb@H@std@@2W4_Seekdir@12@B 1005f368     ImfAttribute.obj
 0002:0000036c       ?cur@?$_Iosb@H@std@@2W4_Seekdir@12@B 1005f36c     ImfAttribute.obj
 0002:00000370       ?end@?$_Iosb@H@std@@2W4_Seekdir@12@B 1005f370     ImfAttribute.obj
 0002:00000378       ??_7Attribute@Imf@@6B@     1005f378     ImfAttribute.obj
 0002:00000394       ??_7ArgExc@Iex@@6B@        1005f394     ImfAttribute.obj
 0002:0000039c       ??_C@_0CM@FNJHLFHM@Cannot?5register?5image?5file?5attri@ 1005f39c     ImfAttribute.obj
 0002:000003c8       ??_C@_0CJ@OGBANFE@?$CC?4?5The?5type?5has?5already?5been?5reg@ 1005f3c8     ImfAttribute.obj
 0002:000003f4       ??_C@_0DF@JOBHCFLM@Cannot?5create?5image?5file?5attribu@ 1005f3f4     ImfAttribute.obj
 0002:0000042c       ??_C@_02DAHALNEP@?$CC?4?$AA@ 1005f42c     ImfAttribute.obj
 0002:00000434       ??_7length_error@std@@6B@  1005f434     ImfAttribute.obj
 0002:0000043c       ??_C@_0BE@JONHPENG@map?1set?$DMT?$DO?5too?5long?$AA@ 1005f43c     ImfAttribute.obj
 0002:00000454       ??_7logic_error@std@@6B@   1005f454     ImfAttribute.obj
 0002:00000460       ??_7out_of_range@std@@6B@  1005f460     ImfAttribute.obj
 0002:00000468       ??_C@_0BM@PAPJHAGI@invalid?5map?1set?$DMT?$DO?5iterator?$AA@ 1005f468     ImfAttribute.obj
 0002:00000484       __real@00000000            1005f484     ImfAttribute.obj
 0002:0000048c       ??_7?$TypedAttribute@M@Imf@@6B@ 1005f48c     ImfAttribute.obj
 0002:000004a8       ??_7TypeExc@Iex@@6B@       1005f4a8     ImfAttribute.obj
 0002:000004b0       ??_C@_0BL@DJAIAONG@Unexpected?5attribute?5type?4?$AA@ 1005f4b0     ImfAttribute.obj
 0002:000004d0       __real@0000000000000000    1005f4d0     ImfAttribute.obj
 0002:000004dc       ??_7?$TypedAttribute@N@Imf@@6B@ 1005f4dc     ImfAttribute.obj
 0002:000004f8       ??_7bad_alloc@std@@6B@     1005f4f8     ImfAttribute.obj
 0002:00000500       ??_C@_05CNDIHJPC@box2i?$AA@ 1005f500     ImfBoxAttribute.obj
 0002:00000508       ??_C@_05KKKAGFDN@box2f?$AA@ 1005f508     ImfBoxAttribute.obj
 0002:00000510       ?SIZE@Name@Imf@@2HB        1005f510     ImfChannelList.obj
 0002:00000514       ?MAX_LENGTH@Name@Imf@@2HB  1005f514     ImfChannelList.obj
 0002:00000518       ??_C@_0CO@GLJHHLBA@Image?5channel?5name?5cannot?5be?5an?5@ 1005f518     ImfChannelList.obj
 0002:00000548       ??_C@_0BM@FOGKBKII@Cannot?5find?5image?5channel?5?$CC?$AA@ 1005f548     ImfChannelList.obj
 0002:00000564       ??_C@_06DLGCLDPA@chlist?$AA@ 1005f564     ImfChannelListAttribute.obj
 0002:0000056b       ??_C@_00CNPNBAHC@?$AA@     1005f56b     ImfChannelListAttribute.obj
 0002:00000570       __real@3ff0000000000000    1005f570     ImfChromaticities.obj
 0002:00000578       __real@3f800000            1005f578     ImfChromaticities.obj
 0002:00000580       ??_7SingMatrixExc@Imath@@6B@ 1005f580     ImfChromaticities.obj
 0002:0000058c       ??_7MathExc@Iex@@6B@       1005f58c     ImfChromaticities.obj
 0002:00000594       ??_C@_0BP@LFKNKFAF@Cannot?5invert?5singular?5matrix?4?$AA@ 1005f594     ImfChromaticities.obj
 0002:000005b4       __real@00800000            1005f5b4     ImfChromaticities.obj
 0002:000005b8       ??_C@_0P@BGNMDAIB@chromaticities?$AA@ 1005f5b8     ImfChromaticitiesAttribute.obj
 0002:000005c8       ??_C@_0M@DGJEMLOB@compression?$AA@ 1005f5c8     ImfCompressionAttribute.obj
 0002:000005d8       ??_7Compressor@Imf@@6B@    1005f5d8     ImfCompressor.obj
 0002:000005f4       __real@4f800000            1005f5f4     ImfConvert.obj
 0002:000005f8       __real@40effc0000000000    1005f5f8     ImfConvert.obj
 0002:00000600       __real@c0effc0000000000    1005f600     ImfConvert.obj
 0002:0000060c       ??_7?$TypedAttribute@H@Imf@@6B@ 1005f60c     ImfCRgbaFile.obj
 0002:00000628       ??_7?$TypedAttribute@V?$basic_string@DU?$char_traits@D@std@@V?$allocator@D@2@@std@@@Imf@@6B@ 1005f628     ImfCRgbaFile.obj
 0002:00000644       ??_7?$TypedAttribute@V?$Box@V?$Vec2@H@Imath@@@Imath@@@Imf@@6B@ 1005f644     ImfCRgbaFile.obj
 0002:00000660       ??_7?$TypedAttribute@V?$Box@V?$Vec2@M@Imath@@@Imath@@@Imf@@6B@ 1005f660     ImfCRgbaFile.obj
 0002:0000067c       ??_7?$TypedAttribute@V?$Vec2@H@Imath@@@Imf@@6B@ 1005f67c     ImfCRgbaFile.obj
 0002:00000698       ??_7?$TypedAttribute@V?$Vec2@M@Imath@@@Imf@@6B@ 1005f698     ImfCRgbaFile.obj
 0002:000006b4       ??_7?$TypedAttribute@V?$Vec3@H@Imath@@@Imf@@6B@ 1005f6b4     ImfCRgbaFile.obj
 0002:000006d0       ??_7?$TypedAttribute@V?$Vec3@M@Imath@@@Imf@@6B@ 1005f6d0     ImfCRgbaFile.obj
 0002:000006ec       ??_7?$TypedAttribute@V?$Matrix33@M@Imath@@@Imf@@6B@ 1005f6ec     ImfCRgbaFile.obj
 0002:00000708       ??_7?$TypedAttribute@V?$Matrix44@M@Imath@@@Imf@@6B@ 1005f708     ImfCRgbaFile.obj
 0002:00000720       __real@c77fe000            1005f720     ImfCRgbaFile.obj
 0002:00000724       __real@477fe000            1005f724     ImfCRgbaFile.obj
 0002:00000728       __real@ff7fffff            1005f728     ImfCRgbaFile.obj
 0002:0000072c       __real@7f7fffff            1005f72c     ImfCRgbaFile.obj
 0002:00000730       ??_C@_06BNJCAIGJ@double?$AA@ 1005f730     ImfDoubleAttribute.obj
 0002:00000738       __real@c01921fb54442d18    1005f738     ImfEnvmap.obj
 0002:00000740       __real@c00921fb54442d18    1005f740     ImfEnvmap.obj
 0002:00000748       __real@3fe0000000000000    1005f748     ImfEnvmap.obj
 0002:00000750       __real@400921fb54442d18    1005f750     ImfEnvmap.obj
 0002:00000758       __real@401921fb54442d18    1005f758     ImfEnvmap.obj
 0002:00000760       __real@bf800000            1005f760     ImfEnvmap.obj
 0002:00000768       __real@4000000000000000    1005f768     ImfEnvmap.obj
 0002:00000770       ??_C@_06FABHMPLJ@envmap?$AA@ 1005f770     ImfEnvmapAttribute.obj
 0002:00000778       ??_C@_05KNFBNCOH@float?$AA@ 1005f778     ImfFloatAttribute.obj
 0002:00000780       ??_C@_0DD@DGFMFKLK@Frame?5buffer?5slice?5name?5cannot?5b@ 1005f780     ImfFrameBuffer.obj
 0002:000007b4       ??_C@_0CB@HNEJEHGB@Cannot?5find?5frame?5buffer?5slice?5?$CC@ 1005f7b4     ImfFrameBuffer.obj
 0002:000007d8       ??_C@_08PAMBCCJ@channels?$AA@ 1005f7d8     ImfHeader.obj
 0002:000007e4       ??_C@_09KBMMOMLO@lineOrder?$AA@ 1005f7e4     ImfHeader.obj
 0002:000007f0       ??_C@_0BC@MIPOAEJ@screenWindowWidth?$AA@ 1005f7f0     ImfHeader.obj
 0002:00000804       ??_C@_0BD@LEDOJOPE@screenWindowCenter?$AA@ 1005f804     ImfHeader.obj
 0002:00000818       ??_C@_0BB@CNKOENNB@pixelAspectRatio?$AA@ 1005f818     ImfHeader.obj
 0002:0000082c       ??_C@_0L@IDGELFOE@dataWindow?$AA@ 1005f82c     ImfHeader.obj
 0002:00000838       ??_C@_0O@NEEDOPBG@displayWindow?$AA@ 1005f838     ImfHeader.obj
 0002:00000848       ??_C@_0CA@GOBIGADN@Cannot?5assign?5a?5value?5of?5type?5?$CC?$AA@ 1005f848     ImfHeader.obj
 0002:00000868       ??_C@_0BH@OFNBDCNH@?$CC?5to?5image?5attribute?5?$CC?$AA@ 1005f868     ImfHeader.obj
 0002:00000880       ??_C@_0M@FOIAHJKK@?$CC?5of?5type?5?$CC?$AA@ 1005f880     ImfHeader.obj
 0002:0000088c       ??_C@_0DA@IEANCIPN@Image?5attribute?5name?5cannot?5be?5a@ 1005f88c     ImfHeader.obj
 0002:000008bc       ??_C@_0BO@HCIIOLIC@Cannot?5find?5image?5attribute?5?$CC?$AA@ 1005f8bc     ImfHeader.obj
 0002:000008dc       ??_C@_05HBFCGPPC@tiles?$AA@ 1005f8dc     ImfHeader.obj
 0002:000008e4       ??_C@_07LJNKFPB@preview?$AA@ 1005f8e4     ImfHeader.obj
 0002:000008f0       ??_C@_0GO@LOIKLCGP@Number?5of?5pixels?5per?5column?5in?5t@ 1005f8f0     ImfHeader.obj
 0002:00000960       ??_C@_0GL@GKEFBBBK@Number?5of?5pixels?5per?5row?5in?5the?5@ 1005f960     ImfHeader.obj
 0002:000009d0       ??_C@_0GL@FCMNIIKD@The?5minimum?5y?5coordinate?5of?5the?5@ 1005f9d0     ImfHeader.obj
 0002:00000a40       ??_C@_0GL@IMPGKAH@The?5minimum?5x?5coordinate?5of?5the?5@ 1005fa40     ImfHeader.obj
 0002:00000aac       ??_C@_0L@BMDKKBLE@?$CC?5channel?4?$AA@ 1005faac     ImfHeader.obj
 0002:00000ab8       ??_C@_0BG@HJMHJLEA@?$CC?5channel?5is?5invalid?4?$AA@ 1005fab8     ImfHeader.obj
 0002:00000ad0       ??_C@_0CD@NNJFCCDM@The?5y?5subsampling?5factor?5for?5the@ 1005fad0     ImfHeader.obj
 0002:00000af4       ??_C@_0CD@NDHCMKON@The?5x?5subsampling?5factor?5for?5the@ 1005faf4     ImfHeader.obj
 0002:00000b18       ??_C@_0BE@OEFBDCAI@?$CC?5channel?5is?5not?51?4?$AA@ 1005fb18     ImfHeader.obj
 0002:00000b2c       ??_C@_0BA@MFHPKLCJ@Pixel?5type?5of?5?$CC?$AA@ 1005fb2c     ImfHeader.obj
 0002:00000b3c       ??_C@_0BM@NPIIGDMO@?$CC?5image?5channel?5is?5invalid?4?$AA@ 1005fb3c     ImfHeader.obj
 0002:00000b58       ??_C@_0CK@JGAPKCFH@Unknown?5compression?5type?5in?5imag@ 1005fb58     ImfHeader.obj
 0002:00000b84       ??_C@_0CE@KKMBGILK@Invalid?5line?5order?5in?5image?5head@ 1005fb84     ImfHeader.obj
 0002:00000ba8       ??_C@_0CN@FALDFALM@Invalid?5level?5rounding?5mode?5in?5i@ 1005fba8     ImfHeader.obj
 0002:00000bd8       ??_C@_0CE@PPOGLMO@Invalid?5level?5mode?5in?5image?5head@ 1005fbd8     ImfHeader.obj
 0002:00000bfc       ??_C@_0CD@OBCGMOFA@Invalid?5tile?5size?5in?5image?5heade@ 1005fbfc     ImfHeader.obj
 0002:00000c20       ??_C@_0CP@DOEOJKGI@Tiled?5image?5has?5no?5tile?5descript@ 1005fc20     ImfHeader.obj
 0002:00000c50       ??_C@_0CN@ILANJJOH@Invalid?5screen?5window?5width?5in?5i@ 1005fc50     ImfHeader.obj
 0002:00000c80       ??_C@_0CM@CDHIGECB@Invalid?5pixel?5aspect?5ratio?5in?5im@ 1005fc80     ImfHeader.obj
 0002:00000cac       __real@49742400            1005fcac     ImfHeader.obj
 0002:00000cb0       __real@358637bd            1005fcb0     ImfHeader.obj
 0002:00000cb4       ??_C@_0CF@CLAKEOLI@Invalid?5data?5window?5in?5image?5hea@ 1005fcb4     ImfHeader.obj
 0002:00000cdc       ??_C@_0CI@HIIPMONJ@Invalid?5display?5window?5in?5image?5@ 1005fcdc     ImfHeader.obj
 0002:00000d04       ??_C@_0CG@FEGIEFBM@Unexpected?5type?5for?5image?5attrib@ 1005fd04     ImfHeader.obj
 0002:00000d30       ??_C@_0EJ@MKFAJBBD@The?5file?5format?5version?5number?8s@ 1005fd30     ImfHeader.obj
 0002:00000d7c       ??_C@_0BF@IFKGIPDB@Cannot?5read?5version?5?$AA@ 1005fd7c     ImfHeader.obj
 0002:00000d94       ??_C@_0CP@GAACJJJG@?5image?5files?4?5?5Current?5file?5form@ 1005fd94     ImfHeader.obj
 0002:00000dc4       ??_C@_01LFCBOECM@?4?$AA@   1005fdc4     ImfHeader.obj
 0002:00000dcc       ??_7InputExc@Iex@@6B@      1005fdcc     ImfHeader.obj
 0002:00000dd4       ??_C@_0BL@KJNNPGGN@File?5is?5not?5an?5image?5file?4?$AA@ 1005fdd4     ImfHeader.obj
 0002:00000df4       ??_7?$TypedAttribute@VChannelList@Imf@@@Imf@@6B@ 1005fdf4     ImfHeader.obj
 0002:00000e10       ??_7?$TypedAttribute@W4Compression@Imf@@@Imf@@6B@ 1005fe10     ImfHeader.obj
 0002:00000e2c       ??_7?$TypedAttribute@W4LineOrder@Imf@@@Imf@@6B@ 1005fe2c     ImfHeader.obj
 0002:00000e48       ??_7?$TypedAttribute@VPreviewImage@Imf@@@Imf@@6B@ 1005fe48     ImfHeader.obj
 0002:00000e64       ??_7?$TypedAttribute@VTileDescription@Imf@@@Imf@@6B@ 1005fe64     ImfHeader.obj
 0002:00000e7c       __real@3ea8f5c3            1005fe7c     ImfHeader.obj
 0002:00000e80       __real@3f23d70a            1005fe80     ImfHeader.obj
 0002:00000e84       __real@3f19999a            1005fe84     ImfHeader.obj
 0002:00000e88       __real@3e99999a            1005fe88     ImfHeader.obj
 0002:00000e8c       __real@3d75c28f            1005fe8c     ImfHeader.obj
 0002:00000e90       __real@3e19999a            1005fe90     ImfHeader.obj
 0002:00000e94       __real@3ea872b0            1005fe94     ImfHeader.obj
 0002:00000e98       __real@3ea01a37            1005fe98     ImfHeader.obj
 0002:00000ea0       ??_7?$TypedAttribute@UChromaticities@Imf@@@Imf@@6B@ 1005fea0     ImfHeader.obj
 0002:00000ebc       ??_7?$TypedAttribute@W4Envmap@Imf@@@Imf@@6B@ 1005febc     ImfHeader.obj
 0002:00000ed8       ??_7?$TypedAttribute@VKeyCode@Imf@@@Imf@@6B@ 1005fed8     ImfHeader.obj
 0002:00000ef4       ??_7?$TypedAttribute@VTimeCode@Imf@@@Imf@@6B@ 1005fef4     ImfHeader.obj
 0002:00000f10       ??_C@_0ED@DOEBCAF@Error?5in?5header?5for?5Huffman?9enco@ 1005ff10     ImfHuf.obj
 0002:00000f58       ??_C@_0EH@LIMJLJJE@Error?5in?5Huffman?9encoded?5data?5?$CId@ 1005ff58     ImfHuf.obj
 0002:00000fa0       ??_C@_0EI@FAKKCOBK@Error?5in?5Huffman?9encoded?5data?5?$CId@ 1005ffa0     ImfHuf.obj
 0002:00000fe8       ??_C@_0CO@ICNKOEFJ@Error?5in?5Huffman?9encoded?5data?5?$CIi@ 1005ffe8     ImfHuf.obj
 0002:00001018       ??_C@_0DJ@NOCCPLFI@Error?5in?5Huffman?9encoded?5data?5?$CIi@ 10060018     ImfHuf.obj
 0002:00001058       ??_C@_0ED@OCNAOJBH@Error?5in?5Huffman?9encoded?5data?5?$CIu@ 10060058     ImfHuf.obj
 0002:000010a0       ??_C@_0EE@GJIIGPDA@Error?5in?5Huffman?9encoded?5data?5?$CIc@ 100600a0     ImfHuf.obj
 0002:000010e4       ??_C@_0DK@DHJCMHPG@Error?5in?5Huffman?9encoded?5data?5?$CIi@ 100600e4     ImfHuf.obj
 0002:00001124       ??_7Data@InputFile@Imf@@6B@ 10060124     ImfInputFile.obj
 0002:00001128       ??_C@_0DO@LEJHHFDH@Tried?5to?5read?5scan?5line?5outside?5@ 10060128     ImfInputFile.obj
 0002:00001168       ??_C@_0BJ@IJKPICNL@Cannot?5read?5image?5file?5?$CC?$AA@ 10060168     ImfInputFile.obj
 0002:00001184       ??_C@_03HDNHAIBO@?$CC?4?5?$AA@ 10060184     ImfInputFile.obj
 0002:0000118c       ??_7InputFile@Imf@@6B@     1006018c     ImfInputFile.obj
 0002:00001190       ??_C@_0BJ@GNIIJPKM@Unknown?5pixel?5data?5type?4?$AA@ 10060190     ImfInputFile.obj
 0002:000011ac       ??_C@_0CL@LGJIKENK@Error?5reading?5pixel?5data?5from?5im@ 100601ac     ImfInputFile.obj
 0002:000011d8       ??_C@_0DB@MNPMNKIN@Tried?5to?5read?5a?5raw?5scanline?5fro@ 100601d8     ImfInputFile.obj
 0002:0000120c       ??_C@_0CK@NOMCILGA@Error?5reading?5tile?5data?5from?5ima@ 1006020c     ImfInputFile.obj
 0002:00001238       ??_C@_0DG@IDKGHB@Tried?5to?5read?5a?5raw?5tile?5from?5a?5@ 10060238     ImfInputFile.obj
 0002:00001270       ??_C@_0EJ@MFAHNOLF@Cannot?5get?5a?5TiledInputFile?5poin@ 10060270     ImfInputFile.obj
 0002:000012bc       ??_C@_03JBIPMCLC@int?$AA@  100602bc     ImfIntAttribute.obj
 0002:000012c4       ??_7IStream@Imf@@6B@       100602c4     ImfIO.obj
 0002:000012e0       ??_C@_0EN@EBBHMEOH@Attempt?5to?5perform?5a?5memory?9mapp@ 100602e0     ImfIO.obj
 0002:00001334       ??_7OStream@Imf@@6B@       10060334     ImfIO.obj
 0002:00001348       ??_C@_0EE@DODFLOAH@Invalid?5key?5code?5film?5manufactur@ 10060348     ImfKeyCode.obj
 0002:0000138c       ??_C@_0DH@LNCFMDEG@Invalid?5key?5code?5film?5type?5?$CImust@ 1006038c     ImfKeyCode.obj
 0002:000013c4       ??_C@_0DI@JLBPCLBM@Invalid?5key?5code?5prefix?5?$CImust?5be@ 100603c4     ImfKeyCode.obj
 0002:000013fc       ??_C@_0DF@ILMEAMOO@Invalid?5key?5code?5count?5?$CImust?5be?5@ 100603fc     ImfKeyCode.obj
 0002:00001438       ??_C@_0EB@BIFNEJJI@Invalid?5key?5code?5perforation?5off@ 10060438     ImfKeyCode.obj
 0002:00001480       ??_C@_0EO@BNJFKDLA@Invalid?5key?5code?5number?5of?5perfo@ 10060480     ImfKeyCode.obj
 0002:000014d0       ??_C@_0FA@GKBJJGHN@Invalid?5key?5code?5number?5of?5perfo@ 100604d0     ImfKeyCode.obj
 0002:00001520       ??_C@_07IHMLFOG@keycode?$AA@ 10060520     ImfKeyCodeAttribute.obj
 0002:00001528       __real@409f400000000000    10060528     ImfLut.obj
 0002:00001530       __real@409f420000000000    10060530     ImfLut.obj
 0002:00001538       __real@4069000000000000    10060538     ImfLut.obj
 0002:00001540       __real@c004000000000000    10060540     ImfLut.obj
 0002:00001548       ??_C@_04KPGLHLLJ@m33f?$AA@ 10060548     ImfMatrixAttribute.obj
 0002:00001550       ??_C@_04DHPDFFIF@m44f?$AA@ 10060550     ImfMatrixAttribute.obj
 0002:00001558       ??_C@_0BE@PJGJEALB@Unknown?5pixel?5type?4?$AA@ 10060558     ImfMisc.obj
 0002:00001574       ??_C@_0BD@OLBABOEK@vector?$DMT?$DO?5too?5long?$AA@ 10060574     ImfMisc.obj
 0002:0000158c       ??_7OpaqueAttribute@Imf@@6B@ 1006058c     ImfOpaqueAttribute.obj
 0002:000015a4       ??_C@_0DL@MFAEBLCE@Cannot?5copy?5the?5value?5of?5an?5imag@ 100605a4     ImfOpaqueAttribute.obj
 0002:000015e0       ??_C@_0BM@IFNNBGFD@?$CC?5to?5an?5attribute?5of?5type?5?$CC?$AA@ 100605e0     ImfOpaqueAttribute.obj
 0002:00001600       ??_7Data@OutputFile@Imf@@6B@ 10060600     ImfOutputFile.obj
 0002:00001604       ??_C@_0CN@LBJOKNCJ@Cannot?5determine?5current?5file?5po@ 10060604     ImfOutputFile.obj
 0002:00001638       ??_7LineBufferTask@?A0xae07d9b6@Imf@@6B@ 10060638     ImfOutputFile.obj
 0002:00001640       ??_C@_0BH@HCOHGMMN@unrecognized?5exception?$AA@ 10060640     ImfOutputFile.obj
 0002:00001658       ??_C@_0BJ@EGGFFEI@Cannot?5open?5image?5file?5?$CC?$AA@ 10060658     ImfOutputFile.obj
 0002:00001678       ??_7OutputFile@Imf@@6B@    10060678     ImfOutputFile.obj
 0002:0000167c       ??_C@_0CE@HLFNALIM@X?5and?1or?5y?5subsampling?5factors?5o@ 1006067c     ImfOutputFile.obj
 0002:000016a0       ??_C@_0EC@DDAIACFH@?$CC?5are?5not?5compatible?5with?5the?5fr@ 100606a0     ImfOutputFile.obj
 0002:000016e4       ??_C@_0BL@PHJDMEGP@?$CC?5channel?5of?5output?5file?5?$CC?$AA@ 100606e4     ImfOutputFile.obj
 0002:00001700       ??_C@_0DI@EJOMGIHI@?$CC?5is?5not?5compatible?5with?5the?5fra@ 10060700     ImfOutputFile.obj
 0002:00001738       ??_C@_0CL@JLNNKJOP@Failed?5to?5write?5pixel?5data?5to?5im@ 10060738     ImfOutputFile.obj
 0002:00001768       ??_7IoExc@Iex@@6B@         10060768     ImfOutputFile.obj
 0002:00001770       ??_C@_0EC@NLNAGIJO@Tried?5to?5write?5more?5scan?5lines?5t@ 10060770     ImfOutputFile.obj
 0002:000017b4       ??_C@_0DA@EGHBEEHK@No?5frame?5buffer?5specified?5as?5pix@ 100607b4     ImfOutputFile.obj
 0002:000017e8       ??_7LogicExc@Iex@@6B@      100607e8     ImfOutputFile.obj
 0002:000017f0       ??_C@_0M@JHGBIFI@?$CC?5failed?4?5?$CC?$AA@ 100607f0     ImfOutputFile.obj
 0002:000017fc       ??_C@_0BP@CGEOAHIN@?$CC?5already?5contains?5pixel?5data?4?$AA@ 100607fc     ImfOutputFile.obj
 0002:0000181c       ??_C@_0DD@JAKPJHLC@?$CC?5failed?4?5?5The?5files?5have?5differ@ 1006081c     ImfOutputFile.obj
 0002:00001850       ??_C@_0DH@MIOOOMAE@?$CC?5failed?4?5The?5files?5use?5differen@ 10060850     ImfOutputFile.obj
 0002:00001888       ??_C@_0CD@FCJDGGJO@Quick?5pixel?5copy?5from?5image?5file@ 10060888     ImfOutputFile.obj
 0002:000018ac       ??_C@_0DA@EMOAKEKJ@?$CC?5failed?4?5The?5files?5have?5differe@ 100608ac     ImfOutputFile.obj
 0002:000018dc       ??_C@_0CK@HGDJPEH@?$CC?4?5The?5files?5have?5different?5data@ 100608dc     ImfOutputFile.obj
 0002:00001908       ??_C@_0CF@NIJIEBAB@Cannot?5copy?5pixels?5from?5image?5fi@ 10060908     ImfOutputFile.obj
 0002:00001930       ??_C@_0BC@EEHACHCP@?$CC?5to?5image?5file?5?$CC?$AA@ 10060930     ImfOutputFile.obj
 0002:00001948       ??_C@_0GH@NKAPBA@?$CC?4?5The?5input?5file?5is?5tiled?0?5but?5@ 10060948     ImfOutputFile.obj
 0002:000019b0       ??_C@_0CO@LAKLODIK@Cannot?5update?5preview?5image?5pixe@ 100609b0     ImfOutputFile.obj
 0002:000019e0       ??_C@_0CL@IOMNKHIL@Cannot?5update?5preview?5image?5pixe@ 100609e0     ImfOutputFile.obj
 0002:00001a0c       ??_C@_0CE@DLIMNHHK@?$CC?5does?5not?5contain?5a?5preview?5ima@ 10060a0c     ImfOutputFile.obj
 0002:00001a30       ??_C@_0BM@GCAGFPCD@Cannot?5overwrite?5scan?5line?5?$AA@ 10060a30     ImfOutputFile.obj
 0002:00001a4c       ??_C@_0DC@MHDJPPJC@?4?5The?5scan?5line?5has?5not?5yet?5been@ 10060a4c     ImfOutputFile.obj
 0002:00001a84       ??_7PizCompressor@Imf@@6B@ 10060a84     ImfPizCompressor.obj
 0002:00001aa0       ??_C@_0EB@DPNCEMBA@Error?5decompressing?5data?5?$CIinput?5@ 10060aa0     ImfPxr24Compressor.obj
 0002:00001ae8       ??_C@_0EA@HANMFCEC@Error?5decompressing?5data?5?$CIinput?5@ 10060ae8     ImfPxr24Compressor.obj
 0002:00001b28       __real@3ff028f5c28f5c29    10060b28     ImfPxr24Compressor.obj
 0002:00001b34       ??_7Pxr24Compressor@Imf@@6B@ 10060b34     ImfPxr24Compressor.obj
 0002:00001b50       ??_C@_0CA@OLMGCMPA@Data?5compression?5?$CIzlib?$CJ?5failed?4?$AA@ 10060b50     ImfPxr24Compressor.obj
 0002:00001b70       ??_C@_0CC@NIIGKEDD@Data?5decompression?5?$CIzlib?$CJ?5failed@ 10060b70     ImfPxr24Compressor.obj
 0002:00001b98       ??_C@_01FHEEJDEE@A?$AA@    10060b98     ImfRgbaFile.obj
 0002:00001b9c       ??_C@_01HMGJMAIH@B?$AA@    10060b9c     ImfRgbaFile.obj
 0002:00001ba0       ??_C@_01BBODEMC@G?$AA@     10060ba0     ImfRgbaFile.obj
 0002:00001ba4       ??_C@_01DGKLNCNG@R?$AA@    10060ba4     ImfRgbaFile.obj
 0002:00001ba8       ??_C@_02BINJJJFO@BY?$AA@   10060ba8     ImfRgbaFile.obj
 0002:00001bac       ??_C@_02EPPDKCO@RY?$AA@    10060bac     ImfRgbaFile.obj
 0002:00001bb0       ??_C@_01NFFPALBN@Y?$AA@    10060bb0     ImfRgbaFile.obj
 0002:00001bb8       ??_7ToYca@RgbaOutputFile@Imf@@6B@ 10060bb8     ImfRgbaFile.obj
 0002:00001bc0       ??_C@_0EI@BOJDDFJE@No?5frame?5buffer?5was?5specified?5as@ 10060bc0     ImfRgbaFile.obj
 0002:00001c0c       ??_7RgbaOutputFile@Imf@@6B@ 10060c0c     ImfRgbaFile.obj
 0002:00001c14       ??_7FromYca@RgbaInputFile@Imf@@6B@ 10060c14     ImfRgbaFile.obj
 0002:00001c18       ??_C@_0EN@FLJPCBFO@No?5frame?5buffer?5was?5specified?5as@ 10060c18     ImfRgbaFile.obj
 0002:00001c6c       ??_7RgbaInputFile@Imf@@6B@ 10060c6c     ImfRgbaFile.obj
 0002:00001c70       __real@3fdffd7a13c254a4    10060c70     ImfRgbaYca.obj
 0002:00001c78       __real@3fd412fd32c625ea    10060c78     ImfRgbaYca.obj
 0002:00001c80       __real@bfb7d33d29563a9f    10060c80     ImfRgbaYca.obj
 0002:00001c88       __real@3fa68448cf7caa76    10060c88     ImfRgbaYca.obj
 0002:00001c90       __real@bf961aa3f034b0e2    10060c90     ImfRgbaYca.obj
 0002:00001c98       __real@3f84128bf3bea91e    10060c98     ImfRgbaYca.obj
 0002:00001ca0       __real@bf6ee45c358afc48    10060ca0     ImfRgbaYca.obj
 0002:00001ca8       __real@3f516ebd4cfd08d5    10060ca8     ImfRgbaYca.obj
 0002:00001cb0       __real@3fe4116440f23897    10060cb0     ImfRgbaYca.obj
 0002:00001cb8       __real@bfc7d15f02c4d65e    10060cb8     ImfRgbaYca.obj
 0002:00001cc0       __real@3fb68283d35eb745    10060cc0     ImfRgbaYca.obj
 0002:00001cc8       __real@bfa618efbb0e5e68    10060cc8     ImfRgbaYca.obj
 0002:00001cd0       __real@3f94113c68661ae7    10060cd0     ImfRgbaYca.obj
 0002:00001cd8       __real@bf7ee2435696e58a    10060cd8     ImfRgbaYca.obj
 0002:00001ce0       __real@3f616ebd4cfd08d5    10060ce0     ImfRgbaYca.obj
 0002:00001ce8       __real@3fd0000000000000    10060ce8     ImfRgbaYca.obj
 0002:00001cf4       ??_7RleCompressor@Imf@@6B@ 10060cf4     ImfRleCompressor.obj
 0002:00001d10       ??_C@_0BM@EAMLBOBO@Data?5decoding?5?$CIrle?$CJ?5failed?4?$AA@ 10060d10     ImfRleCompressor.obj
 0002:00001d30       ??_7LineBufferTask@?A0xe06365b4@Imf@@6B@ 10060d30     ImfScanLineInputFile.obj
 0002:00001d3c       ??_7ScanLineInputFile@Imf@@6B@ 10060d3c     ImfScanLineInputFile.obj
 0002:00001d40       ??_C@_0BO@OGKHJLDA@Unexpected?5data?5block?5length?4?$AA@ 10060d40     ImfScanLineInputFile.obj
 0002:00001d60       ??_C@_0CE@MOJJGOAI@Unexpected?5data?5block?5y?5coordina@ 10060d60     ImfScanLineInputFile.obj
 0002:00001d84       ??_C@_0L@OFEFCDPD@Scan?5line?5?$AA@ 10060d84     ImfScanLineInputFile.obj
 0002:00001d90       ??_C@_0N@OFGJLKAM@?5is?5missing?4?$AA@ 10060d90     ImfScanLineInputFile.obj
 0002:00001da0       ??_C@_0DF@MGHBOOOH@No?5frame?5buffer?5specified?5as?5pix@ 10060da0     ImfScanLineInputFile.obj
 0002:00001ddc       ??_7Data@ScanLineInputFile@Imf@@6B@ 10060ddc     ImfScanLineInputFile.obj
 0002:00001de0       ??_C@_0BK@EOHJKLCD@?$CC?5channel?5of?5input?5file?5?$CC?$AA@ 10060de0     ImfScanLineInputFile.obj
 0002:00001dfc       ??_C@_0P@PBGAGPGC@whiteLuminance?$AA@ 10060dfc     ImfStandardAttributes.obj
 0002:00001e0c       ??_C@_08EBHDGLEG@xDensity?$AA@ 10060e0c     ImfStandardAttributes.obj
 0002:00001e18       ??_C@_05HEIBENID@owner?$AA@ 10060e18     ImfStandardAttributes.obj
 0002:00001e20       ??_C@_08PGBJEHDC@comments?$AA@ 10060e20     ImfStandardAttributes.obj
 0002:00001e2c       ??_C@_07IHMBPMNP@capDate?$AA@ 10060e2c     ImfStandardAttributes.obj
 0002:00001e34       ??_C@_09PJGHDNKF@utcOffset?$AA@ 10060e34     ImfStandardAttributes.obj
 0002:00001e40       ??_C@_09PHBIEJMN@longitude?$AA@ 10060e40     ImfStandardAttributes.obj
 0002:00001e4c       ??_C@_08IPNLHJNB@latitude?$AA@ 10060e4c     ImfStandardAttributes.obj
 0002:00001e58       ??_C@_08OFJBILFH@altitude?$AA@ 10060e58     ImfStandardAttributes.obj
 0002:00001e64       ??_C@_05PEEJIKOE@focus?$AA@ 10060e64     ImfStandardAttributes.obj
 0002:00001e6c       ??_C@_07FELALNH@expTime?$AA@ 10060e6c     ImfStandardAttributes.obj
 0002:00001e74       ??_C@_08HOJGBFND@aperture?$AA@ 10060e74     ImfStandardAttributes.obj
 0002:00001e80       ??_C@_08IGKKEMBO@isoSpeed?$AA@ 10060e80     ImfStandardAttributes.obj
 0002:00001e8c       ??_C@_07MJLNJKOC@keyCode?$AA@ 10060e8c     ImfStandardAttributes.obj
 0002:00001e94       ??_C@_08OCAHEIAG@timeCode?$AA@ 10060e94     ImfStandardAttributes.obj
 0002:00001ea0       ??_C@_09HHNOCNIH@wrapmodes?$AA@ 10060ea0     ImfStandardAttributes.obj
 0002:00001eb0       ??_7ErrnoExc@Iex@@6B@      10060eb0     ImfStdIO.obj
 0002:00001eb8       ??_C@_03CJOFPAKP@?$CFT?4?$AA@ 10060eb8     ImfStdIO.obj
 0002:00001ebc       ??_C@_0BE@ELHOPNOH@File?5output?5failed?4?$AA@ 10060ebc     ImfStdIO.obj
 0002:00001ed4       ??_S?$basic_ifstream@DU?$char_traits@D@std@@@std@@6B@ 10060ed4     ImfStdIO.obj
 0002:00001edc       ??_7StdIFStream@Imf@@6B@   10060edc     ImfStdIO.obj
 0002:00001ef8       ??_C@_0BI@JMPCLNJG@Unexpected?5end?5of?5file?4?$AA@ 10060ef8     ImfStdIO.obj
 0002:00001f14       ??_S?$basic_ofstream@DU?$char_traits@D@std@@@std@@6B@ 10060f14     ImfStdIO.obj
 0002:00001f1c       ??_7StdOFStream@Imf@@6B@   10060f1c     ImfStdIO.obj
 0002:00001f30       ??_7StdOSStream@Imf@@6B@   10060f30     ImfStdIO.obj
 0002:00001f40       ??_C@_08BKMINCCJ@?$CIstring?$CJ?$AA@ 10060f40     ImfStdIO.obj
 0002:00001f4c       ??_C@_06ICGJLFIM@string?$AA@ 10060f4c     ImfStringAttribute.obj
 0002:00001f54       ??_C@_08BHBPECLB@tiledesc?$AA@ 10060f54     ImfTileDescriptionAttribute.obj
 0002:00001f64       ??_7TileBufferTask@?A0xf349abed@Imf@@6B@ 10060f64     ImfTiledInputFile.obj
 0002:00001f70       ??_7TiledInputFile@Imf@@6B@ 10060f70     ImfTiledInputFile.obj
 0002:00001f74       ??_C@_0BO@MHMEJEFC@Unexpected?5tile?5block?5length?4?$AA@ 10060f74     ImfTiledInputFile.obj
 0002:00001f94       ??_C@_0CL@IDPHIKKD@Unexpected?5tile?5y?5level?5number?5c@ 10060f94     ImfTiledInputFile.obj
 0002:00001fc0       ??_C@_0CL@ONHLJBOC@Unexpected?5tile?5x?5level?5number?5c@ 10060fc0     ImfTiledInputFile.obj
 0002:00001fec       ??_C@_0BO@PLLKHN@Unexpected?5tile?5y?5coordinate?4?$AA@ 10060fec     ImfTiledInputFile.obj
 0002:0000200c       ??_C@_0BO@JNPEFLAL@Unexpected?5tile?5x?5coordinate?4?$AA@ 1006100c     ImfTiledInputFile.obj
 0002:0000202c       ??_C@_06KPNIMGIA@Tile?5?$CI?$AA@ 1006102c     ImfTiledInputFile.obj
 0002:00002034       ??_C@_02KEGNLNML@?0?5?$AA@ 10061034     ImfTiledInputFile.obj
 0002:00002038       ??_C@_0O@FIJEACNB@?$CJ?5is?5missing?4?$AA@ 10061038     ImfTiledInputFile.obj
 0002:00002048       ??_C@_0BH@KDOOAPBK@?$CJ?5is?5not?5a?5valid?5tile?4?$AA@ 10061048     ImfTiledInputFile.obj
 0002:00002060       ??_C@_01IHBHIGKO@?0?$AA@   10061060     ImfTiledInputFile.obj
 0002:00002064       ??_C@_0DL@KLDNNKKN@Tried?5to?5read?5a?5tile?5outside?5the@ 10061064     ImfTiledInputFile.obj
 0002:000020a0       ??_C@_0CK@MBFKIFEG@Error?5calling?5numLevels?$CI?$CJ?5on?5ima@ 100610a0     ImfTiledInputFile.obj
 0002:000020d0       ??_C@_0EB@GBLDIKOD@?$CC?5?$CInumLevels?$CI?$CJ?5is?5not?5defined?5fo@ 100610d0     ImfTiledInputFile.obj
 0002:00002114       ??_C@_0CL@GACAPBLM@Error?5calling?5levelWidth?$CI?$CJ?5on?5im@ 10061114     ImfTiledInputFile.obj
 0002:00002140       ??_C@_0CM@ONKGNBOD@Error?5calling?5levelHeight?$CI?$CJ?5on?5i@ 10061140     ImfTiledInputFile.obj
 0002:0000216c       ??_C@_0CK@BFJJJFP@Error?5calling?5numXTiles?$CI?$CJ?5on?5ima@ 1006116c     ImfTiledInputFile.obj
 0002:00002198       ??_C@_0CE@GKKBEDGB@?$CC?5?$CIArgument?5is?5not?5in?5valid?5rang@ 10061198     ImfTiledInputFile.obj
 0002:000021bc       ??_C@_0CK@KENCAJFB@Error?5calling?5numYTiles?$CI?$CJ?5on?5ima@ 100611bc     ImfTiledInputFile.obj
 0002:000021e8       ??_C@_0DD@KCGEKLBF@Error?5calling?5dataWindowForLevel@ 100611e8     ImfTiledInputFile.obj
 0002:0000221c       ??_C@_0DC@FHBLMOJD@Error?5calling?5dataWindowForTile?$CI@ 1006121c     ImfTiledInputFile.obj
 0002:00002250       ??_C@_0BO@HLMKHHJJ@Arguments?5not?5in?5valid?5range?4?$AA@ 10061250     ImfTiledInputFile.obj
 0002:00002274       ??_7Data@TiledInputFile@Imf@@6B@ 10061274     ImfTiledInputFile.obj
 0002:00002278       ??_C@_0DB@DCIOGHGE@Expected?5a?5tiled?5file?5but?5the?5fi@ 10061278     ImfTiledInputFile.obj
 0002:000022ac       ??_C@_0BN@OOKNHOCB@Argument?5not?5in?5valid?5range?4?$AA@ 100612ac     ImfTiledMisc.obj
 0002:000022cc       ??_C@_0BK@NAMGLOMJ@Unknown?5LevelMode?5format?4?$AA@ 100612cc     ImfTiledMisc.obj
 0002:000022ec       ??_7TileBufferTask@?A0xc559f438@Imf@@6B@ 100612ec     ImfTiledOutputFile.obj
 0002:000022f8       ??_7TiledOutputFile@Imf@@6B@ 100612f8     ImfTiledOutputFile.obj
 0002:000022fc       ??_C@_0CM@JGAIKLHM@?$CC?5?$CInumLevels?$CI?$CJ?5is?5not?5defined?5fo@ 100612fc     ImfTiledOutputFile.obj
 0002:00002328       ??_C@_0BI@GNMPAHJF@Cannot?5overwrite?5tile?5?$CI?$AA@ 10061328     ImfTiledOutputFile.obj
 0002:00002340       ??_C@_0CO@FEKJGDAP@?$CJ?4?5The?5tile?5has?5not?5yet?5been?5sto@ 10061340     ImfTiledOutputFile.obj
 0002:00002370       ??_C@_0DE@FDIAMOAH@Cannot?5perform?5a?5quick?5pixel?5cop@ 10061370     ImfTiledOutputFile.obj
 0002:000023a8       ??_C@_0GG@KMBLOEEA@?$CC?4?5?5The?5output?5file?5is?5tiled?0?5bu@ 100613a8     ImfTiledOutputFile.obj
 0002:00002410       ??_C@_0DG@BPFIJDMD@?$CC?5failed?4?5The?5files?5have?5differe@ 10061410     ImfTiledOutputFile.obj
 0002:00002448       ??_C@_0BI@EPIPKJLB@Attempt?5to?5write?5tile?5?$CI?$AA@ 10061448     ImfTiledOutputFile.obj
 0002:00002460       ??_C@_0BC@ELHEHJMG@?$CJ?5more?5than?5once?4?$AA@ 10061460     ImfTiledOutputFile.obj
 0002:00002474       ??_C@_0BO@PJDCMPAP@Tile?5coordinates?5are?5invalid?4?$AA@ 10061474     ImfTiledOutputFile.obj
 0002:00002494       ??_C@_0DG@EIFNAGHA@All?5channels?5in?5a?5tiled?5file?5mus@ 10061494     ImfTiledOutputFile.obj
 0002:000024d0       ??_7Data@TiledOutputFile@Imf@@6B@ 100614d0     ImfTiledOutputFile.obj
 0002:000024d8       ??_7TiledRgbaOutputFile@Imf@@6B@ 100614d8     ImfTiledRgbaFile.obj
 0002:000024e0       ??_7TiledRgbaInputFile@Imf@@6B@ 100614e0     ImfTiledRgbaFile.obj
 0002:000024e8       ??_7ToYa@TiledRgbaOutputFile@Imf@@6B@ 100614e8     ImfTiledRgbaFile.obj
 0002:000024f0       ??_7FromYa@TiledRgbaInputFile@Imf@@6B@ 100614f0     ImfTiledRgbaFile.obj
 0002:000024f4       ??_C@_0BD@EIJMOLOP@Cannot?5open?5file?5?$CC?$AA@ 100614f4     ImfTiledRgbaFile.obj
 0002:00002508       ??_C@_0EN@JCCAIAOO@?$CC?5for?5writing?4?5?5Tiled?5image?5file@ 10061508     ImfTiledRgbaFile.obj
 0002:00002558       ??_C@_0EA@HLFIJFKE@Cannot?5set?5hours?5field?5in?5time?5c@ 10061558     ImfTimeCode.obj
 0002:00002598       ??_C@_0EC@LPHKHLNH@Cannot?5set?5minutes?5field?5in?5time@ 10061598     ImfTimeCode.obj
 0002:000025e0       ??_C@_0EC@NIANNHIG@Cannot?5set?5seconds?5field?5in?5time@ 100615e0     ImfTimeCode.obj
 0002:00002628       ??_C@_0EA@FJDLFNEI@Cannot?5set?5frame?5field?5in?5time?5c@ 10061628     ImfTimeCode.obj
 0002:00002668       ??_C@_0FF@FJEEADCG@Cannot?5extract?5binary?5group?5from@ 10061668     ImfTimeCode.obj
 0002:000026c0       ??_C@_08CDMGGHAC@timecode?$AA@ 100616c0     ImfTimeCodeAttribute.obj
 0002:000026cc       ??_C@_03DDPDOLD@v2i?$AA@   100616cc     ImfVecAttribute.obj
 0002:000026d0       ??_C@_03IEKHCCHM@v2f?$AA@  100616d0     ImfVecAttribute.obj
 0002:000026d4       ??_C@_03CPNFEIE@v3i?$AA@   100616d4     ImfVecAttribute.obj
 0002:000026d8       ??_C@_03IFGFEIEL@v3f?$AA@  100616d8     ImfVecAttribute.obj
 0002:000026e0       ??_7ZipCompressor@Imf@@6B@ 100616e0     ImfZipCompressor.obj
 0002:00002700       ??_7type_info@@6B@         10061700     MSVCRT:ti_inst.obj
 0002:00002704       ??_C@_0BO@GNIAFIKK@Unknown?5Runtime?5Check?5Error?6?$AN?$AA@ 10061704     MSVCRT:error.obj
 0002:00002724       ??_C@_0CM@NGINOKPC@Stack?5memory?5around?5_alloca?5was?5@ 10061724     MSVCRT:error.obj
 0002:00002750       ??_C@_0DG@HKJMLLLP@A?5local?5variable?5was?5used?5before@ 10061750     MSVCRT:error.obj
 0002:00002788       ??_C@_0BN@FFOINMNJ@Stack?5memory?5was?5corrupted?6?$AN?$AA@ 10061788     MSVCRT:error.obj
 0002:000027a8       ??_C@_0BBN@GPMLNJCF@A?5cast?5to?5a?5smaller?5data?5type?5ha@ 100617a8     MSVCRT:error.obj
 0002:000028c8       ??_C@_0NN@NGPKDKPD@The?5value?5of?5ESP?5was?5not?5properl@ 100618c8     MSVCRT:error.obj
 0002:00002a28       ??_C@_0CA@IODNCDPG@Run?9Time?5Check?5Failure?5?$CD?$CFd?5?9?5?$CFs?$AA@ 10061a28     MSVCRT:error.obj
 0002:00002a48       ??_C@_0BE@GNBOBNCK@Unknown?5Module?5Name?$AA@ 10061a48     MSVCRT:error.obj
 0002:00002a5c       ??_C@_0BB@PFFGGCJP@Unknown?5Filename?$AA@ 10061a5c     MSVCRT:error.obj
 0002:00002a70       ??_C@_1EA@NFKNIFJP@?$AAR?$AAu?$AAn?$AA?9?$AAT?$AAi?$AAm?$AAe?$AA?5?$AAC?$AAh?$AAe?$AAc?$AAk?$AA?5?$AAF?$AAa?$AAi?$AAl?$AAu?$AAr?$AAe?$AA?5?$AA?$CD?$AA?$CF?$AAd?$AA?5?$AA?9?$AA?5?$AA?$CF?$AAs?$AA?$AA@ 10061a70     MSVCRT:error.obj
 0002:00002ab0       ??_C@_1GM@OLMCBDMB@?$AAR?$AAu?$AAn?$AAt?$AAi?$AAm?$AAe?$AA?5?$AAC?$AAh?$AAe?$AAc?$AAk?$AA?5?$AAE?$AAr?$AAr?$AAo?$AAr?$AA?4?$AA?6?$AA?$AN?$AA?5?$AAU?$AAn?$AAa?$AAb?$AAl?$AAe?$AA?5?$AAt?$AAo@ 10061ab0     MSVCRT:error.obj
 0002:00002b1c       ??_C@_0CG@IAFNJNEE@Stack?5corrupted?5near?5unknown?5var@ 10061b1c     MSVCRT:error.obj
 0002:00002b44       ??_C@_05MKKEDADM@?$CF?42X?5?$AA@ 10061b44     MSVCRT:error.obj
 0002:00002b50       ??_C@_0EJ@LJKNEOLN@Stack?5area?5around?5_alloca?5memory@ 10061b50     MSVCRT:error.obj
 0002:00002b9c       ??_C@_08KJEDNCKC@?$CFs?$CFs?$CFs?$CFs?$AA@ 10061b9c     MSVCRT:error.obj
 0002:00002ba8       ??_C@_02LLMPMKNF@?$DO?5?$AA@ 10061ba8     MSVCRT:error.obj
 0002:00002bac       ??_C@_01EEMJAFIK@?6?$AA@   10061bac     MSVCRT:error.obj
 0002:00002bb0       ??_C@_0BC@KIBAILCI@?$CFs?$CFs?$CFp?$CFs?$CFld?$CFs?$CFd?$CFs?$AA@ 10061bb0     MSVCRT:error.obj
 0002:00002bc8       ??_C@_0EI@CLEPFNGI@Stack?5area?5around?5_alloca?5memory@ 10061bc8     MSVCRT:error.obj
 0002:00002c10       ??_C@_0N@MHFFIMFG@?6Address?3?50x?$AA@ 10061c10     MSVCRT:error.obj
 0002:00002c20       ??_C@_07DFDJCKFN@?6Size?3?5?$AA@ 10061c20     MSVCRT:error.obj
 0002:00002c28       ??_C@_0CK@DKGBICFE@?6Allocation?5number?5within?5this?5f@ 10061c28     MSVCRT:error.obj
 0002:00002c54       ??_C@_08OMAHNMHJ@?6Data?3?5?$DM?$AA@ 10061c54     MSVCRT:error.obj
 0002:00002c60       ??_C@_09FOPFMPEJ@wsprintfA?$AA@ 10061c60     MSVCRT:error.obj
 0002:00002c6c       ??_C@_0L@GMPLCCII@user32?4dll?$AA@ 10061c6c     MSVCRT:error.obj
 0002:00002c78       ??_C@_0DA@BEGFPCGG@A?5variable?5is?5being?5used?5without@ 10061c78     MSVCRT:error.obj
 0002:00002ca8       __pDefaultRawDllMain       10061ca8     MSVCRT:crtdll.obj
 0002:00002ca8       __pRawDllMain              10061ca8     MSVCRT:crtdll.obj
 0002:00002cac       ??_C@_0BP@OGBCLIBO@Stack?5around?5_alloca?5corrupted?$AA@ 10061cac     MSVCRT:userapi.obj
 0002:00002ccc       ??_C@_0CK@CNLNOEPB@Local?5variable?5used?5before?5initi@ 10061ccc     MSVCRT:userapi.obj
 0002:00002cf8       ??_C@_0BI@CIGMDCBH@Stack?5memory?5corruption?$AA@ 10061cf8     MSVCRT:userapi.obj
 0002:00002d10       ??_C@_0CK@FEGOIOPB@Cast?5to?5smaller?5type?5causing?5los@ 10061d10     MSVCRT:userapi.obj
 0002:00002d3c       ??_C@_0BJ@HEGAHDFO@Stack?5pointer?5corruption?$AA@ 10061d3c     MSVCRT:userapi.obj
 0002:00002d58       ??_C@_0M@EKFFODEC@MSPDB80?4DLL?$AA@ 10061d58     MSVCRT:pdblkup.obj
 0002:00002d64       ??_C@_0BF@BMIHBHCA@EnvironmentDirectory?$AA@ 10061d64     MSVCRT:pdblkup.obj
 0002:00002d7c       ??_C@_0CN@EAEOKKOC@SOFTWARE?2Microsoft?2VisualStudio?2@ 10061d7c     MSVCRT:pdblkup.obj
 0002:00002dac       ??_C@_0M@HLOHPNFA@RegCloseKey?$AA@ 10061dac     MSVCRT:pdblkup.obj
 0002:00002db8       ??_C@_0BB@HHEIPGME@RegQueryValueExA?$AA@ 10061db8     MSVCRT:pdblkup.obj
 0002:00002dcc       ??_C@_0O@DCOGKJGG@RegOpenKeyExA?$AA@ 10061dcc     MSVCRT:pdblkup.obj
 0002:00002ddc       ??_C@_0N@JJPEKNFO@ADVAPI32?4DLL?$AA@ 10061ddc     MSVCRT:pdblkup.obj
 0002:00002dec       ??_C@_01KDCPPGHE@r?$AA@    10061dec     MSVCRT:pdblkup.obj
 0002:00002df0       ??_C@_0BB@KCIACLNC@PDBOpenValidate5?$AA@ 10061df0     MSVCRT:pdblkup.obj
 0002:00002e04       ?ProcessDetach@NativeDll@<CrtImplementationDetails>@@0IB 10061e04     MSVCRT:tncleanup.obj
 0002:00002e08       ?ProcessAttach@NativeDll@<CrtImplementationDetails>@@0IB 10061e08     MSVCRT:tncleanup.obj
 0002:00002e0c       ?ThreadAttach@NativeDll@<CrtImplementationDetails>@@0IB 10061e0c     MSVCRT:tncleanup.obj
 0002:00002e10       ?ThreadDetach@NativeDll@<CrtImplementationDetails>@@0IB 10061e10     MSVCRT:tncleanup.obj
 0002:00002e14       ?ProcessVerifier@NativeDll@<CrtImplementationDetails>@@0IB 10061e14     MSVCRT:tncleanup.obj
 0002:00002e20       __load_config_used         10061e20     MSVCRT:loadcfg.obj
 0002:00002e68       ??_R4Attribute@Imf@@6B@    10061e68     ImfAttribute.obj
 0002:00002e7c       ??_R3Attribute@Imf@@8      10061e7c     ImfAttribute.obj
 0002:00002e8c       ??_R2Attribute@Imf@@8      10061e8c     ImfAttribute.obj
 0002:00002e94       ??_R1A@?0A@EA@Attribute@Imf@@8 10061e94     ImfAttribute.obj
 0002:00002eb0       ??_R4ArgExc@Iex@@6B@       10061eb0     ImfAttribute.obj
 0002:00002ec4       ??_R3ArgExc@Iex@@8         10061ec4     ImfAttribute.obj
 0002:00002ed4       ??_R2ArgExc@Iex@@8         10061ed4     ImfAttribute.obj
 0002:00002ef4       ??_R1A@?0A@EA@ArgExc@Iex@@8 10061ef4     ImfAttribute.obj
 0002:00002f10       ??_R1A@?0A@EA@BaseExc@Iex@@8 10061f10     ImfAttribute.obj
 0002:00002f2c       ??_R3BaseExc@Iex@@8        10061f2c     ImfAttribute.obj
 0002:00002f3c       ??_R2BaseExc@Iex@@8        10061f3c     ImfAttribute.obj
 0002:00002f58       ??_R1M@?0A@EA@?$basic_string@DU?$char_traits@D@std@@V?$allocator@D@2@@std@@8 10061f58     ImfAttribute.obj
 0002:00002f74       ??_R3?$basic_string@DU?$char_traits@D@std@@V?$allocator@D@2@@std@@8 10061f74     ImfAttribute.obj
 0002:00002f84       ??_R2?$basic_string@DU?$char_traits@D@std@@V?$allocator@D@2@@std@@8 10061f84     ImfAttribute.obj
 0002:00002f98       ??_R1A@?0A@EA@?$basic_string@DU?$char_traits@D@std@@V?$allocator@D@2@@std@@8 10061f98     ImfAttribute.obj
 0002:00002fb4       ??_R1A@?0A@EA@?$_String_val@DV?$allocator@D@std@@@std@@8 10061fb4     ImfAttribute.obj
 0002:00002fd0       ??_R3?$_String_val@DV?$allocator@D@std@@@std@@8 10061fd0     ImfAttribute.obj
 0002:00002fe0       ??_R2?$_String_val@DV?$allocator@D@std@@@std@@8 10061fe0     ImfAttribute.obj
 0002:00002ff0       ??_R1A@?0A@EA@_String_base@std@@8 10061ff0     ImfAttribute.obj
 0002:0000300c       ??_R3_String_base@std@@8   1006200c     ImfAttribute.obj
 0002:0000301c       ??_R2_String_base@std@@8   1006201c     ImfAttribute.obj
 0002:00003028       ??_R1A@?0A@EA@_Container_base@std@@8 10062028     ImfAttribute.obj
 0002:00003044       ??_R3_Container_base@std@@8 10062044     ImfAttribute.obj
 0002:00003054       ??_R2_Container_base@std@@8 10062054     ImfAttribute.obj
 0002:0000305c       ??_R1M@?0A@EA@?$_String_val@DV?$allocator@D@std@@@std@@8 1006205c     ImfAttribute.obj
 0002:00003078       ??_R1M@?0A@EA@_String_base@std@@8 10062078     ImfAttribute.obj
 0002:00003094       ??_R1M@?0A@EA@_Container_base@std@@8 10062094     ImfAttribute.obj
 0002:000030b0       ??_R1A@?0A@EA@exception@std@@8 100620b0     ImfAttribute.obj
 0002:000030cc       ??_R3exception@std@@8      100620cc     ImfAttribute.obj
 0002:000030dc       ??_R2exception@std@@8      100620dc     ImfAttribute.obj
 0002:000030e4       ??_R4length_error@std@@6B@ 100620e4     ImfAttribute.obj
 0002:000030f8       ??_R3length_error@std@@8   100620f8     ImfAttribute.obj
 0002:00003108       ??_R2length_error@std@@8   10062108     ImfAttribute.obj
 0002:00003118       ??_R1A@?0A@EA@length_error@std@@8 10062118     ImfAttribute.obj
 0002:00003134       ??_R1A@?0A@EA@logic_error@std@@8 10062134     ImfAttribute.obj
 0002:00003150       ??_R3logic_error@std@@8    10062150     ImfAttribute.obj
 0002:00003160       ??_R2logic_error@std@@8    10062160     ImfAttribute.obj
 0002:0000316c       ??_R4logic_error@std@@6B@  1006216c     ImfAttribute.obj
 0002:00003180       ??_R4out_of_range@std@@6B@ 10062180     ImfAttribute.obj
 0002:00003194       ??_R3out_of_range@std@@8   10062194     ImfAttribute.obj
 0002:000031a4       ??_R2out_of_range@std@@8   100621a4     ImfAttribute.obj
 0002:000031b4       ??_R1A@?0A@EA@out_of_range@std@@8 100621b4     ImfAttribute.obj
 0002:000031d0       ??_R4?$TypedAttribute@M@Imf@@6B@ 100621d0     ImfAttribute.obj
 0002:000031e4       ??_R3?$TypedAttribute@M@Imf@@8 100621e4     ImfAttribute.obj
 0002:000031f4       ??_R2?$TypedAttribute@M@Imf@@8 100621f4     ImfAttribute.obj
 0002:00003200       ??_R1A@?0A@EA@?$TypedAttribute@M@Imf@@8 10062200     ImfAttribute.obj
 0002:0000321c       ??_R4TypeExc@Iex@@6B@      1006221c     ImfAttribute.obj
 0002:00003230       ??_R3TypeExc@Iex@@8        10062230     ImfAttribute.obj
 0002:00003240       ??_R2TypeExc@Iex@@8        10062240     ImfAttribute.obj
 0002:00003260       ??_R1A@?0A@EA@TypeExc@Iex@@8 10062260     ImfAttribute.obj
 0002:0000327c       ??_R4?$TypedAttribute@N@Imf@@6B@ 1006227c     ImfAttribute.obj
 0002:00003290       ??_R3?$TypedAttribute@N@Imf@@8 10062290     ImfAttribute.obj
 0002:000032a0       ??_R2?$TypedAttribute@N@Imf@@8 100622a0     ImfAttribute.obj
 0002:000032ac       ??_R1A@?0A@EA@?$TypedAttribute@N@Imf@@8 100622ac     ImfAttribute.obj
 0002:000032c8       ??_R4bad_alloc@std@@6B@    100622c8     ImfAttribute.obj
 0002:000032dc       ??_R3bad_alloc@std@@8      100622dc     ImfAttribute.obj
 0002:000032ec       ??_R2bad_alloc@std@@8      100622ec     ImfAttribute.obj
 0002:000032f8       ??_R1A@?0A@EA@bad_alloc@std@@8 100622f8     ImfAttribute.obj
 0002:00003314       ??_R4MathExc@Iex@@6B@      10062314     ImfChromaticities.obj
 0002:00003328       ??_R3MathExc@Iex@@8        10062328     ImfChromaticities.obj
 0002:00003338       ??_R2MathExc@Iex@@8        10062338     ImfChromaticities.obj
 0002:00003358       ??_R1A@?0A@EA@MathExc@Iex@@8 10062358     ImfChromaticities.obj
 0002:00003374       ??_R4SingMatrixExc@Imath@@6B@ 10062374     ImfChromaticities.obj
 0002:00003388       ??_R3SingMatrixExc@Imath@@8 10062388     ImfChromaticities.obj
 0002:00003398       ??_R2SingMatrixExc@Imath@@8 10062398     ImfChromaticities.obj
 0002:000033bc       ??_R1A@?0A@EA@SingMatrixExc@Imath@@8 100623bc     ImfChromaticities.obj
 0002:000033d8       ??_R4Compressor@Imf@@6B@   100623d8     ImfCompressor.obj
 0002:000033ec       ??_R3Compressor@Imf@@8     100623ec     ImfCompressor.obj
 0002:000033fc       ??_R2Compressor@Imf@@8     100623fc     ImfCompressor.obj
 0002:00003404       ??_R1A@?0A@EA@Compressor@Imf@@8 10062404     ImfCompressor.obj
 0002:00003420       ??_R4?$TypedAttribute@H@Imf@@6B@ 10062420     ImfCRgbaFile.obj
 0002:00003434       ??_R3?$TypedAttribute@H@Imf@@8 10062434     ImfCRgbaFile.obj
 0002:00003444       ??_R2?$TypedAttribute@H@Imf@@8 10062444     ImfCRgbaFile.obj
 0002:00003450       ??_R1A@?0A@EA@?$TypedAttribute@H@Imf@@8 10062450     ImfCRgbaFile.obj
 0002:0000346c       ??_R4?$TypedAttribute@V?$basic_string@DU?$char_traits@D@std@@V?$allocator@D@2@@std@@@Imf@@6B@ 1006246c     ImfCRgbaFile.obj
 0002:00003480       ??_R3?$TypedAttribute@V?$basic_string@DU?$char_traits@D@std@@V?$allocator@D@2@@std@@@Imf@@8 10062480     ImfCRgbaFile.obj
 0002:00003490       ??_R2?$TypedAttribute@V?$basic_string@DU?$char_traits@D@std@@V?$allocator@D@2@@std@@@Imf@@8 10062490     ImfCRgbaFile.obj
 0002:0000349c       ??_R1A@?0A@EA@?$TypedAttribute@V?$basic_string@DU?$char_traits@D@std@@V?$allocator@D@2@@std@@@Imf@@8 1006249c     ImfCRgbaFile.obj
 0002:000034b8       ??_R4?$TypedAttribute@V?$Box@V?$Vec2@H@Imath@@@Imath@@@Imf@@6B@ 100624b8     ImfCRgbaFile.obj
 0002:000034cc       ??_R3?$TypedAttribute@V?$Box@V?$Vec2@H@Imath@@@Imath@@@Imf@@8 100624cc     ImfCRgbaFile.obj
 0002:000034dc       ??_R2?$TypedAttribute@V?$Box@V?$Vec2@H@Imath@@@Imath@@@Imf@@8 100624dc     ImfCRgbaFile.obj
 0002:000034e8       ??_R1A@?0A@EA@?$TypedAttribute@V?$Box@V?$Vec2@H@Imath@@@Imath@@@Imf@@8 100624e8     ImfCRgbaFile.obj
 0002:00003504       ??_R4?$TypedAttribute@V?$Box@V?$Vec2@M@Imath@@@Imath@@@Imf@@6B@ 10062504     ImfCRgbaFile.obj
 0002:00003518       ??_R3?$TypedAttribute@V?$Box@V?$Vec2@M@Imath@@@Imath@@@Imf@@8 10062518     ImfCRgbaFile.obj
 0002:00003528       ??_R2?$TypedAttribute@V?$Box@V?$Vec2@M@Imath@@@Imath@@@Imf@@8 10062528     ImfCRgbaFile.obj
 0002:00003534       ??_R1A@?0A@EA@?$TypedAttribute@V?$Box@V?$Vec2@M@Imath@@@Imath@@@Imf@@8 10062534     ImfCRgbaFile.obj
 0002:00003550       ??_R4?$TypedAttribute@V?$Vec2@H@Imath@@@Imf@@6B@ 10062550     ImfCRgbaFile.obj
 0002:00003564       ??_R3?$TypedAttribute@V?$Vec2@H@Imath@@@Imf@@8 10062564     ImfCRgbaFile.obj
 0002:00003574       ??_R2?$TypedAttribute@V?$Vec2@H@Imath@@@Imf@@8 10062574     ImfCRgbaFile.obj
 0002:00003580       ??_R1A@?0A@EA@?$TypedAttribute@V?$Vec2@H@Imath@@@Imf@@8 10062580     ImfCRgbaFile.obj
 0002:0000359c       ??_R4?$TypedAttribute@V?$Vec2@M@Imath@@@Imf@@6B@ 1006259c     ImfCRgbaFile.obj
 0002:000035b0       ??_R3?$TypedAttribute@V?$Vec2@M@Imath@@@Imf@@8 100625b0     ImfCRgbaFile.obj
 0002:000035c0       ??_R2?$TypedAttribute@V?$Vec2@M@Imath@@@Imf@@8 100625c0     ImfCRgbaFile.obj
 0002:000035cc       ??_R1A@?0A@EA@?$TypedAttribute@V?$Vec2@M@Imath@@@Imf@@8 100625cc     ImfCRgbaFile.obj
 0002:000035e8       ??_R4?$TypedAttribute@V?$Vec3@H@Imath@@@Imf@@6B@ 100625e8     ImfCRgbaFile.obj
 0002:000035fc       ??_R3?$TypedAttribute@V?$Vec3@H@Imath@@@Imf@@8 100625fc     ImfCRgbaFile.obj
 0002:0000360c       ??_R2?$TypedAttribute@V?$Vec3@H@Imath@@@Imf@@8 1006260c     ImfCRgbaFile.obj
 0002:00003618       ??_R1A@?0A@EA@?$TypedAttribute@V?$Vec3@H@Imath@@@Imf@@8 10062618     ImfCRgbaFile.obj
 0002:00003634       ??_R4?$TypedAttribute@V?$Vec3@M@Imath@@@Imf@@6B@ 10062634     ImfCRgbaFile.obj
 0002:00003648       ??_R3?$TypedAttribute@V?$Vec3@M@Imath@@@Imf@@8 10062648     ImfCRgbaFile.obj
 0002:00003658       ??_R2?$TypedAttribute@V?$Vec3@M@Imath@@@Imf@@8 10062658     ImfCRgbaFile.obj
 0002:00003664       ??_R1A@?0A@EA@?$TypedAttribute@V?$Vec3@M@Imath@@@Imf@@8 10062664     ImfCRgbaFile.obj
 0002:00003680       ??_R4?$TypedAttribute@V?$Matrix33@M@Imath@@@Imf@@6B@ 10062680     ImfCRgbaFile.obj
 0002:00003694       ??_R3?$TypedAttribute@V?$Matrix33@M@Imath@@@Imf@@8 10062694     ImfCRgbaFile.obj
 0002:000036a4       ??_R2?$TypedAttribute@V?$Matrix33@M@Imath@@@Imf@@8 100626a4     ImfCRgbaFile.obj
 0002:000036b0       ??_R1A@?0A@EA@?$TypedAttribute@V?$Matrix33@M@Imath@@@Imf@@8 100626b0     ImfCRgbaFile.obj
 0002:000036cc       ??_R4?$TypedAttribute@V?$Matrix44@M@Imath@@@Imf@@6B@ 100626cc     ImfCRgbaFile.obj
 0002:000036e0       ??_R3?$TypedAttribute@V?$Matrix44@M@Imath@@@Imf@@8 100626e0     ImfCRgbaFile.obj
 0002:000036f0       ??_R2?$TypedAttribute@V?$Matrix44@M@Imath@@@Imf@@8 100626f0     ImfCRgbaFile.obj
 0002:000036fc       ??_R1A@?0A@EA@?$TypedAttribute@V?$Matrix44@M@Imath@@@Imf@@8 100626fc     ImfCRgbaFile.obj
 0002:00003718       ??_R4InputExc@Iex@@6B@     10062718     ImfHeader.obj
 0002:0000372c       ??_R3InputExc@Iex@@8       1006272c     ImfHeader.obj
 0002:0000373c       ??_R2InputExc@Iex@@8       1006273c     ImfHeader.obj
 0002:0000375c       ??_R1A@?0A@EA@InputExc@Iex@@8 1006275c     ImfHeader.obj
 0002:00003778       ??_R4?$TypedAttribute@VChannelList@Imf@@@Imf@@6B@ 10062778     ImfHeader.obj
 0002:0000378c       ??_R3?$TypedAttribute@VChannelList@Imf@@@Imf@@8 1006278c     ImfHeader.obj
 0002:0000379c       ??_R2?$TypedAttribute@VChannelList@Imf@@@Imf@@8 1006279c     ImfHeader.obj
 0002:000037a8       ??_R1A@?0A@EA@?$TypedAttribute@VChannelList@Imf@@@Imf@@8 100627a8     ImfHeader.obj
 0002:000037c4       ??_R4?$TypedAttribute@W4Compression@Imf@@@Imf@@6B@ 100627c4     ImfHeader.obj
 0002:000037d8       ??_R3?$TypedAttribute@W4Compression@Imf@@@Imf@@8 100627d8     ImfHeader.obj
 0002:000037e8       ??_R2?$TypedAttribute@W4Compression@Imf@@@Imf@@8 100627e8     ImfHeader.obj
 0002:000037f4       ??_R1A@?0A@EA@?$TypedAttribute@W4Compression@Imf@@@Imf@@8 100627f4     ImfHeader.obj
 0002:00003810       ??_R4?$TypedAttribute@W4LineOrder@Imf@@@Imf@@6B@ 10062810     ImfHeader.obj
 0002:00003824       ??_R3?$TypedAttribute@W4LineOrder@Imf@@@Imf@@8 10062824     ImfHeader.obj
 0002:00003834       ??_R2?$TypedAttribute@W4LineOrder@Imf@@@Imf@@8 10062834     ImfHeader.obj
 0002:00003840       ??_R1A@?0A@EA@?$TypedAttribute@W4LineOrder@Imf@@@Imf@@8 10062840     ImfHeader.obj
 0002:0000385c       ??_R4?$TypedAttribute@VPreviewImage@Imf@@@Imf@@6B@ 1006285c     ImfHeader.obj
 0002:00003870       ??_R3?$TypedAttribute@VPreviewImage@Imf@@@Imf@@8 10062870     ImfHeader.obj
 0002:00003880       ??_R2?$TypedAttribute@VPreviewImage@Imf@@@Imf@@8 10062880     ImfHeader.obj
 0002:0000388c       ??_R1A@?0A@EA@?$TypedAttribute@VPreviewImage@Imf@@@Imf@@8 1006288c     ImfHeader.obj
 0002:000038a8       ??_R4?$TypedAttribute@VTileDescription@Imf@@@Imf@@6B@ 100628a8     ImfHeader.obj
 0002:000038bc       ??_R3?$TypedAttribute@VTileDescription@Imf@@@Imf@@8 100628bc     ImfHeader.obj
 0002:000038cc       ??_R2?$TypedAttribute@VTileDescription@Imf@@@Imf@@8 100628cc     ImfHeader.obj
 0002:000038d8       ??_R1A@?0A@EA@?$TypedAttribute@VTileDescription@Imf@@@Imf@@8 100628d8     ImfHeader.obj
 0002:000038f4       ??_R4?$TypedAttribute@UChromaticities@Imf@@@Imf@@6B@ 100628f4     ImfHeader.obj
 0002:00003908       ??_R3?$TypedAttribute@UChromaticities@Imf@@@Imf@@8 10062908     ImfHeader.obj
 0002:00003918       ??_R2?$TypedAttribute@UChromaticities@Imf@@@Imf@@8 10062918     ImfHeader.obj
 0002:00003924       ??_R1A@?0A@EA@?$TypedAttribute@UChromaticities@Imf@@@Imf@@8 10062924     ImfHeader.obj
 0002:00003940       ??_R4?$TypedAttribute@W4Envmap@Imf@@@Imf@@6B@ 10062940     ImfHeader.obj
 0002:00003954       ??_R3?$TypedAttribute@W4Envmap@Imf@@@Imf@@8 10062954     ImfHeader.obj
 0002:00003964       ??_R2?$TypedAttribute@W4Envmap@Imf@@@Imf@@8 10062964     ImfHeader.obj
 0002:00003970       ??_R1A@?0A@EA@?$TypedAttribute@W4Envmap@Imf@@@Imf@@8 10062970     ImfHeader.obj
 0002:0000398c       ??_R4?$TypedAttribute@VKeyCode@Imf@@@Imf@@6B@ 1006298c     ImfHeader.obj
 0002:000039a0       ??_R3?$TypedAttribute@VKeyCode@Imf@@@Imf@@8 100629a0     ImfHeader.obj
 0002:000039b0       ??_R2?$TypedAttribute@VKeyCode@Imf@@@Imf@@8 100629b0     ImfHeader.obj
 0002:000039bc       ??_R1A@?0A@EA@?$TypedAttribute@VKeyCode@Imf@@@Imf@@8 100629bc     ImfHeader.obj
 0002:000039d8       ??_R4?$TypedAttribute@VTimeCode@Imf@@@Imf@@6B@ 100629d8     ImfHeader.obj
 0002:000039ec       ??_R3?$TypedAttribute@VTimeCode@Imf@@@Imf@@8 100629ec     ImfHeader.obj
 0002:000039fc       ??_R2?$TypedAttribute@VTimeCode@Imf@@@Imf@@8 100629fc     ImfHeader.obj
 0002:00003a08       ??_R1A@?0A@EA@?$TypedAttribute@VTimeCode@Imf@@@Imf@@8 10062a08     ImfHeader.obj
 0002:00003a24       ??_R4Data@InputFile@Imf@@6B@ 10062a24     ImfInputFile.obj
 0002:00003a38       ??_R3Data@InputFile@Imf@@8 10062a38     ImfInputFile.obj
 0002:00003a48       ??_R2Data@InputFile@Imf@@8 10062a48     ImfInputFile.obj
 0002:00003a54       ??_R1A@?0A@EA@Data@InputFile@Imf@@8 10062a54     ImfInputFile.obj
 0002:00003a70       ??_R1A@?0A@EA@Mutex@IlmThread@@8 10062a70     ImfInputFile.obj
 0002:00003a8c       ??_R3Mutex@IlmThread@@8    10062a8c     ImfInputFile.obj
 0002:00003a9c       ??_R2Mutex@IlmThread@@8    10062a9c     ImfInputFile.obj
 0002:00003aa4       ??_R4InputFile@Imf@@6B@    10062aa4     ImfInputFile.obj
 0002:00003ab8       ??_R3InputFile@Imf@@8      10062ab8     ImfInputFile.obj
 0002:00003ac8       ??_R2InputFile@Imf@@8      10062ac8     ImfInputFile.obj
 0002:00003ad0       ??_R1A@?0A@EA@InputFile@Imf@@8 10062ad0     ImfInputFile.obj
 0002:00003aec       ??_R4IStream@Imf@@6B@      10062aec     ImfIO.obj
 0002:00003b00       ??_R3IStream@Imf@@8        10062b00     ImfIO.obj
 0002:00003b10       ??_R2IStream@Imf@@8        10062b10     ImfIO.obj
 0002:00003b18       ??_R1A@?0A@EA@IStream@Imf@@8 10062b18     ImfIO.obj
 0002:00003b34       ??_R4OStream@Imf@@6B@      10062b34     ImfIO.obj
 0002:00003b48       ??_R3OStream@Imf@@8        10062b48     ImfIO.obj
 0002:00003b58       ??_R2OStream@Imf@@8        10062b58     ImfIO.obj
 0002:00003b60       ??_R1A@?0A@EA@OStream@Imf@@8 10062b60     ImfIO.obj
 0002:00003b7c       ??_R4OpaqueAttribute@Imf@@6B@ 10062b7c     ImfOpaqueAttribute.obj
 0002:00003b90       ??_R3OpaqueAttribute@Imf@@8 10062b90     ImfOpaqueAttribute.obj
 0002:00003ba0       ??_R2OpaqueAttribute@Imf@@8 10062ba0     ImfOpaqueAttribute.obj
 0002:00003bac       ??_R1A@?0A@EA@OpaqueAttribute@Imf@@8 10062bac     ImfOpaqueAttribute.obj
 0002:00003bc8       ??_R4Data@OutputFile@Imf@@6B@ 10062bc8     ImfOutputFile.obj
 0002:00003bdc       ??_R3Data@OutputFile@Imf@@8 10062bdc     ImfOutputFile.obj
 0002:00003bec       ??_R2Data@OutputFile@Imf@@8 10062bec     ImfOutputFile.obj
 0002:00003bf8       ??_R1A@?0A@EA@Data@OutputFile@Imf@@8 10062bf8     ImfOutputFile.obj
 0002:00003c14       ??_R4LineBufferTask@?A0xae07d9b6@Imf@@6B@ 10062c14     ImfOutputFile.obj
 0002:00003c28       ??_R3LineBufferTask@?A0xae07d9b6@Imf@@8 10062c28     ImfOutputFile.obj
 0002:00003c38       ??_R2LineBufferTask@?A0xae07d9b6@Imf@@8 10062c38     ImfOutputFile.obj
 0002:00003c44       ??_R1A@?0A@EA@LineBufferTask@?A0xae07d9b6@Imf@@8 10062c44     ImfOutputFile.obj
 0002:00003c60       ??_R1A@?0A@EA@Task@IlmThread@@8 10062c60     ImfOutputFile.obj
 0002:00003c7c       ??_R3Task@IlmThread@@8     10062c7c     ImfOutputFile.obj
 0002:00003c8c       ??_R2Task@IlmThread@@8     10062c8c     ImfOutputFile.obj
 0002:00003c94       ??_R4OutputFile@Imf@@6B@   10062c94     ImfOutputFile.obj
 0002:00003ca8       ??_R3OutputFile@Imf@@8     10062ca8     ImfOutputFile.obj
 0002:00003cb8       ??_R2OutputFile@Imf@@8     10062cb8     ImfOutputFile.obj
 0002:00003cc0       ??_R1A@?0A@EA@OutputFile@Imf@@8 10062cc0     ImfOutputFile.obj
 0002:00003cdc       ??_R4IoExc@Iex@@6B@        10062cdc     ImfOutputFile.obj
 0002:00003cf0       ??_R3IoExc@Iex@@8          10062cf0     ImfOutputFile.obj
 0002:00003d00       ??_R2IoExc@Iex@@8          10062d00     ImfOutputFile.obj
 0002:00003d20       ??_R1A@?0A@EA@IoExc@Iex@@8 10062d20     ImfOutputFile.obj
 0002:00003d3c       ??_R4LogicExc@Iex@@6B@     10062d3c     ImfOutputFile.obj
 0002:00003d50       ??_R3LogicExc@Iex@@8       10062d50     ImfOutputFile.obj
 0002:00003d60       ??_R2LogicExc@Iex@@8       10062d60     ImfOutputFile.obj
 0002:00003d80       ??_R1A@?0A@EA@LogicExc@Iex@@8 10062d80     ImfOutputFile.obj
 0002:00003d9c       ??_R4PizCompressor@Imf@@6B@ 10062d9c     ImfPizCompressor.obj
 0002:00003db0       ??_R3PizCompressor@Imf@@8  10062db0     ImfPizCompressor.obj
 0002:00003dc0       ??_R2PizCompressor@Imf@@8  10062dc0     ImfPizCompressor.obj
 0002:00003dcc       ??_R1A@?0A@EA@PizCompressor@Imf@@8 10062dcc     ImfPizCompressor.obj
 0002:00003de8       ??_R4Pxr24Compressor@Imf@@6B@ 10062de8     ImfPxr24Compressor.obj
 0002:00003dfc       ??_R3Pxr24Compressor@Imf@@8 10062dfc     ImfPxr24Compressor.obj
 0002:00003e0c       ??_R2Pxr24Compressor@Imf@@8 10062e0c     ImfPxr24Compressor.obj
 0002:00003e18       ??_R1A@?0A@EA@Pxr24Compressor@Imf@@8 10062e18     ImfPxr24Compressor.obj
 0002:00003e34       ??_R4ToYca@RgbaOutputFile@Imf@@6B@ 10062e34     ImfRgbaFile.obj
 0002:00003e48       ??_R3ToYca@RgbaOutputFile@Imf@@8 10062e48     ImfRgbaFile.obj
 0002:00003e58       ??_R2ToYca@RgbaOutputFile@Imf@@8 10062e58     ImfRgbaFile.obj
 0002:00003e64       ??_R1A@?0A@EA@ToYca@RgbaOutputFile@Imf@@8 10062e64     ImfRgbaFile.obj
 0002:00003e80       ??_R4RgbaOutputFile@Imf@@6B@ 10062e80     ImfRgbaFile.obj
 0002:00003e94       ??_R3RgbaOutputFile@Imf@@8 10062e94     ImfRgbaFile.obj
 0002:00003ea4       ??_R2RgbaOutputFile@Imf@@8 10062ea4     ImfRgbaFile.obj
 0002:00003eac       ??_R1A@?0A@EA@RgbaOutputFile@Imf@@8 10062eac     ImfRgbaFile.obj
 0002:00003ec8       ??_R4FromYca@RgbaInputFile@Imf@@6B@ 10062ec8     ImfRgbaFile.obj
 0002:00003edc       ??_R3FromYca@RgbaInputFile@Imf@@8 10062edc     ImfRgbaFile.obj
 0002:00003eec       ??_R2FromYca@RgbaInputFile@Imf@@8 10062eec     ImfRgbaFile.obj
 0002:00003ef8       ??_R1A@?0A@EA@FromYca@RgbaInputFile@Imf@@8 10062ef8     ImfRgbaFile.obj
 0002:00003f14       ??_R4RgbaInputFile@Imf@@6B@ 10062f14     ImfRgbaFile.obj
 0002:00003f28       ??_R3RgbaInputFile@Imf@@8  10062f28     ImfRgbaFile.obj
 0002:00003f38       ??_R2RgbaInputFile@Imf@@8  10062f38     ImfRgbaFile.obj
 0002:00003f40       ??_R1A@?0A@EA@RgbaInputFile@Imf@@8 10062f40     ImfRgbaFile.obj
 0002:00003f5c       ??_R4RleCompressor@Imf@@6B@ 10062f5c     ImfRleCompressor.obj
 0002:00003f70       ??_R3RleCompressor@Imf@@8  10062f70     ImfRleCompressor.obj
 0002:00003f80       ??_R2RleCompressor@Imf@@8  10062f80     ImfRleCompressor.obj
 0002:00003f8c       ??_R1A@?0A@EA@RleCompressor@Imf@@8 10062f8c     ImfRleCompressor.obj
 0002:00003fa8       ??_R4LineBufferTask@?A0xe06365b4@Imf@@6B@ 10062fa8     ImfScanLineInputFile.obj
 0002:00003fbc       ??_R3LineBufferTask@?A0xe06365b4@Imf@@8 10062fbc     ImfScanLineInputFile.obj
 0002:00003fcc       ??_R2LineBufferTask@?A0xe06365b4@Imf@@8 10062fcc     ImfScanLineInputFile.obj
 0002:00003fd8       ??_R1A@?0A@EA@LineBufferTask@?A0xe06365b4@Imf@@8 10062fd8     ImfScanLineInputFile.obj
 0002:00003ff4       ??_R4ScanLineInputFile@Imf@@6B@ 10062ff4     ImfScanLineInputFile.obj
 0002:00004008       ??_R3ScanLineInputFile@Imf@@8 10063008     ImfScanLineInputFile.obj
 0002:00004018       ??_R2ScanLineInputFile@Imf@@8 10063018     ImfScanLineInputFile.obj
 0002:00004020       ??_R1A@?0A@EA@ScanLineInputFile@Imf@@8 10063020     ImfScanLineInputFile.obj
 0002:0000403c       ??_R4Data@ScanLineInputFile@Imf@@6B@ 1006303c     ImfScanLineInputFile.obj
 0002:00004050       ??_R3Data@ScanLineInputFile@Imf@@8 10063050     ImfScanLineInputFile.obj
 0002:00004060       ??_R2Data@ScanLineInputFile@Imf@@8 10063060     ImfScanLineInputFile.obj
 0002:0000406c       ??_R1A@?0A@EA@Data@ScanLineInputFile@Imf@@8 1006306c     ImfScanLineInputFile.obj
 0002:00004088       ??_R4ErrnoExc@Iex@@6B@     10063088     ImfStdIO.obj
 0002:0000409c       ??_R3ErrnoExc@Iex@@8       1006309c     ImfStdIO.obj
 0002:000040ac       ??_R2ErrnoExc@Iex@@8       100630ac     ImfStdIO.obj
 0002:000040cc       ??_R1A@?0A@EA@ErrnoExc@Iex@@8 100630cc     ImfStdIO.obj
 0002:000040e8       ??_R4StdIFStream@Imf@@6B@  100630e8     ImfStdIO.obj
 0002:000040fc       ??_R3StdIFStream@Imf@@8    100630fc     ImfStdIO.obj
 0002:0000410c       ??_R2StdIFStream@Imf@@8    1006310c     ImfStdIO.obj
 0002:00004118       ??_R1A@?0A@EA@StdIFStream@Imf@@8 10063118     ImfStdIO.obj
 0002:00004134       ??_R4?$basic_ifstream@DU?$char_traits@D@std@@@std@@6B@ 10063134     ImfStdIO.obj
 0002:00004148       ??_R3?$basic_ifstream@DU?$char_traits@D@std@@@std@@8 10063148     ImfStdIO.obj
 0002:00004158       ??_R2?$basic_ifstream@DU?$char_traits@D@std@@@std@@8 10063158     ImfStdIO.obj
 0002:00004170       ??_R1A@?0A@EA@?$basic_ifstream@DU?$char_traits@D@std@@@std@@8 10063170     ImfStdIO.obj
 0002:0000418c       ??_R1A@?0A@EA@?$basic_istream@DU?$char_traits@D@std@@@std@@8 1006318c     ImfStdIO.obj
 0002:000041a8       ??_R3?$basic_istream@DU?$char_traits@D@std@@@std@@8 100631a8     ImfStdIO.obj
 0002:000041b8       ??_R2?$basic_istream@DU?$char_traits@D@std@@@std@@8 100631b8     ImfStdIO.obj
 0002:000041cc       ??_R1A@A@3FA@?$basic_ios@DU?$char_traits@D@std@@@std@@8 100631cc     ImfStdIO.obj
 0002:000041e8       ??_R3?$basic_ios@DU?$char_traits@D@std@@@std@@8 100631e8     ImfStdIO.obj
 0002:000041f8       ??_R2?$basic_ios@DU?$char_traits@D@std@@@std@@8 100631f8     ImfStdIO.obj
 0002:00004208       ??_R1A@?0A@EA@?$basic_ios@DU?$char_traits@D@std@@@std@@8 10063208     ImfStdIO.obj
 0002:00004224       ??_R1A@?0A@EA@ios_base@std@@8 10063224     ImfStdIO.obj
 0002:00004240       ??_R3ios_base@std@@8       10063240     ImfStdIO.obj
 0002:00004250       ??_R2ios_base@std@@8       10063250     ImfStdIO.obj
 0002:0000425c       ??_R13?0A@EA@?$_Iosb@H@std@@8 1006325c     ImfStdIO.obj
 0002:00004278       ??_R3?$_Iosb@H@std@@8      10063278     ImfStdIO.obj
 0002:00004288       ??_R2?$_Iosb@H@std@@8      10063288     ImfStdIO.obj
 0002:00004290       ??_R1A@?0A@EA@?$_Iosb@H@std@@8 10063290     ImfStdIO.obj
 0002:000042ac       ??_R1A@A@3EA@ios_base@std@@8 100632ac     ImfStdIO.obj
 0002:000042c8       ??_R13A@3EA@?$_Iosb@H@std@@8 100632c8     ImfStdIO.obj
 0002:000042e4       ??_R4StdOFStream@Imf@@6B@  100632e4     ImfStdIO.obj
 0002:000042f8       ??_R3StdOFStream@Imf@@8    100632f8     ImfStdIO.obj
 0002:00004308       ??_R2StdOFStream@Imf@@8    10063308     ImfStdIO.obj
 0002:00004314       ??_R1A@?0A@EA@StdOFStream@Imf@@8 10063314     ImfStdIO.obj
 0002:00004330       ??_R4?$basic_ofstream@DU?$char_traits@D@std@@@std@@6B@ 10063330     ImfStdIO.obj
 0002:00004344       ??_R3?$basic_ofstream@DU?$char_traits@D@std@@@std@@8 10063344     ImfStdIO.obj
 0002:00004354       ??_R2?$basic_ofstream@DU?$char_traits@D@std@@@std@@8 10063354     ImfStdIO.obj
 0002:0000436c       ??_R1A@?0A@EA@?$basic_ofstream@DU?$char_traits@D@std@@@std@@8 1006336c     ImfStdIO.obj
 0002:00004388       ??_R1A@?0A@EA@?$basic_ostream@DU?$char_traits@D@std@@@std@@8 10063388     ImfStdIO.obj
 0002:000043a4       ??_R3?$basic_ostream@DU?$char_traits@D@std@@@std@@8 100633a4     ImfStdIO.obj
 0002:000043b4       ??_R2?$basic_ostream@DU?$char_traits@D@std@@@std@@8 100633b4     ImfStdIO.obj
 0002:000043c8       ??_R4StdOSStream@Imf@@6B@  100633c8     ImfStdIO.obj
 0002:000043dc       ??_R3StdOSStream@Imf@@8    100633dc     ImfStdIO.obj
 0002:000043ec       ??_R2StdOSStream@Imf@@8    100633ec     ImfStdIO.obj
 0002:000043f8       ??_R1A@?0A@EA@StdOSStream@Imf@@8 100633f8     ImfStdIO.obj
 0002:00004414       ??_R4TileBufferTask@?A0xf349abed@Imf@@6B@ 10063414     ImfTiledInputFile.obj
 0002:00004428       ??_R3TileBufferTask@?A0xf349abed@Imf@@8 10063428     ImfTiledInputFile.obj
 0002:00004438       ??_R2TileBufferTask@?A0xf349abed@Imf@@8 10063438     ImfTiledInputFile.obj
 0002:00004444       ??_R1A@?0A@EA@TileBufferTask@?A0xf349abed@Imf@@8 10063444     ImfTiledInputFile.obj
 0002:00004460       ??_R4TiledInputFile@Imf@@6B@ 10063460     ImfTiledInputFile.obj
 0002:00004474       ??_R3TiledInputFile@Imf@@8 10063474     ImfTiledInputFile.obj
 0002:00004484       ??_R2TiledInputFile@Imf@@8 10063484     ImfTiledInputFile.obj
